GCC_except_table0
GCC_except_table0
GCC_except_table1
GCC_except_table12
GCC_except_table122
GCC_except_table14
GCC_except_table146
GCC_except_table17
GCC_except_table172
GCC_except_table18
GCC_except_table180
GCC_except_table2
GCC_except_table20
GCC_except_table22
GCC_except_table224
GCC_except_table233
GCC_except_table236
GCC_except_table238
GCC_except_table239
GCC_except_table25
GCC_except_table274
GCC_except_table279
GCC_except_table280
GCC_except_table281
GCC_except_table283
GCC_except_table284
GCC_except_table285
GCC_except_table286
GCC_except_table287
GCC_except_table288
GCC_except_table289
GCC_except_table290
GCC_except_table291
GCC_except_table292
GCC_except_table31
GCC_except_table31
GCC_except_table33
GCC_except_table33
GCC_except_table34
GCC_except_table342
GCC_except_table345
GCC_except_table35
GCC_except_table35
GCC_except_table36
GCC_except_table37
GCC_except_table38
GCC_except_table40
GCC_except_table40
GCC_except_table43
GCC_except_table5
GCC_except_table51
GCC_except_table54
GCC_except_table7
GCC_except_table8
GCC_except_table82
GCC_except_table87
_.memset_pattern
_.memset_pattern6
_CreateInterface
_Error
_GetCPUInformation
_GetMatchesSpec1
_LzmaDec_Allocate
_LzmaDec_AllocateProbs
_LzmaDec_DecodeToBuf
_LzmaDec_DecodeToDic
_LzmaDec_Free
_LzmaDec_Init
_LzmaDecode
_LzmaEncProps_Init
_LzmaEncProps_Normalize
_LzmaEnc_Create
_LzmaEnc_Destroy
_LzmaEnc_Encode
_LzmaEnc_SetProps
_LzmaEnc_WriteProperties
_MatchFinder_Construct
_MatchFinder_Create
_MatchFinder_CreateVTable
_MatchFinder_Free
_MatchFinder_GetPointerToCurrentPos
_MatchFinder_Init
_Msg
_SinCosTable
_ThreadInMainThread
_Warning
__DefaultRuneLocale
__GLOBAL__sub_I_KeyValues.stdout.rel_tf_osx_builder.55432.qZWQhg.ii
__GLOBAL__sub_I_bsplib.stdout.rel_tf_osx_builder.58746.n20E2z.ii
__GLOBAL__sub_I_bsppack.stdout.rel_tf_osx_builder.58780.YLhakC.ii
__GLOBAL__sub_I_cmdlib.stdout.rel_tf_osx_builder.58747.BA0oSU.ii
__GLOBAL__sub_I_convar.stdout.rel_tf_osx_builder.55430.mXKsKU.ii
__GLOBAL__sub_I_lzmaDecode.stdout.rel_tf_osx_builder.55433.LctBPo.ii
__GLOBAL__sub_I_scriplib.stdout.rel_tf_osx_builder.58749.YDAAeB.ii
__GLOBAL__sub_I_sse.stdout.rel_tf_osx_builder.9376.gxVesc.ii
__GLOBAL__sub_I_utlbuffer.stdout.rel_tf_osx_builder.8986.vt30zT.ii
__GLOBAL__sub_I_utlsymbol.stdout.rel_tf_osx_builder.55484.zcRfnN.ii
__GLOBAL__sub_I_zip_utils.stdout.rel_tf_osx_builder.58745.gPC8Yk.ii
__Unwind_Resume
__Z10CRC32_InitPj
__Z10GetPakFilev
__Z10LzmaEncodePKhmPhmPm
__Z10SetHDRModeb
__Z10V_FileBasePKcPci
__Z10V_snprintfPciPKcz
__Z10V_strlowerPc
__Z10V_strnicmpPKcS0_i
__Z11AlignBufferR10CUtlBufferi
__Z11CRC32_FinalPj
__Z11LoadBSPFilePKc
__Z11OpenBSPFilePKc
__Z11SwapBSPFilePKcS0_bPFbS0_R10CUtlBufferS2_PFbS2_S2_EEPFbS0_S0_S2_S2_ES4_
__Z11V_vsnprintfPciPKcS_
__Z12AddFileToPakP4IZipPKcS2_NS_16eCompressionTypeE
__Z12ClearPakFileP4IZip
__Z12LzmaEnc_InitP8CLzmaEnc
__Z12MathLib_Initfffibbbb
__Z12SafeOpenReadPKc
__Z12V_FixSlashesPcc
__Z12WriteBSPFilePKcPc
__Z12_InvRSquaredPKf
__Z13LZMA_CompressPhjPj
__Z13SafeOpenWritePKc
__Z13UnloadBSPFilev
__Z14AddBufferToPakP4IZipPKcPvibNS_16eCompressionTypeE
__Z14GetPakFileLumpPKcPPvPi
__Z14SetPakFileLumpPKcS0_Pvi
__Z14SwapLumpToDiskI10doverlay_tEii
__Z14SwapLumpToDiskI10dtexdata_tEii
__Z14SwapLumpToDiskI11ddispinfo_tEii
__Z14SwapLumpToDiskI11dprimvert_tEii
__Z14SwapLumpToDiskI12dbrushside_tEii
__Z14SwapLumpToDiskI12dflagslump_tEii
__Z14SwapLumpToDiskI12dprimitive_tEii
__Z14SwapLumpToDiskI13dareaportal_tEii
__Z14SwapLumpToDiskI13dworldlight_tEii
__Z14SwapLumpToDiskI14doverlayfade_tEii
__Z14SwapLumpToDiskI15dwateroverlay_tEii
__Z14SwapLumpToDiskI16dcubemapsample_tEii
__Z14SwapLumpToDiskI16dleafwaterdata_tEii
__Z14SwapLumpToDiskI19dleafambientindex_tEii
__Z14SwapLumpToDiskI21CFaceMacroTextureInfoEii
__Z14SwapLumpToDiskI22dleafambientlighting_tEii
__Z14SwapLumpToDiskI7darea_tEii
__Z14SwapLumpToDiskI7dedge_tEii
__Z14SwapLumpToDiskI7dface_tEii
__Z14SwapLumpToDiskI7dnode_tEii
__Z14SwapLumpToDiskI8CDispTriEii
__Z14SwapLumpToDiskI8dbrush_tEii
__Z14SwapLumpToDiskI8dmodel_tEii
__Z14SwapLumpToDiskI8dplane_tEii
__Z14SwapLumpToDiskI9CDispVertEii
__Z14SwapLumpToDiskI9dvertex_tEii
__Z14SwapLumpToDiskI9texinfo_sEii
__Z14SwapLumpToDiskIcEiii
__Z14SwapLumpToDiskIfEiii
__Z14SwapLumpToDiskIhEiii
__Z14SwapLumpToDiskIiEiii
__Z14SwapLumpToDiskIsEiii
__Z14SwapLumpToDiskItEiii
__Z14Sys_GetFactoryP10CSysModule
__Z14V_SetExtensionPcPKci
__Z14_SSE_RSqrtFastf
__Z15BuildGammaTablefffi
__Z16CompressGameLumpP9dheader_tS0_R10CUtlBufferPFbS2_S2_E
__Z16CopyLumpInternalI10doverlay_tEiiPT_i
__Z16CopyLumpInternalI10dtexdata_tEiiPT_i
__Z16CopyLumpInternalI11ddispinfo_tEiiPT_i
__Z16CopyLumpInternalI11dprimvert_tEiiPT_i
__Z16CopyLumpInternalI12dbrushside_tEiiPT_i
__Z16CopyLumpInternalI12dflagslump_tEiiPT_i
__Z16CopyLumpInternalI12dprimitive_tEiiPT_i
__Z16CopyLumpInternalI13dareaportal_tEiiPT_i
__Z16CopyLumpInternalI13dworldlight_tEiiPT_i
__Z16CopyLumpInternalI14doverlayfade_tEiiPT_i
__Z16CopyLumpInternalI15dwateroverlay_tEiiPT_i
__Z16CopyLumpInternalI16dcubemapsample_tEiiPT_i
__Z16CopyLumpInternalI16dleafwaterdata_tEiiPT_i
__Z16CopyLumpInternalI19dleafambientindex_tEiiPT_i
__Z16CopyLumpInternalI21CFaceMacroTextureInfoEiiPT_i
__Z16CopyLumpInternalI22dleafambientlighting_tEiiPT_i
__Z16CopyLumpInternalI7darea_tEiiPT_i
__Z16CopyLumpInternalI7dedge_tEiiPT_i
__Z16CopyLumpInternalI7dface_tEiiPT_i
__Z16CopyLumpInternalI7dnode_tEiiPT_i
__Z16CopyLumpInternalI8CDispTriEiiPT_i
__Z16CopyLumpInternalI8dbrush_tEiiPT_i
__Z16CopyLumpInternalI8dmodel_tEiiPT_i
__Z16CopyLumpInternalI8dplane_tEiiPT_i
__Z16CopyLumpInternalI9CDispVertEiiPT_i
__Z16CopyLumpInternalI9dvertex_tEiiPT_i
__Z16CopyLumpInternalI9texinfo_sEiiPT_i
__Z16CopyLumpInternalIcEiiiPT_i
__Z16CopyLumpInternalIfEiiiPT_i
__Z16CopyLumpInternalIhEiiiPT_i
__Z16CopyLumpInternalIiEiiiPT_i
__Z16CopyLumpInternalIsEiiiPT_i
__Z16CopyLumpInternalItEiiiPT_i
__Z16GetBSPDependantsPKcP10CUtlVectorI10CUtlString10CUtlMemoryIS2_iEE
__Z16V_StripExtensionPKcPci
__Z16_SSE_InvRSquaredPKf
__Z16_VectorNormalizeR6Vector
__Z17LzmaEnc_ConstructP8CLzmaEnc
__Z17SortLumpsByOffsetPK12SortedLump_tS1_
__Z17V_ComposeFileNamePKcS0_Pci
__Z18CmdLib_HasBasePathPKcRi
__Z18LzmaEnc_InitPricesP8CLzmaEnc
__Z18SwapLeafLumpToDiskv
__Z18V_GetFileExtensionPKc
__Z18_SSE_RSqrtAccuratef
__Z19CRC32_ProcessBufferPjPKvi
__Z19SwapGameLumpsToDiskv
__Z20_VectorNormalizeFastR6Vector
__Z21SwapPakfileLumpToDiskPKc
__Z22ConvertPakFileContentsPKc
__Z22RepackBSPCallback_LZMAR10CUtlBufferS0_
__Z23CInStreamRam_StaticReadPvS_Pm
__Z23LoadLeafAmbientLightingi
__Z23SwapOcclusionLumpToDiskv
__Z24BuildStaticPropNameTablev
__Z24MatchFinder_GetIndexByteP13_CMatchFinderi
__Z24ResolveStaticPropToModelPKc
__Z24_SSE_VectorNormalizeFastR6Vector
__Z25COutStreamRam_StaticWritePvPKvm
__Z32MatchFinder_GetNumAvailableBytesP13_CMatchFinder
__Z33SwapLeafAmbientLightingLumpToDiskv
__Z6DevMsgPKcz
__Z6SinCosfPfS_
__Z6V_atofPKc
__Z6_sqrtff
__Z7SwapVHVPvS_
__Z7_rsqrtff
__Z8LoadFilePKcPPv
__Z9LoadLeafsv
__Z9RepackBSPR10CUtlBufferS0_PFbS0_S0_EN4IZip16eCompressionTypeE
__Z9SafeWritePvS_i
__Z9V_stricmpPKcS0_
__Z9V_stristrPKcS0_
__Z9V_stristrPcPKc
__Z9V_strncatPcPKcmi
__Z9V_strncpyPcPKci
__Z9_SSE_Sqrtf
__ZGVZ11DataMapInitI10doverlay_tEP9datamap_tPT_E10nameHolder
__ZGVZ11DataMapInitI10dtexdata_tEP9datamap_tPT_E10nameHolder
__ZGVZ11DataMapInitI11ddispinfo_tEP9datamap_tPT_E10nameHolder
__ZGVZ11DataMapInitI11dgamelump_tEP9datamap_tPT_E10nameHolder
__ZGVZ11DataMapInitI11dphysdisp_tEP9datamap_tPT_E10nameHolder
__ZGVZ11DataMapInitI11dprimvert_tEP9datamap_tPT_E10nameHolder
__ZGVZ11DataMapInitI12dbrushside_tEP9datamap_tPT_E10nameHolder
__ZGVZ11DataMapInitI12dflagslump_tEP9datamap_tPT_E10nameHolder
__ZGVZ11DataMapInitI12dphysmodel_tEP9datamap_tPT_E10nameHolder
__ZGVZ11DataMapInitI12dprimitive_tEP9datamap_tPT_E10nameHolder
__ZGVZ11DataMapInitI13CDispNeighborEP9datamap_tPT_E10nameHolder
__ZGVZ11DataMapInitI13dareaportal_tEP9datamap_tPT_E10nameHolder
__ZGVZ11DataMapInitI13dworldlight_tEP9datamap_tPT_E10nameHolder
__ZGVZ11DataMapInitI14ZIP_FileHeaderEP9datamap_tPT_E10nameHolder
__ZGVZ11DataMapInitI14doverlayfade_tEP9datamap_tPT_E10nameHolder
__ZGVZ11DataMapInitI15doccluderdata_tEP9datamap_tPT_E10nameHolder
__ZGVZ11DataMapInitI15dwateroverlay_tEP9datamap_tPT_E10nameHolder
__ZGVZ11DataMapInitI16CDispSubNeighborEP9datamap_tPT_E10nameHolder
__ZGVZ11DataMapInitI16StaticPropLump_tEP9datamap_tPT_E10nameHolder
__ZGVZ11DataMapInitI16dcubemapsample_tEP9datamap_tPT_E10nameHolder
__ZGVZ11DataMapInitI16dleafwaterdata_tEP9datamap_tPT_E10nameHolder
__ZGVZ11DataMapInitI17ZIP_PreloadHeaderEP9datamap_tPT_E10nameHolder
__ZGVZ11DataMapInitI17dgamelumpheader_tEP9datamap_tPT_E10nameHolder
__ZGVZ11DataMapInitI17dleaf_version_0_tEP9datamap_tPT_E10nameHolder
__ZGVZ11DataMapInitI18DetailObjectLump_tEP9datamap_tPT_E10nameHolder
__ZGVZ11DataMapInitI18StaticPropLumpV4_tEP9datamap_tPT_E10nameHolder
__ZGVZ11DataMapInitI18StaticPropLumpV5_tEP9datamap_tPT_E10nameHolder
__ZGVZ11DataMapInitI19CompressedLightCubeEP9datamap_tPT_E10nameHolder
__ZGVZ11DataMapInitI19ZIP_LocalFileHeaderEP9datamap_tPT_E10nameHolder
__ZGVZ11DataMapInitI19dleafambientindex_tEP9datamap_tPT_E10nameHolder
__ZGVZ11DataMapInitI19doccluderpolydata_tEP9datamap_tPT_E10nameHolder
__ZGVZ11DataMapInitI19swapcollideheader_tEP9datamap_tPT_E10nameHolder
__ZGVZ11DataMapInitI20CDispCornerNeighborsEP9datamap_tPT_E10nameHolder
__ZGVZ11DataMapInitI20StaticPropDictLump_tEP9datamap_tPT_E10nameHolder
__ZGVZ11DataMapInitI20StaticPropLeafLump_tEP9datamap_tPT_E10nameHolder
__ZGVZ11DataMapInitI21CFaceMacroTextureInfoEP9datamap_tPT_E10nameHolder
__ZGVZ11DataMapInitI22DetailObjectDictLump_tEP9datamap_tPT_E10nameHolder
__ZGVZ11DataMapInitI22DetailSpriteDictLump_tEP9datamap_tPT_E10nameHolder
__ZGVZ11DataMapInitI22dleafambientlighting_tEP9datamap_tPT_E10nameHolder
__ZGVZ11DataMapInitI23swapmoppsurfaceheader_tEP9datamap_tPT_E10nameHolder
__ZGVZ11DataMapInitI25ZIP_EndOfCentralDirRecordEP9datamap_tPT_E10nameHolder
__ZGVZ11DataMapInitI25ZIP_PreloadDirectoryEntryEP9datamap_tPT_E10nameHolder
__ZGVZ11DataMapInitI26swapcompactsurfaceheader_tEP9datamap_tPT_E10nameHolder
__ZGVZ11DataMapInitI27DetailPropLightstylesLump_tEP9datamap_tPT_E10nameHolder
__ZGVZ11DataMapInitI6lump_tEP9datamap_tPT_E10nameHolder
__ZGVZ11DataMapInitI7darea_tEP9datamap_tPT_E10nameHolder
__ZGVZ11DataMapInitI7dedge_tEP9datamap_tPT_E10nameHolder
__ZGVZ11DataMapInitI7dface_tEP9datamap_tPT_E10nameHolder
__ZGVZ11DataMapInitI7dleaf_tEP9datamap_tPT_E10nameHolder
__ZGVZ11DataMapInitI7dnode_tEP9datamap_tPT_E10nameHolder
__ZGVZ11DataMapInitI8CDispTriEP9datamap_tPT_E10nameHolder
__ZGVZ11DataMapInitI8dbrush_tEP9datamap_tPT_E10nameHolder
__ZGVZ11DataMapInitI8dmodel_tEP9datamap_tPT_E10nameHolder
__ZGVZ11DataMapInitI8dplane_tEP9datamap_tPT_E10nameHolder
__ZGVZ11DataMapInitI9CDispVertEP9datamap_tPT_E10nameHolder
__ZGVZ11DataMapInitI9dfaceid_tEP9datamap_tPT_E10nameHolder
__ZGVZ11DataMapInitI9dheader_tEP9datamap_tPT_E10nameHolder
__ZGVZ11DataMapInitI9dvertex_tEP9datamap_tPT_E10nameHolder
__ZGVZ11DataMapInitI9texinfo_sEP9datamap_tPT_E10nameHolder
__ZGVZN13HardwareVerts11DataMapInitINS_12FileHeader_tEEEP9datamap_tPT_E10nameHolder
__ZGVZN13HardwareVerts11DataMapInitINS_12MeshHeader_tEEEP9datamap_tPT_E10nameHolder
__ZL10g_ZipUtils
__ZL11pulCRCTable
__ZL11s_LumpNames
__ZL11vec2_origin
__ZL11vec2_origin
__ZL11vec2_origin
__ZL11vec2_origin
__ZL11vec2_origin
__ZL11vec2_origin
__ZL11vec2_origin
__ZL11vec2_origin
__ZL11vec2_origin
__ZL11vec2_origin
__ZL11vec2_origin
__ZL11vec4_origin
__ZL12AddGameLumpsv
__ZL12g_pBasePaths
__ZL12vec2_invalid
__ZL12vec2_invalid
__ZL12vec2_invalid
__ZL12vec2_invalid
__ZL12vec2_invalid
__ZL12vec2_invalid
__ZL12vec2_invalid
__ZL12vec2_invalid
__ZL12vec2_invalid
__ZL12vec2_invalid
__ZL12vec2_invalid
__ZL12vec4_invalid
__ZL13g_bSwapOnLoad
__ZL13s_EmptyConVar
__ZL13s_bMMXEnabled
__ZL13s_bSSEEnabled
__ZL14LenEnc_Encode2P12CLenPriceEncP9CRangeEncjjiPj
__ZL14g_NumBasePaths
__ZL14g_bSwapOnWrite
__ZL14kRepNextStates
__ZL14lineartoscreen
__ZL14s_bSSE2Enabled
__ZL15AddLumpInternaliPvii
__ZL15FillAlignPricesP8CLzmaEnc
__ZL15SkipMatchesSpecjjjPKhPjjjj
__ZL15lineartotexture
__ZL15texturetolinear
__ZL16AddOcclusionLumpv
__ZL16LzmaDec_TryDummyPK8CLzmaDecPKhm
__ZL16WritePakFileLumpv
__ZL16g_pStaticLZMABuf
__ZL16kMatchNextStates
__ZL16s_nDLLIdentifier
__ZL17LoadOcclusionLumpv
__ZL17LumpOffsetComparePKvS0_
__ZL18kLiteralNextStates
__ZL19FillDistancesPricesP8CLzmaEnc
__ZL19LzmaDec_DecodeReal2P8CLzmaDecmPKh
__ZL19SwapPhyscollideLumpPhS_Rj
__ZL19kShortRepNextStates
__ZL20Bt2_MatchFinder_SkipP13_CMatchFinderj
__ZL20Bt3_MatchFinder_SkipP13_CMatchFinderj
__ZL20Bt4_MatchFinder_SkipP13_CMatchFinderj
__ZL20Hc4_MatchFinder_SkipP13_CMatchFinderj
__ZL20LzmaEnc_AllocAndInitP8CLzmaEncjP8ISzAllocS2_
__ZL20LzmaEnc_CodeOneBlockP8CLzmaEncijj
__ZL20g_CleanupSymbolTable
__ZL20g_unStaticLZMABufRef
__ZL21MatchFinder_ReadBlockP13_CMatchFinder
__ZL21g_unStaticLZMABufSize
__ZL22__g_CBSPPack_singleton
__ZL23LenPriceEnc_UpdateTableP12CLenPriceEncjPj
__ZL23MatchFinder_CheckLimitsP13_CMatchFinder
__ZL23g_Mathlib_GammaToLinear
__ZL23g_Mathlib_LinearToGamma
__ZL26Bt2_MatchFinder_GetMatchesP13_CMatchFinderPj
__ZL26Bt3_MatchFinder_GetMatchesP13_CMatchFinderPj
__ZL26Bt4_MatchFinder_GetMatchesP13_CMatchFinderPj
__ZL26Hc4_MatchFinder_GetMatchesP13_CMatchFinderPj
__ZL2f3
__ZL30__g_CreateCBSPPackIBSPPack_reg
__ZL34__CreateCBSPPackIBSPPack_interfacev
__ZL35s_pConversionArrays_NoEscConversion
__ZL3f05
__ZL40s_pConversionArrays_StringCharConversion
__ZL5FlushP8CLzmaEncj
__ZL6SzFreePvS_
__ZL6SzFreePvS_
__ZL7SzAllocPvm
__ZL7SzAllocPvm
__ZL7g_Alloc
__ZL7g_Alloc
__ZL9g_KVMutex
__ZL9s_pakFile
__ZN10CUtlBuffer11GetOverflowEi
__ZN10CUtlBuffer11PutOverflowEi
__ZN10CUtlBuffer13EatWhiteSpaceEv
__ZN10CUtlBuffer13SetBufferTypeEbb
__ZN10CUtlBuffer14EnsureCapacityEi
__ZN10CUtlBuffer14PeekWhiteSpaceEi
__ZN10CUtlBuffer16PeekStringLengthEv
__ZN10CUtlBuffer17GetStringInternalEPcm
__ZN10CUtlBuffer17SetExternalBufferEPviii
__ZN10CUtlBuffer18AddNullTerminationEv
__ZN10CUtlBuffer20ActivateByteSwappingEb
__ZN10CUtlBuffer21CheckArbitraryPeekGetEiRi
__ZN10CUtlBuffer3GetEPvi
__ZN10CUtlBuffer3PutEPKvi
__ZN10CUtlBuffer5ScanfEPKcz
__ZN10CUtlBuffer6PrintfEPKcz
__ZN10CUtlBuffer7SeekGetENS_10SeekType_tEi
__ZN10CUtlBuffer7SeekPutENS_10SeekType_tEi
__ZN10CUtlBuffer7VaScanfEPKcPc
__ZN10CUtlBuffer8CheckGetEi
__ZN10CUtlBuffer8CheckPutEi
__ZN10CUtlBuffer9PutStringEPKc
__ZN10CUtlBufferC1EPKvii
__ZN10CUtlBufferC1Eiii
__ZN10CUtlBufferC2EPKvii
__ZN10CUtlBufferC2Eiii
__ZN10CUtlMemoryI15UtlRBTreeNode_tIN15CUtlSymbolTable16CStringPoolIndexEtEtE4GrowEi
__ZN10CUtlMemoryI19UtlLinkedListElem_tI10GameLump_ttEtE4GrowEi
__ZN10CUtlMemoryI19UtlLinkedListElem_tIP4CZiptEtE4GrowEi
__ZN10CUtlRBTreeIN15CUtlSymbolTable16CStringPoolIndexEtNS0_5CLessE10CUtlMemoryI15UtlRBTreeNode_tIS1_tEtEE10RotateLeftEt
__ZN10CUtlRBTreeIN15CUtlSymbolTable16CStringPoolIndexEtNS0_5CLessE10CUtlMemoryI15UtlRBTreeNode_tIS1_tEtEE11RotateRightEt
__ZN10CUtlRBTreeIN15CUtlSymbolTable16CStringPoolIndexEtNS0_5CLessE10CUtlMemoryI15UtlRBTreeNode_tIS1_tEtEE15InsertRebalanceEt
__ZN10CUtlRBTreeIN15CUtlSymbolTable16CStringPoolIndexEtNS0_5CLessE10CUtlMemoryI15UtlRBTreeNode_tIS1_tEtEE5PurgeEv
__ZN10CUtlRBTreeIN15CUtlSymbolTable16CStringPoolIndexEtNS0_5CLessE10CUtlMemoryI15UtlRBTreeNode_tIS1_tEtEE6InsertERKS1_
__ZN10CUtlRBTreeIN15CUtlSymbolTable16CStringPoolIndexEtNS0_5CLessE10CUtlMemoryI15UtlRBTreeNode_tIS1_tEtEE7NewNodeEv
__ZN10CUtlRBTreeIN15CUtlSymbolTable16CStringPoolIndexEtNS0_5CLessE10CUtlMemoryI15UtlRBTreeNode_tIS1_tEtEED2Ev
__ZN10CUtlRBTreeIN8CZipFile9CZipEntryEiPFbRKS1_S3_E10CUtlMemoryI15UtlRBTreeNode_tIS1_iEiEE15InsertRebalanceEi
__ZN10CUtlRBTreeIN8CZipFile9CZipEntryEiPFbRKS1_S3_E10CUtlMemoryI15UtlRBTreeNode_tIS1_iEiEE15RemoveRebalanceEi
__ZN10CUtlRBTreeIN8CZipFile9CZipEntryEiPFbRKS1_S3_E10CUtlMemoryI15UtlRBTreeNode_tIS1_iEiEE6InsertES3_
__ZN10CUtlRBTreeIN8CZipFile9CZipEntryEiPFbRKS1_S3_E10CUtlMemoryI15UtlRBTreeNode_tIS1_iEiEE6UnlinkEi
__ZN10CUtlRBTreeIN8CZipFile9CZipEntryEiPFbRKS1_S3_E10CUtlMemoryI15UtlRBTreeNode_tIS1_iEiEE7NewNodeEv
__ZN10CUtlRBTreeIN8CZipFile9CZipEntryEiPFbRKS1_S3_E10CUtlMemoryI15UtlRBTreeNode_tIS1_iEiEE9RemoveAllEv
__ZN10CUtlRBTreeIN8CZipFile9CZipEntryEiPFbRKS1_S3_E10CUtlMemoryI15UtlRBTreeNode_tIS1_iEiEED2Ev
__ZN10CUtlString3SetEPKc
__ZN10CUtlString5PurgeEv
__ZN10CUtlStringD1Ev
__ZN10CUtlStringaSEPKc
__ZN10CUtlSymbol10InitializeEv
__ZN10CUtlSymbol14s_pSymbolTableE
__ZN10CUtlSymbolC1EPKc
__ZN10CUtlVectorI10CUtlString10CUtlMemoryIS0_iEE12InsertBeforeEiRKS0_
__ZN10CUtlVectorI10CUtlString10CUtlMemoryIS0_iEED1Ev
__ZN10CUtlVectorI10CUtlString10CUtlMemoryIS0_iEED2Ev
__ZN10CUtlVectorI10variable_t10CUtlMemoryIS0_iEED1Ev
__ZN10CUtlVectorI10variable_t10CUtlMemoryIS0_iEED2Ev
__ZN10CUtlVectorI11ddispinfo_t10CUtlMemoryIS0_iEE20InsertMultipleBeforeEii
__ZN10CUtlVectorI11ddispinfo_t10CUtlMemoryIS0_iEED1Ev
__ZN10CUtlVectorI11ddispinfo_t10CUtlMemoryIS0_iEED2Ev
__ZN10CUtlVectorI12SortedLump_t10CUtlMemoryIS0_iEED2Ev
__ZN10CUtlVectorI13clusterlist_t10CUtlMemoryIS0_iEED1Ev
__ZN10CUtlVectorI13clusterlist_t10CUtlMemoryIS0_iEED2Ev
__ZN10CUtlVectorI15doccluderdata_t10CUtlMemoryIS0_iEE20InsertMultipleBeforeEii
__ZN10CUtlVectorI15doccluderdata_t10CUtlMemoryIS0_iEED1Ev
__ZN10CUtlVectorI15doccluderdata_t10CUtlMemoryIS0_iEED2Ev
__ZN10CUtlVectorI19dleafambientindex_t10CUtlMemoryIS0_iEE20InsertMultipleBeforeEii
__ZN10CUtlVectorI19dleafambientindex_t10CUtlMemoryIS0_iEED1Ev
__ZN10CUtlVectorI19dleafambientindex_t10CUtlMemoryIS0_iEED2Ev
__ZN10CUtlVectorI19doccluderpolydata_t10CUtlMemoryIS0_iEE20InsertMultipleBeforeEii
__ZN10CUtlVectorI19doccluderpolydata_t10CUtlMemoryIS0_iEED1Ev
__ZN10CUtlVectorI19doccluderpolydata_t10CUtlMemoryIS0_iEED2Ev
__ZN10CUtlVectorI21CFaceMacroTextureInfo10CUtlMemoryIS0_iEE20InsertMultipleBeforeEii
__ZN10CUtlVectorI21CFaceMacroTextureInfo10CUtlMemoryIS0_iEED1Ev
__ZN10CUtlVectorI21CFaceMacroTextureInfo10CUtlMemoryIS0_iEED2Ev
__ZN10CUtlVectorI22dleafambientlighting_t10CUtlMemoryIS0_iEE20InsertMultipleBeforeEii
__ZN10CUtlVectorI22dleafambientlighting_t10CUtlMemoryIS0_iEED1Ev
__ZN10CUtlVectorI22dleafambientlighting_t10CUtlMemoryIS0_iEED2Ev
__ZN10CUtlVectorI8CDispTri10CUtlMemoryIS0_iEE20InsertMultipleBeforeEii
__ZN10CUtlVectorI8CDispTri10CUtlMemoryIS0_iEED1Ev
__ZN10CUtlVectorI8CDispTri10CUtlMemoryIS0_iEED2Ev
__ZN10CUtlVectorI9CDispVert10CUtlMemoryIS0_iEE20InsertMultipleBeforeEii
__ZN10CUtlVectorI9CDispVert10CUtlMemoryIS0_iEED1Ev
__ZN10CUtlVectorI9CDispVert10CUtlMemoryIS0_iEED2Ev
__ZN10CUtlVectorI9dfaceid_t10CUtlMemoryIS0_iEE20InsertMultipleBeforeEii
__ZN10CUtlVectorI9dfaceid_t10CUtlMemoryIS0_iEED1Ev
__ZN10CUtlVectorI9dfaceid_t10CUtlMemoryIS0_iEED2Ev
__ZN10CUtlVectorI9texinfo_s10CUtlMemoryIS0_iEE20InsertMultipleBeforeEii
__ZN10CUtlVectorI9texinfo_s10CUtlMemoryIS0_iEED1Ev
__ZN10CUtlVectorI9texinfo_s10CUtlMemoryIS0_iEED2Ev
__ZN10CUtlVectorIPN15CUtlSymbolTable12StringPool_tE10CUtlMemoryIS2_iEED2Ev
__ZN10CUtlVectorIPc10CUtlMemoryIS0_iEED2Ev
__ZN10CUtlVectorIc10CUtlMemoryIciEE10GrowVectorEi
__ZN10CUtlVectorIc10CUtlMemoryIciEED1Ev
__ZN10CUtlVectorIc10CUtlMemoryIciEED2Ev
__ZN10CUtlVectorIh10CUtlMemoryIhiEE20InsertMultipleBeforeEii
__ZN10CUtlVectorIh10CUtlMemoryIhiEED1Ev
__ZN10CUtlVectorIh10CUtlMemoryIhiEED2Ev
__ZN10CUtlVectorIi10CUtlMemoryIiiEE10GrowVectorEi
__ZN10CUtlVectorIi10CUtlMemoryIiiEED1Ev
__ZN10CUtlVectorIi10CUtlMemoryIiiEED2Ev
__ZN10CWin32File14CreateTempFileER10CUtlStringS1_
__ZN10doverlay_t9m_DataMapE
__ZN10dtexdata_t9m_DataMapE
__ZN11CFileStream3PutEPKvi
__ZN11CFileStream4TellEv
__ZN11CLZMAStream13InitZIPHeaderEjj
__ZN11CLZMAStream14TryParseHeaderEPhjRj
__ZN11CLZMAStream18CreateDecoderStateEPKh
__ZN11CLZMAStream4ReadEPhjS0_jRjS1_
__ZN11CLZMAStreamC1Ev
__ZN11CLZMAStreamD1Ev
__ZN11ddispinfo_t9m_DataMapE
__ZN11dgamelump_t9m_DataMapE
__ZN11dphysdisp_t9m_DataMapE
__ZN11dprimvert_t9m_DataMapE
__ZN12CEmptyConVar8SetValueEPKc
__ZN12CEmptyConVar8SetValueEf
__ZN12CEmptyConVar8SetValueEi
__ZN12CEmptyConVarD0Ev
__ZN12CEmptyConVarD1Ev
__ZN12CThreadEvent3SetEv
__ZN12CThreadEventC1Eb
__ZN12InterfaceReg16s_pInterfaceRegsE
__ZN12InterfaceRegC1EPFPvvEPKc
__ZN12dbrushside_t9m_DataMapE
__ZN12dflagslump_t9m_DataMapE
__ZN12dphysmodel_t9m_DataMapE
__ZN12dprimitive_t9m_DataMapE
__ZN13CBufferStream3PutEPKvi
__ZN13CBufferStream4TellEv
__ZN13CDispNeighbor9m_DataMapE
__ZN13CThreadRWLock11UnlockWriteEv
__ZN13CThreadRWLock11WaitForReadEv
__ZN13CThreadRWLock12LockForWriteEv
__ZN13HardwareVerts12FileHeader_t9m_DataMapE
__ZN13HardwareVerts12MeshHeader_t9m_DataMapE
__ZN13HardwareVerts25FileHeader_t_DataDescInit15g_DataMapHolderE
__ZN13HardwareVerts25MeshHeader_t_DataDescInit15g_DataMapHolderE
__ZN13dareaportal_t9m_DataMapE
__ZN13dworldlight_t9m_DataMapE
__ZN14CUtlLinkedListI10GameLump_ttLb0Et10CUtlMemoryI19UtlLinkedListElem_tIS0_tEtEE10LinkBeforeEtt
__ZN14CUtlLinkedListI10GameLump_ttLb0Et10CUtlMemoryI19UtlLinkedListElem_tIS0_tEtEE13AllocInternalEb
__ZN14CUtlLinkedListI10GameLump_ttLb0Et10CUtlMemoryI19UtlLinkedListElem_tIS0_tEtEE9RemoveAllEv
__ZN14CUtlLinkedListIP4CZiptLb0Et10CUtlMemoryI19UtlLinkedListElem_tIS1_tEtEE10LinkBeforeEtt
__ZN14CUtlLinkedListIP4CZiptLb0Et10CUtlMemoryI19UtlLinkedListElem_tIS1_tEtEE13AllocInternalEb
__ZN14CUtlLinkedListIP4CZiptLb0Et10CUtlMemoryI19UtlLinkedListElem_tIS1_tEtEED1Ev
__ZN14CUtlLinkedListIP4CZiptLb0Et10CUtlMemoryI19UtlLinkedListElem_tIS1_tEtEED2Ev
__ZN14CUtlLinkedListIPFvPKcEtLb0Et10CUtlMemoryI19UtlLinkedListElem_tIS3_tEtEED1Ev
__ZN14CUtlLinkedListIPFvPKcEtLb0Et10CUtlMemoryI19UtlLinkedListElem_tIS3_tEtEED2Ev
__ZN14CUtlLinkedListIPFvvEtLb0Et10CUtlMemoryI19UtlLinkedListElem_tIS1_tEtEED1Ev
__ZN14CUtlLinkedListIPFvvEtLb0Et10CUtlMemoryI19UtlLinkedListElem_tIS1_tEtEED2Ev
__ZN14ConCommandBase10CreateBaseEPKcS1_i
__ZN14ConCommandBase11s_pAccessorE
__ZN14ConCommandBase18s_pConCommandBasesE
__ZN14ZIP_FileHeader9m_DataMapE
__ZN14doverlayfade_t9m_DataMapE
__ZN15CUtlSymbolTable9AddStringEPKc
__ZN15CUtlSymbolTableD2Ev
__ZN15doccluderdata_t9m_DataMapE
__ZN15dwateroverlay_t9m_DataMapE
__ZN16CDispSubNeighbor9m_DataMapE
__ZN16StaticPropLump_t9m_DataMapE
__ZN16dcubemapsample_t9m_DataMapE
__ZN16dleafwaterdata_t9m_DataMapE
__ZN17CThreadSyncObjectD2Ev
__ZN17ZIP_PreloadHeader9m_DataMapE
__ZN17dgamelumpheader_t9m_DataMapE
__ZN17dleaf_version_0_t9m_DataMapE
__ZN18CUtlCharConversion14FindConversionEPKcPi
__ZN18DetailObjectLump_t9m_DataMapE
__ZN18StaticPropLumpV4_t9m_DataMapE
__ZN18StaticPropLumpV5_t9m_DataMapE
__ZN19CUtlNoEscConversion14FindConversionEPKcPi
__ZN19CompressedLightCube9m_DataMapE
__ZN19ZIP_LocalFileHeader9m_DataMapE
__ZN19dleafambientindex_t9m_DataMapE
__ZN19doccluderpolydata_t9m_DataMapE
__ZN19lump_t_DataDescInit15g_DataMapHolderE
__ZN19swapcollideheader_t9m_DataMapE
__ZN20CDispCornerNeighbors9m_DataMapE
__ZN20StaticPropDictLump_t9m_DataMapE
__ZN20StaticPropLeafLump_t9m_DataMapE
__ZN20darea_t_DataDescInit15g_DataMapHolderE
__ZN20dedge_t_DataDescInit15g_DataMapHolderE
__ZN20dface_t_DataDescInit15g_DataMapHolderE
__ZN20dleaf_t_DataDescInit15g_DataMapHolderE
__ZN20dnode_t_DataDescInit15g_DataMapHolderE
__ZN21CDispTri_DataDescInit15g_DataMapHolderE
__ZN21CFaceMacroTextureInfo9m_DataMapE
__ZN21CUtlCStringConversion14FindConversionEPKcPi
__ZN21CUtlCStringConversionC2EcPKciPN18CUtlCharConversion17ConversionArray_tE
__ZN21dbrush_t_DataDescInit15g_DataMapHolderE
__ZN21dmodel_t_DataDescInit15g_DataMapHolderE
__ZN21dplane_t_DataDescInit15g_DataMapHolderE
__ZN22CCleanupUtlSymbolTableD1Ev
__ZN22CDispVert_DataDescInit15g_DataMapHolderE
__ZN22DetailObjectDictLump_t9m_DataMapE
__ZN22DetailSpriteDictLump_t9m_DataMapE
__ZN22dfaceid_t_DataDescInit15g_DataMapHolderE
__ZN22dheader_t_DataDescInit15g_DataMapHolderE
__ZN22dleafambientlighting_t9m_DataMapE
__ZN22dvertex_t_DataDescInit15g_DataMapHolderE
__ZN22texinfo_t_DataDescInit15g_DataMapHolderE
__ZN23doverlay_t_DataDescInit15g_DataMapHolderE
__ZN23dtexdata_t_DataDescInit15g_DataMapHolderE
__ZN23swapmoppsurfaceheader_t9m_DataMapE
__ZN24ddispinfo_t_DataDescInit15g_DataMapHolderE
__ZN24dgamelump_t_DataDescInit15g_DataMapHolderE
__ZN24dphysdisp_t_DataDescInit15g_DataMapHolderE
__ZN24dprimvert_t_DataDescInit15g_DataMapHolderE
__ZN25ZIP_EndOfCentralDirRecord9m_DataMapE
__ZN25ZIP_PreloadDirectoryEntry9m_DataMapE
__ZN25dbrushside_t_DataDescInit15g_DataMapHolderE
__ZN25dflagslump_t_DataDescInit15g_DataMapHolderE
__ZN25dphysmodel_t_DataDescInit15g_DataMapHolderE
__ZN25dprimitive_t_DataDescInit15g_DataMapHolderE
__ZN26CDispNeighbor_DataDescInit15g_DataMapHolderE
__ZN26dareaportal_t_DataDescInit15g_DataMapHolderE
__ZN26dworldlight_t_DataDescInit15g_DataMapHolderE
__ZN26swapcompactsurfaceheader_t9m_DataMapE
__ZN27DetailPropLightstylesLump_t9m_DataMapE
__ZN27ZIP_FileHeader_DataDescInit15g_DataMapHolderE
__ZN27doverlayfade_t_DataDescInit15g_DataMapHolderE
__ZN28CDatadescGeneratedNameHolderD1Ev
__ZN28doccluderdata_t_DataDescInit15g_DataMapHolderE
__ZN28dwateroverlay_t_DataDescInit15g_DataMapHolderE
__ZN29CDispSubNeighbor_DataDescInit15g_DataMapHolderE
__ZN29StaticPropLump_t_DataDescInit15g_DataMapHolderE
__ZN29dcubemapsample_t_DataDescInit15g_DataMapHolderE
__ZN29dleafwaterdata_t_DataDescInit15g_DataMapHolderE
__ZN30ZIP_PreloadHeader_DataDescInit15g_DataMapHolderE
__ZN30dgamelumpheader_t_DataDescInit15g_DataMapHolderE
__ZN30dleaf_version_0_t_DataDescInit15g_DataMapHolderE
__ZN31DetailObjectLump_t_DataDescInit15g_DataMapHolderE
__ZN31StaticPropLumpV4_t_DataDescInit15g_DataMapHolderE
__ZN31StaticPropLumpV5_t_DataDescInit15g_DataMapHolderE
__ZN32CompressedLightCube_DataDescInit15g_DataMapHolderE
__ZN32ZIP_LocalFileHeader_DataDescInit15g_DataMapHolderE
__ZN32dleafambientindex_t_DataDescInit15g_DataMapHolderE
__ZN32doccluderpolydata_t_DataDescInit15g_DataMapHolderE
__ZN32swapcollideheader_t_DataDescInit15g_DataMapHolderE
__ZN33CDispCornerNeighbors_DataDescInit15g_DataMapHolderE
__ZN33StaticPropDictLump_t_DataDescInit15g_DataMapHolderE
__ZN33StaticPropLeafLump_t_DataDescInit15g_DataMapHolderE
__ZN34CFaceMacroTextureInfo_DataDescInit15g_DataMapHolderE
__ZN35DetailObjectDictLump_t_DataDescInit15g_DataMapHolderE
__ZN35DetailSpriteDictLump_t_DataDescInit15g_DataMapHolderE
__ZN35dleafambientlighting_t_DataDescInit15g_DataMapHolderE
__ZN36swapmoppsurfaceheader_t_DataDescInit15g_DataMapHolderE
__ZN38ZIP_EndOfCentralDirRecord_DataDescInit15g_DataMapHolderE
__ZN38ZIP_PreloadDirectoryEntry_DataDescInit15g_DataMapHolderE
__ZN39swapcompactsurfaceheader_t_DataDescInit15g_DataMapHolderE
__ZN40DetailPropLightstylesLump_t_DataDescInit15g_DataMapHolderE
__ZN4CZip10SaveToDiskEP7__sFILE
__ZN4CZip10SaveToDiskEPv
__ZN4CZip12AddFileToZipEPKcS1_N4IZip16eCompressionTypeE
__ZN4CZip12EstimateSizeEv
__ZN4CZip12GetAlignmentEv
__ZN4CZip12SaveToBufferER10CUtlBuffer
__ZN4CZip12SetBigEndianEb
__ZN4CZip13ParseFromDiskEPKc
__ZN4CZip14AddBufferToZipEPKcPvibN4IZip16eCompressionTypeE
__ZN4CZip14ForceAlignmentEbbj
__ZN4CZip14PrintDirectoryEv
__ZN4CZip15FileExistsInZipEPKc
__ZN4CZip15GetNextFilenameEiPciRi
__ZN4CZip15ParseFromBufferEPvi
__ZN4CZip15ReadFileFromZipEPKcbR10CUtlBuffer
__ZN4CZip15ReadFileFromZipEPvPKcbR10CUtlBuffer
__ZN4CZip17RemoveFileFromZipEPKc
__ZN4CZip20ActivateByteSwappingEb
__ZN4CZip5ResetEv
__ZN4CZipC2EPKcb
__ZN4CZipD0Ev
__ZN4CZipD1Ev
__ZN4IZip10ReleaseZipEPS_
__ZN4IZip9CreateZipEPKcb
__ZN5CLZMA10UncompressEPhS0_
__ZN5CLZMA12IsCompressedEPh
__ZN5CLZMA13GetActualSizeEPh
__ZN6ConVar10ClampValueERf
__ZN6ConVar16InternalSetValueEPKc
__ZN6ConVar17ChangeStringValueEPKcf
__ZN6ConVar19InternalSetIntValueEi
__ZN6ConVar21InternalSetFloatValueEfb
__ZN6ConVar4InitEv
__ZN6ConVar6CreateEPKcS1_iS1_bfbfbfbfPFvP7IConVarS1_fE
__ZN6ConVar8AddFlagsEi
__ZN6ConVar8SetValueEPKc
__ZN6ConVar8SetValueEf
__ZN6ConVar8SetValueEi
__ZN6ConVarC1EPKcS1_iS1_
__ZN6ConVarD0Ev
__ZN6ConVarD1Ev
__ZN6lump_t9m_DataMapE
__ZN7darea_t9m_DataMapE
__ZN7dedge_t9m_DataMapE
__ZN7dface_t9m_DataMapE
__ZN7dleaf_t9m_DataMapE
__ZN7dnode_t9m_DataMapE
__ZN8CBSPPack10SetHDRModeEb
__ZN8CBSPPack11LoadBSPFileEP11IFileSystemPc
__ZN8CBSPPack11SwapBSPFileEP11IFileSystemPKcS3_bPFbS3_R10CUtlBufferS5_PFbS5_S5_EEPFbS3_S3_S5_S5_ES7_
__ZN8CBSPPack12WriteBSPFileEPc
__ZN8CBSPPack13AddFileToPackEPKcS1_
__ZN8CBSPPack13ClearPackFileEv
__ZN8CBSPPack14GetPakFileLumpEP11IFileSystemPKcPPvPi
__ZN8CBSPPack14SetPakFileLumpEP11IFileSystemPKcS3_Pvi
__ZN8CBSPPack15AddBufferToPackEPKcPvib
__ZN8CBSPPack16GetBSPDependantsEP11IFileSystemPKcP10CUtlVectorI10CUtlString10CUtlMemoryIS5_iEE
__ZN8CBSPPack9RepackBSPER10CUtlBufferS1_N8IBSPPack15eRepackBSPFlagsE
__ZN8CDispTri9m_DataMapE
__ZN8CZipFile12AddFileToZipEPKcS1_N4IZip16eCompressionTypeE
__ZN8CZipFile12SaveToBufferER10CUtlBuffer
__ZN8CZipFile13CalculateSizeEv
__ZN8CZipFile13ParseFromDiskEPKc
__ZN8CZipFile13SaveDirectoryER12IWriteStream
__ZN8CZipFile14AddBufferToZipEPKcPvibN4IZip16eCompressionTypeE
__ZN8CZipFile14PrintDirectoryEv
__ZN8CZipFile15FileExistsInZipEPKc
__ZN8CZipFile15GetNextFilenameEiPciRi
__ZN8CZipFile15ParseFromBufferEPvi
__ZN8CZipFile15ReadFileFromZipEPvPKcbR10CUtlBuffer
__ZN8CZipFile17RemoveFileFromZipEPKc
__ZN8CZipFile9CZipEntry15ZipFileLessFuncERKS0_S2_
__ZN8CZipFile9CZipEntry28ZipFileLessFunc_CaselessSortERKS0_S2_
__ZN8CZipFileC2EPKcb
__ZN8CZipFileD2Ev
__ZN8dbrush_t9m_DataMapE
__ZN8dmodel_t9m_DataMapE
__ZN8dplane_t9m_DataMapE
__ZN9CByteswap23SwapFieldToTargetEndianEPvS0_P17typedescription_t
__ZN9CByteswap24SwapFieldsToTargetEndianEPvS0_P9datamap_t
__ZN9CDispVert9m_DataMapE
__ZN9CGameLump12SwapGameLumpEiiPhS0_i
__ZN9CGameLump13ParseGameLumpEP9dheader_t
__ZN9CGameLump14CreateGameLumpEiiii
__ZN9CGameLumpD1Ev
__ZN9dfaceid_t9m_DataMapE
__ZN9dheader_t9m_DataMapE
__ZN9dvertex_t9m_DataMapE
__ZN9texinfo_s9m_DataMapE
__ZNK10CUtlString3GetEv
__ZNK10CUtlSymbol6StringEv
__ZNK12CEmptyConVar7GetNameEv
__ZNK12CEmptyConVar9IsFlagSetEi
__ZNK14ConCommandBase16GetDLLIdentifierEv
__ZNK15CUtlSymbolTable5CLessclERKNS_16CStringPoolIndexES3_
__ZNK17CUtlSymbolTableMT6StringE10CUtlSymbol
__ZNK6ConVar11GetHelpTextEv
__ZNK6ConVar12IsRegisteredEv
__ZNK6ConVar7GetNameEv
__ZNK6ConVar9IsCommandEv
__ZNK6ConVar9IsFlagSetEi
__ZSt9terminatev
__ZTI11CFileStream
__ZTI12CEmptyConVar
__ZTI12IWriteStream
__ZTI13CBufferStream
__ZTI14ConCommandBase
__ZTI18CUtlCharConversion
__ZTI19CUtlNoEscConversion
__ZTI21CUtlCStringConversion
__ZTI4CZip
__ZTI4IZip
__ZTI6ConVar
__ZTI7IConVar
__ZTI8CBSPPack
__ZTI8IBSPPack
__ZTISt9bad_alloc
__ZTS11CFileStream
__ZTS12CEmptyConVar
__ZTS12IWriteStream
__ZTS13CBufferStream
__ZTS14ConCommandBase
__ZTS18CUtlCharConversion
__ZTS19CUtlNoEscConversion
__ZTS21CUtlCStringConversion
__ZTS4CZip
__ZTS4IZip
__ZTS6ConVar
__ZTS7IConVar
__ZTS8CBSPPack
__ZTS8IBSPPack
__ZTV11CFileStream
__ZTV12CEmptyConVar
__ZTV13CBufferStream
__ZTV18CUtlCharConversion
__ZTV19CUtlNoEscConversion
__ZTV21CUtlCStringConversion
__ZTV4CZip
__ZTV6ConVar
__ZTV8CBSPPack
__ZTVN10__cxxabiv117__class_type_infoE
__ZTVN10__cxxabiv120__si_class_type_infoE
__ZTVN10__cxxabiv121__vmi_class_type_infoE
__ZThn24_N12CEmptyConVar8SetValueEPKc
__ZThn24_N12CEmptyConVar8SetValueEf
__ZThn24_N12CEmptyConVar8SetValueEi
__ZThn24_N6ConVar8SetValueEPKc
__ZThn24_N6ConVar8SetValueEf
__ZThn24_N6ConVar8SetValueEi
__ZThn24_NK12CEmptyConVar7GetNameEv
__ZThn24_NK12CEmptyConVar9IsFlagSetEi
__ZThn24_NK6ConVar7GetNameEv
__ZThn24_NK6ConVar9IsFlagSetEi
__ZZ11DataMapInitI10doverlay_tEP9datamap_tPT_E10nameHolder
__ZZ11DataMapInitI10doverlay_tEP9datamap_tPT_E8dataDesc
__ZZ11DataMapInitI10dtexdata_tEP9datamap_tPT_E10nameHolder
__ZZ11DataMapInitI10dtexdata_tEP9datamap_tPT_E8dataDesc
__ZZ11DataMapInitI11ddispinfo_tEP9datamap_tPT_E10nameHolder
__ZZ11DataMapInitI11ddispinfo_tEP9datamap_tPT_E8dataDesc
__ZZ11DataMapInitI11dgamelump_tEP9datamap_tPT_E10nameHolder
__ZZ11DataMapInitI11dgamelump_tEP9datamap_tPT_E8dataDesc
__ZZ11DataMapInitI11dphysdisp_tEP9datamap_tPT_E10nameHolder
__ZZ11DataMapInitI11dphysdisp_tEP9datamap_tPT_E8dataDesc
__ZZ11DataMapInitI11dprimvert_tEP9datamap_tPT_E10nameHolder
__ZZ11DataMapInitI11dprimvert_tEP9datamap_tPT_E8dataDesc
__ZZ11DataMapInitI12dbrushside_tEP9datamap_tPT_E10nameHolder
__ZZ11DataMapInitI12dbrushside_tEP9datamap_tPT_E8dataDesc
__ZZ11DataMapInitI12dflagslump_tEP9datamap_tPT_E10nameHolder
__ZZ11DataMapInitI12dflagslump_tEP9datamap_tPT_E8dataDesc
__ZZ11DataMapInitI12dphysmodel_tEP9datamap_tPT_E10nameHolder
__ZZ11DataMapInitI12dphysmodel_tEP9datamap_tPT_E8dataDesc
__ZZ11DataMapInitI12dprimitive_tEP9datamap_tPT_E10nameHolder
__ZZ11DataMapInitI12dprimitive_tEP9datamap_tPT_E8dataDesc
__ZZ11DataMapInitI13CDispNeighborEP9datamap_tPT_E10nameHolder
__ZZ11DataMapInitI13CDispNeighborEP9datamap_tPT_E8dataDesc
__ZZ11DataMapInitI13dareaportal_tEP9datamap_tPT_E10nameHolder
__ZZ11DataMapInitI13dareaportal_tEP9datamap_tPT_E8dataDesc
__ZZ11DataMapInitI13dworldlight_tEP9datamap_tPT_E10nameHolder
__ZZ11DataMapInitI13dworldlight_tEP9datamap_tPT_E8dataDesc
__ZZ11DataMapInitI14ZIP_FileHeaderEP9datamap_tPT_E10nameHolder
__ZZ11DataMapInitI14ZIP_FileHeaderEP9datamap_tPT_E8dataDesc
__ZZ11DataMapInitI14doverlayfade_tEP9datamap_tPT_E10nameHolder
__ZZ11DataMapInitI14doverlayfade_tEP9datamap_tPT_E8dataDesc
__ZZ11DataMapInitI15doccluderdata_tEP9datamap_tPT_E10nameHolder
__ZZ11DataMapInitI15doccluderdata_tEP9datamap_tPT_E8dataDesc
__ZZ11DataMapInitI15dwateroverlay_tEP9datamap_tPT_E10nameHolder
__ZZ11DataMapInitI15dwateroverlay_tEP9datamap_tPT_E8dataDesc
__ZZ11DataMapInitI16CDispSubNeighborEP9datamap_tPT_E10nameHolder
__ZZ11DataMapInitI16CDispSubNeighborEP9datamap_tPT_E8dataDesc
__ZZ11DataMapInitI16StaticPropLump_tEP9datamap_tPT_E10nameHolder
__ZZ11DataMapInitI16StaticPropLump_tEP9datamap_tPT_E8dataDesc
__ZZ11DataMapInitI16dcubemapsample_tEP9datamap_tPT_E10nameHolder
__ZZ11DataMapInitI16dcubemapsample_tEP9datamap_tPT_E8dataDesc
__ZZ11DataMapInitI16dleafwaterdata_tEP9datamap_tPT_E10nameHolder
__ZZ11DataMapInitI16dleafwaterdata_tEP9datamap_tPT_E8dataDesc
__ZZ11DataMapInitI17ZIP_PreloadHeaderEP9datamap_tPT_E10nameHolder
__ZZ11DataMapInitI17ZIP_PreloadHeaderEP9datamap_tPT_E8dataDesc
__ZZ11DataMapInitI17dgamelumpheader_tEP9datamap_tPT_E10nameHolder
__ZZ11DataMapInitI17dgamelumpheader_tEP9datamap_tPT_E8dataDesc
__ZZ11DataMapInitI17dleaf_version_0_tEP9datamap_tPT_E10nameHolder
__ZZ11DataMapInitI17dleaf_version_0_tEP9datamap_tPT_E8dataDesc
__ZZ11DataMapInitI18DetailObjectLump_tEP9datamap_tPT_E10nameHolder
__ZZ11DataMapInitI18DetailObjectLump_tEP9datamap_tPT_E8dataDesc
__ZZ11DataMapInitI18StaticPropLumpV4_tEP9datamap_tPT_E10nameHolder
__ZZ11DataMapInitI18StaticPropLumpV4_tEP9datamap_tPT_E8dataDesc
__ZZ11DataMapInitI18StaticPropLumpV5_tEP9datamap_tPT_E10nameHolder
__ZZ11DataMapInitI18StaticPropLumpV5_tEP9datamap_tPT_E8dataDesc
__ZZ11DataMapInitI19CompressedLightCubeEP9datamap_tPT_E10nameHolder
__ZZ11DataMapInitI19CompressedLightCubeEP9datamap_tPT_E8dataDesc
__ZZ11DataMapInitI19ZIP_LocalFileHeaderEP9datamap_tPT_E10nameHolder
__ZZ11DataMapInitI19ZIP_LocalFileHeaderEP9datamap_tPT_E8dataDesc
__ZZ11DataMapInitI19dleafambientindex_tEP9datamap_tPT_E10nameHolder
__ZZ11DataMapInitI19dleafambientindex_tEP9datamap_tPT_E8dataDesc
__ZZ11DataMapInitI19doccluderpolydata_tEP9datamap_tPT_E10nameHolder
__ZZ11DataMapInitI19doccluderpolydata_tEP9datamap_tPT_E8dataDesc
__ZZ11DataMapInitI19swapcollideheader_tEP9datamap_tPT_E10nameHolder
__ZZ11DataMapInitI19swapcollideheader_tEP9datamap_tPT_E8dataDesc
__ZZ11DataMapInitI20CDispCornerNeighborsEP9datamap_tPT_E10nameHolder
__ZZ11DataMapInitI20CDispCornerNeighborsEP9datamap_tPT_E8dataDesc
__ZZ11DataMapInitI20StaticPropDictLump_tEP9datamap_tPT_E10nameHolder
__ZZ11DataMapInitI20StaticPropDictLump_tEP9datamap_tPT_E8dataDesc
__ZZ11DataMapInitI20StaticPropLeafLump_tEP9datamap_tPT_E10nameHolder
__ZZ11DataMapInitI20StaticPropLeafLump_tEP9datamap_tPT_E8dataDesc
__ZZ11DataMapInitI21CFaceMacroTextureInfoEP9datamap_tPT_E10nameHolder
__ZZ11DataMapInitI21CFaceMacroTextureInfoEP9datamap_tPT_E8dataDesc
__ZZ11DataMapInitI22DetailObjectDictLump_tEP9datamap_tPT_E10nameHolder
__ZZ11DataMapInitI22DetailObjectDictLump_tEP9datamap_tPT_E8dataDesc
__ZZ11DataMapInitI22DetailSpriteDictLump_tEP9datamap_tPT_E10nameHolder
__ZZ11DataMapInitI22DetailSpriteDictLump_tEP9datamap_tPT_E8dataDesc
__ZZ11DataMapInitI22dleafambientlighting_tEP9datamap_tPT_E10nameHolder
__ZZ11DataMapInitI22dleafambientlighting_tEP9datamap_tPT_E8dataDesc
__ZZ11DataMapInitI23swapmoppsurfaceheader_tEP9datamap_tPT_E10nameHolder
__ZZ11DataMapInitI23swapmoppsurfaceheader_tEP9datamap_tPT_E8dataDesc
__ZZ11DataMapInitI25ZIP_EndOfCentralDirRecordEP9datamap_tPT_E10nameHolder
__ZZ11DataMapInitI25ZIP_EndOfCentralDirRecordEP9datamap_tPT_E8dataDesc
__ZZ11DataMapInitI25ZIP_PreloadDirectoryEntryEP9datamap_tPT_E10nameHolder
__ZZ11DataMapInitI25ZIP_PreloadDirectoryEntryEP9datamap_tPT_E8dataDesc
__ZZ11DataMapInitI26swapcompactsurfaceheader_tEP9datamap_tPT_E10nameHolder
__ZZ11DataMapInitI26swapcompactsurfaceheader_tEP9datamap_tPT_E8dataDesc
__ZZ11DataMapInitI27DetailPropLightstylesLump_tEP9datamap_tPT_E10nameHolder
__ZZ11DataMapInitI27DetailPropLightstylesLump_tEP9datamap_tPT_E8dataDesc
__ZZ11DataMapInitI6lump_tEP9datamap_tPT_E10nameHolder
__ZZ11DataMapInitI6lump_tEP9datamap_tPT_E8dataDesc
__ZZ11DataMapInitI7darea_tEP9datamap_tPT_E10nameHolder
__ZZ11DataMapInitI7darea_tEP9datamap_tPT_E8dataDesc
__ZZ11DataMapInitI7dedge_tEP9datamap_tPT_E10nameHolder
__ZZ11DataMapInitI7dedge_tEP9datamap_tPT_E8dataDesc
__ZZ11DataMapInitI7dface_tEP9datamap_tPT_E10nameHolder
__ZZ11DataMapInitI7dface_tEP9datamap_tPT_E8dataDesc
__ZZ11DataMapInitI7dleaf_tEP9datamap_tPT_E10nameHolder
__ZZ11DataMapInitI7dleaf_tEP9datamap_tPT_E8dataDesc
__ZZ11DataMapInitI7dnode_tEP9datamap_tPT_E10nameHolder
__ZZ11DataMapInitI7dnode_tEP9datamap_tPT_E8dataDesc
__ZZ11DataMapInitI8CDispTriEP9datamap_tPT_E10nameHolder
__ZZ11DataMapInitI8CDispTriEP9datamap_tPT_E8dataDesc
__ZZ11DataMapInitI8dbrush_tEP9datamap_tPT_E10nameHolder
__ZZ11DataMapInitI8dbrush_tEP9datamap_tPT_E8dataDesc
__ZZ11DataMapInitI8dmodel_tEP9datamap_tPT_E10nameHolder
__ZZ11DataMapInitI8dmodel_tEP9datamap_tPT_E8dataDesc
__ZZ11DataMapInitI8dplane_tEP9datamap_tPT_E10nameHolder
__ZZ11DataMapInitI8dplane_tEP9datamap_tPT_E8dataDesc
__ZZ11DataMapInitI9CDispVertEP9datamap_tPT_E10nameHolder
__ZZ11DataMapInitI9CDispVertEP9datamap_tPT_E8dataDesc
__ZZ11DataMapInitI9dfaceid_tEP9datamap_tPT_E10nameHolder
__ZZ11DataMapInitI9dfaceid_tEP9datamap_tPT_E8dataDesc
__ZZ11DataMapInitI9dheader_tEP9datamap_tPT_E10nameHolder
__ZZ11DataMapInitI9dheader_tEP9datamap_tPT_E8dataDesc
__ZZ11DataMapInitI9dvertex_tEP9datamap_tPT_E10nameHolder
__ZZ11DataMapInitI9dvertex_tEP9datamap_tPT_E8dataDesc
__ZZ11DataMapInitI9texinfo_sEP9datamap_tPT_E10nameHolder
__ZZ11DataMapInitI9texinfo_sEP9datamap_tPT_E8dataDesc
__ZZN10CUtlSymbol10InitializeEvE18symbolsInitialized
__ZZN10CWin32File14CreateTempFileER10CUtlStringS1_E7counter
__ZZN13HardwareVerts11DataMapInitINS_12FileHeader_tEEEP9datamap_tPT_E10nameHolder
__ZZN13HardwareVerts11DataMapInitINS_12FileHeader_tEEEP9datamap_tPT_E8dataDesc
__ZZN13HardwareVerts11DataMapInitINS_12MeshHeader_tEEEP9datamap_tPT_E10nameHolder
__ZZN13HardwareVerts11DataMapInitINS_12MeshHeader_tEEEP9datamap_tPT_E8dataDesc
__ZdaPv
__ZdlPv
__Znam
__Znwm
___bzero
___clang_call_terminate
___cxa_atexit
___cxa_begin_catch
___cxa_call_unexpected
___cxa_guard_acquire
___cxa_guard_release
___gxx_personality_v0
___maskrune
___stack_chk_fail
___stack_chk_guard
___tolower
_atof
_atoi
_cosf
_cvar
_dareaportals
_dareas
_dbrushes
_dbrushsides
_dedges
_dentdata
_dfaceids
_dfaces
_dfaces_hdr
_dleafbrushes
_dleaffaces
_dleafs
_dleafwaterdata
_dlightdataHDR
_dlightdataLDR
_dlsym
_dmodels
_dnodes
_dorigfaces
_dplanes
_dsurfedges
_dtexdata
_dvertexes
_dvisdata
_dworldlights
_dworldlightsHDR
_dworldlightsLDR
_fclose
_fflush
_fopen$UNIX2003
_fread
_fseek
_fseeko
_ftell
_ftello
_fwrite$UNIX2003
_g_CleanupFunctions
_g_ClipPortalVerts
_g_ClusterLeaves
_g_CubemapSamples
_g_DispLightmapSamplePositions
_g_DispTris
_g_DispVerts
_g_ExtraSpewHooks
_g_FaceMacroTextureInfos
_g_GameLumps
_g_KeyValuesErrorStack
_g_LeafAmbientIndexHDR
_g_LeafAmbientIndexLDR
_g_LeafAmbientLightingHDR
_g_LeafAmbientLightingLDR
_g_LeafMinDistToWater
_g_LevelFlags
_g_Lumps
_g_MapRevision
_g_OccluderData
_g_OccluderPolyData
_g_OccluderVertexIndices
_g_OverlayFades
_g_Overlays
_g_PhysCollideSize
_g_PhysDispSize
_g_StaticPropInstances
_g_StaticPropNames
_g_Swap
_g_TexDataStringData
_g_TexDataStringTable
_g_WaterOverlays
_g_bHDR
_g_definevariable
_g_dispinfo
_g_hBSPFile
_g_nClipPortalVerts
_g_nCubemapSamples
_g_nOverlayCount
_g_nWaterOverlayCount
_g_numprimindices
_g_numprimitives
_g_numprimverts
_g_numvertnormalindices
_g_numvertnormals
_g_pBSPHeader
_g_pCVar
_g_pCompressFunc
_g_pFileSystem
_g_pFullFileSystem
_g_pLeafAmbientIndex
_g_pLeafAmbientLighting
_g_pMemAlloc
_g_pPhysCollide
_g_pPhysDisp
_g_pVHVFixupFunc
_g_pVTFConvertFunc
_g_primindices
_g_primitives
_g_primverts
_g_sSingleCharTokens
_g_vertnormalindices
_g_vertnormals
_lineartolightmap
_lineartovertex
_localtime
_lzma_persistent_buffer
_memcpy
_memmove
_memset
_memset_pattern16
_numareaportals
_numareas
_numbrushes
_numbrushsides
_numedges
_numfaceids
_numfaces
_numfaces_hdr
_numleafbrushes
_numleaffaces
_numleafs
_numleafwaterdata
_nummodels
_numnodes
_numorigfaces
_numplanes
_numsurfedges
_numtexdata
_numvertexes
_numworldlightsHDR
_numworldlightsLDR
_pNumworldlights
_pdlightdata
_pfFastCos
_pfFastSinCos
_pfInvRSquared
_pfRSqrt
_pfRSqrtFast
_pfSqrt
_pfVectorNormalize
_pfVectorNormalizeFast
_pow
_pthread_mutex_destroy
_pthread_mutex_init
_pthread_mutex_lock
_pthread_mutex_unlock
_pthread_mutexattr_init
_pthread_mutexattr_settype
_qsort
_s_NoEscConversion
_s_StringCharConversion
_s_bMathlibInitialized
_sin
_sprintf
_sscanf
_strcasecmp
_strcat
_strchr
_strcmp
_strcpy
_strlen
_strncasecmp
_strncat
_strncpy
_strrchr
_strtod$UNIX2003
_strtol
_strtoul
_texinfo
_time
_tmpnam
_unlink
_visdatasize
_vsnprintf
dyld_stub_binder
