GCC_except_table0
GCC_except_table0
GCC_except_table0
GCC_except_table1
GCC_except_table12
GCC_except_table14
GCC_except_table2
GCC_except_table24
GCC_except_table3
GCC_except_table3
GCC_except_table31
GCC_except_table32
GCC_except_table33
GCC_except_table5
GCC_except_table5
GCC_except_table5
GCC_except_table6
GCC_except_table7
GCC_except_table70
GCC_except_table71
_CreateInterface
_Error
_Msg
__DefaultRuneLocale
__GLOBAL__sub_I_bugreporte.stdout.rel_tf_osx_builder.70936.ilIvyO.ii
__GLOBAL__sub_I_utlbuffer.stdout.rel_tf_osx_builder.8986.vt30zT.ii
__GLOBAL__sub_I_utlsymbol.stdout.rel_tf_osx_builder.55484.zcRfnN.ii
__Unwind_Resume
__Z10V_FileBasePKcPci
__Z10V_snprintfPciPKcz
__Z11V_vsnprintfPciPKcS_
__Z14UpdateProgressRK20TBugReportParametersPKcz
__Z15UploadBugReportRK8netadr_sRK8CSteamIDiPKcS6_S6_S6_S6_S6_S6_S6_iiS6_jjjjS6_S6_j
__Z28Win32UploadBugReportBlockingRK20TBugReportParameters
__Z9V_stricmpPKcS0_
__Z9V_strncpyPcPKci
__ZL10ice_keyrot
__ZL11vec2_origin
__ZL11vec2_origin
__ZL11vec2_origin
__ZL12vec2_invalid
__ZL12vec2_invalid
__ZL12vec2_invalid
__ZL17BugUploadProgressjRK18TBugReportProgress
__ZL20g_CleanupSymbolTable
__ZL22ice_sboxes_initialised
__ZL26__g_CBugReporter_singleton
__ZL35s_pConversionArrays_NoEscConversion
__ZL38__g_CreateCBugReporterIBugReporter_reg
__ZL40s_pConversionArrays_StringCharConversion
__ZL42__CreateCBugReporterIBugReporter_interfacev
__ZL8ice_pbox
__ZL8ice_sbox.0
__ZL8ice_sbox.1
__ZL8ice_sbox.2
__ZL8ice_sbox.3
__ZL8ice_smod
__ZL8ice_sxor
__ZN10CUtlBuffer11GetOverflowEi
__ZN10CUtlBuffer11PutOverflowEi
__ZN10CUtlBuffer12SetBigEndianEb
__ZN10CUtlBuffer13EatWhiteSpaceEv
__ZN10CUtlBuffer14EnsureCapacityEi
__ZN10CUtlBuffer14PeekWhiteSpaceEi
__ZN10CUtlBuffer16PeekStringLengthEv
__ZN10CUtlBuffer17GetStringInternalEPcm
__ZN10CUtlBuffer18AddNullTerminationEv
__ZN10CUtlBuffer21CheckArbitraryPeekGetEiRi
__ZN10CUtlBuffer3PutEPKvi
__ZN10CUtlBuffer5ScanfEPKcz
__ZN10CUtlBuffer6PrintfEPKcz
__ZN10CUtlBuffer7SeekPutENS_10SeekType_tEi
__ZN10CUtlBuffer7VaScanfEPKcPc
__ZN10CUtlBuffer8CheckGetEi
__ZN10CUtlBuffer8CheckPutEi
__ZN10CUtlBuffer9PutStringEPKc
__ZN10CUtlBufferC1Eiii
__ZN10CUtlBufferC2Eiii
__ZN10CUtlMemoryI15UtlRBTreeNode_tIN15CUtlSymbolTable16CStringPoolIndexEtEtE4GrowEi
__ZN10CUtlRBTreeIN15CUtlSymbolTable16CStringPoolIndexEtNS0_5CLessE10CUtlMemoryI15UtlRBTreeNode_tIS1_tEtEE10RotateLeftEt
__ZN10CUtlRBTreeIN15CUtlSymbolTable16CStringPoolIndexEtNS0_5CLessE10CUtlMemoryI15UtlRBTreeNode_tIS1_tEtEE11RotateRightEt
__ZN10CUtlRBTreeIN15CUtlSymbolTable16CStringPoolIndexEtNS0_5CLessE10CUtlMemoryI15UtlRBTreeNode_tIS1_tEtEE15InsertRebalanceEt
__ZN10CUtlRBTreeIN15CUtlSymbolTable16CStringPoolIndexEtNS0_5CLessE10CUtlMemoryI15UtlRBTreeNode_tIS1_tEtEE5PurgeEv
__ZN10CUtlRBTreeIN15CUtlSymbolTable16CStringPoolIndexEtNS0_5CLessE10CUtlMemoryI15UtlRBTreeNode_tIS1_tEtEE6InsertERKS1_
__ZN10CUtlRBTreeIN15CUtlSymbolTable16CStringPoolIndexEtNS0_5CLessE10CUtlMemoryI15UtlRBTreeNode_tIS1_tEtEE7NewNodeEv
__ZN10CUtlRBTreeIN15CUtlSymbolTable16CStringPoolIndexEtNS0_5CLessE10CUtlMemoryI15UtlRBTreeNode_tIS1_tEtEED2Ev
__ZN10CUtlSymbol10InitializeEv
__ZN10CUtlSymbol14s_pSymbolTableE
__ZN10CUtlSymbolC1EPKc
__ZN10CUtlVectorI10CUtlSymbol10CUtlMemoryIS0_iEE9AddToTailERKS0_
__ZN10CUtlVectorI10CUtlSymbol10CUtlMemoryIS0_iEED2Ev
__ZN10CUtlVectorIN21CWin32UploadBugReport10FSMState_tE10CUtlMemoryIS1_iEED2Ev
__ZN10CUtlVectorIN4CBug7incfileE10CUtlMemoryIS1_iEED2Ev
__ZN10CUtlVectorIPN15CUtlSymbolTable12StringPool_tE10CUtlMemoryIS2_iEED2Ev
__ZN12CBugReporter10GetAreaMapEi
__ZN12CBugReporter10IsPublicUIEv
__ZN12CBugReporter10SetBSPNameEPKc
__ZN12CBugReporter10SetExeNameEPKc
__ZN12CBugReporter10SetVMFNameEPKc
__ZN12CBugReporter11GetPriorityEi
__ZN12CBugReporter11GetSeverityEi
__ZN12CBugReporter11GetUserNameEv
__ZN12CBugReporter11SetMiscInfoEPKc
__ZN12CBugReporter11SetPositionEPKc
__ZN12CBugReporter11SetPriorityEPKc
__ZN12CBugReporter11SetSaveGameEPKc
__ZN12CBugReporter11SetSeverityEPKc
__ZN12CBugReporter12GetAreaCountEv
__ZN12CBugReporter12GetMapNumberEi
__ZN12CBugReporter12GetNameCountEv
__ZN12CBugReporter12SetDXVersionEjjjj
__ZN12CBugReporter12SetMapNumberEPKc
__ZN12CBugReporter12SetOSVersionEPKc
__ZN12CBugReporter12SetProcessorEPKc
__ZN12CBugReporter12SetSubmitterEPKc
__ZN12CBugReporter13GetLevelCountEi
__ZN12CBugReporter13GetReportTypeEi
__ZN12CBugReporter13SetDriverInfoEPKc
__ZN12CBugReporter13SetReportTypeEPKc
__ZN12CBugReporter13SetScreenShotEPKc
__ZN12CBugReporter14GetDisplayNameEi
__ZN12CBugReporter14SetBuildNumberEPKc
__ZN12CBugReporter14SetCSERAddressERK8netadr_s
__ZN12CBugReporter14SetDescriptionEPKc
__ZN12CBugReporter14SetOrientationEPKc
__ZN12CBugReporter14SetSteamUserIDEPvi
__ZN12CBugReporter15AddIncludedFileEPKc
__ZN12CBugReporter15CommitBugReportERi
__ZN12CBugReporter15GetAreaMapCountEv
__ZN12CBugReporter16GetPriorityCountEv
__ZN12CBugReporter16GetRepositoryURLEv
__ZN12CBugReporter16GetSeverityCountEv
__ZN12CBugReporter16GetSubmissionURLEv
__ZN12CBugReporter16SetGameDirectoryEPKc
__ZN12CBugReporter17GetMapNumberCountEv
__ZN12CBugReporter17StartNewBugReportEv
__ZN12CBugReporter18CancelNewBugReportEv
__ZN12CBugReporter18GetReportTypeCountEv
__ZN12CBugReporter18ResetIncludedFilesEv
__ZN12CBugReporter19GetDisplayNameCountEv
__ZN12CBugReporter19GetUserName_DisplayEv
__ZN12CBugReporter20SetZipAttachmentNameEPKc
__ZN12CBugReporter25GetDisplayNameForUserNameEPKc
__ZN12CBugReporter25GetUserNameForDisplayNameEPKc
__ZN12CBugReporter4InitEPFPvPKcPiE
__ZN12CBugReporter6SetCPUEi
__ZN12CBugReporter6SetRAMEi
__ZN12CBugReporter7GetAreaEi
__ZN12CBugReporter7GetNameEi
__ZN12CBugReporter7SetAreaEPKc
__ZN12CBugReporter8GetLevelEii
__ZN12CBugReporter8SetLevelEPKc
__ZN12CBugReporter8SetOwnerEPKc
__ZN12CBugReporter8SetTitleEPKc
__ZN12CBugReporter8ShutdownEv
__ZN12CBugReporterC2Ev
__ZN12CBugReporterD0Ev
__ZN12CBugReporterD1Ev
__ZN12CBugReporterD2Ev
__ZN12CThreadEvent3SetEv
__ZN12CThreadEventC1Eb
__ZN12InterfaceReg16s_pInterfaceRegsE
__ZN12InterfaceRegC1EPFPvvEPKc
__ZN13CThreadRWLock11UnlockWriteEv
__ZN13CThreadRWLock11WaitForReadEv
__ZN13CThreadRWLock12LockForWriteEv
__ZN15CUtlSymbolTable9AddStringEPKc
__ZN15CUtlSymbolTable9RemoveAllEv
__ZN15CUtlSymbolTableC1Eiib
__ZN15CUtlSymbolTableD1Ev
__ZN15CUtlSymbolTableD2Ev
__ZN17CThreadSyncObjectD2Ev
__ZN18CBlockingUDPSocket14WaitForMessageEf
__ZN18CBlockingUDPSocket17SendSocketMessageERK11sockaddr_inPKhm
__ZN18CBlockingUDPSocket20ReceiveSocketMessageEP11sockaddr_inPhm
__ZN18CBlockingUDPSocketC1Ev
__ZN18CBlockingUDPSocketC2Ev
__ZN18CBlockingUDPSocketD0Ev
__ZN18CBlockingUDPSocketD1Ev
__ZN18CUtlCharConversion14FindConversionEPKcPi
__ZN19CUtlNoEscConversion14FindConversionEPKcPi
__ZN21CUtlCStringConversion14FindConversionEPKcPi
__ZN21CUtlCStringConversionC2EcPKciPN18CUtlCharConversion17ConversionArray_tE
__ZN21CWin32UploadBugReport13SendWholeFileER22EBugReportUploadStatusR10CUtlBuffer
__ZN21CWin32UploadBugReport14CloseTCPSocketER22EBugReportUploadStatusR10CUtlBuffer
__ZN21CWin32UploadBugReport15CreateTCPSocketER22EBugReportUploadStatusR10CUtlBuffer
__ZN21CWin32UploadBugReport17SendGracefulCloseER22EBugReportUploadStatusR10CUtlBuffer
__ZN21CWin32UploadBugReport17SendUploadCommandER22EBugReportUploadStatusR10CUtlBuffer
__ZN21CWin32UploadBugReport19ReceiveOKToSendFileER22EBugReportUploadStatusR10CUtlBuffer
__ZN21CWin32UploadBugReport19ReceiveProtocolOkayER22EBugReportUploadStatusR10CUtlBuffer
__ZN21CWin32UploadBugReport19SendProtocolVersionER22EBugReportUploadStatusR10CUtlBuffer
__ZN21CWin32UploadBugReport24ConnectToHarvesterServerER22EBugReportUploadStatusR10CUtlBuffer
__ZN21CWin32UploadBugReport24ReceiveFileUploadSuccessER22EBugReportUploadStatusR10CUtlBuffer
__ZN21CWin32UploadBugReport8AddStateEjMS_FbR22EBugReportUploadStatusR10CUtlBufferE
__ZN21CWin32UploadBugReportC2ERK8netadr_sRK20TBugReportParametersj
__ZN22CCleanupUtlSymbolTableD1Ev
__ZN6IceKey13scheduleBuildEPtiPKi
__ZN6IceKey3setEPKh
__ZN6IceKeyC1Ei
__ZN6IceKeyC2Ei
__ZN6IceKeyD1Ev
__ZN8netadr_s14SetFromSockadrEPK8sockaddr
__ZN8netadr_s5SetIPEj
__ZN8netadr_s7SetPortEt
__ZN8netadr_s7SetTypeE12netadrtype_t
__ZNK10CUtlSymbol6StringEv
__ZNK15CUtlSymbolTable5CLessclERKNS_16CStringPoolIndexES3_
__ZNK15CUtlSymbolTable6StringE10CUtlSymbol
__ZNK17CUtlSymbolTableMT6StringE10CUtlSymbol
__ZNK6IceKey7encryptEPKhPh
__ZNK8netadr_s9ToSockadrEP8sockaddr
__ZSt9terminatev
__ZTI12CBugReporter
__ZTI12IBugReporter
__ZTI14IBaseInterface
__ZTI18CBlockingUDPSocket
__ZTI18CUtlCharConversion
__ZTI19CUtlNoEscConversion
__ZTI21CUtlCStringConversion
__ZTISt9bad_alloc
__ZTS12CBugReporter
__ZTS12IBugReporter
__ZTS14IBaseInterface
__ZTS18CBlockingUDPSocket
__ZTS18CUtlCharConversion
__ZTS19CUtlNoEscConversion
__ZTS21CUtlCStringConversion
__ZTV12CBugReporter
__ZTV18CBlockingUDPSocket
__ZTV18CUtlCharConversion
__ZTV19CUtlNoEscConversion
__ZTV21CUtlCStringConversion
__ZTVN10__cxxabiv117__class_type_infoE
__ZTVN10__cxxabiv120__si_class_type_infoE
__ZZN10CUtlSymbol10InitializeEvE18symbolsInitialized
__ZdaPv
__ZdlPv
__Znam
__Znwm
___bzero
___clang_call_terminate
___cxa_atexit
___cxa_begin_catch
___cxa_call_unexpected
___gxx_personality_v0
___maskrune
___stack_chk_fail
___stack_chk_guard
_atoi
_bind$UNIX2003
_close$UNIX2003
_connect$UNIX2003
_g_pFileSystem
_g_pMemAlloc
_g_pVCR
_memcpy
_memmove
_pthread_mutex_destroy
_pthread_mutex_init
_pthread_mutex_lock
_pthread_mutex_unlock
_pthread_mutexattr_init
_pthread_mutexattr_settype
_recv$UNIX2003
_s_NoEscConversion
_s_StringCharConversion
_select$DARWIN_EXTSN
_send$UNIX2003
_sendto$UNIX2003
_socket
_strcasecmp
_strchr
_strcmp
_strlen
_strncpy
_strtod$UNIX2003
_strtol
_strtoul
_vsnprintf
dyld_stub_binder
