GCC_except_table0
GCC_except_table0
GCC_except_table1
GCC_except_table10
GCC_except_table100
GCC_except_table11
GCC_except_table11
GCC_except_table111
GCC_except_table115
GCC_except_table12
GCC_except_table12
GCC_except_table123
GCC_except_table13
GCC_except_table138
GCC_except_table14
GCC_except_table14
GCC_except_table14
GCC_except_table141
GCC_except_table142
GCC_except_table143
GCC_except_table144
GCC_except_table15
GCC_except_table15
GCC_except_table16
GCC_except_table16
GCC_except_table163
GCC_except_table17
GCC_except_table17
GCC_except_table18
GCC_except_table18
GCC_except_table18
GCC_except_table18
GCC_except_table2
GCC_except_table2
GCC_except_table20
GCC_except_table20
GCC_except_table20
GCC_except_table21
GCC_except_table21
GCC_except_table22
GCC_except_table22
GCC_except_table22
GCC_except_table23
GCC_except_table24
GCC_except_table26
GCC_except_table29
GCC_except_table3
GCC_except_table30
GCC_except_table31
GCC_except_table32
GCC_except_table33
GCC_except_table33
GCC_except_table34
GCC_except_table36
GCC_except_table37
GCC_except_table37
GCC_except_table38
GCC_except_table38
GCC_except_table4
GCC_except_table40
GCC_except_table41
GCC_except_table41
GCC_except_table44
GCC_except_table45
GCC_except_table45
GCC_except_table47
GCC_except_table48
GCC_except_table49
GCC_except_table5
GCC_except_table5
GCC_except_table50
GCC_except_table54
GCC_except_table56
GCC_except_table57
GCC_except_table59
GCC_except_table6
GCC_except_table6
GCC_except_table63
GCC_except_table67
GCC_except_table67
GCC_except_table68
GCC_except_table69
GCC_except_table7
GCC_except_table7
GCC_except_table7
GCC_except_table72
GCC_except_table74
GCC_except_table75
GCC_except_table76
GCC_except_table77
GCC_except_table77
GCC_except_table78
GCC_except_table79
GCC_except_table79
GCC_except_table8
GCC_except_table83
GCC_except_table87
GCC_except_table88
GCC_except_table9
GCC_except_table9
GCC_except_table90
GCC_except_table91
GCC_except_table93
GCC_except_table94
GCC_except_table95
GCC_except_table97
GCC_except_table99
_CommandLine_Tier0
_CreateInterface
_DevMsg
_Error
_Msg
_Plat_IsInDebugSession
_Plat_MSTime
_ThreadGetCurrentId
_ThreadInMainThread
_ThreadInterlockedAssignIf
_ThreadInterlockedAssignIf64
_ThreadInterlockedDecrement
_ThreadInterlockedExchange
_ThreadInterlockedExchangeAdd
_ThreadInterlockedIncrement
_ThreadSleep
_Warning
__GLOBAL__sub_I_convar.stdout.rel_tf_osx_builder.55430.mXKsKU.ii
__GLOBAL__sub_I_datacache.stdout.rel_tf_osx_builder.56130.Ca1KOW.ii
__GLOBAL__sub_I_mdlcache.stdout.rel_tf_osx_builder.56131.9wK5uO.ii
__GLOBAL__sub_I_studio.stdout.rel_tf_osx_builder.56128.pYpet3.ii
__GLOBAL__sub_I_studio_vir.stdout.rel_tf_osx_builder.56129.pu6EWh.ii
__GLOBAL__sub_I_studiobyte.stdout.rel_tf_osx_builder.9931.X6A9C0.ii
__GLOBAL__sub_I_utlbuffer.stdout.rel_tf_osx_builder.8986.vt30zT.ii
__GLOBAL__sub_I_utlsymbol.stdout.rel_tf_osx_builder.55484.zcRfnN.ii
__Unwind_Resume
__Z10DevWarningPKcz
__Z10V_snprintfPciPKcz
__Z12V_FixSlashesPcc
__Z12V_pretifymemfib
__Z14V_SetExtensionPcPKci
__Z14V_vsnprintfRetPciPKcS_Pb
__Z15ConVar_RegisteriP23IConCommandBaseAccessor
__Z15DataCacheSize_fP7IConVarPKcf
__Z16V_StripExtensionPKcPci
__Z17ConVar_Unregisterv
__Z17SetAsyncInfoIndext18MDLCacheDataType_tii
__Z17V_ComposeFileNamePKcS0_Pci
__Z18Sys_GetFactoryThisv
__Z18V_RemoveDotSlashesPccb
__Z21ConnectTier1LibrariesPPFPvPKcPiEi
__Z21ConnectTier2LibrariesPPFPvPKcPiEi
__Z21ConnectTier3LibrariesPPFPvPKcPiEi
__Z22CaselessStringLessThanRKPKcS2_
__Z23CreateInterfaceInternalPKcPi
__Z24DisconnectTier1Librariesv
__Z24DisconnectTier2Librariesv
__Z24DisconnectTier3Librariesv
__Z5Hash4PKv
__Z6DevMsgPKcz
__Z6V_atofPKc
__Z9V_stricmpPKcS0_
__Z9V_strncatPcPKcmi
__Z9V_strncmpPKcS0_i
__Z9V_strncpyPcPKci
__ZGVZ11DataMapInitI11phyheader_sEP9datamap_tPT_E10nameHolder
__ZGVZ11DataMapInitI11studiohdr_tEP9datamap_tPT_E10nameHolder
__ZGVZ11DataMapInitI12studiohdr2_tEP9datamap_tPT_E10nameHolder
__ZGVZ11DataMapInitI13mstudioanim_tEP9datamap_tPT_E10nameHolder
__ZGVZ11DataMapInitI13mstudiobbox_tEP9datamap_tPT_E10nameHolder
__ZGVZ11DataMapInitI13mstudiobone_tEP9datamap_tPT_E10nameHolder
__ZGVZ11DataMapInitI13mstudioflex_tEP9datamap_tPT_E10nameHolder
__ZGVZ11DataMapInitI13mstudiomesh_tEP9datamap_tPT_E10nameHolder
__ZGVZ11DataMapInitI14mstudioevent_tEP9datamap_tPT_E10nameHolder
__ZGVZ11DataMapInitI14mstudiomodel_tEP9datamap_tPT_E10nameHolder
__ZGVZ11DataMapInitI14mstudiomouth_tEP9datamap_tPT_E10nameHolder
__ZGVZ11DataMapInitI15mstudioflexop_tEP9datamap_tPT_E10nameHolder
__ZGVZ11DataMapInitI15mstudioiklink_tEP9datamap_tPT_E10nameHolder
__ZGVZ11DataMapInitI15mstudioiklock_tEP9datamap_tPT_E10nameHolder
__ZGVZ11DataMapInitI15mstudioikrule_tEP9datamap_tPT_E10nameHolder
__ZGVZ11DataMapInitI15mstudiovertex_tEP9datamap_tPT_E10nameHolder
__ZGVZ11DataMapInitI16mstudioeyeball_tEP9datamap_tPT_E10nameHolder
__ZGVZ11DataMapInitI16mstudioikchain_tEP9datamap_tPT_E10nameHolder
__ZGVZ11DataMapInitI16mstudioikerror_tEP9datamap_tPT_E10nameHolder
__ZGVZ11DataMapInitI16mstudioseqdesc_tEP9datamap_tPT_E10nameHolder
__ZGVZ11DataMapInitI16mstudiotexture_tEP9datamap_tPT_E10nameHolder
__ZGVZ11DataMapInitI17mstudioanimdesc_tEP9datamap_tPT_E10nameHolder
__ZGVZ11DataMapInitI17mstudioflexdesc_tEP9datamap_tPT_E10nameHolder
__ZGVZ11DataMapInitI17mstudioflexrule_tEP9datamap_tPT_E10nameHolder
__ZGVZ11DataMapInitI17mstudiomovement_tEP9datamap_tPT_E10nameHolder
__ZGVZ11DataMapInitI17mstudiovertanim_tEP9datamap_tPT_E10nameHolder
__ZGVZ11DataMapInitI17vertexFileFixup_tEP9datamap_tPT_E10nameHolder
__ZGVZ11DataMapInitI18mstudioaimatbone_tEP9datamap_tPT_E10nameHolder
__ZGVZ11DataMapInitI18mstudioanimblock_tEP9datamap_tPT_E10nameHolder
__ZGVZ11DataMapInitI18mstudioautolayer_tEP9datamap_tPT_E10nameHolder
__ZGVZ11DataMapInitI18mstudiobodyparts_tEP9datamap_tPT_E10nameHolder
__ZGVZ11DataMapInitI18mstudiohitboxset_tEP9datamap_tPT_E10nameHolder
__ZGVZ11DataMapInitI18vertexFileHeader_tEP9datamap_tPT_E10nameHolder
__ZGVZ11DataMapInitI19mstudioattachment_tEP9datamap_tPT_E10nameHolder
__ZGVZ11DataMapInitI19mstudioboneweight_tEP9datamap_tPT_E10nameHolder
__ZGVZ11DataMapInitI19mstudiojigglebone_tEP9datamap_tPT_E10nameHolder
__ZGVZ11DataMapInitI19mstudiolinearbone_tEP9datamap_tPT_E10nameHolder
__ZGVZ11DataMapInitI19mstudiomodelgroup_tEP9datamap_tPT_E10nameHolder
__ZGVZ11DataMapInitI21mstudioanimsections_tEP9datamap_tPT_E10nameHolder
__ZGVZ11DataMapInitI22mstudioanim_valueptr_tEP9datamap_tPT_E10nameHolder
__ZGVZ11DataMapInitI22mstudioposeparamdesc_tEP9datamap_tPT_E10nameHolder
__ZGVZ11DataMapInitI23mstudioaxisinterpbone_tEP9datamap_tPT_E10nameHolder
__ZGVZ11DataMapInitI23mstudiobonecontroller_tEP9datamap_tPT_E10nameHolder
__ZGVZ11DataMapInitI23mstudioboneflexdriver_tEP9datamap_tPT_E10nameHolder
__ZGVZ11DataMapInitI23mstudioflexcontroller_tEP9datamap_tPT_E10nameHolder
__ZGVZ11DataMapInitI23mstudiolocalhierarchy_tEP9datamap_tPT_E10nameHolder
__ZGVZ11DataMapInitI23mstudioquatinterpbone_tEP9datamap_tPT_E10nameHolder
__ZGVZ11DataMapInitI23mstudioquatinterpinfo_tEP9datamap_tPT_E10nameHolder
__ZGVZ11DataMapInitI24mstudio_meshvertexdata_tEP9datamap_tPT_E10nameHolder
__ZGVZ11DataMapInitI25mstudio_modelvertexdata_tEP9datamap_tPT_E10nameHolder
__ZGVZ11DataMapInitI25mstudioactivitymodifier_tEP9datamap_tPT_E10nameHolder
__ZGVZ11DataMapInitI25mstudioflexcontrollerui_tEP9datamap_tPT_E10nameHolder
__ZGVZ11DataMapInitI25mstudiosrcbonetransform_tEP9datamap_tPT_E10nameHolder
__ZGVZ11DataMapInitI26mstudiocompressedikerror_tEP9datamap_tPT_E10nameHolder
__ZGVZ11DataMapInitI30mstudioboneflexdrivercontrol_tEP9datamap_tPT_E10nameHolder
__ZGVZN14OptimizedModel11DataMapInitINS_12FileHeader_tEEEP9datamap_tPT_E10nameHolder
__ZGVZN14OptimizedModel11DataMapInitINS_12MeshHeader_tEEEP9datamap_tPT_E10nameHolder
__ZGVZN14OptimizedModel11DataMapInitINS_13ModelHeader_tEEEP9datamap_tPT_E10nameHolder
__ZGVZN14OptimizedModel11DataMapInitINS_13StripHeader_tEEEP9datamap_tPT_E10nameHolder
__ZGVZN14OptimizedModel11DataMapInitINS_16BodyPartHeader_tEEEP9datamap_tPT_E10nameHolder
__ZGVZN14OptimizedModel11DataMapInitINS_16ModelLODHeader_tEEEP9datamap_tPT_E10nameHolder
__ZGVZN14OptimizedModel11DataMapInitINS_18StripGroupHeader_tEEEP9datamap_tPT_E10nameHolder
__ZGVZN14OptimizedModel11DataMapInitINS_23BoneStateChangeHeader_tEEEP9datamap_tPT_E10nameHolder
__ZGVZN14OptimizedModel11DataMapInitINS_27MaterialReplacementHeader_tEEEP9datamap_tPT_E10nameHolder
__ZGVZN14OptimizedModel11DataMapInitINS_31MaterialReplacementListHeader_tEEEP9datamap_tPT_E10nameHolder
__ZGVZN14OptimizedModel11DataMapInitINS_8Vertex_tEEEP9datamap_tPT_E10nameHolder
__ZGVZN14StudioByteSwap11DataMapInitINS_21legacysurfaceheader_tEEEP9datamap_tPT_E10nameHolder
__ZGVZN14StudioByteSwap11DataMapInitINS_26swapcompactsurfaceheader_tEEEP9datamap_tPT_E10nameHolder
__ZGVZN9CMDLCache20ProcessDataIntoCacheEt18MDLCacheDataType_tiPvibE15bCompressedVVDs
__ZL10g_MDLCache
__ZL11g_ppszTypes
__ZL11s_nCVarFlag
__ZL11vec2_origin
__ZL11vec2_origin
__ZL11vec2_origin
__ZL11vec2_origin
__ZL11vec2_origin
__ZL11vec2_origin
__ZL11vec2_origin
__ZL11vec2_origin
__ZL11vec4_origin
__ZL11vec4_origin
__ZL11vec4_origin
__ZL11vec4_origin
__ZL12s_bConnected
__ZL12vec2_invalid
__ZL12vec2_invalid
__ZL12vec2_invalid
__ZL12vec2_invalid
__ZL12vec2_invalid
__ZL12vec2_invalid
__ZL12vec2_invalid
__ZL12vec2_invalid
__ZL12vec4_invalid
__ZL12vec4_invalid
__ZL12vec4_invalid
__ZL12vec4_invalid
__ZL13g_ModelLookup
__ZL13mod_forcedata
__ZL13s_EmptyConVar
__ZL13s_bRegistered
__ZL14mod_trace_load
__ZL15g_nRandomValues
__ZL15mem_force_flush
__ZL16s_nDLLIdentifier
__ZL17g_iDontForceFlush
__ZL17s_DefaultAccessor
__ZL18g_ModelLookupIndex
__ZL18mod_load_fakestall
__ZL18mod_load_showstall
__ZL19mod_load_mesh_async
__ZL20g_CleanupSymbolTable
__ZL20mod_load_anims_async
__ZL21mod_lock_mdls_on_load
__ZL22mod_test_not_available
__ZL23mod_load_vcollide_async
__ZL27mod_test_mesh_not_available
__ZL28ReleaseMaterialSystemObjectsv
__ZL28RestoreMaterialSystemObjectsi
__ZL28mod_test_verts_not_available
__ZL32__g_CreateCMDLCacheIMDLCache_reg
__ZL34__g_CreateCDataCacheIDataCache_reg
__ZL35s_pConversionArrays_NoEscConversion
__ZL36__CreateCMDLCacheIMDLCache_interfacev
__ZL38__CreateCDataCacheIDataCache_interfacev
__ZL39__g_CreateCMDLCacheIStudioDataCache_reg
__ZL40s_pConversionArrays_StringCharConversion
__ZL43__CreateCMDLCacheIStudioDataCache_interfacev
__ZL8NO_ASYNC
__ZL9r_rootlod
__ZN10CDataCache10AddSectionEP16IDataCacheClientPKcRK17DataCacheLimits_tb
__ZN10CDataCache10DisconnectEv
__ZN10CDataCache10SetOptionsEj
__ZN10CDataCache11FindSectionEPKc
__ZN10CDataCache12OutputReportE21DataCacheReportType_tPKc
__ZN10CDataCache13RemoveSectionEPKcb
__ZN10CDataCache14EnsureCapacityEj
__ZN10CDataCache14QueryInterfaceEPKc
__ZN10CDataCache16OutputItemReportEP13memhandle_t__
__ZN10CDataCache16SetSectionLimitsEPKcRK17DataCacheLimits_t
__ZN10CDataCache28SortMemhandlesBySizeLessFuncERKP13memhandle_t__S3_
__ZN10CDataCache4InitEv
__ZN10CDataCache5FlushEbb
__ZN10CDataCache5PurgeEj
__ZN10CDataCache7ConnectEPFPvPKcPiE
__ZN10CDataCache7SetSizeEi
__ZN10CDataCache8ShutdownEv
__ZN10CDataCache9GetStatusEP17DataCacheStatus_tP17DataCacheLimits_t
__ZN10CDataCacheD1Ev
__ZN10CUtlBuffer11GetOverflowEi
__ZN10CUtlBuffer11PutOverflowEi
__ZN10CUtlBuffer17SetExternalBufferEPviii
__ZN10CUtlBuffer18AddNullTerminationEv
__ZN10CUtlBuffer3GetEPvi
__ZN10CUtlBuffer7SeekPutENS_10SeekType_tEi
__ZN10CUtlBufferC1EPKvii
__ZN10CUtlBufferC1Eiii
__ZN10CUtlBufferC2EPKvii
__ZN10CUtlBufferC2Eiii
__ZN10CUtlMemoryI15UtlRBTreeNode_tIN7CUtlMapIPKcP12studiodata_ttPFbRKS3_S7_EE6Node_tEtEtE4GrowEi
__ZN10CUtlMemoryI15UtlRBTreeNode_tIN7CUtlMapIPKcssPFbRKS3_S5_EE6Node_tEsEsE4GrowEi
__ZN10CUtlMemoryI15UtlRBTreeNode_tIN7CUtlMapIiitPFbRKiS3_EE6Node_tEtEtE4GrowEi
__ZN10CUtlMemoryI19UtlLinkedListElem_tIN13CUtlMultiListIN16CDataManagerBase22resource_lru_element_tEtE6List_tEtEtE4GrowEi
__ZN10CUtlRBTreeIN15CUtlSymbolTable16CStringPoolIndexEtNS0_5CLessE10CUtlMemoryI15UtlRBTreeNode_tIS1_tEtEE5PurgeEv
__ZN10CUtlRBTreeIN15CUtlSymbolTable16CStringPoolIndexEtNS0_5CLessE10CUtlMemoryI15UtlRBTreeNode_tIS1_tEtEED2Ev
__ZN10CUtlRBTreeIN7CUtlMapIPKcP12studiodata_ttPFbRKS2_S6_EE6Node_tEtNS9_8CKeyLessE10CUtlMemoryI15UtlRBTreeNode_tISA_tEtEE10RotateLeftEt
__ZN10CUtlRBTreeIN7CUtlMapIPKcP12studiodata_ttPFbRKS2_S6_EE6Node_tEtNS9_8CKeyLessE10CUtlMemoryI15UtlRBTreeNode_tISA_tEtEE11RotateRightEt
__ZN10CUtlRBTreeIN7CUtlMapIPKcP12studiodata_ttPFbRKS2_S6_EE6Node_tEtNS9_8CKeyLessE10CUtlMemoryI15UtlRBTreeNode_tISA_tEtEE15InsertRebalanceEt
__ZN10CUtlRBTreeIN7CUtlMapIPKcP12studiodata_ttPFbRKS2_S6_EE6Node_tEtNS9_8CKeyLessE10CUtlMemoryI15UtlRBTreeNode_tISA_tEtEE15RemoveRebalanceEt
__ZN10CUtlRBTreeIN7CUtlMapIPKcP12studiodata_ttPFbRKS2_S6_EE6Node_tEtNS9_8CKeyLessE10CUtlMemoryI15UtlRBTreeNode_tISA_tEtEE5PurgeEv
__ZN10CUtlRBTreeIN7CUtlMapIPKcP12studiodata_ttPFbRKS2_S6_EE6Node_tEtNS9_8CKeyLessE10CUtlMemoryI15UtlRBTreeNode_tISA_tEtEE6InsertERKSA_
__ZN10CUtlRBTreeIN7CUtlMapIPKcP12studiodata_ttPFbRKS2_S6_EE6Node_tEtNS9_8CKeyLessE10CUtlMemoryI15UtlRBTreeNode_tISA_tEtEE6UnlinkEt
__ZN10CUtlRBTreeIN7CUtlMapIPKcP12studiodata_ttPFbRKS2_S6_EE6Node_tEtNS9_8CKeyLessE10CUtlMemoryI15UtlRBTreeNode_tISA_tEtEE7NewNodeEv
__ZN10CUtlRBTreeIN7CUtlMapIPKcP12studiodata_ttPFbRKS2_S6_EE6Node_tEtNS9_8CKeyLessE10CUtlMemoryI15UtlRBTreeNode_tISA_tEtEED2Ev
__ZN10CUtlRBTreeIN7CUtlMapIPKcssPFbRKS2_S4_EE6Node_tEsNS7_8CKeyLessE10CUtlMemoryI15UtlRBTreeNode_tIS8_sEsEE10RotateLeftEs
__ZN10CUtlRBTreeIN7CUtlMapIPKcssPFbRKS2_S4_EE6Node_tEsNS7_8CKeyLessE10CUtlMemoryI15UtlRBTreeNode_tIS8_sEsEE11RotateRightEs
__ZN10CUtlRBTreeIN7CUtlMapIPKcssPFbRKS2_S4_EE6Node_tEsNS7_8CKeyLessE10CUtlMemoryI15UtlRBTreeNode_tIS8_sEsEE15InsertRebalanceEs
__ZN10CUtlRBTreeIN7CUtlMapIPKcssPFbRKS2_S4_EE6Node_tEsNS7_8CKeyLessE10CUtlMemoryI15UtlRBTreeNode_tIS8_sEsEE5PurgeEv
__ZN10CUtlRBTreeIN7CUtlMapIPKcssPFbRKS2_S4_EE6Node_tEsNS7_8CKeyLessE10CUtlMemoryI15UtlRBTreeNode_tIS8_sEsEE6InsertERKS8_
__ZN10CUtlRBTreeIN7CUtlMapIPKcssPFbRKS2_S4_EE6Node_tEsNS7_8CKeyLessE10CUtlMemoryI15UtlRBTreeNode_tIS8_sEsEE7NewNodeEv
__ZN10CUtlRBTreeIN7CUtlMapIPKcssPFbRKS2_S4_EE6Node_tEsNS7_8CKeyLessE10CUtlMemoryI15UtlRBTreeNode_tIS8_sEsEED2Ev
__ZN10CUtlRBTreeIN7CUtlMapIiitPFbRKiS2_EE6Node_tEtNS5_8CKeyLessE10CUtlMemoryI15UtlRBTreeNode_tIS6_tEtEE10RotateLeftEt
__ZN10CUtlRBTreeIN7CUtlMapIiitPFbRKiS2_EE6Node_tEtNS5_8CKeyLessE10CUtlMemoryI15UtlRBTreeNode_tIS6_tEtEE11RotateRightEt
__ZN10CUtlRBTreeIN7CUtlMapIiitPFbRKiS2_EE6Node_tEtNS5_8CKeyLessE10CUtlMemoryI15UtlRBTreeNode_tIS6_tEtEE15InsertRebalanceEt
__ZN10CUtlRBTreeIN7CUtlMapIiitPFbRKiS2_EE6Node_tEtNS5_8CKeyLessE10CUtlMemoryI15UtlRBTreeNode_tIS6_tEtEE15RemoveRebalanceEt
__ZN10CUtlRBTreeIN7CUtlMapIiitPFbRKiS2_EE6Node_tEtNS5_8CKeyLessE10CUtlMemoryI15UtlRBTreeNode_tIS6_tEtEE5PurgeEv
__ZN10CUtlRBTreeIN7CUtlMapIiitPFbRKiS2_EE6Node_tEtNS5_8CKeyLessE10CUtlMemoryI15UtlRBTreeNode_tIS6_tEtEE6InsertERKS6_
__ZN10CUtlRBTreeIN7CUtlMapIiitPFbRKiS2_EE6Node_tEtNS5_8CKeyLessE10CUtlMemoryI15UtlRBTreeNode_tIS6_tEtEE6UnlinkEt
__ZN10CUtlRBTreeIN7CUtlMapIiitPFbRKiS2_EE6Node_tEtNS5_8CKeyLessE10CUtlMemoryI15UtlRBTreeNode_tIS6_tEtEE7NewNodeEv
__ZN10CUtlRBTreeIN7CUtlMapIiitPFbRKiS2_EE6Node_tEtNS5_8CKeyLessE10CUtlMemoryI15UtlRBTreeNode_tIS6_tEtEED2Ev
__ZN10CUtlRBTreeIP13memhandle_t__iPFbRKS1_S3_E10CUtlMemoryI15UtlRBTreeNode_tIS1_iEiEE15InsertRebalanceEi
__ZN10CUtlRBTreeIP13memhandle_t__iPFbRKS1_S3_E10CUtlMemoryI15UtlRBTreeNode_tIS1_iEiEE6InsertES3_
__ZN10CUtlRBTreeIP13memhandle_t__iPFbRKS1_S3_E10CUtlMemoryI15UtlRBTreeNode_tIS1_iEiEE7NewNodeEv
__ZN10CUtlRBTreeIP13memhandle_t__iPFbRKS1_S3_E10CUtlMemoryI15UtlRBTreeNode_tIS1_iEiEED2Ev
__ZN10CUtlSymbol14s_pSymbolTableE
__ZN10CUtlVectorI13modellookup_t10CUtlMemoryIS0_iEE12InsertBeforeEi
__ZN10CUtlVectorI13modellookup_t10CUtlMemoryIS0_iEED1Ev
__ZN10CUtlVectorI13modellookup_t10CUtlMemoryIS0_iEED2Ev
__ZN10CUtlVectorI14virtualgroup_t10CUtlMemoryIS0_iEED2Ev
__ZN10CUtlVectorI16virtualgeneric_t10CUtlMemoryIS0_iEE10GrowVectorEi
__ZN10CUtlVectorI16virtualgeneric_t10CUtlMemoryIS0_iEED2Ev
__ZN10CUtlVectorI17virtualsequence_t10CUtlMemoryIS0_iEE10GrowVectorEi
__ZN10CUtlVectorI17virtualsequence_t10CUtlMemoryIS0_iEED2Ev
__ZN10CUtlVectorIP13memhandle_t__10CUtlMemoryIS1_iEE9AddToTailERKS1_
__ZN10CUtlVectorIP13memhandle_t__10CUtlMemoryIS1_iEED2Ev
__ZN10CUtlVectorIP17CDataCacheSection10CUtlMemoryIS1_iEED2Ev
__ZN10CUtlVectorIP9IMaterial10CUtlMemoryIS1_iEED2Ev
__ZN10CUtlVectorIPN15CUtlSymbolTable12StringPool_tE10CUtlMemoryIS2_iEED2Ev
__ZN10CUtlVectorIPc10CUtlMemoryIS0_iEED2Ev
__ZN10CUtlVectorIPv10CUtlMemoryIS0_iEE9AddToTailERKS0_
__ZN10CUtlVectorIPv10CUtlMemoryIS0_iEED2Ev
__ZN10CUtlVectorIi10CUtlMemoryIiiEE20InsertMultipleBeforeEii
__ZN10CUtlVectorIi10CUtlMemoryIiiEED2Ev
__ZN10CUtlVectorIt10CUtlMemoryItiEE20InsertMultipleBeforeEii
__ZN10CUtlVectorIt10CUtlMemoryItiEED2Ev
__ZN10CVProfNode10EnterScopeEv
__ZN10CVProfNode10GetSubNodeEPKciS1_i
__ZN10CVProfNode9ExitScopeEv
__ZN11phyheader_s9m_DataMapE
__ZN11studiohdr_t9m_DataMapE
__ZN12CDataManagerI15DataCacheItem_t19DataCacheItemData_tPS0_16CThreadFastMutexE11GetRealSizeEPv
__ZN12CDataManagerI15DataCacheItem_t19DataCacheItemData_tPS0_16CThreadFastMutexE22DestroyResourceStorageEPv
__ZN12CDataManagerI15DataCacheItem_t19DataCacheItemData_tPS0_16CThreadFastMutexE4LockEv
__ZN12CDataManagerI15DataCacheItem_t19DataCacheItemData_tPS0_16CThreadFastMutexE6UnlockEv
__ZN12CDataManagerI15DataCacheItem_t19DataCacheItemData_tPS0_16CThreadFastMutexE7TryLockEv
__ZN12CDataManagerI15DataCacheItem_t19DataCacheItemData_tPS0_16CThreadFastMutexED0Ev
__ZN12CDataManagerI15DataCacheItem_t19DataCacheItemData_tPS0_16CThreadFastMutexED1Ev
__ZN12CEmptyConVar8SetValueEPKc
__ZN12CEmptyConVar8SetValueEf
__ZN12CEmptyConVar8SetValueEi
__ZN12CEmptyConVarD0Ev
__ZN12CEmptyConVarD1Ev
__ZN12CRefCounted1I8CFunctor20CRefCountServiceBaseILb1E6CRefMTEE6AddRefEv
__ZN12CRefCounted1I8CFunctor20CRefCountServiceBaseILb1E6CRefMTEE7ReleaseEv
__ZN12CUtlHashFastIP13memhandle_t__18CUtlHashFastNoHashEC2Ev
__ZN12CUtlHashFastIP13memhandle_t__18CUtlHashFastNoHashED2Ev
__ZN12InterfaceReg16s_pInterfaceRegsE
__ZN12InterfaceRegC1EPFPvvEPKc
__ZN12ModelParts_tC2Ev
__ZN12studiodata_t11s_AllocatorE
__ZN12studiohdr2_t9m_DataMapE
__ZN13CMemoryPoolMT4FreeEPv
__ZN13CMemoryPoolMT5AllocEm
__ZN13CMemoryPoolMTD1Ev
__ZN13CUtlMultiListIN16CDataManagerBase22resource_lru_element_tEtE10LinkBeforeEttt
__ZN13CUtlMultiListIN16CDataManagerBase22resource_lru_element_tEtE5AllocEv
__ZN13CUtlMultiListIN16CDataManagerBase22resource_lru_element_tEtE9LinkAfterEttt
__ZN13CUtlMultiListIN16CDataManagerBase22resource_lru_element_tEtED2Ev
__ZN13mstudioanim_t9m_DataMapE
__ZN13mstudiobbox_t9m_DataMapE
__ZN13mstudiobone_t9m_DataMapE
__ZN13mstudioflex_t9m_DataMapE
__ZN13mstudiomesh_t9m_DataMapE
__ZN14CUtlLinkedListI11AsyncInfo_tiLb1Ei15CUtlFixedMemoryI19UtlLinkedListElem_tIS0_iEEE13AllocInternalEb
__ZN14CUtlLinkedListI11AsyncInfo_tiLb1Ei15CUtlFixedMemoryI19UtlLinkedListElem_tIS0_iEEE6UnlinkEi
__ZN14CUtlLinkedListI11AsyncInfo_tiLb1Ei15CUtlFixedMemoryI19UtlLinkedListElem_tIS0_iEEE9RemoveAllEv
__ZN14CUtlLinkedListIN12CUtlHashFastIP13memhandle_t__18CUtlHashFastNoHashE15HashFastData_t_IS2_EEiLb1Ei15CUtlFixedMemoryI19UtlLinkedListElem_tIS6_iEEE13AllocInternalEb
__ZN14CUtlLinkedListIN12CUtlHashFastIP13memhandle_t__18CUtlHashFastNoHashE15HashFastData_t_IS2_EEiLb1Ei15CUtlFixedMemoryI19UtlLinkedListElem_tIS6_iEEE6UnlinkEi
__ZN14CUtlLinkedListIN12CUtlHashFastIP13memhandle_t__18CUtlHashFastNoHashE15HashFastData_t_IS2_EEiLb1Ei15CUtlFixedMemoryI19UtlLinkedListElem_tIS6_iEEE9RemoveAllEv
__ZN14CUtlLinkedListIN13CUtlMultiListIN16CDataManagerBase22resource_lru_element_tEtE6List_tEtLb0Et10CUtlMemoryI19UtlLinkedListElem_tIS4_tEtEE10LinkBeforeEtt
__ZN14CUtlLinkedListIN13CUtlMultiListIN16CDataManagerBase22resource_lru_element_tEtE6List_tEtLb0Et10CUtlMemoryI19UtlLinkedListElem_tIS4_tEtEE13AllocInternalEb
__ZN14CUtlLinkedListIN13CUtlMultiListIN16CDataManagerBase22resource_lru_element_tEtE6List_tEtLb0Et10CUtlMemoryI19UtlLinkedListElem_tIS4_tEtEED2Ev
__ZN14CUtlMemoryPool10AddNewBlobEv
__ZN14CUtlMemoryPool12g_ReportFuncE
__ZN14CUtlMemoryPool4FreeEPv
__ZN14CUtlMemoryPool5AllocEm
__ZN14CUtlMemoryPoolC2EiiiPKci
__ZN14CUtlMemoryPoolD2Ev
__ZN14ConCommandBase10CreateBaseEPKcS1_i
__ZN14ConCommandBase11s_pAccessorE
__ZN14ConCommandBase18s_pConCommandBasesE
__ZN14OptimizedModel12FileHeader_t9m_DataMapE
__ZN14OptimizedModel12MeshHeader_t9m_DataMapE
__ZN14OptimizedModel13ModelHeader_t9m_DataMapE
__ZN14OptimizedModel13StripHeader_t9m_DataMapE
__ZN14OptimizedModel16BodyPartHeader_t9m_DataMapE
__ZN14OptimizedModel16ModelLODHeader_t9m_DataMapE
__ZN14OptimizedModel18StripGroupHeader_t9m_DataMapE
__ZN14OptimizedModel21Vertex_t_DataDescInit15g_DataMapHolderE
__ZN14OptimizedModel23BoneStateChangeHeader_t9m_DataMapE
__ZN14OptimizedModel25FileHeader_t_DataDescInit15g_DataMapHolderE
__ZN14OptimizedModel25MeshHeader_t_DataDescInit15g_DataMapHolderE
__ZN14OptimizedModel26ModelHeader_t_DataDescInit15g_DataMapHolderE
__ZN14OptimizedModel26StripHeader_t_DataDescInit15g_DataMapHolderE
__ZN14OptimizedModel27MaterialReplacementHeader_t9m_DataMapE
__ZN14OptimizedModel29BodyPartHeader_t_DataDescInit15g_DataMapHolderE
__ZN14OptimizedModel29ModelLODHeader_t_DataDescInit15g_DataMapHolderE
__ZN14OptimizedModel31MaterialReplacementListHeader_t9m_DataMapE
__ZN14OptimizedModel31StripGroupHeader_t_DataDescInit15g_DataMapHolderE
__ZN14OptimizedModel36BoneStateChangeHeader_t_DataDescInit15g_DataMapHolderE
__ZN14OptimizedModel40MaterialReplacementHeader_t_DataDescInit15g_DataMapHolderE
__ZN14OptimizedModel44MaterialReplacementListHeader_t_DataDescInit15g_DataMapHolderE
__ZN14OptimizedModel8Vertex_t9m_DataMapE
__ZN14StudioByteSwap21legacysurfaceheader_t9m_DataMapE
__ZN14StudioByteSwap26swapcompactsurfaceheader_t9m_DataMapE
__ZN14StudioByteSwap34legacysurfaceheader_t_DataDescInit15g_DataMapHolderE
__ZN14StudioByteSwap39swapcompactsurfaceheader_t_DataDescInit15g_DataMapHolderE
__ZN14StudioByteSwapL6g_SwapE
__ZN14mstudioevent_t9m_DataMapE
__ZN14mstudiomodel_t9m_DataMapE
__ZN14mstudiomouth_t9m_DataMapE
__ZN14virtualmodel_t11AppendNodesEiPK11studiohdr_t
__ZN14virtualmodel_t12AppendModelsEiPK11studiohdr_t
__ZN14virtualmodel_t13AppendBonemapEiPK11studiohdr_t
__ZN14virtualmodel_t13AppendIKLocksEiPK11studiohdr_t
__ZN14virtualmodel_t15AppendSequencesEiPK11studiohdr_t
__ZN14virtualmodel_t16AppendAnimationsEiPK11studiohdr_t
__ZN14virtualmodel_t17AppendAttachmentsEiPK11studiohdr_t
__ZN14virtualmodel_t20AppendPoseParametersEiPK11studiohdr_t
__ZN14virtualmodel_t23UpdateAutoplaySequencesEPK11studiohdr_t
__ZN15CUtlSymbolTableC1Eiib
__ZN15CUtlSymbolTableD1Ev
__ZN15CUtlSymbolTableD2Ev
__ZN15DataCacheItem_t11s_AllocatorE
__ZN15mstudioflexop_t9m_DataMapE
__ZN15mstudioiklink_t9m_DataMapE
__ZN15mstudioiklock_t9m_DataMapE
__ZN15mstudioikrule_t9m_DataMapE
__ZN15mstudiovertex_t9m_DataMapE
__ZN16CDataManagerBase10TargetSizeEv
__ZN16CDataManagerBase11MarkAsStaleEP13memhandle_t__
__ZN16CDataManagerBase12CreateHandleEb
__ZN16CDataManagerBase12LockResourceEP13memhandle_t__
__ZN16CDataManagerBase12TouchByIndexEt
__ZN16CDataManagerBase13SetTargetSizeEj
__ZN16CDataManagerBase13TouchResourceEP13memhandle_t__
__ZN16CDataManagerBase14EnsureCapacityEj
__ZN16CDataManagerBase14UnlockResourceEP13memhandle_t__
__ZN16CDataManagerBase15DestroyResourceEP13memhandle_t__
__ZN16CDataManagerBase16FlushAllUnlockedEv
__ZN16CDataManagerBase16GetLRUHandleListER10CUtlVectorIP13memhandle_t__10CUtlMemoryIS2_iEE
__ZN16CDataManagerBase17FlushToTargetSizeEv
__ZN16CDataManagerBase17GetForFreeByIndexEt
__ZN16CDataManagerBase17GetLockHandleListER10CUtlVectorIP13memhandle_t__10CUtlMemoryIS2_iEE
__ZN16CDataManagerBase17NotifySizeChangedEP13memhandle_t__jj
__ZN16CDataManagerBase18GetResource_NoLockEP13memhandle_t__
__ZN16CDataManagerBase21StoreResourceInHandleEtPvj
__ZN16CDataManagerBase28GetResource_NoLockNoLRUTouchEP13memhandle_t__
__ZN16CDataManagerBase4LockEv
__ZN16CDataManagerBase5PurgeEj
__ZN16CDataManagerBase6UnlockEv
__ZN16CDataManagerBase7TryLockEv
__ZN16CDataManagerBase8FlushAllEv
__ZN16CDataManagerBase8ToHandleEt
__ZN16CDataManagerBase8UsedSizeEv
__ZN16CDataManagerBase9BreakLockEP13memhandle_t__
__ZN16CDataManagerBaseC2Ej
__ZN16CDataManagerBaseD0Ev
__ZN16CDataManagerBaseD1Ev
__ZN16CDataManagerBaseD2Ev
__ZN16CDefaultAccessor22RegisterConCommandBaseEP14ConCommandBase
__ZN16CThreadLocalBase3SetEPv
__ZN16CThreadLocalBaseC2Ev
__ZN16CThreadLocalBaseD2Ev
__ZN16mstudioeyeball_t9m_DataMapE
__ZN16mstudioikchain_t9m_DataMapE
__ZN16mstudioikerror_t9m_DataMapE
__ZN16mstudioseqdesc_t9m_DataMapE
__ZN16mstudiotexture_t9m_DataMapE
__ZN17CDataCacheSection10GetNoTouchEP13memhandle_t__b
__ZN17CDataCacheSection10PurgeItemsEj
__ZN17CDataCacheSection10SetOptionsEj
__ZN17CDataCacheSection10UpdateSizeEP13memhandle_t__j
__ZN17CDataCacheSection11DiscardItemEP13memhandle_t__27DataCacheNotificationType_t
__ZN17CDataCacheSection11GetNextItemEP13memhandle_t__
__ZN17CDataCacheSection11UnlockMutexEv
__ZN17CDataCacheSection12GetLockCountEP13memhandle_t__
__ZN17CDataCacheSection12OutputReportE21DataCacheReportType_t
__ZN17CDataCacheSection14EnsureCapacityEjj
__ZN17CDataCacheSection14GetSharedCacheEv
__ZN17CDataCacheSection14IsFrameLockingEv
__ZN17CDataCacheSection15DiscardItemDataEP15DataCacheItem_t27DataCacheNotificationType_t
__ZN17CDataCacheSection15EndFrameLockingEv
__ZN17CDataCacheSection17BeginFrameLockingEv
__ZN17CDataCacheSection18GetFirstLockedItemEv
__ZN17CDataCacheSection20GetFirstUnlockedItemEv
__ZN17CDataCacheSection24GetFrameUnlockCounterPtrEv
__ZN17CDataCacheSection3AddEjPKvjPP13memhandle_t__
__ZN17CDataCacheSection3AgeEP13memhandle_t__
__ZN17CDataCacheSection3GetEP13memhandle_t__b
__ZN17CDataCacheSection4FindEj
__ZN17CDataCacheSection4LockEP13memhandle_t__
__ZN17CDataCacheSection5AddExEjPKvjjPP13memhandle_t__
__ZN17CDataCacheSection5FlushEbb
__ZN17CDataCacheSection5OnAddEjP13memhandle_t__
__ZN17CDataCacheSection5PurgeEj
__ZN17CDataCacheSection5TouchEP13memhandle_t__
__ZN17CDataCacheSection6DoFindEj
__ZN17CDataCacheSection6RemoveEP13memhandle_t__PPKvPjb
__ZN17CDataCacheSection6UnlockEP13memhandle_t__
__ZN17CDataCacheSection7GetNameEv
__ZN17CDataCacheSection8OnRemoveEj
__ZN17CDataCacheSection9BreakLockEP13memhandle_t__
__ZN17CDataCacheSection9FrameLockEP13memhandle_t__
__ZN17CDataCacheSection9GetStatusEP17DataCacheStatus_tP17DataCacheLimits_t
__ZN17CDataCacheSection9IsPresentEP13memhandle_t__
__ZN17CDataCacheSection9LockMutexEv
__ZN17CDataCacheSection9SetLimitsERK17DataCacheLimits_t
__ZN17CDataCacheSectionC2EP10CDataCacheP16IDataCacheClientPKc
__ZN17CDataCacheSectionD2Ev
__ZN17CThreadSyncObjectD2Ev
__ZN17mstudioanimdesc_t9m_DataMapE
__ZN17mstudioflexdesc_t9m_DataMapE
__ZN17mstudioflexrule_t9m_DataMapE
__ZN17mstudiomovement_t9m_DataMapE
__ZN17mstudiovertanim_t14ConvertToFixedEf
__ZN17mstudiovertanim_t9m_DataMapE
__ZN17vertexFileFixup_t9m_DataMapE
__ZN18CUtlCharConversion14FindConversionEPKcPi
__ZN18mstudioaimatbone_t9m_DataMapE
__ZN18mstudioanimblock_t9m_DataMapE
__ZN18mstudioautolayer_t9m_DataMapE
__ZN18mstudiobodyparts_t9m_DataMapE
__ZN18mstudiohitboxset_t9m_DataMapE
__ZN18vertexFileHeader_t9m_DataMapE
__ZN19CModelLookupContextD2Ev
__ZN19CUtlNoEscConversion14FindConversionEPKcPi
__ZN19mstudioattachment_t9m_DataMapE
__ZN19mstudioboneweight_t9m_DataMapE
__ZN19mstudiojigglebone_t9m_DataMapE
__ZN19mstudiolinearbone_t9m_DataMapE
__ZN19mstudiomodelgroup_t9m_DataMapE
__ZN20CRefCountServiceBaseILb1E6CRefMTE14OnFinalReleaseEv
__ZN21CUtlCStringConversion14FindConversionEPKcPi
__ZN21CUtlCStringConversionC2EcPKciPN18CUtlCharConversion17ConversionArray_tE
__ZN21mstudioanimsections_t9m_DataMapE
__ZN22CCleanupUtlSymbolTableD1Ev
__ZN22mstudioanim_valueptr_t9m_DataMapE
__ZN22mstudioposeparamdesc_t9m_DataMapE
__ZN23mstudioaxisinterpbone_t9m_DataMapE
__ZN23mstudiobonecontroller_t9m_DataMapE
__ZN23mstudioboneflexdriver_t9m_DataMapE
__ZN23mstudioflexcontroller_t9m_DataMapE
__ZN23mstudiolocalhierarchy_t9m_DataMapE
__ZN23mstudioquatinterpbone_t9m_DataMapE
__ZN23mstudioquatinterpinfo_t9m_DataMapE
__ZN24mstudio_meshvertexdata_t9m_DataMapE
__ZN24phyheader_t_DataDescInit15g_DataMapHolderE
__ZN24studiohdr_t_DataDescInit15g_DataMapHolderE
__ZN25CDataCacheSectionFastFind5OnAddEjP13memhandle_t__
__ZN25CDataCacheSectionFastFind6DoFindEj
__ZN25CDataCacheSectionFastFind8OnRemoveEj
__ZN25CDataCacheSectionFastFindC2EP10CDataCacheP16IDataCacheClientPKc
__ZN25mstudio_modelvertexdata_t9m_DataMapE
__ZN25mstudioactivitymodifier_t9m_DataMapE
__ZN25mstudioflexcontrollerui_t9m_DataMapE
__ZN25mstudiosrcbonetransform_t9m_DataMapE
__ZN25studiohdr2_t_DataDescInit15g_DataMapHolderE
__ZN26mstudioanim_t_DataDescInit15g_DataMapHolderE
__ZN26mstudiobbox_t_DataDescInit15g_DataMapHolderE
__ZN26mstudiobone_t_DataDescInit15g_DataMapHolderE
__ZN26mstudiocompressedikerror_t9m_DataMapE
__ZN26mstudioflex_t_DataDescInit15g_DataMapHolderE
__ZN26mstudiomesh_t_DataDescInit15g_DataMapHolderE
__ZN27mstudioevent_t_DataDescInit15g_DataMapHolderE
__ZN27mstudiomodel_t_DataDescInit15g_DataMapHolderE
__ZN27mstudiomouth_t_DataDescInit15g_DataMapHolderE
__ZN28CDatadescGeneratedNameHolderD1Ev
__ZN28mstudioflexop_t_DataDescInit15g_DataMapHolderE
__ZN28mstudioiklink_t_DataDescInit15g_DataMapHolderE
__ZN28mstudioiklock_t_DataDescInit15g_DataMapHolderE
__ZN28mstudioikrule_t_DataDescInit15g_DataMapHolderE
__ZN28mstudiovertex_t_DataDescInit15g_DataMapHolderE
__ZN29mstudioeyeball_t_DataDescInit15g_DataMapHolderE
__ZN29mstudioikchain_t_DataDescInit15g_DataMapHolderE
__ZN29mstudioikerror_t_DataDescInit15g_DataMapHolderE
__ZN29mstudioseqdesc_t_DataDescInit15g_DataMapHolderE
__ZN29mstudiotexture_t_DataDescInit15g_DataMapHolderE
__ZN30mstudioanimdesc_t_DataDescInit15g_DataMapHolderE
__ZN30mstudioboneflexdrivercontrol_t9m_DataMapE
__ZN30mstudioflexdesc_t_DataDescInit15g_DataMapHolderE
__ZN30mstudioflexrule_t_DataDescInit15g_DataMapHolderE
__ZN30mstudiomovement_t_DataDescInit15g_DataMapHolderE
__ZN30mstudiovertanim_t_DataDescInit15g_DataMapHolderE
__ZN30vertexFileFixup_t_DataDescInit15g_DataMapHolderE
__ZN31mstudioaimatbone_t_DataDescInit15g_DataMapHolderE
__ZN31mstudioanimblock_t_DataDescInit15g_DataMapHolderE
__ZN31mstudioautolayer_t_DataDescInit15g_DataMapHolderE
__ZN31mstudiobodyparts_t_DataDescInit15g_DataMapHolderE
__ZN31mstudiohitboxset_t_DataDescInit15g_DataMapHolderE
__ZN31vertexFileHeader_t_DataDescInit15g_DataMapHolderE
__ZN32mstudioattachment_t_DataDescInit15g_DataMapHolderE
__ZN32mstudioboneweight_t_DataDescInit15g_DataMapHolderE
__ZN32mstudiojigglebone_t_DataDescInit15g_DataMapHolderE
__ZN32mstudiolinearbone_t_DataDescInit15g_DataMapHolderE
__ZN32mstudiomodelgroup_t_DataDescInit15g_DataMapHolderE
__ZN34mstudioanimsections_t_DataDescInit15g_DataMapHolderE
__ZN35mstudioanim_valueptr_t_DataDescInit15g_DataMapHolderE
__ZN35mstudioposeparamdesc_t_DataDescInit15g_DataMapHolderE
__ZN36mstudioaxisinterpbone_t_DataDescInit15g_DataMapHolderE
__ZN36mstudiobonecontroller_t_DataDescInit15g_DataMapHolderE
__ZN36mstudioboneflexdriver_t_DataDescInit15g_DataMapHolderE
__ZN36mstudioflexcontroller_t_DataDescInit15g_DataMapHolderE
__ZN36mstudiolocalhierarchy_t_DataDescInit15g_DataMapHolderE
__ZN36mstudioquatinterpbone_t_DataDescInit15g_DataMapHolderE
__ZN36mstudioquatinterpinfo_t_DataDescInit15g_DataMapHolderE
__ZN37mstudio_meshvertexdata_t_DataDescInit15g_DataMapHolderE
__ZN38mstudio_modelvertexdata_t_DataDescInit15g_DataMapHolderE
__ZN38mstudioactivitymodifier_t_DataDescInit15g_DataMapHolderE
__ZN38mstudioflexcontrollerui_t_DataDescInit15g_DataMapHolderE
__ZN38mstudiosrcbonetransform_t_DataDescInit15g_DataMapHolderE
__ZN39mstudiocompressedikerror_t_DataDescInit15g_DataMapHolderE
__ZN43mstudioboneflexdrivercontrol_t_DataDescInit15g_DataMapHolderE
__ZN6ConVar10ClampValueERf
__ZN6ConVar16InternalSetValueEPKc
__ZN6ConVar17ChangeStringValueEPKcf
__ZN6ConVar19InternalSetIntValueEi
__ZN6ConVar21InternalSetFloatValueEfb
__ZN6ConVar4InitEv
__ZN6ConVar6CreateEPKcS1_iS1_bfbfbfbfPFvP7IConVarS1_fE
__ZN6ConVar8AddFlagsEi
__ZN6ConVar8SetValueEPKc
__ZN6ConVar8SetValueEf
__ZN6ConVar8SetValueEi
__ZN6ConVarC1EPKcS1_i
__ZN6ConVarC1EPKcS1_iS1_
__ZN6ConVarC1EPKcS1_iS1_bfbfPFvP7IConVarS1_fE
__ZN6ConVarD0Ev
__ZN6ConVarD1Ev
__ZN7CDefOpsIiE8LessFuncERKiS2_
__ZN7CUtlMapIiitPFbRKiS1_EED1Ev
__ZN8CFmtStrNILi256ELb0EE19InitQuietTruncationEv
__ZN8CFmtStrNILi256ELb0EEC1EPKcz
__ZN8CUtlDictIP12studiodata_ttE9RemoveAllEv
__ZN8CUtlDictIssE9RemoveAllEv
__ZN9CFunctor1IPFvP12ModelParts_tES1_12CRefCounted1I8CFunctor20CRefCountServiceBaseILb1E6CRefMTEEED0Ev
__ZN9CFunctor1IPFvP12ModelParts_tES1_12CRefCounted1I8CFunctor20CRefCountServiceBaseILb1E6CRefMTEEED1Ev
__ZN9CFunctor1IPFvP12ModelParts_tES1_12CRefCounted1I8CFunctor20CRefCountServiceBaseILb1E6CRefMTEEEclEv
__ZN9CFunctor1IPFvP19CleanupModelParts_tES1_12CRefCounted1I8CFunctor20CRefCountServiceBaseILb1E6CRefMTEEED0Ev
__ZN9CFunctor1IPFvP19CleanupModelParts_tES1_12CRefCounted1I8CFunctor20CRefCountServiceBaseILb1E6CRefMTEEED1Ev
__ZN9CFunctor1IPFvP19CleanupModelParts_tES1_12CRefCounted1I8CFunctor20CRefCountServiceBaseILb1E6CRefMTEEEclEv
__ZN9CMDLCache10ClearAsyncEt18MDLCacheDataType_tib
__ZN9CMDLCache10DisconnectEv
__ZN9CMDLCache10EndMapLoadEv
__ZN9CMDLCache11GetItemNameEjPKvPcj
__ZN9CMDLCache11GetUserDataEt
__ZN9CMDLCache11GetVCollideEt
__ZN9CMDLCache11ReadMDLFileEtPKcR10CUtlBuffer
__ZN9CMDLCache11SetUserDataEtPv
__ZN9CMDLCache12BeginMapLoadEv
__ZN9CMDLCache12GetAnimBlockEti
__ZN9CMDLCache12GetAsyncLoadE18MDLCacheDataType_t
__ZN9CMDLCache12GetModelNameEt
__ZN9CMDLCache12GetStudioHdrEt
__ZN9CMDLCache12IsDataLoadedEt18MDLCacheDataType_t
__ZN9CMDLCache12IsErrorModelEt
__ZN9CMDLCache12MarkAsLoadedEt
__ZN9CMDLCache12PreloadModelEt
__ZN9CMDLCache12SetAsyncLoadE18MDLCacheDataType_tb
__ZN9CMDLCache12TouchAllDataEt
__ZN9CMDLCache13GetVCollideExEtb
__ZN9CMDLCache13GetVertexDataEt
__ZN9CMDLCache13LockStudioHdrEt
__ZN9CMDLCache13VerifyHeadersEP11studiohdr_t
__ZN9CMDLCache14FreeAnimBlocksEt
__ZN9CMDLCache14LoadVertexDataEP11studiohdr_t
__ZN9CMDLCache14QueryInterfaceEPKc
__ZN9CMDLCache14SetCacheNotifyEP15IMDLCacheNotify
__ZN9CMDLCache14UnserializeMDLEtPvib
__ZN9CMDLCache15CacheVertexDataEP11studiohdr_t
__ZN9CMDLCache15ConvertFlexDataEP11studiohdr_t
__ZN9CMDLCache15GetAutoplayListEtPPt
__ZN9CMDLCache15GetHardwareDataEt
__ZN9CMDLCache15GetVCollideSizeEtPi
__ZN9CMDLCache15GetVirtualModelEt
__ZN9CMDLCache15InitPreloadDataEb
__ZN9CMDLCache15UnlockStudioHdrEt
__ZN9CMDLCache16FreeVirtualModelEt
__ZN9CMDLCache16LoadHardwareDataEt
__ZN9CMDLCache17BuildHardwareDataEtP12studiodata_tP11studiohdr_tPN14OptimizedModel12FileHeader_tE
__ZN9CMDLCache17ProcessQueuedDataEP12ModelParts_tb
__ZN9CMDLCache18CleanupDynamicLoadEP19CleanupModelParts_t
__ZN9CMDLCache18FinishPendingLoadsEv
__ZN9CMDLCache18NotifyFileUnloadedEtPKc
__ZN9CMDLCache18ProcessDynamicLoadEP12ModelParts_t
__ZN9CMDLCache18UnloadHardwareDataEtbb
__ZN9CMDLCache19GetVirtualModelFastEPK11studiohdr_tt
__ZN9CMDLCache19ProcessPendingAsyncEi
__ZN9CMDLCache19ShutdownPreloadDataEv
__ZN9CMDLCache19UnserializeVCollideEtb
__ZN9CMDLCache20ProcessDataIntoCacheEt18MDLCacheDataType_tiPvib
__ZN9CMDLCache20ProcessPendingAsyncsE18MDLCacheDataType_t
__ZN9CMDLCache20UnserializeAnimBlockEti
__ZN9CMDLCache21ResetErrorModelStatusEt
__ZN9CMDLCache23BuildAndCacheVertexDataEP11studiohdr_tP18vertexFileHeader_t
__ZN9CMDLCache23HandleCacheNotificationERK23DataCacheNotification_t
__ZN9CMDLCache24GetFrameUnlockCounterPtrE18MDLCacheDataType_t
__ZN9CMDLCache24QueuedLoaderCallback_MDLEPvS0_PKvi13LoaderError_t
__ZN9CMDLCache27GetFrameUnlockCounterPtrOLDEv
__ZN9CMDLCache28ReleaseMaterialSystemObjectsEv
__ZN9CMDLCache28RestoreMaterialSystemObjectsEi
__ZN9CMDLCache4InitEv
__ZN9CMDLCache5FlushE15MDLCacheFlush_t
__ZN9CMDLCache5FlushEti
__ZN9CMDLCache6AddRefEt
__ZN9CMDLCache6GetRefEt
__ZN9CMDLCache7ConnectEPFPvPKcPiE
__ZN9CMDLCache7EndLockEv
__ZN9CMDLCache7FindMDLEPKc
__ZN9CMDLCache7ReleaseEt
__ZN9CMDLCache8ShutdownEv
__ZN9CMDLCache9BeginLockEv
__ZN9CMDLCache9MarkFrameEv
__ZN9CMDLCacheD1Ev
__ZN9ConVarRefC1EP7IConVar
__ZNK10CUtlRBTreeIN7CUtlMapIPKcP12studiodata_ttPFbRKS2_S6_EE6Node_tEtNS9_8CKeyLessE10CUtlMemoryI15UtlRBTreeNode_tISA_tEtEE11NextInorderEt
__ZNK10CUtlRBTreeIN7CUtlMapIPKcssPFbRKS2_S4_EE6Node_tEsNS7_8CKeyLessE10CUtlMemoryI15UtlRBTreeNode_tIS8_sEsEE11NextInorderEs
__ZNK11studiohdr_t15GetVirtualModelEv
__ZNK11studiohdr_t21CopyAutoplaySequencesEPti
__ZNK11studiohdr_t22CountAutoplaySequencesEv
__ZNK11studiohdr_t8pSeqdescEi
__ZNK11studiohdr_t9FindModelEPPvPKc
__ZNK12CEmptyConVar7GetNameEv
__ZNK12CEmptyConVar9IsFlagSetEi
__ZNK14ConCommandBase16GetDLLIdentifierEv
__ZNK14virtualgroup_t12GetStudioHdrEv
__ZNK16CThreadLocalBase3GetEv
__ZNK6ConVar11GetHelpTextEv
__ZNK6ConVar12IsRegisteredEv
__ZNK6ConVar7GetNameEv
__ZNK6ConVar9IsCommandEv
__ZNK6ConVar9IsFlagSetEi
__ZNV16CThreadFastMutex4LockEjj
__ZSt9terminatev
__ZTI10CDataCache
__ZTI10IAppSystem
__ZTI10IDataCache
__ZTI11IRefCounted
__ZTI12CDataManagerI15DataCacheItem_t19DataCacheItemData_tPS0_16CThreadFastMutexE
__ZTI12CEmptyConVar
__ZTI12CRefCounted1I8CFunctor20CRefCountServiceBaseILb1E6CRefMTEE
__ZTI14CBaseAppSystemI10IDataCacheE
__ZTI14CBaseAppSystemI9IMDLCacheE
__ZTI14ConCommandBase
__ZTI15CTier0AppSystemI10IDataCacheE
__ZTI15CTier0AppSystemI9IMDLCacheE
__ZTI15CTier1AppSystemI10IDataCacheLi0EE
__ZTI15CTier1AppSystemI9IMDLCacheLi0EE
__ZTI15CTier2AppSystemI10IDataCacheLi0EE
__ZTI15CTier2AppSystemI9IMDLCacheLi0EE
__ZTI15CTier3AppSystemI10IDataCacheLi0EE
__ZTI15CTier3AppSystemI9IMDLCacheLi0EE
__ZTI16CDataManagerBase
__ZTI16CDefaultAccessor
__ZTI16IDataCacheClient
__ZTI16IStudioDataCache
__ZTI17CDataCacheSection
__ZTI17IDataCacheSection
__ZTI18CUtlCharConversion
__ZTI19CUtlNoEscConversion
__ZTI20CRefCountServiceBaseILb1E6CRefMTE
__ZTI21CUtlCStringConversion
__ZTI23CDefaultDataCacheClient
__ZTI23IConCommandBaseAccessor
__ZTI25CDataCacheSectionFastFind
__ZTI6ConVar
__ZTI7IConVar
__ZTI8CFmtStrNILi256ELb0EE
__ZTI8CFunctor
__ZTI9CFunctor1IPFvP12ModelParts_tES1_12CRefCounted1I8CFunctor20CRefCountServiceBaseILb1E6CRefMTEEE
__ZTI9CFunctor1IPFvP19CleanupModelParts_tES1_12CRefCounted1I8CFunctor20CRefCountServiceBaseILb1E6CRefMTEEE
__ZTI9CMDLCache
__ZTI9IMDLCache
__ZTISt9bad_alloc
__ZTS10CDataCache
__ZTS10IAppSystem
__ZTS10IDataCache
__ZTS11IRefCounted
__ZTS12CDataManagerI15DataCacheItem_t19DataCacheItemData_tPS0_16CThreadFastMutexE
__ZTS12CEmptyConVar
__ZTS12CRefCounted1I8CFunctor20CRefCountServiceBaseILb1E6CRefMTEE
__ZTS14CBaseAppSystemI10IDataCacheE
__ZTS14CBaseAppSystemI9IMDLCacheE
__ZTS14ConCommandBase
__ZTS15CTier0AppSystemI10IDataCacheE
__ZTS15CTier0AppSystemI9IMDLCacheE
__ZTS15CTier1AppSystemI10IDataCacheLi0EE
__ZTS15CTier1AppSystemI9IMDLCacheLi0EE
__ZTS15CTier2AppSystemI10IDataCacheLi0EE
__ZTS15CTier2AppSystemI9IMDLCacheLi0EE
__ZTS15CTier3AppSystemI10IDataCacheLi0EE
__ZTS15CTier3AppSystemI9IMDLCacheLi0EE
__ZTS16CDataManagerBase
__ZTS16CDefaultAccessor
__ZTS16IDataCacheClient
__ZTS16IStudioDataCache
__ZTS17CDataCacheSection
__ZTS17IDataCacheSection
__ZTS18CUtlCharConversion
__ZTS19CUtlNoEscConversion
__ZTS20CRefCountServiceBaseILb1E6CRefMTE
__ZTS21CUtlCStringConversion
__ZTS23CDefaultDataCacheClient
__ZTS23IConCommandBaseAccessor
__ZTS25CDataCacheSectionFastFind
__ZTS6ConVar
__ZTS7IConVar
__ZTS8CFmtStrNILi256ELb0EE
__ZTS8CFunctor
__ZTS9CFunctor1IPFvP12ModelParts_tES1_12CRefCounted1I8CFunctor20CRefCountServiceBaseILb1E6CRefMTEEE
__ZTS9CFunctor1IPFvP19CleanupModelParts_tES1_12CRefCounted1I8CFunctor20CRefCountServiceBaseILb1E6CRefMTEEE
__ZTS9CMDLCache
__ZTS9IMDLCache
__ZTV10CDataCache
__ZTV12CDataManagerI15DataCacheItem_t19DataCacheItemData_tPS0_16CThreadFastMutexE
__ZTV12CEmptyConVar
__ZTV16CDataManagerBase
__ZTV16CDefaultAccessor
__ZTV17CDataCacheSection
__ZTV18CUtlCharConversion
__ZTV19CUtlNoEscConversion
__ZTV21CUtlCStringConversion
__ZTV25CDataCacheSectionFastFind
__ZTV6ConVar
__ZTV8CFmtStrNILi256ELb0EE
__ZTV9CFunctor1IPFvP12ModelParts_tES1_12CRefCounted1I8CFunctor20CRefCountServiceBaseILb1E6CRefMTEEE
__ZTV9CFunctor1IPFvP19CleanupModelParts_tES1_12CRefCounted1I8CFunctor20CRefCountServiceBaseILb1E6CRefMTEEE
__ZTV9CMDLCache
__ZTVN10__cxxabiv117__class_type_infoE
__ZTVN10__cxxabiv120__si_class_type_infoE
__ZTVN10__cxxabiv121__vmi_class_type_infoE
__ZThn12_N9CMDLCache11GetItemNameEjPKvPcj
__ZThn12_N9CMDLCache23HandleCacheNotificationERK23DataCacheNotification_t
__ZThn24_N12CEmptyConVar8SetValueEPKc
__ZThn24_N12CEmptyConVar8SetValueEf
__ZThn24_N12CEmptyConVar8SetValueEi
__ZThn24_N6ConVar8SetValueEPKc
__ZThn24_N6ConVar8SetValueEf
__ZThn24_N6ConVar8SetValueEi
__ZThn24_NK12CEmptyConVar7GetNameEv
__ZThn24_NK12CEmptyConVar9IsFlagSetEi
__ZThn24_NK6ConVar7GetNameEv
__ZThn24_NK6ConVar9IsFlagSetEi
__ZThn8_N9CFunctor1IPFvP12ModelParts_tES1_12CRefCounted1I8CFunctor20CRefCountServiceBaseILb1E6CRefMTEEED0Ev
__ZThn8_N9CFunctor1IPFvP12ModelParts_tES1_12CRefCounted1I8CFunctor20CRefCountServiceBaseILb1E6CRefMTEEED1Ev
__ZThn8_N9CFunctor1IPFvP19CleanupModelParts_tES1_12CRefCounted1I8CFunctor20CRefCountServiceBaseILb1E6CRefMTEEED0Ev
__ZThn8_N9CFunctor1IPFvP19CleanupModelParts_tES1_12CRefCounted1I8CFunctor20CRefCountServiceBaseILb1E6CRefMTEEED1Ev
__ZThn8_N9CMDLCache10DisconnectEv
__ZThn8_N9CMDLCache13VerifyHeadersEP11studiohdr_t
__ZThn8_N9CMDLCache14QueryInterfaceEPKc
__ZThn8_N9CMDLCache15CacheVertexDataEP11studiohdr_t
__ZThn8_N9CMDLCache4InitEv
__ZThn8_N9CMDLCache7ConnectEPFPvPKcPiE
__ZThn8_N9CMDLCache8ShutdownEv
__ZZ11DataMapInitI11phyheader_sEP9datamap_tPT_E10nameHolder
__ZZ11DataMapInitI11phyheader_sEP9datamap_tPT_E8dataDesc
__ZZ11DataMapInitI11studiohdr_tEP9datamap_tPT_E10nameHolder
__ZZ11DataMapInitI11studiohdr_tEP9datamap_tPT_E8dataDesc
__ZZ11DataMapInitI12studiohdr2_tEP9datamap_tPT_E10nameHolder
__ZZ11DataMapInitI12studiohdr2_tEP9datamap_tPT_E8dataDesc
__ZZ11DataMapInitI13mstudioanim_tEP9datamap_tPT_E10nameHolder
__ZZ11DataMapInitI13mstudioanim_tEP9datamap_tPT_E8dataDesc
__ZZ11DataMapInitI13mstudiobbox_tEP9datamap_tPT_E10nameHolder
__ZZ11DataMapInitI13mstudiobbox_tEP9datamap_tPT_E8dataDesc
__ZZ11DataMapInitI13mstudiobone_tEP9datamap_tPT_E10nameHolder
__ZZ11DataMapInitI13mstudiobone_tEP9datamap_tPT_E8dataDesc
__ZZ11DataMapInitI13mstudioflex_tEP9datamap_tPT_E10nameHolder
__ZZ11DataMapInitI13mstudioflex_tEP9datamap_tPT_E8dataDesc
__ZZ11DataMapInitI13mstudiomesh_tEP9datamap_tPT_E10nameHolder
__ZZ11DataMapInitI13mstudiomesh_tEP9datamap_tPT_E8dataDesc
__ZZ11DataMapInitI14mstudioevent_tEP9datamap_tPT_E10nameHolder
__ZZ11DataMapInitI14mstudioevent_tEP9datamap_tPT_E8dataDesc
__ZZ11DataMapInitI14mstudiomodel_tEP9datamap_tPT_E10nameHolder
__ZZ11DataMapInitI14mstudiomodel_tEP9datamap_tPT_E8dataDesc
__ZZ11DataMapInitI14mstudiomouth_tEP9datamap_tPT_E10nameHolder
__ZZ11DataMapInitI14mstudiomouth_tEP9datamap_tPT_E8dataDesc
__ZZ11DataMapInitI15mstudioflexop_tEP9datamap_tPT_E10nameHolder
__ZZ11DataMapInitI15mstudioflexop_tEP9datamap_tPT_E8dataDesc
__ZZ11DataMapInitI15mstudioiklink_tEP9datamap_tPT_E10nameHolder
__ZZ11DataMapInitI15mstudioiklink_tEP9datamap_tPT_E8dataDesc
__ZZ11DataMapInitI15mstudioiklock_tEP9datamap_tPT_E10nameHolder
__ZZ11DataMapInitI15mstudioiklock_tEP9datamap_tPT_E8dataDesc
__ZZ11DataMapInitI15mstudioikrule_tEP9datamap_tPT_E10nameHolder
__ZZ11DataMapInitI15mstudioikrule_tEP9datamap_tPT_E8dataDesc
__ZZ11DataMapInitI15mstudiovertex_tEP9datamap_tPT_E10nameHolder
__ZZ11DataMapInitI15mstudiovertex_tEP9datamap_tPT_E8dataDesc
__ZZ11DataMapInitI16mstudioeyeball_tEP9datamap_tPT_E10nameHolder
__ZZ11DataMapInitI16mstudioeyeball_tEP9datamap_tPT_E8dataDesc
__ZZ11DataMapInitI16mstudioikchain_tEP9datamap_tPT_E10nameHolder
__ZZ11DataMapInitI16mstudioikchain_tEP9datamap_tPT_E8dataDesc
__ZZ11DataMapInitI16mstudioikerror_tEP9datamap_tPT_E10nameHolder
__ZZ11DataMapInitI16mstudioikerror_tEP9datamap_tPT_E8dataDesc
__ZZ11DataMapInitI16mstudioseqdesc_tEP9datamap_tPT_E10nameHolder
__ZZ11DataMapInitI16mstudioseqdesc_tEP9datamap_tPT_E8dataDesc
__ZZ11DataMapInitI16mstudiotexture_tEP9datamap_tPT_E10nameHolder
__ZZ11DataMapInitI16mstudiotexture_tEP9datamap_tPT_E8dataDesc
__ZZ11DataMapInitI17mstudioanimdesc_tEP9datamap_tPT_E10nameHolder
__ZZ11DataMapInitI17mstudioanimdesc_tEP9datamap_tPT_E8dataDesc
__ZZ11DataMapInitI17mstudioflexdesc_tEP9datamap_tPT_E10nameHolder
__ZZ11DataMapInitI17mstudioflexdesc_tEP9datamap_tPT_E8dataDesc
__ZZ11DataMapInitI17mstudioflexrule_tEP9datamap_tPT_E10nameHolder
__ZZ11DataMapInitI17mstudioflexrule_tEP9datamap_tPT_E8dataDesc
__ZZ11DataMapInitI17mstudiomovement_tEP9datamap_tPT_E10nameHolder
__ZZ11DataMapInitI17mstudiomovement_tEP9datamap_tPT_E8dataDesc
__ZZ11DataMapInitI17mstudiovertanim_tEP9datamap_tPT_E10nameHolder
__ZZ11DataMapInitI17mstudiovertanim_tEP9datamap_tPT_E8dataDesc
__ZZ11DataMapInitI17vertexFileFixup_tEP9datamap_tPT_E10nameHolder
__ZZ11DataMapInitI17vertexFileFixup_tEP9datamap_tPT_E8dataDesc
__ZZ11DataMapInitI18mstudioaimatbone_tEP9datamap_tPT_E10nameHolder
__ZZ11DataMapInitI18mstudioaimatbone_tEP9datamap_tPT_E8dataDesc
__ZZ11DataMapInitI18mstudioanimblock_tEP9datamap_tPT_E10nameHolder
__ZZ11DataMapInitI18mstudioanimblock_tEP9datamap_tPT_E8dataDesc
__ZZ11DataMapInitI18mstudioautolayer_tEP9datamap_tPT_E10nameHolder
__ZZ11DataMapInitI18mstudioautolayer_tEP9datamap_tPT_E8dataDesc
__ZZ11DataMapInitI18mstudiobodyparts_tEP9datamap_tPT_E10nameHolder
__ZZ11DataMapInitI18mstudiobodyparts_tEP9datamap_tPT_E8dataDesc
__ZZ11DataMapInitI18mstudiohitboxset_tEP9datamap_tPT_E10nameHolder
__ZZ11DataMapInitI18mstudiohitboxset_tEP9datamap_tPT_E8dataDesc
__ZZ11DataMapInitI18vertexFileHeader_tEP9datamap_tPT_E10nameHolder
__ZZ11DataMapInitI18vertexFileHeader_tEP9datamap_tPT_E8dataDesc
__ZZ11DataMapInitI19mstudioattachment_tEP9datamap_tPT_E10nameHolder
__ZZ11DataMapInitI19mstudioattachment_tEP9datamap_tPT_E8dataDesc
__ZZ11DataMapInitI19mstudioboneweight_tEP9datamap_tPT_E10nameHolder
__ZZ11DataMapInitI19mstudioboneweight_tEP9datamap_tPT_E8dataDesc
__ZZ11DataMapInitI19mstudiojigglebone_tEP9datamap_tPT_E10nameHolder
__ZZ11DataMapInitI19mstudiojigglebone_tEP9datamap_tPT_E8dataDesc
__ZZ11DataMapInitI19mstudiolinearbone_tEP9datamap_tPT_E10nameHolder
__ZZ11DataMapInitI19mstudiolinearbone_tEP9datamap_tPT_E8dataDesc
__ZZ11DataMapInitI19mstudiomodelgroup_tEP9datamap_tPT_E10nameHolder
__ZZ11DataMapInitI19mstudiomodelgroup_tEP9datamap_tPT_E8dataDesc
__ZZ11DataMapInitI21mstudioanimsections_tEP9datamap_tPT_E10nameHolder
__ZZ11DataMapInitI21mstudioanimsections_tEP9datamap_tPT_E8dataDesc
__ZZ11DataMapInitI22mstudioanim_valueptr_tEP9datamap_tPT_E10nameHolder
__ZZ11DataMapInitI22mstudioanim_valueptr_tEP9datamap_tPT_E8dataDesc
__ZZ11DataMapInitI22mstudioposeparamdesc_tEP9datamap_tPT_E10nameHolder
__ZZ11DataMapInitI22mstudioposeparamdesc_tEP9datamap_tPT_E8dataDesc
__ZZ11DataMapInitI23mstudioaxisinterpbone_tEP9datamap_tPT_E10nameHolder
__ZZ11DataMapInitI23mstudioaxisinterpbone_tEP9datamap_tPT_E8dataDesc
__ZZ11DataMapInitI23mstudiobonecontroller_tEP9datamap_tPT_E10nameHolder
__ZZ11DataMapInitI23mstudiobonecontroller_tEP9datamap_tPT_E8dataDesc
__ZZ11DataMapInitI23mstudioboneflexdriver_tEP9datamap_tPT_E10nameHolder
__ZZ11DataMapInitI23mstudioboneflexdriver_tEP9datamap_tPT_E8dataDesc
__ZZ11DataMapInitI23mstudioflexcontroller_tEP9datamap_tPT_E10nameHolder
__ZZ11DataMapInitI23mstudioflexcontroller_tEP9datamap_tPT_E8dataDesc
__ZZ11DataMapInitI23mstudiolocalhierarchy_tEP9datamap_tPT_E10nameHolder
__ZZ11DataMapInitI23mstudiolocalhierarchy_tEP9datamap_tPT_E8dataDesc
__ZZ11DataMapInitI23mstudioquatinterpbone_tEP9datamap_tPT_E10nameHolder
__ZZ11DataMapInitI23mstudioquatinterpbone_tEP9datamap_tPT_E8dataDesc
__ZZ11DataMapInitI23mstudioquatinterpinfo_tEP9datamap_tPT_E10nameHolder
__ZZ11DataMapInitI23mstudioquatinterpinfo_tEP9datamap_tPT_E8dataDesc
__ZZ11DataMapInitI24mstudio_meshvertexdata_tEP9datamap_tPT_E10nameHolder
__ZZ11DataMapInitI24mstudio_meshvertexdata_tEP9datamap_tPT_E8dataDesc
__ZZ11DataMapInitI25mstudio_modelvertexdata_tEP9datamap_tPT_E10nameHolder
__ZZ11DataMapInitI25mstudio_modelvertexdata_tEP9datamap_tPT_E8dataDesc
__ZZ11DataMapInitI25mstudioactivitymodifier_tEP9datamap_tPT_E10nameHolder
__ZZ11DataMapInitI25mstudioactivitymodifier_tEP9datamap_tPT_E8dataDesc
__ZZ11DataMapInitI25mstudioflexcontrollerui_tEP9datamap_tPT_E10nameHolder
__ZZ11DataMapInitI25mstudioflexcontrollerui_tEP9datamap_tPT_E8dataDesc
__ZZ11DataMapInitI25mstudiosrcbonetransform_tEP9datamap_tPT_E10nameHolder
__ZZ11DataMapInitI25mstudiosrcbonetransform_tEP9datamap_tPT_E8dataDesc
__ZZ11DataMapInitI26mstudiocompressedikerror_tEP9datamap_tPT_E10nameHolder
__ZZ11DataMapInitI26mstudiocompressedikerror_tEP9datamap_tPT_E8dataDesc
__ZZ11DataMapInitI30mstudioboneflexdrivercontrol_tEP9datamap_tPT_E10nameHolder
__ZZ11DataMapInitI30mstudioboneflexdrivercontrol_tEP9datamap_tPT_E8dataDesc
__ZZ12V_pretifymemfibE6output
__ZZ12V_pretifymemfibE7current
__ZZN14OptimizedModel11DataMapInitINS_12FileHeader_tEEEP9datamap_tPT_E10nameHolder
__ZZN14OptimizedModel11DataMapInitINS_12FileHeader_tEEEP9datamap_tPT_E8dataDesc
__ZZN14OptimizedModel11DataMapInitINS_12MeshHeader_tEEEP9datamap_tPT_E10nameHolder
__ZZN14OptimizedModel11DataMapInitINS_12MeshHeader_tEEEP9datamap_tPT_E8dataDesc
__ZZN14OptimizedModel11DataMapInitINS_13ModelHeader_tEEEP9datamap_tPT_E10nameHolder
__ZZN14OptimizedModel11DataMapInitINS_13ModelHeader_tEEEP9datamap_tPT_E8dataDesc
__ZZN14OptimizedModel11DataMapInitINS_13StripHeader_tEEEP9datamap_tPT_E10nameHolder
__ZZN14OptimizedModel11DataMapInitINS_13StripHeader_tEEEP9datamap_tPT_E8dataDesc
__ZZN14OptimizedModel11DataMapInitINS_16BodyPartHeader_tEEEP9datamap_tPT_E10nameHolder
__ZZN14OptimizedModel11DataMapInitINS_16BodyPartHeader_tEEEP9datamap_tPT_E8dataDesc
__ZZN14OptimizedModel11DataMapInitINS_16ModelLODHeader_tEEEP9datamap_tPT_E10nameHolder
__ZZN14OptimizedModel11DataMapInitINS_16ModelLODHeader_tEEEP9datamap_tPT_E8dataDesc
__ZZN14OptimizedModel11DataMapInitINS_18StripGroupHeader_tEEEP9datamap_tPT_E10nameHolder
__ZZN14OptimizedModel11DataMapInitINS_18StripGroupHeader_tEEEP9datamap_tPT_E8dataDesc
__ZZN14OptimizedModel11DataMapInitINS_23BoneStateChangeHeader_tEEEP9datamap_tPT_E10nameHolder
__ZZN14OptimizedModel11DataMapInitINS_23BoneStateChangeHeader_tEEEP9datamap_tPT_E8dataDesc
__ZZN14OptimizedModel11DataMapInitINS_27MaterialReplacementHeader_tEEEP9datamap_tPT_E10nameHolder
__ZZN14OptimizedModel11DataMapInitINS_27MaterialReplacementHeader_tEEEP9datamap_tPT_E8dataDesc
__ZZN14OptimizedModel11DataMapInitINS_31MaterialReplacementListHeader_tEEEP9datamap_tPT_E10nameHolder
__ZZN14OptimizedModel11DataMapInitINS_31MaterialReplacementListHeader_tEEEP9datamap_tPT_E8dataDesc
__ZZN14OptimizedModel11DataMapInitINS_8Vertex_tEEEP9datamap_tPT_E10nameHolder
__ZZN14OptimizedModel11DataMapInitINS_8Vertex_tEEEP9datamap_tPT_E8dataDesc
__ZZN14StudioByteSwap11DataMapInitINS_21legacysurfaceheader_tEEEP9datamap_tPT_E10nameHolder
__ZZN14StudioByteSwap11DataMapInitINS_21legacysurfaceheader_tEEEP9datamap_tPT_E8dataDesc
__ZZN14StudioByteSwap11DataMapInitINS_26swapcompactsurfaceheader_tEEEP9datamap_tPT_E10nameHolder
__ZZN14StudioByteSwap11DataMapInitINS_26swapcompactsurfaceheader_tEEEP9datamap_tPT_E8dataDesc
__ZZN16CDataManagerBase17GetForFreeByIndexEtE14__executeCount
__ZZN8CFmtStrNILi256ELb0EEC1EPKczE10scAsserted
__ZZN9CMDLCache20ProcessPendingAsyncsE18MDLCacheDataType_tE11bReentering
__ZdaPv
__ZdlPv
__Znam
__Znwm
___bzero
___clang_call_terminate
___cxa_atexit
___cxa_begin_catch
___cxa_call_unexpected
___cxa_guard_abort
___cxa_guard_acquire
___cxa_guard_release
___cxa_pure_virtual
___gxx_personality_v0
___stack_chk_fail
___stack_chk_guard
___stdoutp
_atof
_atoi
_colorcorrection
_cvar
_datacachesize
_developer
_fflush
_g_ActivityModifiersTable
_g_AsyncInfoMap
_g_AsyncInfoMapMutex
_g_DataCache
_g_VBAllocTracker
_g_VProfCurrentProfile
_g_pCVar
_g_pDataCache
_g_pDmeMakefileUtils
_g_pFullFileSystem
_g_pInputSystem
_g_pMDLCache
_g_pMatSystemSurface
_g_pMaterialSystem
_g_pMaterialSystemDebugTextureInfo
_g_pMaterialSystemHardwareConfig
_g_pMemAlloc
_g_pNetworkSystem
_g_pPhysicsCollision
_g_pProcessUtils
_g_pQueuedLoader
_g_pSoundEmitterSystem
_g_pStudioRender
_g_pVGui
_g_pVGuiInput
_g_pVGuiLocalize
_g_pVGuiPanel
_g_pVGuiSchemeManager
_g_pVGuiSurface
_g_pVGuiSystem
_g_pVTex
_g_pVideo
_materials
_mdlcache
_mdllib
_memcpy
_memmove
_p4
_pow
_printf
_pthread_mutex_destroy
_raise
_s_NoEscConversion
_s_StringCharConversion
_strcasecmp
_strchr
_strcmp
_strcpy
_strlen
_strncat
_strncpy
_studiorender
_vsnprintf
dyld_stub_binder
