GCC_except_table0
GCC_except_table0
GCC_except_table0
GCC_except_table0
GCC_except_table0
GCC_except_table0
GCC_except_table0
GCC_except_table0
GCC_except_table0
GCC_except_table0
GCC_except_table0
GCC_except_table0
GCC_except_table0
GCC_except_table0
GCC_except_table0
GCC_except_table0
GCC_except_table0
GCC_except_table0
GCC_except_table0
GCC_except_table0
GCC_except_table0
GCC_except_table0
GCC_except_table0
GCC_except_table0
GCC_except_table0
GCC_except_table0
GCC_except_table0
GCC_except_table0
GCC_except_table0
GCC_except_table0
GCC_except_table0
GCC_except_table0
GCC_except_table0
GCC_except_table0
GCC_except_table0
GCC_except_table0
GCC_except_table0
GCC_except_table0
GCC_except_table0
GCC_except_table0
GCC_except_table0
GCC_except_table0
GCC_except_table0
GCC_except_table0
GCC_except_table0
GCC_except_table0
GCC_except_table0
GCC_except_table0
GCC_except_table0
GCC_except_table0
GCC_except_table0
GCC_except_table0
GCC_except_table0
GCC_except_table0
GCC_except_table0
GCC_except_table0
GCC_except_table0
GCC_except_table0
GCC_except_table0
GCC_except_table0
GCC_except_table0
GCC_except_table0
GCC_except_table0
GCC_except_table0
GCC_except_table0
GCC_except_table0
GCC_except_table1
GCC_except_table1
GCC_except_table1
GCC_except_table1
GCC_except_table1
GCC_except_table1
GCC_except_table1
GCC_except_table1
GCC_except_table1
GCC_except_table1
GCC_except_table1
GCC_except_table1
GCC_except_table1
GCC_except_table1
GCC_except_table1
GCC_except_table1
GCC_except_table1
GCC_except_table1
GCC_except_table1
GCC_except_table1
GCC_except_table1
GCC_except_table1
GCC_except_table1
GCC_except_table1
GCC_except_table1
GCC_except_table1
GCC_except_table1
GCC_except_table1
GCC_except_table1
GCC_except_table1
GCC_except_table1
GCC_except_table1
GCC_except_table1
GCC_except_table1
GCC_except_table1
GCC_except_table1
GCC_except_table1
GCC_except_table1
GCC_except_table1
GCC_except_table1
GCC_except_table1
GCC_except_table1
GCC_except_table1
GCC_except_table1
GCC_except_table1
GCC_except_table1
GCC_except_table1
GCC_except_table1
GCC_except_table1
GCC_except_table1
GCC_except_table1
GCC_except_table10
GCC_except_table10
GCC_except_table10
GCC_except_table10
GCC_except_table10
GCC_except_table10
GCC_except_table10
GCC_except_table10
GCC_except_table10
GCC_except_table10
GCC_except_table10
GCC_except_table10
GCC_except_table10
GCC_except_table10
GCC_except_table10
GCC_except_table10
GCC_except_table10
GCC_except_table10
GCC_except_table10
GCC_except_table10
GCC_except_table10
GCC_except_table10
GCC_except_table10
GCC_except_table10
GCC_except_table10
GCC_except_table10
GCC_except_table100
GCC_except_table100
GCC_except_table100
GCC_except_table100
GCC_except_table100
GCC_except_table101
GCC_except_table101
GCC_except_table101
GCC_except_table101
GCC_except_table101
GCC_except_table101
GCC_except_table101
GCC_except_table101
GCC_except_table102
GCC_except_table102
GCC_except_table102
GCC_except_table102
GCC_except_table102
GCC_except_table102
GCC_except_table103
GCC_except_table103
GCC_except_table103
GCC_except_table103
GCC_except_table103
GCC_except_table103
GCC_except_table103
GCC_except_table103
GCC_except_table104
GCC_except_table104
GCC_except_table104
GCC_except_table104
GCC_except_table104
GCC_except_table104
GCC_except_table104
GCC_except_table104
GCC_except_table104
GCC_except_table104
GCC_except_table105
GCC_except_table105
GCC_except_table106
GCC_except_table106
GCC_except_table106
GCC_except_table107
GCC_except_table107
GCC_except_table107
GCC_except_table107
GCC_except_table107
GCC_except_table107
GCC_except_table107
GCC_except_table108
GCC_except_table108
GCC_except_table108
GCC_except_table108
GCC_except_table108
GCC_except_table109
GCC_except_table109
GCC_except_table109
GCC_except_table109
GCC_except_table109
GCC_except_table109
GCC_except_table109
GCC_except_table109
GCC_except_table11
GCC_except_table11
GCC_except_table11
GCC_except_table11
GCC_except_table11
GCC_except_table11
GCC_except_table11
GCC_except_table11
GCC_except_table11
GCC_except_table11
GCC_except_table11
GCC_except_table11
GCC_except_table11
GCC_except_table11
GCC_except_table11
GCC_except_table11
GCC_except_table11
GCC_except_table11
GCC_except_table11
GCC_except_table11
GCC_except_table11
GCC_except_table11
GCC_except_table11
GCC_except_table11
GCC_except_table11
GCC_except_table11
GCC_except_table11
GCC_except_table11
GCC_except_table110
GCC_except_table110
GCC_except_table110
GCC_except_table110
GCC_except_table110
GCC_except_table110
GCC_except_table111
GCC_except_table111
GCC_except_table111
GCC_except_table111
GCC_except_table111
GCC_except_table111
GCC_except_table111
GCC_except_table112
GCC_except_table112
GCC_except_table112
GCC_except_table112
GCC_except_table112
GCC_except_table112
GCC_except_table113
GCC_except_table113
GCC_except_table113
GCC_except_table113
GCC_except_table113
GCC_except_table113
GCC_except_table113
GCC_except_table113
GCC_except_table113
GCC_except_table114
GCC_except_table114
GCC_except_table114
GCC_except_table115
GCC_except_table115
GCC_except_table115
GCC_except_table115
GCC_except_table115
GCC_except_table115
GCC_except_table115
GCC_except_table116
GCC_except_table116
GCC_except_table116
GCC_except_table116
GCC_except_table116
GCC_except_table116
GCC_except_table116
GCC_except_table117
GCC_except_table117
GCC_except_table117
GCC_except_table117
GCC_except_table118
GCC_except_table118
GCC_except_table118
GCC_except_table118
GCC_except_table118
GCC_except_table118
GCC_except_table118
GCC_except_table118
GCC_except_table118
GCC_except_table119
GCC_except_table119
GCC_except_table119
GCC_except_table119
GCC_except_table119
GCC_except_table119
GCC_except_table119
GCC_except_table119
GCC_except_table119
GCC_except_table119
GCC_except_table12
GCC_except_table12
GCC_except_table12
GCC_except_table12
GCC_except_table12
GCC_except_table12
GCC_except_table12
GCC_except_table12
GCC_except_table12
GCC_except_table12
GCC_except_table12
GCC_except_table12
GCC_except_table12
GCC_except_table12
GCC_except_table12
GCC_except_table12
GCC_except_table12
GCC_except_table12
GCC_except_table12
GCC_except_table12
GCC_except_table12
GCC_except_table12
GCC_except_table12
GCC_except_table12
GCC_except_table12
GCC_except_table12
GCC_except_table12
GCC_except_table12
GCC_except_table12
GCC_except_table12
GCC_except_table12
GCC_except_table12
GCC_except_table12
GCC_except_table12
GCC_except_table12
GCC_except_table12
GCC_except_table12
GCC_except_table12
GCC_except_table120
GCC_except_table120
GCC_except_table120
GCC_except_table120
GCC_except_table120
GCC_except_table120
GCC_except_table120
GCC_except_table121
GCC_except_table121
GCC_except_table121
GCC_except_table121
GCC_except_table121
GCC_except_table121
GCC_except_table121
GCC_except_table122
GCC_except_table122
GCC_except_table122
GCC_except_table122
GCC_except_table122
GCC_except_table122
GCC_except_table123
GCC_except_table123
GCC_except_table124
GCC_except_table124
GCC_except_table124
GCC_except_table124
GCC_except_table124
GCC_except_table124
GCC_except_table124
GCC_except_table125
GCC_except_table125
GCC_except_table125
GCC_except_table125
GCC_except_table126
GCC_except_table126
GCC_except_table126
GCC_except_table127
GCC_except_table127
GCC_except_table127
GCC_except_table127
GCC_except_table127
GCC_except_table128
GCC_except_table128
GCC_except_table128
GCC_except_table128
GCC_except_table129
GCC_except_table129
GCC_except_table129
GCC_except_table13
GCC_except_table13
GCC_except_table13
GCC_except_table13
GCC_except_table13
GCC_except_table13
GCC_except_table13
GCC_except_table13
GCC_except_table13
GCC_except_table13
GCC_except_table13
GCC_except_table13
GCC_except_table13
GCC_except_table13
GCC_except_table13
GCC_except_table13
GCC_except_table13
GCC_except_table13
GCC_except_table13
GCC_except_table13
GCC_except_table13
GCC_except_table13
GCC_except_table13
GCC_except_table13
GCC_except_table13
GCC_except_table13
GCC_except_table13
GCC_except_table13
GCC_except_table13
GCC_except_table13
GCC_except_table13
GCC_except_table13
GCC_except_table13
GCC_except_table130
GCC_except_table130
GCC_except_table130
GCC_except_table130
GCC_except_table131
GCC_except_table131
GCC_except_table132
GCC_except_table132
GCC_except_table132
GCC_except_table132
GCC_except_table133
GCC_except_table133
GCC_except_table133
GCC_except_table134
GCC_except_table134
GCC_except_table135
GCC_except_table135
GCC_except_table135
GCC_except_table136
GCC_except_table136
GCC_except_table137
GCC_except_table137
GCC_except_table137
GCC_except_table137
GCC_except_table137
GCC_except_table137
GCC_except_table137
GCC_except_table137
GCC_except_table138
GCC_except_table138
GCC_except_table138
GCC_except_table139
GCC_except_table139
GCC_except_table139
GCC_except_table14
GCC_except_table14
GCC_except_table14
GCC_except_table14
GCC_except_table14
GCC_except_table14
GCC_except_table14
GCC_except_table14
GCC_except_table14
GCC_except_table14
GCC_except_table14
GCC_except_table14
GCC_except_table14
GCC_except_table14
GCC_except_table14
GCC_except_table14
GCC_except_table14
GCC_except_table14
GCC_except_table14
GCC_except_table14
GCC_except_table14
GCC_except_table14
GCC_except_table14
GCC_except_table14
GCC_except_table14
GCC_except_table14
GCC_except_table14
GCC_except_table14
GCC_except_table14
GCC_except_table14
GCC_except_table14
GCC_except_table14
GCC_except_table14
GCC_except_table14
GCC_except_table14
GCC_except_table14
GCC_except_table140
GCC_except_table140
GCC_except_table140
GCC_except_table141
GCC_except_table141
GCC_except_table141
GCC_except_table142
GCC_except_table142
GCC_except_table143
GCC_except_table143
GCC_except_table143
GCC_except_table143
GCC_except_table144
GCC_except_table144
GCC_except_table144
GCC_except_table144
GCC_except_table144
GCC_except_table145
GCC_except_table146
GCC_except_table146
GCC_except_table146
GCC_except_table146
GCC_except_table146
GCC_except_table146
GCC_except_table147
GCC_except_table147
GCC_except_table148
GCC_except_table148
GCC_except_table148
GCC_except_table149
GCC_except_table149
GCC_except_table149
GCC_except_table149
GCC_except_table15
GCC_except_table15
GCC_except_table15
GCC_except_table15
GCC_except_table15
GCC_except_table15
GCC_except_table15
GCC_except_table15
GCC_except_table15
GCC_except_table15
GCC_except_table15
GCC_except_table15
GCC_except_table15
GCC_except_table15
GCC_except_table15
GCC_except_table15
GCC_except_table15
GCC_except_table15
GCC_except_table15
GCC_except_table15
GCC_except_table15
GCC_except_table15
GCC_except_table15
GCC_except_table15
GCC_except_table15
GCC_except_table15
GCC_except_table15
GCC_except_table15
GCC_except_table15
GCC_except_table15
GCC_except_table15
GCC_except_table15
GCC_except_table15
GCC_except_table150
GCC_except_table150
GCC_except_table150
GCC_except_table151
GCC_except_table151
GCC_except_table151
GCC_except_table151
GCC_except_table151
GCC_except_table152
GCC_except_table152
GCC_except_table152
GCC_except_table152
GCC_except_table153
GCC_except_table153
GCC_except_table153
GCC_except_table154
GCC_except_table154
GCC_except_table154
GCC_except_table154
GCC_except_table155
GCC_except_table155
GCC_except_table156
GCC_except_table156
GCC_except_table156
GCC_except_table157
GCC_except_table157
GCC_except_table158
GCC_except_table158
GCC_except_table159
GCC_except_table16
GCC_except_table16
GCC_except_table16
GCC_except_table16
GCC_except_table16
GCC_except_table16
GCC_except_table16
GCC_except_table16
GCC_except_table16
GCC_except_table16
GCC_except_table16
GCC_except_table16
GCC_except_table16
GCC_except_table16
GCC_except_table16
GCC_except_table16
GCC_except_table16
GCC_except_table16
GCC_except_table16
GCC_except_table16
GCC_except_table16
GCC_except_table16
GCC_except_table16
GCC_except_table16
GCC_except_table16
GCC_except_table16
GCC_except_table160
GCC_except_table162
GCC_except_table163
GCC_except_table164
GCC_except_table164
GCC_except_table166
GCC_except_table166
GCC_except_table166
GCC_except_table167
GCC_except_table167
GCC_except_table168
GCC_except_table169
GCC_except_table169
GCC_except_table169
GCC_except_table17
GCC_except_table17
GCC_except_table17
GCC_except_table17
GCC_except_table17
GCC_except_table17
GCC_except_table17
GCC_except_table17
GCC_except_table17
GCC_except_table17
GCC_except_table17
GCC_except_table17
GCC_except_table17
GCC_except_table17
GCC_except_table17
GCC_except_table17
GCC_except_table17
GCC_except_table17
GCC_except_table17
GCC_except_table17
GCC_except_table17
GCC_except_table17
GCC_except_table17
GCC_except_table17
GCC_except_table17
GCC_except_table17
GCC_except_table170
GCC_except_table170
GCC_except_table170
GCC_except_table170
GCC_except_table171
GCC_except_table171
GCC_except_table171
GCC_except_table172
GCC_except_table172
GCC_except_table172
GCC_except_table173
GCC_except_table173
GCC_except_table173
GCC_except_table174
GCC_except_table175
GCC_except_table176
GCC_except_table177
GCC_except_table177
GCC_except_table179
GCC_except_table18
GCC_except_table18
GCC_except_table18
GCC_except_table18
GCC_except_table18
GCC_except_table18
GCC_except_table18
GCC_except_table18
GCC_except_table18
GCC_except_table18
GCC_except_table18
GCC_except_table18
GCC_except_table18
GCC_except_table18
GCC_except_table18
GCC_except_table18
GCC_except_table18
GCC_except_table18
GCC_except_table18
GCC_except_table18
GCC_except_table18
GCC_except_table18
GCC_except_table18
GCC_except_table18
GCC_except_table18
GCC_except_table18
GCC_except_table18
GCC_except_table180
GCC_except_table180
GCC_except_table181
GCC_except_table183
GCC_except_table184
GCC_except_table184
GCC_except_table185
GCC_except_table186
GCC_except_table186
GCC_except_table187
GCC_except_table188
GCC_except_table188
GCC_except_table19
GCC_except_table19
GCC_except_table19
GCC_except_table19
GCC_except_table19
GCC_except_table19
GCC_except_table19
GCC_except_table19
GCC_except_table19
GCC_except_table19
GCC_except_table19
GCC_except_table19
GCC_except_table19
GCC_except_table19
GCC_except_table19
GCC_except_table19
GCC_except_table19
GCC_except_table190
GCC_except_table190
GCC_except_table190
GCC_except_table191
GCC_except_table192
GCC_except_table194
GCC_except_table196
GCC_except_table197
GCC_except_table199
GCC_except_table2
GCC_except_table2
GCC_except_table2
GCC_except_table2
GCC_except_table2
GCC_except_table2
GCC_except_table2
GCC_except_table2
GCC_except_table2
GCC_except_table2
GCC_except_table2
GCC_except_table2
GCC_except_table2
GCC_except_table2
GCC_except_table2
GCC_except_table2
GCC_except_table2
GCC_except_table2
GCC_except_table2
GCC_except_table2
GCC_except_table2
GCC_except_table2
GCC_except_table2
GCC_except_table2
GCC_except_table2
GCC_except_table2
GCC_except_table2
GCC_except_table2
GCC_except_table2
GCC_except_table2
GCC_except_table2
GCC_except_table2
GCC_except_table2
GCC_except_table2
GCC_except_table2
GCC_except_table2
GCC_except_table2
GCC_except_table2
GCC_except_table2
GCC_except_table2
GCC_except_table2
GCC_except_table2
GCC_except_table2
GCC_except_table2
GCC_except_table2
GCC_except_table2
GCC_except_table2
GCC_except_table2
GCC_except_table2
GCC_except_table2
GCC_except_table2
GCC_except_table2
GCC_except_table2
GCC_except_table2
GCC_except_table20
GCC_except_table20
GCC_except_table20
GCC_except_table20
GCC_except_table20
GCC_except_table20
GCC_except_table20
GCC_except_table20
GCC_except_table20
GCC_except_table20
GCC_except_table20
GCC_except_table20
GCC_except_table20
GCC_except_table20
GCC_except_table20
GCC_except_table20
GCC_except_table20
GCC_except_table20
GCC_except_table20
GCC_except_table20
GCC_except_table20
GCC_except_table20
GCC_except_table20
GCC_except_table200
GCC_except_table201
GCC_except_table202
GCC_except_table204
GCC_except_table206
GCC_except_table206
GCC_except_table209
GCC_except_table21
GCC_except_table21
GCC_except_table21
GCC_except_table21
GCC_except_table21
GCC_except_table21
GCC_except_table21
GCC_except_table21
GCC_except_table21
GCC_except_table21
GCC_except_table21
GCC_except_table21
GCC_except_table21
GCC_except_table21
GCC_except_table21
GCC_except_table21
GCC_except_table21
GCC_except_table21
GCC_except_table21
GCC_except_table21
GCC_except_table21
GCC_except_table21
GCC_except_table21
GCC_except_table21
GCC_except_table210
GCC_except_table213
GCC_except_table219
GCC_except_table22
GCC_except_table22
GCC_except_table22
GCC_except_table22
GCC_except_table22
GCC_except_table22
GCC_except_table22
GCC_except_table22
GCC_except_table22
GCC_except_table22
GCC_except_table22
GCC_except_table22
GCC_except_table22
GCC_except_table22
GCC_except_table22
GCC_except_table22
GCC_except_table22
GCC_except_table22
GCC_except_table22
GCC_except_table22
GCC_except_table22
GCC_except_table22
GCC_except_table22
GCC_except_table22
GCC_except_table226
GCC_except_table227
GCC_except_table228
GCC_except_table229
GCC_except_table23
GCC_except_table23
GCC_except_table23
GCC_except_table23
GCC_except_table23
GCC_except_table23
GCC_except_table23
GCC_except_table23
GCC_except_table23
GCC_except_table23
GCC_except_table23
GCC_except_table23
GCC_except_table23
GCC_except_table23
GCC_except_table23
GCC_except_table23
GCC_except_table23
GCC_except_table23
GCC_except_table23
GCC_except_table23
GCC_except_table230
GCC_except_table231
GCC_except_table235
GCC_except_table239
GCC_except_table24
GCC_except_table24
GCC_except_table24
GCC_except_table24
GCC_except_table24
GCC_except_table24
GCC_except_table24
GCC_except_table24
GCC_except_table24
GCC_except_table24
GCC_except_table24
GCC_except_table24
GCC_except_table24
GCC_except_table24
GCC_except_table24
GCC_except_table24
GCC_except_table24
GCC_except_table24
GCC_except_table24
GCC_except_table24
GCC_except_table24
GCC_except_table24
GCC_except_table24
GCC_except_table24
GCC_except_table240
GCC_except_table241
GCC_except_table245
GCC_except_table245
GCC_except_table246
GCC_except_table247
GCC_except_table25
GCC_except_table25
GCC_except_table25
GCC_except_table25
GCC_except_table25
GCC_except_table25
GCC_except_table25
GCC_except_table25
GCC_except_table25
GCC_except_table25
GCC_except_table25
GCC_except_table25
GCC_except_table25
GCC_except_table25
GCC_except_table25
GCC_except_table25
GCC_except_table25
GCC_except_table25
GCC_except_table25
GCC_except_table25
GCC_except_table25
GCC_except_table251
GCC_except_table252
GCC_except_table255
GCC_except_table256
GCC_except_table257
GCC_except_table258
GCC_except_table259
GCC_except_table26
GCC_except_table26
GCC_except_table26
GCC_except_table26
GCC_except_table26
GCC_except_table26
GCC_except_table26
GCC_except_table26
GCC_except_table26
GCC_except_table26
GCC_except_table26
GCC_except_table26
GCC_except_table26
GCC_except_table26
GCC_except_table26
GCC_except_table26
GCC_except_table26
GCC_except_table26
GCC_except_table26
GCC_except_table26
GCC_except_table26
GCC_except_table26
GCC_except_table260
GCC_except_table27
GCC_except_table27
GCC_except_table27
GCC_except_table27
GCC_except_table27
GCC_except_table27
GCC_except_table27
GCC_except_table27
GCC_except_table27
GCC_except_table27
GCC_except_table27
GCC_except_table27
GCC_except_table27
GCC_except_table27
GCC_except_table27
GCC_except_table27
GCC_except_table27
GCC_except_table27
GCC_except_table27
GCC_except_table270
GCC_except_table277
GCC_except_table279
GCC_except_table28
GCC_except_table28
GCC_except_table28
GCC_except_table28
GCC_except_table28
GCC_except_table28
GCC_except_table28
GCC_except_table28
GCC_except_table28
GCC_except_table28
GCC_except_table28
GCC_except_table28
GCC_except_table28
GCC_except_table28
GCC_except_table28
GCC_except_table28
GCC_except_table28
GCC_except_table28
GCC_except_table280
GCC_except_table29
GCC_except_table29
GCC_except_table29
GCC_except_table29
GCC_except_table29
GCC_except_table29
GCC_except_table29
GCC_except_table29
GCC_except_table29
GCC_except_table29
GCC_except_table29
GCC_except_table29
GCC_except_table29
GCC_except_table29
GCC_except_table29
GCC_except_table29
GCC_except_table29
GCC_except_table29
GCC_except_table29
GCC_except_table29
GCC_except_table29
GCC_except_table291
GCC_except_table293
GCC_except_table298
GCC_except_table3
GCC_except_table3
GCC_except_table3
GCC_except_table3
GCC_except_table3
GCC_except_table3
GCC_except_table3
GCC_except_table3
GCC_except_table3
GCC_except_table3
GCC_except_table3
GCC_except_table3
GCC_except_table3
GCC_except_table3
GCC_except_table3
GCC_except_table3
GCC_except_table3
GCC_except_table3
GCC_except_table3
GCC_except_table3
GCC_except_table3
GCC_except_table3
GCC_except_table3
GCC_except_table3
GCC_except_table3
GCC_except_table3
GCC_except_table3
GCC_except_table3
GCC_except_table3
GCC_except_table3
GCC_except_table3
GCC_except_table3
GCC_except_table3
GCC_except_table3
GCC_except_table3
GCC_except_table3
GCC_except_table3
GCC_except_table3
GCC_except_table30
GCC_except_table30
GCC_except_table30
GCC_except_table30
GCC_except_table30
GCC_except_table30
GCC_except_table30
GCC_except_table30
GCC_except_table30
GCC_except_table30
GCC_except_table30
GCC_except_table30
GCC_except_table30
GCC_except_table30
GCC_except_table30
GCC_except_table300
GCC_except_table302
GCC_except_table308
GCC_except_table31
GCC_except_table31
GCC_except_table31
GCC_except_table31
GCC_except_table31
GCC_except_table31
GCC_except_table31
GCC_except_table31
GCC_except_table31
GCC_except_table31
GCC_except_table31
GCC_except_table31
GCC_except_table31
GCC_except_table31
GCC_except_table31
GCC_except_table310
GCC_except_table310
GCC_except_table311
GCC_except_table317
GCC_except_table318
GCC_except_table318
GCC_except_table32
GCC_except_table32
GCC_except_table32
GCC_except_table32
GCC_except_table32
GCC_except_table32
GCC_except_table32
GCC_except_table32
GCC_except_table32
GCC_except_table32
GCC_except_table32
GCC_except_table32
GCC_except_table32
GCC_except_table32
GCC_except_table32
GCC_except_table32
GCC_except_table32
GCC_except_table32
GCC_except_table32
GCC_except_table32
GCC_except_table32
GCC_except_table32
GCC_except_table32
GCC_except_table32
GCC_except_table320
GCC_except_table321
GCC_except_table322
GCC_except_table323
GCC_except_table324
GCC_except_table326
GCC_except_table33
GCC_except_table33
GCC_except_table33
GCC_except_table33
GCC_except_table33
GCC_except_table33
GCC_except_table33
GCC_except_table33
GCC_except_table33
GCC_except_table33
GCC_except_table33
GCC_except_table33
GCC_except_table33
GCC_except_table33
GCC_except_table33
GCC_except_table33
GCC_except_table33
GCC_except_table33
GCC_except_table33
GCC_except_table33
GCC_except_table33
GCC_except_table33
GCC_except_table33
GCC_except_table330
GCC_except_table331
GCC_except_table332
GCC_except_table334
GCC_except_table339
GCC_except_table34
GCC_except_table34
GCC_except_table34
GCC_except_table34
GCC_except_table34
GCC_except_table34
GCC_except_table34
GCC_except_table34
GCC_except_table34
GCC_except_table34
GCC_except_table34
GCC_except_table34
GCC_except_table34
GCC_except_table34
GCC_except_table34
GCC_except_table34
GCC_except_table34
GCC_except_table34
GCC_except_table34
GCC_except_table34
GCC_except_table34
GCC_except_table34
GCC_except_table34
GCC_except_table34
GCC_except_table34
GCC_except_table341
GCC_except_table343
GCC_except_table344
GCC_except_table35
GCC_except_table35
GCC_except_table35
GCC_except_table35
GCC_except_table35
GCC_except_table35
GCC_except_table35
GCC_except_table35
GCC_except_table35
GCC_except_table35
GCC_except_table35
GCC_except_table35
GCC_except_table35
GCC_except_table35
GCC_except_table35
GCC_except_table35
GCC_except_table35
GCC_except_table35
GCC_except_table35
GCC_except_table355
GCC_except_table357
GCC_except_table358
GCC_except_table36
GCC_except_table36
GCC_except_table36
GCC_except_table36
GCC_except_table36
GCC_except_table36
GCC_except_table36
GCC_except_table36
GCC_except_table36
GCC_except_table36
GCC_except_table36
GCC_except_table36
GCC_except_table36
GCC_except_table36
GCC_except_table36
GCC_except_table36
GCC_except_table36
GCC_except_table36
GCC_except_table36
GCC_except_table36
GCC_except_table36
GCC_except_table36
GCC_except_table36
GCC_except_table36
GCC_except_table36
GCC_except_table360
GCC_except_table361
GCC_except_table363
GCC_except_table37
GCC_except_table37
GCC_except_table37
GCC_except_table37
GCC_except_table37
GCC_except_table37
GCC_except_table37
GCC_except_table37
GCC_except_table37
GCC_except_table37
GCC_except_table37
GCC_except_table37
GCC_except_table37
GCC_except_table37
GCC_except_table37
GCC_except_table37
GCC_except_table37
GCC_except_table37
GCC_except_table37
GCC_except_table37
GCC_except_table37
GCC_except_table37
GCC_except_table37
GCC_except_table372
GCC_except_table374
GCC_except_table374
GCC_except_table376
GCC_except_table377
GCC_except_table379
GCC_except_table38
GCC_except_table38
GCC_except_table38
GCC_except_table38
GCC_except_table38
GCC_except_table38
GCC_except_table38
GCC_except_table38
GCC_except_table38
GCC_except_table38
GCC_except_table38
GCC_except_table38
GCC_except_table38
GCC_except_table38
GCC_except_table38
GCC_except_table38
GCC_except_table38
GCC_except_table38
GCC_except_table38
GCC_except_table38
GCC_except_table38
GCC_except_table38
GCC_except_table38
GCC_except_table38
GCC_except_table382
GCC_except_table384
GCC_except_table386
GCC_except_table388
GCC_except_table39
GCC_except_table39
GCC_except_table39
GCC_except_table39
GCC_except_table39
GCC_except_table39
GCC_except_table39
GCC_except_table39
GCC_except_table39
GCC_except_table39
GCC_except_table39
GCC_except_table39
GCC_except_table39
GCC_except_table39
GCC_except_table39
GCC_except_table39
GCC_except_table39
GCC_except_table39
GCC_except_table39
GCC_except_table397
GCC_except_table399
GCC_except_table4
GCC_except_table4
GCC_except_table4
GCC_except_table4
GCC_except_table4
GCC_except_table4
GCC_except_table4
GCC_except_table4
GCC_except_table4
GCC_except_table4
GCC_except_table4
GCC_except_table4
GCC_except_table4
GCC_except_table4
GCC_except_table4
GCC_except_table4
GCC_except_table4
GCC_except_table4
GCC_except_table4
GCC_except_table4
GCC_except_table4
GCC_except_table4
GCC_except_table4
GCC_except_table4
GCC_except_table4
GCC_except_table4
GCC_except_table4
GCC_except_table4
GCC_except_table4
GCC_except_table4
GCC_except_table4
GCC_except_table4
GCC_except_table4
GCC_except_table4
GCC_except_table4
GCC_except_table4
GCC_except_table4
GCC_except_table4
GCC_except_table4
GCC_except_table4
GCC_except_table4
GCC_except_table4
GCC_except_table4
GCC_except_table4
GCC_except_table4
GCC_except_table40
GCC_except_table40
GCC_except_table40
GCC_except_table40
GCC_except_table40
GCC_except_table40
GCC_except_table40
GCC_except_table40
GCC_except_table40
GCC_except_table40
GCC_except_table40
GCC_except_table40
GCC_except_table40
GCC_except_table40
GCC_except_table40
GCC_except_table40
GCC_except_table40
GCC_except_table40
GCC_except_table401
GCC_except_table403
GCC_except_table404
GCC_except_table407
GCC_except_table41
GCC_except_table41
GCC_except_table41
GCC_except_table41
GCC_except_table41
GCC_except_table41
GCC_except_table41
GCC_except_table41
GCC_except_table41
GCC_except_table41
GCC_except_table41
GCC_except_table41
GCC_except_table41
GCC_except_table41
GCC_except_table41
GCC_except_table41
GCC_except_table41
GCC_except_table41
GCC_except_table41
GCC_except_table41
GCC_except_table41
GCC_except_table411
GCC_except_table413
GCC_except_table418
GCC_except_table42
GCC_except_table42
GCC_except_table42
GCC_except_table42
GCC_except_table42
GCC_except_table42
GCC_except_table42
GCC_except_table42
GCC_except_table42
GCC_except_table42
GCC_except_table42
GCC_except_table42
GCC_except_table42
GCC_except_table42
GCC_except_table42
GCC_except_table420
GCC_except_table421
GCC_except_table421
GCC_except_table423
GCC_except_table423
GCC_except_table424
GCC_except_table426
GCC_except_table427
GCC_except_table429
GCC_except_table43
GCC_except_table43
GCC_except_table43
GCC_except_table43
GCC_except_table43
GCC_except_table43
GCC_except_table43
GCC_except_table43
GCC_except_table43
GCC_except_table43
GCC_except_table43
GCC_except_table43
GCC_except_table43
GCC_except_table43
GCC_except_table43
GCC_except_table43
GCC_except_table43
GCC_except_table430
GCC_except_table432
GCC_except_table433
GCC_except_table435
GCC_except_table436
GCC_except_table438
GCC_except_table44
GCC_except_table44
GCC_except_table44
GCC_except_table44
GCC_except_table44
GCC_except_table44
GCC_except_table44
GCC_except_table44
GCC_except_table44
GCC_except_table44
GCC_except_table44
GCC_except_table44
GCC_except_table44
GCC_except_table44
GCC_except_table44
GCC_except_table44
GCC_except_table44
GCC_except_table44
GCC_except_table44
GCC_except_table44
GCC_except_table44
GCC_except_table45
GCC_except_table45
GCC_except_table45
GCC_except_table45
GCC_except_table45
GCC_except_table45
GCC_except_table45
GCC_except_table45
GCC_except_table45
GCC_except_table45
GCC_except_table45
GCC_except_table45
GCC_except_table45
GCC_except_table45
GCC_except_table45
GCC_except_table45
GCC_except_table45
GCC_except_table45
GCC_except_table45
GCC_except_table45
GCC_except_table45
GCC_except_table45
GCC_except_table458
GCC_except_table46
GCC_except_table46
GCC_except_table46
GCC_except_table46
GCC_except_table46
GCC_except_table46
GCC_except_table46
GCC_except_table46
GCC_except_table46
GCC_except_table46
GCC_except_table46
GCC_except_table46
GCC_except_table46
GCC_except_table462
GCC_except_table463
GCC_except_table464
GCC_except_table466
GCC_except_table467
GCC_except_table47
GCC_except_table47
GCC_except_table47
GCC_except_table47
GCC_except_table47
GCC_except_table47
GCC_except_table47
GCC_except_table47
GCC_except_table47
GCC_except_table47
GCC_except_table47
GCC_except_table47
GCC_except_table47
GCC_except_table47
GCC_except_table47
GCC_except_table47
GCC_except_table47
GCC_except_table47
GCC_except_table470
GCC_except_table471
GCC_except_table472
GCC_except_table473
GCC_except_table48
GCC_except_table48
GCC_except_table48
GCC_except_table48
GCC_except_table48
GCC_except_table48
GCC_except_table48
GCC_except_table48
GCC_except_table48
GCC_except_table48
GCC_except_table48
GCC_except_table48
GCC_except_table48
GCC_except_table48
GCC_except_table481
GCC_except_table484
GCC_except_table487
GCC_except_table488
GCC_except_table49
GCC_except_table49
GCC_except_table49
GCC_except_table49
GCC_except_table49
GCC_except_table49
GCC_except_table49
GCC_except_table49
GCC_except_table49
GCC_except_table49
GCC_except_table49
GCC_except_table49
GCC_except_table49
GCC_except_table49
GCC_except_table49
GCC_except_table49
GCC_except_table49
GCC_except_table490
GCC_except_table492
GCC_except_table494
GCC_except_table495
GCC_except_table5
GCC_except_table5
GCC_except_table5
GCC_except_table5
GCC_except_table5
GCC_except_table5
GCC_except_table5
GCC_except_table5
GCC_except_table5
GCC_except_table5
GCC_except_table5
GCC_except_table5
GCC_except_table5
GCC_except_table5
GCC_except_table5
GCC_except_table5
GCC_except_table5
GCC_except_table5
GCC_except_table5
GCC_except_table5
GCC_except_table5
GCC_except_table5
GCC_except_table5
GCC_except_table5
GCC_except_table5
GCC_except_table5
GCC_except_table5
GCC_except_table5
GCC_except_table5
GCC_except_table5
GCC_except_table5
GCC_except_table5
GCC_except_table5
GCC_except_table5
GCC_except_table5
GCC_except_table5
GCC_except_table5
GCC_except_table5
GCC_except_table5
GCC_except_table5
GCC_except_table5
GCC_except_table5
GCC_except_table5
GCC_except_table5
GCC_except_table50
GCC_except_table50
GCC_except_table50
GCC_except_table50
GCC_except_table50
GCC_except_table50
GCC_except_table50
GCC_except_table50
GCC_except_table50
GCC_except_table50
GCC_except_table50
GCC_except_table50
GCC_except_table50
GCC_except_table50
GCC_except_table50
GCC_except_table50
GCC_except_table503
GCC_except_table508
GCC_except_table51
GCC_except_table51
GCC_except_table51
GCC_except_table51
GCC_except_table51
GCC_except_table51
GCC_except_table51
GCC_except_table51
GCC_except_table51
GCC_except_table51
GCC_except_table51
GCC_except_table51
GCC_except_table51
GCC_except_table51
GCC_except_table51
GCC_except_table51
GCC_except_table51
GCC_except_table51
GCC_except_table52
GCC_except_table52
GCC_except_table52
GCC_except_table52
GCC_except_table52
GCC_except_table52
GCC_except_table52
GCC_except_table52
GCC_except_table52
GCC_except_table52
GCC_except_table52
GCC_except_table52
GCC_except_table52
GCC_except_table52
GCC_except_table52
GCC_except_table52
GCC_except_table52
GCC_except_table52
GCC_except_table52
GCC_except_table53
GCC_except_table53
GCC_except_table53
GCC_except_table53
GCC_except_table53
GCC_except_table53
GCC_except_table53
GCC_except_table53
GCC_except_table53
GCC_except_table53
GCC_except_table53
GCC_except_table53
GCC_except_table53
GCC_except_table53
GCC_except_table53
GCC_except_table53
GCC_except_table53
GCC_except_table53
GCC_except_table53
GCC_except_table54
GCC_except_table54
GCC_except_table54
GCC_except_table54
GCC_except_table54
GCC_except_table54
GCC_except_table54
GCC_except_table54
GCC_except_table54
GCC_except_table54
GCC_except_table54
GCC_except_table54
GCC_except_table54
GCC_except_table54
GCC_except_table54
GCC_except_table54
GCC_except_table54
GCC_except_table54
GCC_except_table54
GCC_except_table54
GCC_except_table54
GCC_except_table54
GCC_except_table54
GCC_except_table54
GCC_except_table54
GCC_except_table54
GCC_except_table55
GCC_except_table55
GCC_except_table55
GCC_except_table55
GCC_except_table55
GCC_except_table55
GCC_except_table55
GCC_except_table55
GCC_except_table55
GCC_except_table55
GCC_except_table55
GCC_except_table55
GCC_except_table55
GCC_except_table55
GCC_except_table56
GCC_except_table56
GCC_except_table56
GCC_except_table56
GCC_except_table56
GCC_except_table56
GCC_except_table56
GCC_except_table56
GCC_except_table56
GCC_except_table57
GCC_except_table57
GCC_except_table57
GCC_except_table57
GCC_except_table57
GCC_except_table57
GCC_except_table57
GCC_except_table58
GCC_except_table58
GCC_except_table58
GCC_except_table58
GCC_except_table58
GCC_except_table58
GCC_except_table58
GCC_except_table58
GCC_except_table58
GCC_except_table58
GCC_except_table58
GCC_except_table58
GCC_except_table58
GCC_except_table58
GCC_except_table58
GCC_except_table59
GCC_except_table59
GCC_except_table59
GCC_except_table59
GCC_except_table59
GCC_except_table59
GCC_except_table59
GCC_except_table59
GCC_except_table59
GCC_except_table59
GCC_except_table59
GCC_except_table59
GCC_except_table59
GCC_except_table59
GCC_except_table6
GCC_except_table6
GCC_except_table6
GCC_except_table6
GCC_except_table6
GCC_except_table6
GCC_except_table6
GCC_except_table6
GCC_except_table6
GCC_except_table6
GCC_except_table6
GCC_except_table6
GCC_except_table6
GCC_except_table6
GCC_except_table6
GCC_except_table6
GCC_except_table6
GCC_except_table6
GCC_except_table6
GCC_except_table6
GCC_except_table6
GCC_except_table6
GCC_except_table6
GCC_except_table6
GCC_except_table6
GCC_except_table6
GCC_except_table6
GCC_except_table6
GCC_except_table6
GCC_except_table6
GCC_except_table60
GCC_except_table60
GCC_except_table60
GCC_except_table60
GCC_except_table60
GCC_except_table60
GCC_except_table60
GCC_except_table60
GCC_except_table60
GCC_except_table60
GCC_except_table60
GCC_except_table60
GCC_except_table60
GCC_except_table60
GCC_except_table60
GCC_except_table60
GCC_except_table60
GCC_except_table60
GCC_except_table61
GCC_except_table61
GCC_except_table61
GCC_except_table61
GCC_except_table61
GCC_except_table61
GCC_except_table61
GCC_except_table61
GCC_except_table61
GCC_except_table61
GCC_except_table61
GCC_except_table61
GCC_except_table61
GCC_except_table62
GCC_except_table62
GCC_except_table62
GCC_except_table62
GCC_except_table62
GCC_except_table62
GCC_except_table62
GCC_except_table62
GCC_except_table62
GCC_except_table62
GCC_except_table62
GCC_except_table62
GCC_except_table62
GCC_except_table62
GCC_except_table62
GCC_except_table62
GCC_except_table62
GCC_except_table62
GCC_except_table62
GCC_except_table62
GCC_except_table62
GCC_except_table62
GCC_except_table62
GCC_except_table62
GCC_except_table63
GCC_except_table63
GCC_except_table63
GCC_except_table63
GCC_except_table63
GCC_except_table63
GCC_except_table63
GCC_except_table63
GCC_except_table63
GCC_except_table63
GCC_except_table63
GCC_except_table63
GCC_except_table63
GCC_except_table63
GCC_except_table63
GCC_except_table64
GCC_except_table64
GCC_except_table64
GCC_except_table64
GCC_except_table64
GCC_except_table64
GCC_except_table64
GCC_except_table64
GCC_except_table64
GCC_except_table64
GCC_except_table64
GCC_except_table64
GCC_except_table64
GCC_except_table64
GCC_except_table64
GCC_except_table64
GCC_except_table64
GCC_except_table65
GCC_except_table65
GCC_except_table65
GCC_except_table65
GCC_except_table65
GCC_except_table65
GCC_except_table65
GCC_except_table65
GCC_except_table65
GCC_except_table65
GCC_except_table65
GCC_except_table65
GCC_except_table65
GCC_except_table65
GCC_except_table66
GCC_except_table66
GCC_except_table66
GCC_except_table66
GCC_except_table66
GCC_except_table66
GCC_except_table66
GCC_except_table66
GCC_except_table66
GCC_except_table66
GCC_except_table66
GCC_except_table66
GCC_except_table66
GCC_except_table66
GCC_except_table67
GCC_except_table67
GCC_except_table67
GCC_except_table67
GCC_except_table67
GCC_except_table67
GCC_except_table67
GCC_except_table67
GCC_except_table67
GCC_except_table67
GCC_except_table67
GCC_except_table67
GCC_except_table67
GCC_except_table67
GCC_except_table67
GCC_except_table67
GCC_except_table67
GCC_except_table67
GCC_except_table67
GCC_except_table68
GCC_except_table68
GCC_except_table68
GCC_except_table68
GCC_except_table68
GCC_except_table68
GCC_except_table68
GCC_except_table68
GCC_except_table68
GCC_except_table68
GCC_except_table68
GCC_except_table68
GCC_except_table68
GCC_except_table68
GCC_except_table68
GCC_except_table69
GCC_except_table69
GCC_except_table69
GCC_except_table69
GCC_except_table69
GCC_except_table69
GCC_except_table69
GCC_except_table69
GCC_except_table69
GCC_except_table69
GCC_except_table69
GCC_except_table7
GCC_except_table7
GCC_except_table7
GCC_except_table7
GCC_except_table7
GCC_except_table7
GCC_except_table7
GCC_except_table7
GCC_except_table7
GCC_except_table7
GCC_except_table7
GCC_except_table7
GCC_except_table7
GCC_except_table7
GCC_except_table7
GCC_except_table7
GCC_except_table7
GCC_except_table7
GCC_except_table7
GCC_except_table7
GCC_except_table7
GCC_except_table7
GCC_except_table7
GCC_except_table7
GCC_except_table7
GCC_except_table7
GCC_except_table7
GCC_except_table7
GCC_except_table7
GCC_except_table70
GCC_except_table70
GCC_except_table70
GCC_except_table70
GCC_except_table70
GCC_except_table70
GCC_except_table70
GCC_except_table70
GCC_except_table70
GCC_except_table70
GCC_except_table70
GCC_except_table70
GCC_except_table70
GCC_except_table71
GCC_except_table71
GCC_except_table71
GCC_except_table72
GCC_except_table72
GCC_except_table72
GCC_except_table72
GCC_except_table72
GCC_except_table72
GCC_except_table72
GCC_except_table72
GCC_except_table72
GCC_except_table73
GCC_except_table73
GCC_except_table73
GCC_except_table73
GCC_except_table73
GCC_except_table73
GCC_except_table73
GCC_except_table73
GCC_except_table73
GCC_except_table73
GCC_except_table73
GCC_except_table73
GCC_except_table74
GCC_except_table74
GCC_except_table74
GCC_except_table74
GCC_except_table74
GCC_except_table74
GCC_except_table74
GCC_except_table74
GCC_except_table74
GCC_except_table74
GCC_except_table75
GCC_except_table75
GCC_except_table75
GCC_except_table75
GCC_except_table75
GCC_except_table75
GCC_except_table75
GCC_except_table75
GCC_except_table75
GCC_except_table75
GCC_except_table75
GCC_except_table75
GCC_except_table75
GCC_except_table75
GCC_except_table75
GCC_except_table76
GCC_except_table76
GCC_except_table76
GCC_except_table76
GCC_except_table76
GCC_except_table76
GCC_except_table76
GCC_except_table76
GCC_except_table76
GCC_except_table76
GCC_except_table77
GCC_except_table77
GCC_except_table77
GCC_except_table77
GCC_except_table77
GCC_except_table77
GCC_except_table77
GCC_except_table77
GCC_except_table77
GCC_except_table77
GCC_except_table78
GCC_except_table78
GCC_except_table78
GCC_except_table78
GCC_except_table78
GCC_except_table78
GCC_except_table78
GCC_except_table78
GCC_except_table78
GCC_except_table78
GCC_except_table78
GCC_except_table79
GCC_except_table79
GCC_except_table79
GCC_except_table79
GCC_except_table79
GCC_except_table79
GCC_except_table79
GCC_except_table79
GCC_except_table79
GCC_except_table8
GCC_except_table8
GCC_except_table8
GCC_except_table8
GCC_except_table8
GCC_except_table8
GCC_except_table8
GCC_except_table8
GCC_except_table8
GCC_except_table8
GCC_except_table8
GCC_except_table8
GCC_except_table8
GCC_except_table8
GCC_except_table8
GCC_except_table8
GCC_except_table8
GCC_except_table8
GCC_except_table8
GCC_except_table8
GCC_except_table8
GCC_except_table8
GCC_except_table8
GCC_except_table8
GCC_except_table8
GCC_except_table8
GCC_except_table8
GCC_except_table8
GCC_except_table8
GCC_except_table8
GCC_except_table80
GCC_except_table80
GCC_except_table80
GCC_except_table80
GCC_except_table80
GCC_except_table80
GCC_except_table80
GCC_except_table80
GCC_except_table81
GCC_except_table81
GCC_except_table81
GCC_except_table81
GCC_except_table81
GCC_except_table81
GCC_except_table81
GCC_except_table81
GCC_except_table81
GCC_except_table82
GCC_except_table82
GCC_except_table82
GCC_except_table82
GCC_except_table82
GCC_except_table82
GCC_except_table82
GCC_except_table82
GCC_except_table83
GCC_except_table83
GCC_except_table83
GCC_except_table83
GCC_except_table83
GCC_except_table83
GCC_except_table83
GCC_except_table83
GCC_except_table83
GCC_except_table83
GCC_except_table84
GCC_except_table84
GCC_except_table84
GCC_except_table85
GCC_except_table85
GCC_except_table85
GCC_except_table85
GCC_except_table85
GCC_except_table85
GCC_except_table85
GCC_except_table85
GCC_except_table86
GCC_except_table86
GCC_except_table86
GCC_except_table87
GCC_except_table87
GCC_except_table87
GCC_except_table87
GCC_except_table87
GCC_except_table87
GCC_except_table87
GCC_except_table88
GCC_except_table88
GCC_except_table88
GCC_except_table88
GCC_except_table88
GCC_except_table88
GCC_except_table88
GCC_except_table88
GCC_except_table88
GCC_except_table88
GCC_except_table89
GCC_except_table89
GCC_except_table89
GCC_except_table89
GCC_except_table89
GCC_except_table89
GCC_except_table89
GCC_except_table89
GCC_except_table9
GCC_except_table9
GCC_except_table9
GCC_except_table9
GCC_except_table9
GCC_except_table9
GCC_except_table9
GCC_except_table9
GCC_except_table9
GCC_except_table9
GCC_except_table9
GCC_except_table9
GCC_except_table9
GCC_except_table9
GCC_except_table9
GCC_except_table9
GCC_except_table9
GCC_except_table9
GCC_except_table9
GCC_except_table9
GCC_except_table9
GCC_except_table9
GCC_except_table9
GCC_except_table9
GCC_except_table9
GCC_except_table9
GCC_except_table9
GCC_except_table9
GCC_except_table9
GCC_except_table9
GCC_except_table9
GCC_except_table9
GCC_except_table9
GCC_except_table9
GCC_except_table9
GCC_except_table9
GCC_except_table9
GCC_except_table90
GCC_except_table90
GCC_except_table90
GCC_except_table90
GCC_except_table90
GCC_except_table90
GCC_except_table90
GCC_except_table90
GCC_except_table90
GCC_except_table90
GCC_except_table91
GCC_except_table91
GCC_except_table91
GCC_except_table91
GCC_except_table91
GCC_except_table91
GCC_except_table91
GCC_except_table92
GCC_except_table92
GCC_except_table92
GCC_except_table92
GCC_except_table92
GCC_except_table92
GCC_except_table92
GCC_except_table92
GCC_except_table92
GCC_except_table93
GCC_except_table93
GCC_except_table93
GCC_except_table93
GCC_except_table93
GCC_except_table93
GCC_except_table93
GCC_except_table93
GCC_except_table93
GCC_except_table93
GCC_except_table93
GCC_except_table94
GCC_except_table94
GCC_except_table94
GCC_except_table94
GCC_except_table94
GCC_except_table94
GCC_except_table94
GCC_except_table95
GCC_except_table95
GCC_except_table95
GCC_except_table95
GCC_except_table95
GCC_except_table95
GCC_except_table95
GCC_except_table96
GCC_except_table96
GCC_except_table96
GCC_except_table96
GCC_except_table96
GCC_except_table96
GCC_except_table96
GCC_except_table97
GCC_except_table97
GCC_except_table97
GCC_except_table97
GCC_except_table97
GCC_except_table97
GCC_except_table97
GCC_except_table97
GCC_except_table97
GCC_except_table98
GCC_except_table98
GCC_except_table98
GCC_except_table98
GCC_except_table98
GCC_except_table98
GCC_except_table99
GCC_except_table99
GCC_except_table99
GCC_except_table99
GCC_except_table99
GCC_except_table99
GCC_except_table99
GCC_except_table99
GCC_except_table99
GCC_except_table99
_.memset_pattern
_.memset_pattern
_.memset_pattern
_.memset_pattern
_.memset_pattern19
_AllocDsps
_ApproximateProcessMemoryUsage
_AudioConverterDispose
_AudioConverterFillComplexBuffer
_AudioConverterNew
_AudioConverterSetProperty
_AudioDeviceGetProperty
_AudioDeviceGetPropertyInfo
_AudioDeviceSetProperty
_AudioHardwareGetProperty
_AudioObjectGetPropertyData
_AudioOutputUnitStart
_AudioOutputUnitStop
_AudioQueueAddPropertyListener
_AudioQueueAllocateBuffer
_AudioQueueDispose
_AudioQueueEnqueueBuffer
_AudioQueueFreeBuffer
_AudioQueueGetProperty
_AudioQueueNewOutput
_AudioQueuePrime
_AudioQueueRemovePropertyListener
_AudioQueueSetParameter
_AudioQueueStart
_AudioQueueStop
_AudioUnitGetProperty
_AudioUnitInitialize
_AudioUnitRender
_AudioUnitSetProperty
_AudioUnitUninitialize
_BZ2_bzCompressInit
_BZ2_bzDecompress
_BZ2_bzRead
_BZ2_bzReadClose
_BZ2_bzReadOpen
_BZ2_bzWriteClose64
_BZ2_bzWriteOpen
_BZ2_bzclose
_BZ2_bzopen
_BZ2_bzread
_BZ2_crc32Table
_BZ2_rNums
_CFArrayGetCount
_CFArrayGetValueAtIndex
_CFDictionaryGetValue
_CFEqual
_CFNetworkCopyProxiesForAutoConfigurationScript
_CFNetworkCopyProxiesForURL
_CFNumberGetValue
_CFStringCreateWithCString
_CFStringCreateWithFormat
_CFStringGetCString
_CFStringGetLength
_CFURLCreateWithBytes
_COM_TimestampedLog
_CallAssertFailedNotifyFunc
_CheckNewDspPresets
_CommandLine_Tier0
_ConDColorMsg
_ConDMsg
_CreateInterface
_CreateSimpleThread
_CreateThreadPool
_DSP_ClearState
_DSP_FreeAll
_DSP_InitAll
_DSP_NOROOM_MIX
_DSP_Process
_DSP_ROOM_MIX
_DevMsg
_DevWarning
_DoNewAssertDialog
_DownloadColor
_DownloadCompleteColor
_DownloadErrorColor
_DumpPanels
_Error
_FindNextComponent
_Four_Epsilons
_Four_FLT_MAX
_Four_Negative_FLT_MAX
_Four_Ones
_Four_Zeros
_FreeDsps
_GetAssertDialogParent
_GetCPUFrequencyResults
_GetCPUInformation
_GetSpewOutputColor
_HushAsserts
_KeyValuesSystem
_Log
_LzmaDec_Allocate
_LzmaDec_AllocateProbs
_LzmaDec_DecodeToDic
_LzmaDec_Free
_LzmaDecode
_MIX_ClearAllPaintBuffers
_MIX_FreeAllPaintbuffers
_MIX_GetCurrentPaintbufferIndex
_MIX_GetCurrentPaintbufferPtr
_MIX_GetPPaintFromIPaint
_MIX_InitAllPaintbuffers
_MIX_PaintChannels
_MIX_SetCurrentPaintbuffer
_MemAllocScratch
_MemFreeScratch
_MinidumpUserStreamInfoGet
_MinidumpUserStreamInfoSetHeader
_Mix16MonoWavtype
_Mix16StereoWavtype
_Mix8MonoWavtype
_Mix8StereoWavtype
_Msg
_NotifyDedicatedServerUI
_OpenAComponent
_Plat_BeginWatchdogTimer
_Plat_DebugString
_Plat_EndWatchdogTimer
_Plat_ExitProcess
_Plat_FloatTime
_Plat_GetMemPageSize
_Plat_GetPagedPoolInfo
_Plat_IsInBenchmarkMode
_Plat_IsInDebugSession
_Plat_MSTime
_Plat_SetBenchmarkMode
_Plat_SetWatchdogHandlerFunction
_Plat_USTime
_RandomFloat
_RandomFloatExp
_RandomInt
_RandomSeed
_ReleaseThreadHandle
_SCDynamicStoreCopyProxies
_SDL_GetCurrentDisplayMode
_SDL_GetDesktopDisplayMode
_SDL_GetDisplayBounds
_SDL_GetNumVideoDisplays
_SDL_GetWindowWMInfo
_SDL_RaiseWindow
_SDL_SetWindowBordered
_SDL_ShowMessageBox
_SDL_ShowWindow
_SND_ClearMouth
_SND_CloseMouth
_SND_InitMouth
_SND_IsMouth
_SND_MoveMouth8
_SND_UpdateMouth
_S_MixBufferUpsample2x
_S_TransferStereo16
_ShouldUseNewAssertDialog
_SinCosTable
_SpewActivate
_SpewOutputFunc
_SteamAPI_GetHSteamPipe
_SteamAPI_GetHSteamUser
_SteamAPI_InitSafe
_SteamAPI_RegisterCallResult
_SteamAPI_RegisterCallback
_SteamAPI_RunCallbacks
_SteamAPI_SetBreakpadAppID
_SteamAPI_SetMiniDumpComment
_SteamAPI_SetTryCatchCallbacks
_SteamAPI_Shutdown
_SteamAPI_UnregisterCallResult
_SteamAPI_UnregisterCallback
_SteamAPI_UseBreakpadCrashHandler
_SteamDatagramClient_Init_InternalV9
_SteamDatagramClient_Internal_SteamAPIKludge
_SteamDatagramClient_Kill
_SteamDatagramClient_SetAppID
_SteamDatagramClient_SetUniverse
_SteamDatagramServer_Init_InternalV2
_SteamDatagramServer_Kill
_SteamGameServerNetworkingSockets_LibV12
_SteamGameServer_GetHSteamPipe
_SteamGameServer_GetHSteamUser
_SteamGameServer_GetIPCCallCount
_SteamGameServer_RunCallbacks
_SteamGameServer_Shutdown
_SteamInternal_ContextInit
_SteamInternal_CreateInterface
_SteamInternal_FindOrCreateGameServerInterface
_SteamInternal_FindOrCreateUserInterface
_SteamInternal_GameServer_Init
_SteamNetworkingIPAddr_ToString
_SteamNetworkingIdentity_ToString
_SteamNetworkingSockets_LibV12
_SteamNetworkingUtils_LibV4
_TextMessageGet
_TextMessageInit
_TextMessageShutdown
_TextMessage_DemoMessageFull
_ThreadDetach
_ThreadGetCurrentId
_ThreadInMainThread
_ThreadInterlockedAssignIf
_ThreadInterlockedAssignIf64
_ThreadInterlockedCompareExchangePointer
_ThreadInterlockedDecrement
_ThreadInterlockedExchange
_ThreadInterlockedExchangeAdd
_ThreadInterlockedExchangePointer
_ThreadInterlockedIncrement
_ThreadJoin
_ThreadSetDebugName
_ThreadSleep
_VOX_GroupIndexFromName
_VOX_GroupNameFromIndex
_VOX_GroupPick
_VOX_GroupPickSequential
_VOX_Init
_VOX_LoadSound
_VOX_LookupString
_VOX_PrecacheSentenceGroup
_VOX_ReadSentenceFile
_VOX_SentenceCount
_VOX_SentenceLength
_VOX_SentenceNameFromIndex
_VOX_Shutdown
_Warning
_WriteMiniDump
__DefaultRuneLocale
__ExitOnFatalAssert
__GLOBAL__sub_I_AnimatingI.stdout.rel_tf_osx_builder.56571.v3brxg.ii
__GLOBAL__sub_I_AnimationC.stdout.rel_tf_osx_builder.56572.m1qkEz.ii
__GLOBAL__sub_I_BitmapImag.stdout.rel_tf_osx_builder.56573.ieg9q4.ii
__GLOBAL__sub_I_BuildGroup.stdout.rel_tf_osx_builder.89405.1vn2d7.ii
__GLOBAL__sub_I_BuildModeD.stdout.rel_tf_osx_builder.56575.zIriwT.ii
__GLOBAL__sub_I_Button.stdout.rel_tf_osx_builder.56597.VP9BgC.ii
__GLOBAL__sub_I_CheckButto.stdout.rel_tf_osx_builder.56620.Kqbg7h.ii
__GLOBAL__sub_I_CircularPr.stdout.rel_tf_osx_builder.56631.pO8chL.ii
__GLOBAL__sub_I_ComboBox.stdout.rel_tf_osx_builder.56630.NXFAZb.ii
__GLOBAL__sub_I_CvarToggle.stdout.rel_tf_osx_builder.56658.amfAmx.ii
__GLOBAL__sub_I_DevShotGen.stdout.rel_tf_osx_builder.57647.c5fG71.ii
__GLOBAL__sub_I_Divider.stdout.rel_tf_osx_builder.56665.QLPEIp.ii
__GLOBAL__sub_I_DownloadLi.stdout.rel_tf_osx_builder.89818.pcXpH1.ii
__GLOBAL__sub_I_EditablePa.stdout.rel_tf_osx_builder.49341.z6G93d.ii
__GLOBAL__sub_I_EngineSoun.stdout.rel_tf_osx_builder.89839.FtyeJs.ii
__GLOBAL__sub_I_EngineSoun.stdout.rel_tf_osx_builder.89850.iHImw7.ii
__GLOBAL__sub_I_ExpandButt.stdout.rel_tf_osx_builder.56684.JvPv91.ii
__GLOBAL__sub_I_FileOpenDi.stdout.rel_tf_osx_builder.56690.UCJf4F.ii
__GLOBAL__sub_I_GameEventM.stdout.rel_tf_osx_builder.12947.cMleAU.ii
__GLOBAL__sub_I_GameEventM.stdout.rel_tf_osx_builder.89884.7XPfbR.ii
__GLOBAL__sub_I_GraphPanel.stdout.rel_tf_osx_builder.56714.khpFMI.ii
__GLOBAL__sub_I_ImagePanel.stdout.rel_tf_osx_builder.56725.BEKZsT.ii
__GLOBAL__sub_I_KeyValues.stdout.rel_tf_osx_builder.55432.qZWQhg.ii
__GLOBAL__sub_I_Label.stdout.rel_tf_osx_builder.56757.FvIoBT.ii
__GLOBAL__sub_I_ListPanel.stdout.rel_tf_osx_builder.56758.NCx1GL.ii
__GLOBAL__sub_I_ListViewPa.stdout.rel_tf_osx_builder.56759.aBufMT.ii
__GLOBAL__sub_I_MPAFile.stdout.rel_tf_osx_builder.57219.XQngH2.ii
__GLOBAL__sub_I_MapReslist.stdout.rel_tf_osx_builder.90020.Ef9M51.ii
__GLOBAL__sub_I_Menu.stdout.rel_tf_osx_builder.49344.vyzHSJ.ii
__GLOBAL__sub_I_MenuBar.stdout.rel_tf_osx_builder.56786.Y761QC.ii
__GLOBAL__sub_I_MenuButton.stdout.rel_tf_osx_builder.56794.EEYOIr.ii
__GLOBAL__sub_I_MenuItem.stdout.rel_tf_osx_builder.56796.PBsL6i.ii
__GLOBAL__sub_I_MessageBox.stdout.rel_tf_osx_builder.56801.I6AhlI.ii
__GLOBAL__sub_I_ModelInfo.stdout.rel_tf_osx_builder.90049.V3Z1nS.ii
__GLOBAL__sub_I_OcclusionS.stdout.rel_tf_osx_builder.90104.Ixn1xI.ii
__GLOBAL__sub_I_Overlay.stdout.rel_tf_osx_builder.58073.L2aSJG.ii
__GLOBAL__sub_I_Panel.stdout.rel_tf_osx_builder.56806.wyDzRl.ii
__GLOBAL__sub_I_PanelListP.stdout.rel_tf_osx_builder.56812.Dr7z7A.ii
__GLOBAL__sub_I_ProgressBa.stdout.rel_tf_osx_builder.56843.4e0B9J.ii
__GLOBAL__sub_I_RadioButto.stdout.rel_tf_osx_builder.56884.D6hpQ5.ii
__GLOBAL__sub_I_RichText.stdout.rel_tf_osx_builder.89406.TF28Iy.ii
__GLOBAL__sub_I_ScalableIm.stdout.rel_tf_osx_builder.56904.Hbjfoc.ii
__GLOBAL__sub_I_ScrollBar.stdout.rel_tf_osx_builder.56921.NyTuwf.ii
__GLOBAL__sub_I_Slider.stdout.rel_tf_osx_builder.56926.mrydGy.ii
__GLOBAL__sub_I_TextEntry.stdout.rel_tf_osx_builder.56934.tEkPVz.ii
__GLOBAL__sub_I_ToggleButt.stdout.rel_tf_osx_builder.56968.wkRnGd.ii
__GLOBAL__sub_I_ToolWindow.stdout.rel_tf_osx_builder.56980.Wdosi5.ii
__GLOBAL__sub_I_TreeView.stdout.rel_tf_osx_builder.56984.llQpMn.ii
__GLOBAL__sub_I_TreeViewLi.stdout.rel_tf_osx_builder.56985.u51njn.ii
__GLOBAL__sub_I_URLLabel.stdout.rel_tf_osx_builder.89407.q5FYeX.ii
__GLOBAL__sub_I_XZip.stdout.rel_tf_osx_builder.12263.5Sp9zd.ii
__GLOBAL__sub_I_baseclient.stdout.rel_tf_osx_builder.89565.XDfKhb.ii
__GLOBAL__sub_I_baseclient.stdout.rel_tf_osx_builder.89579.H7fX96.ii
__GLOBAL__sub_I_baseserver.stdout.rel_tf_osx_builder.89586.WsxJtG.ii
__GLOBAL__sub_I_bitbuf.stdout.rel_tf_osx_builder.8784.aOnGh7.ii
__GLOBAL__sub_I_bugreporte.stdout.rel_tf_osx_builder.89587.zLM8QP.ii
__GLOBAL__sub_I_buildcubem.stdout.rel_tf_osx_builder.89592.Ul2Hwk.ii
__GLOBAL__sub_I_cbenchmark.stdout.rel_tf_osx_builder.89594.tKOS6o.ii
__GLOBAL__sub_I_cdll_engin.stdout.rel_tf_osx_builder.89598.GaBLs8.ii
__GLOBAL__sub_I_cheatcodes.stdout.rel_tf_osx_builder.57407.7OsYzK.ii
__GLOBAL__sub_I_cl_bounded.stdout.rel_tf_osx_builder.89644.MRWlTR.ii
__GLOBAL__sub_I_cl_demo.stdout.rel_tf_osx_builder.89645.kkFQ1g.ii
__GLOBAL__sub_I_cl_demoact.stdout.rel_tf_osx_builder.89659.SACV7l.ii
__GLOBAL__sub_I_cl_demoact.stdout.rel_tf_osx_builder.89660.Z4vk1R.ii
__GLOBAL__sub_I_cl_demoact.stdout.rel_tf_osx_builder.89661.twAQqY.ii
__GLOBAL__sub_I_cl_demouip.stdout.rel_tf_osx_builder.89688.lXNEuu.ii
__GLOBAL__sub_I_cl_entityr.stdout.rel_tf_osx_builder.89692.9WJvxv.ii
__GLOBAL__sub_I_cl_ents_pa.stdout.rel_tf_osx_builder.89701.RCbaJZ.ii
__GLOBAL__sub_I_cl_foguipa.stdout.rel_tf_osx_builder.89702.lzcFih.ii
__GLOBAL__sub_I_cl_localne.stdout.rel_tf_osx_builder.89706.ePtcWP.ii
__GLOBAL__sub_I_cl_main.stdout.rel_tf_osx_builder.89708.yYm4Wd.ii
__GLOBAL__sub_I_cl_parse_e.stdout.rel_tf_osx_builder.89725.8VZhNE.ii
__GLOBAL__sub_I_cl_pluginh.stdout.rel_tf_osx_builder.89731.5050Fi.ii
__GLOBAL__sub_I_cl_rcon.stdout.rel_tf_osx_builder.89748.0zDPwq.ii
__GLOBAL__sub_I_cl_steamau.stdout.rel_tf_osx_builder.89752.ysLld1.ii
__GLOBAL__sub_I_cl_texture.stdout.rel_tf_osx_builder.89756.zAH56M.ii
__GLOBAL__sub_I_client.stdout.rel_tf_osx_builder.89615.HENWFq.ii
__GLOBAL__sub_I_clockdrift.stdout.rel_tf_osx_builder.89634.FkC400.ii
__GLOBAL__sub_I_cmd.stdout.rel_tf_osx_builder.89761.kdMATn.ii
__GLOBAL__sub_I_cmodel.stdout.rel_tf_osx_builder.57569.Qh2sIz.ii
__GLOBAL__sub_I_cmodel_dis.stdout.rel_tf_osx_builder.57581.h27FW9.ii
__GLOBAL__sub_I_colorcorre.stdout.rel_tf_osx_builder.89762.gS0Q7M.ii
__GLOBAL__sub_I_console.stdout.rel_tf_osx_builder.89784.LpmPWA.ii
__GLOBAL__sub_I_convar.stdout.rel_tf_osx_builder.55430.mXKsKU.ii
__GLOBAL__sub_I_cvar.stdout.rel_tf_osx_builder.89786.ZqlzPw.ii
__GLOBAL__sub_I_debug_leaf.stdout.rel_tf_osx_builder.57615.bqZczu.ii
__GLOBAL__sub_I_debugoverl.stdout.rel_tf_osx_builder.89796.GyP0Fh.ii
__GLOBAL__sub_I_decal_clip.stdout.rel_tf_osx_builder.57617.G6CJGE.ii
__GLOBAL__sub_I_decals.stdout.rel_tf_osx_builder.57616.zYGvNo.ii
__GLOBAL__sub_I_demofile.stdout.rel_tf_osx_builder.57641.pDawcQ.ii
__GLOBAL__sub_I_disp.stdout.rel_tf_osx_builder.57649.tgIbRz.ii
__GLOBAL__sub_I_disp_defs.stdout.rel_tf_osx_builder.57655.vn7lAO.ii
__GLOBAL__sub_I_disp_inter.stdout.rel_tf_osx_builder.89797.HCV9p0.ii
__GLOBAL__sub_I_disp_power.stdout.rel_tf_osx_builder.12173.sx2c5O.ii
__GLOBAL__sub_I_dispcoll_c.stdout.rel_tf_osx_builder.12153.QZrIq0.ii
__GLOBAL__sub_I_dmxattribu.stdout.rel_tf_osx_builder.55746.1QrULA.ii
__GLOBAL__sub_I_dmxelement.stdout.rel_tf_osx_builder.55747.eLYsDB.ii
__GLOBAL__sub_I_dmxloader.stdout.rel_tf_osx_builder.55748.sNRPFw.ii
__GLOBAL__sub_I_dmxloadert.stdout.rel_tf_osx_builder.55750.leM6Ab.ii
__GLOBAL__sub_I_download.stdout.rel_tf_osx_builder.89798.C5Vf4u.ii
__GLOBAL__sub_I_downloadth.stdout.rel_tf_osx_builder.12796.gASo2N.ii
__GLOBAL__sub_I_dt.stdout.rel_tf_osx_builder.57687.J5mt1y.ii
__GLOBAL__sub_I_dt_instrum.stdout.rel_tf_osx_builder.57717.YhXNh8.ii
__GLOBAL__sub_I_dt_instrum.stdout.rel_tf_osx_builder.89826.1Dujfu.ii
__GLOBAL__sub_I_dt_localtr.stdout.rel_tf_osx_builder.89836.eDztPd.ii
__GLOBAL__sub_I_dt_recv_en.stdout.rel_tf_osx_builder.12857.PAOMv7.ii
__GLOBAL__sub_I_dt_send_en.stdout.rel_tf_osx_builder.57724.TWrynK.ii
__GLOBAL__sub_I_engine_rep.stdout.rel_tf_osx_builder.89865.pkcfsL.ii
__GLOBAL__sub_I_enginetool.stdout.rel_tf_osx_builder.89858.5XTsMx.ii
__GLOBAL__sub_I_enginetrac.stdout.rel_tf_osx_builder.89863.1cxufF.ii
__GLOBAL__sub_I_filesystem.stdout.rel_tf_osx_builder.57787.6Jgx4R.ii
__GLOBAL__sub_I_gl_drawlig.stdout.rel_tf_osx_builder.89892.BxQTjn.ii
__GLOBAL__sub_I_gl_lightma.stdout.rel_tf_osx_builder.89904.02Gzpw.ii
__GLOBAL__sub_I_gl_matsysi.stdout.rel_tf_osx_builder.57826.15SRV8.ii
__GLOBAL__sub_I_gl_rlight.stdout.rel_tf_osx_builder.89909.RyM0cG.ii
__GLOBAL__sub_I_gl_rmain.stdout.rel_tf_osx_builder.89910.0F3sZJ.ii
__GLOBAL__sub_I_gl_rmisc.stdout.rel_tf_osx_builder.89914.MvCuIa.ii
__GLOBAL__sub_I_gl_rsurf.stdout.rel_tf_osx_builder.89916.C9jegA.ii
__GLOBAL__sub_I_gl_warp.stdout.rel_tf_osx_builder.57861.mVZkll.ii
__GLOBAL__sub_I_hltvclient.stdout.rel_tf_osx_builder.89918.rOeCx6.ii
__GLOBAL__sub_I_hltvclient.stdout.rel_tf_osx_builder.89923.cjT4fM.ii
__GLOBAL__sub_I_hltvserver.stdout.rel_tf_osx_builder.89958.TA7zZ5.ii
__GLOBAL__sub_I_host.stdout.rel_tf_osx_builder.89962.D1wYo7.ii
__GLOBAL__sub_I_host_cmd.stdout.rel_tf_osx_builder.89963.WVCOw5.ii
__GLOBAL__sub_I_host_listm.stdout.rel_tf_osx_builder.89972.bdv0p8.ii
__GLOBAL__sub_I_host_saver.stdout.rel_tf_osx_builder.89973.WOlYNN.ii
__GLOBAL__sub_I_initmathli.stdout.rel_tf_osx_builder.57932.v5Y3kG.ii
__GLOBAL__sub_I_keys.stdout.rel_tf_osx_builder.89997.Mxz0yN.ii
__GLOBAL__sub_I_l_studio.stdout.rel_tf_osx_builder.90013.aYu4XI.ii
__GLOBAL__sub_I_lightcache.stdout.rel_tf_osx_builder.90004.FKi4vb.ii
__GLOBAL__sub_I_lzmaDecode.stdout.rel_tf_osx_builder.55433.LctBPo.ii
__GLOBAL__sub_I_matchmakin.stdout.rel_tf_osx_builder.90021.kSNC1c.ii
__GLOBAL__sub_I_matchmakin.stdout.rel_tf_osx_builder.90025.v5CFVP.ii
__GLOBAL__sub_I_matchmakin.stdout.rel_tf_osx_builder.90042.qWvu7y.ii
__GLOBAL__sub_I_matsys_int.stdout.rel_tf_osx_builder.90048.xhRSgd.ii
__GLOBAL__sub_I_mod_vis.stdout.rel_tf_osx_builder.58023.YicVNg.ii
__GLOBAL__sub_I_modelloade.stdout.rel_tf_osx_builder.90056.xczebo.ii
__GLOBAL__sub_I_net_chan.stdout.rel_tf_osx_builder.90086.4sq3Rx.ii
__GLOBAL__sub_I_net_ws.stdout.rel_tf_osx_builder.90094.13b08k.ii
__GLOBAL__sub_I_net_ws_que.stdout.rel_tf_osx_builder.90095.QnWFma.ii
__GLOBAL__sub_I_netmessage.stdout.rel_tf_osx_builder.89442.oLmtIq.ii
__GLOBAL__sub_I_networkstr.stdout.rel_tf_osx_builder.90061.Y3Mv48.ii
__GLOBAL__sub_I_networkstr.stdout.rel_tf_osx_builder.90062.IgzgVk.ii
__GLOBAL__sub_I_networkstr.stdout.rel_tf_osx_builder.90067.I0Kjqh.ii
__GLOBAL__sub_I_perfuipane.stdout.rel_tf_osx_builder.90106.ISP3xT.ii
__GLOBAL__sub_I_pr_edict.stdout.rel_tf_osx_builder.90116.iRBvsE.ii
__GLOBAL__sub_I_pure_serve.stdout.rel_tf_osx_builder.90124.TsMEGh.ii
__GLOBAL__sub_I_r_areaport.stdout.rel_tf_osx_builder.90153.gfAqHI.ii
__GLOBAL__sub_I_r_decal.stdout.rel_tf_osx_builder.90157.hmbZkm.ii
__GLOBAL__sub_I_r_efx.stdout.rel_tf_osx_builder.90170.8KOARF.ii
__GLOBAL__sub_I_r_linefile.stdout.rel_tf_osx_builder.90172.dVabJM.ii
__GLOBAL__sub_I_randomstre.stdout.rel_tf_osx_builder.83516.v7EkAE.ii
__GLOBAL__sub_I_replay_int.stdout.rel_tf_osx_builder.90142.WeCVd1.ii
__GLOBAL__sub_I_replaydemo.stdout.rel_tf_osx_builder.90132.GhBspy.ii
__GLOBAL__sub_I_saverestor.stdout.rel_tf_osx_builder.58178.0lcc0w.ii
__GLOBAL__sub_I_servermsgh.stdout.rel_tf_osx_builder.90173.J5G9iP.ii
__GLOBAL__sub_I_shadowmgr.stdout.rel_tf_osx_builder.58207.wqhBGO.ii
__GLOBAL__sub_I_snd_dma.stdout.rel_tf_osx_builder.89448.4sbtrF.ii
__GLOBAL__sub_I_snd_dsp.stdout.rel_tf_osx_builder.89449.W7thPG.ii
__GLOBAL__sub_I_snd_mix.stdout.rel_tf_osx_builder.89450.a1mpMw.ii
__GLOBAL__sub_I_snd_mp3_so.stdout.rel_tf_osx_builder.89485.9vawe7.ii
__GLOBAL__sub_I_snd_wave_d.stdout.rel_tf_osx_builder.89494.aRUycW.ii
__GLOBAL__sub_I_snd_wave_s.stdout.rel_tf_osx_builder.89525.TEVD6a.ii
__GLOBAL__sub_I_snd_wave_t.stdout.rel_tf_osx_builder.89530.73G3py.ii
__GLOBAL__sub_I_snd_win.stdout.rel_tf_osx_builder.89537.wkAQCG.ii
__GLOBAL__sub_I_sound_shar.stdout.rel_tf_osx_builder.58225.twwxCJ.ii
__GLOBAL__sub_I_spatialpar.stdout.rel_tf_osx_builder.58233.K5JefA.ii
__GLOBAL__sub_I_sse.stdout.rel_tf_osx_builder.9376.gxVesc.ii
__GLOBAL__sub_I_staticprop.stdout.rel_tf_osx_builder.90208.Whj7SR.ii
__GLOBAL__sub_I_studio.stdout.rel_tf_osx_builder.56128.pYpet3.ii
__GLOBAL__sub_I_sv_client.stdout.rel_tf_osx_builder.90211.Y3gVmL.ii
__GLOBAL__sub_I_sv_ents_wr.stdout.rel_tf_osx_builder.90210.KBioig.ii
__GLOBAL__sub_I_sv_filter.stdout.rel_tf_osx_builder.90222.kSM2II.ii
__GLOBAL__sub_I_sv_framesn.stdout.rel_tf_osx_builder.90223.q8w7En.ii
__GLOBAL__sub_I_sv_ipratel.stdout.rel_tf_osx_builder.58267.93HsiS.ii
__GLOBAL__sub_I_sv_log.stdout.rel_tf_osx_builder.90224.Rv1t1g.ii
__GLOBAL__sub_I_sv_main.stdout.rel_tf_osx_builder.90242.PQTbkM.ii
__GLOBAL__sub_I_sv_packede.stdout.rel_tf_osx_builder.90243.GXd801.ii
__GLOBAL__sub_I_sv_plugin.stdout.rel_tf_osx_builder.90258.yccyRY.ii
__GLOBAL__sub_I_sv_precach.stdout.rel_tf_osx_builder.90260.7Q2wSE.ii
__GLOBAL__sub_I_sv_rcon.stdout.rel_tf_osx_builder.90261.xfO3y6.ii
__GLOBAL__sub_I_sv_redirec.stdout.rel_tf_osx_builder.90264.4CG4Y5.ii
__GLOBAL__sub_I_sv_remotea.stdout.rel_tf_osx_builder.90273.OflyIn.ii
__GLOBAL__sub_I_sv_steamau.stdout.rel_tf_osx_builder.90288.hN7asZ.ii
__GLOBAL__sub_I_sv_uploadg.stdout.rel_tf_osx_builder.90292.y1PAwZ.ii
__GLOBAL__sub_I_sys_dll.stdout.rel_tf_osx_builder.90294.Xkp5Fs.ii
__GLOBAL__sub_I_sys_dll2.stdout.rel_tf_osx_builder.90301.xuuHrc.ii
__GLOBAL__sub_I_sys_engine.stdout.rel_tf_osx_builder.90304.tjSJjU.ii
__GLOBAL__sub_I_sys_getmod.stdout.rel_tf_osx_builder.90306.ql2IX4.ii
__GLOBAL__sub_I_testscript.stdout.rel_tf_osx_builder.58357.MSY5S6.ii
__GLOBAL__sub_I_tmessage.stdout.rel_tf_osx_builder.58375.XeMeU8.ii
__GLOBAL__sub_I_toolframew.stdout.rel_tf_osx_builder.58377.UN5fDy.ii
__GLOBAL__sub_I_traceinit.stdout.rel_tf_osx_builder.58378.bIk5qf.ii
__GLOBAL__sub_I_utlbuffer.stdout.rel_tf_osx_builder.8986.vt30zT.ii
__GLOBAL__sub_I_utlsymbol.stdout.rel_tf_osx_builder.55484.zcRfnN.ii
__GLOBAL__sub_I_vengineser.stdout.rel_tf_osx_builder.90323.fPVCeG.ii
__GLOBAL__sub_I_vgui_basep.stdout.rel_tf_osx_builder.90334.mZbJWC.ii
__GLOBAL__sub_I_vgui_baseu.stdout.rel_tf_osx_builder.90338.oSGPkg.ii
__GLOBAL__sub_I_vgui_budge.stdout.rel_tf_osx_builder.57157.RQUqf9.ii
__GLOBAL__sub_I_vgui_budge.stdout.rel_tf_osx_builder.57158.rfkQ4p.ii
__GLOBAL__sub_I_vgui_budge.stdout.rel_tf_osx_builder.57159.tp9mtY.ii
__GLOBAL__sub_I_vgui_budge.stdout.rel_tf_osx_builder.90356.tbF8XQ.ii
__GLOBAL__sub_I_vgui_contr.stdout.rel_tf_osx_builder.57207.eRu0VO.ii
__GLOBAL__sub_I_vgui_drawt.stdout.rel_tf_osx_builder.90360.OdKLgd.ii
__GLOBAL__sub_I_vgui_textu.stdout.rel_tf_osx_builder.90380.4VTplf.ii
__GLOBAL__sub_I_vgui_vprof.stdout.rel_tf_osx_builder.90382.S1VTb2.ii
__GLOBAL__sub_I_vgui_vprof.stdout.rel_tf_osx_builder.90388.YaMe1i.ii
__GLOBAL__sub_I_view.stdout.rel_tf_osx_builder.90389.CLDdyS.ii
__GLOBAL__sub_I_voice.stdout.rel_tf_osx_builder.89542.bgGVSR.ii
__GLOBAL__sub_I_voice_reco.stdout.rel_tf_osx_builder.12406.BLb8IF.ii
__GLOBAL__sub_I_voice_soun.stdout.rel_tf_osx_builder.89562.EDsJfi.ii
__GLOBAL__sub_I_voiceserve.stdout.rel_tf_osx_builder.90399.ii0H60.ii
__GLOBAL__sub_I_vox.stdout.rel_tf_osx_builder.89564.SZNt4c.ii
__GLOBAL__sub_I_vprof_engi.stdout.rel_tf_osx_builder.90400.VeYVAU.ii
__GLOBAL__sub_I_vprof_reco.stdout.rel_tf_osx_builder.90401.Dj2jav.ii
__GLOBAL__sub_I_vtf.stdout.rel_tf_osx_builder.55898.EeKUFF.ii
__GLOBAL__sub_I_xboxsystem.stdout.rel_tf_osx_builder.58491.qGOBU0.ii
__GLOBAL__sub_I_zone.stdout.rel_tf_osx_builder.58498.5tl8eY.ii
__SpewInfo
__SpewMessage
__Unwind_Resume
__Z10BeginTracev
__Z10BlendEdgesPP13CCoreDispInfoi
__Z10CL_ConnectPKcS0_
__Z10CM_FreeMapv
__Z10CM_LoadMapPKcbPj
__Z10CM_PreStabP11TraceInfo_tP7cleaf_tR6VectoriRi
__Z10CRC32_InitPj
__Z10CSGFrustumR9Frustum_t
__Z10Cbuf_Clearv
__Z10CleanupDMXP11CDmxElement
__Z10Cmd_Exec_fRK8CCommand
__Z10CreateWaveP9CSfxTableb
__Z10CreateZipZPvjj
__Z10DFR_ParamsP5prc_t
__Z10DLY_ParamsP5prc_t
__Z10Decal_Initv
__Z10DemoUI2_onv
__Z10DevWarningPKcz
__Z10Disconnectv
__Z10EngineVGuiv
__Z10FLT_ParamsP5prc_t
__Z10FlushLOD_fv
__Z10Host_ErrorPKcz
__Z10Host_Map_fRK8CCommand
__Z10Hunk_Allocib
__Z10Hunk_Printv
__Z10IN_VProfUpv
__Z10Int_DecodeP10DecodeInfo
__Z10Int_EncodePKhP8DVariantPK8SendPropP8bf_writei
__Z10Int_IsZeroPKhP8DVariantPK8SendProp
__Z10MDY_ParamsP5prc_t
__Z10MakeSkyVecffifR6VectorR8Vector2D
__Z10MatrixCopyRK11matrix3x4_tRS_
__Z10MatrixCopyRK7VMatrixRS_
__Z10NET_Configv
__Z10NET_SendTobiP27ISteamNetworkingFakeUDPPortPKciPK8sockaddrii
__Z10OverlayMgrv
__Z10PSET_Alloci
__Z10RCONClientv
__Z10RCONServerv
__Z10RVA_ParamsP5prc_t
__Z10R_CullNodeP9Frustum_tP7mnode_tRi
__Z10R_LightVecRK6VectorS1_bRS_PfS3_S3_S3_
__Z10R_LoadSkysv
__Z10R_SceneEndv
__Z10R_Shutdownv
__Z10RenderLineRK6VectorS1_5Colorb
__Z10S_DspParmsRK8CCommand
__Z10S_DummySfxPKc
__Z10S_FindNamePKcPi
__Z10S_Shutdownv
__Z10StartAudioPv
__Z10Sys_PrintfPcz
__Z10V_FileBasePKcPci
__Z10V_Shutdownv
__Z10V_StrRightPKciPci
__Z10V_StrSubstPKcS0_S0_Pcib
__Z10V_snprintfPciPKcz
__Z10V_strlowerPc
__Z10V_strnicmpPKcS0_i
__Z10V_strnistrPKcS0_i
__Z10Voice_Idlef
__Z10Voice_InitPKci
__Z10build_treeR6TStateP9tree_desc
__Z10copy_blockR6TStatePcji
__Z10dB_To_Gainf
__Z10gen_bitlenR6TStateP9tree_desc
__Z10init_blockR6TState
__Z10pqdownheapR6TStateP7ct_datai
__Z11AMP_GetNextP5amp_ti
__Z11AMP_VParamsPv
__Z11AngleMatrixRK6QAngleR11matrix3x4_t
__Z11AngleMatrixRK6QAngleRK6VectorR11matrix3x4_t
__Z11Audio_IsMP3PKc
__Z11CL_AddSoundRK11SoundInfo_t
__Z11CL_EndMoviev
__Z11CL_NextDemov
__Z11CL_SendMovev
__Z11CL_Shutdownv
__Z11CM_BoxTraceRK5Ray_tiibR10CGameTrace
__Z11CM_LeafAreai
__Z11CRC32_FinalPj
__Z11CRC_MapFilePjPKc
__Z11CRS_FreeAllv
__Z11CRS_GetNextP5crs_ti
__Z11CRS_VParamsPv
__Z11ClearBoundsR6VectorS0_
__Z11ClipChangedP7IConVarPKcf
__Z11ConColorMsgRK5ColorPKcz
__Z11Con_Clear_fv
__Z11Con_NPrintfiPKcz
__Z11DFR_GetNextP5dfr_ti
__Z11DFR_VParamsPv
__Z11DLY_AllocLPiiiiiiPiS_
__Z11DLY_GetNextP5dly_ti
__Z11DLY_VParamsPv
__Z11DTI_Flush_fv
__Z11DemoUI2_offv
__Z11DrawLeafvisP9leafvis_t
__Z11DrawTextLenmPKw
__Z11EFO_GetNextP5efo_ti
__Z11EFO_VParamsPv
__Z11ENV_GetNextP5env_ti
__Z11ENV_VParamsPv
__Z11EncodeFloatPK8SendPropfP8bf_writei
__Z11FLT_GetNextP5flt_ti
__Z11FLT_VParamsPv
__Z11Filter_Initv
__Z11FloodArea_rP17CCollisionBSPDataP7carea_ti
__Z11GameFactoryPKcPi
__Z11Heartbeat_fv
__Z11Host_Quit_fRK8CCommand
__Z11IN_BudgetUpv
__Z11InitMathlibv
__Z11LFOWAV_FillPiii
__Z11LFO_GetNextP5lfo_ti
__Z11LFO_VParamsPv
__Z11LeafVisDrawv
__Z11MD5_CompareRK10MD5Value_tS1_
__Z11MD5_MapFileP10MD5Value_tPKc
__Z11MDY_GetNextP5mdy_ti
__Z11MDY_VParamsPv
__Z11Map_VisMarkbP7model_t
__Z11Memory_Initv
__Z11NET_GetLongiP11netpacket_s
__Z11NET_SetTimed
__Z11PTC_GetNextP5ptc_ti
__Z11PTC_VParamsPv
__Z11ParseFloatsPKcPfi
__Z11ParseStringPKcPcm
__Z11RVA_GetNextP5rva_ti
__Z11RVA_VParamsPv
__Z11R_DecalInitv
__Z11R_DecalLeafP7mleaf_tP11decalinfo_t
__Z11R_DecalTermP16worldbrushdata_tb
__Z11R_LevelInitv
__Z11SND_GetGainP9channel_tbbbfb
__Z11SV_ResetPVSPhi
__Z11SW_Mix8MonoP21portable_samplepair_tPiPhiji
__Z11S_IsInittedv
__Z11S_LoadSoundP9CSfxTableP9channel_t
__Z11S_SoundFadeffff
__Z11S_SoundListv
__Z11S_StopSoundii
__Z11VOX_LRUInitP15sentencegroup_t
__Z11V_vsnprintfPciPKcS_
__Z11fill_windowR6TState
__Z11flush_blockR6TStatePcmi
__Z12ADSP_GetSizeP13auto_params_t
__Z12AMP_GetNextNP5amp_tP21portable_samplepair_tii
__Z12AddEmptyMeshP7model_tP10CDispGroupPK11ddispinfo_tPiiii
__Z12AngleIMatrixRK6QAngleR11matrix3x4_t
__Z12AngleVectorsRK6QAngleP6Vector
__Z12AngleVectorsRK6QAngleP6VectorS3_S3_
__Z12Array_DecodeP10DecodeInfo
__Z12Array_EncodePKhP8DVariantPK8SendPropP8bf_writei
__Z12Array_IsZeroPKhP8DVariantPK8SendProp
__Z12BlendCornersPP13CCoreDispInfoi
__Z12BuildTagDataP13CCoreDispInfoP9CDispInfo
__Z12CCS_Shutdownv
__Z12CL_CheckCRCsPKc
__Z12CL_IsHL2Demov
__Z12CM_LeafFlagsi
__Z12COM_CopyFilePKcS0_
__Z12COM_FileSizePKc
__Z12COM_LoadFilePKciPi
__Z12COM_OpenFilePKcPPv
__Z12COM_Shutdownv
__Z12CRS_GetNextNP5crs_tP21portable_samplepair_tii
__Z12CSGPlaneListP9leafvis_tR10CUtlVectorI8cplane_t10CUtlMemoryIS2_iEE
__Z12Cbuf_AddTextPKc
__Z12Cbuf_Executev
__Z12Cmd_DispatchPK14ConCommandBaseRK8CCommand
__Z12Cmd_Shutdownv
__Z12Con_DebugLogPKcz
__Z12Con_NXPrintfPK12con_nprint_sPKcz
__Z12Con_Shutdownv
__Z12CrossProductPKfS0_Pf
__Z12DFR_GetNextNP5dfr_tP21portable_samplepair_tii
__Z12DLY_GetNextNP5dly_tP21portable_samplepair_tii
__Z12DumpPanels_fv
__Z12DumpPanels_rji
__Z12EFO_GetNextNP5efo_tP21portable_samplepair_tii
__Z12ENV_GetNextNP5env_tP21portable_samplepair_tii
__Z12FLT_GetNextNP5flt_tP21portable_samplepair_tii
__Z12FindMinBrushP17CCollisionBSPDataii
__Z12Float_DecodeP10DecodeInfo
__Z12Float_EncodePKhP8DVariantPK8SendPropP8bf_writei
__Z12Float_IsZeroPKhP8DVariantPK8SendProp
__Z12GetPowerInfoi
__Z12GetSoundTimev
__Z12HasZipSuffixPKc
__Z12Host_EndGamebPKcz
__Z12Host_NewGamePcbbPKcS1_b
__Z12Host_Stats_fv
__Z12Hunk_LowMarkv
__Z12IN_VProfDownv
__Z12Int_SkipPropPK8SendPropP7bf_read
__Z12IsPointInBoxRK6VectorS1_S1_
__Z12Key_Shutdownv
__Z12LFO_GetNextNP5lfo_tP21portable_samplepair_tii
__Z12LeafVisBuildRK6Vector
__Z12MDY_GetNextNP5mdy_tP21portable_samplepair_tii
__Z12Map_VisClearv
__Z12Map_VisSetupP7model_tiPK6VectorbRj
__Z12MathLib_Initfffibbbb
__Z12MatrixAnglesRK11matrix3x4_tPf
__Z12Mod_LoadLumpP7model_tiPciPPvPi
__Z12NET_RunFramed
__Z12NET_SendLongP11INetChanneliiP27ISteamNetworkingFakeUDPPortPKciPK8sockaddrii
__Z12NET_Shutdownv
__Z12NULL_GetNextPvi
__Z12NULL_VParamsPv
__Z12PSET_GetNextP6pset_ti
__Z12PTC_GetNextNP5ptc_tP21portable_samplepair_tii
__Z12PropOffsetLTRKtS0_
__Z12RVA_GetNextNP5rva_tP21portable_samplepair_tii
__Z12R_DecalShootiiPK7model_tRK6VectorPS3_iRK9color32_sS5_
__Z12R_DrawSkyBoxfi
__Z12R_InitStudiov
__Z12R_LightPointR6Vector
__Z12R_MarkLightsP8dlight_tiP7mnode_t
__Z12R_SceneBeginv
__Z12R_UnloadSkysv
__Z12ReadWaveFilePKcRPcRiS3_S3_S3_
__Z12RenderSphereRK6Vectorfii5ColorP9IMaterial
__Z12SCR_Shutdownv
__Z12SND_IsInGamev
__Z12SND_MovieEndv
__Z12SV_ForceSendv
__Z12S_StartSoundR18StartSoundParams_t
__Z12SerializeDMXR10CUtlBufferP11CDmxElementPKc
__Z12SetRootLOD_fP7IConVarPKcf
__Z12Steam3Clientv
__Z12Steam3Serverv
__Z12Sys_FindNextPci
__Z12Sys_InitGamePFPvPKcPiES1_S_i
__Z12Sys_SpewFunc10SpewType_tPKc
__Z12VOX_GroupAddPKc
__Z12VOX_PrecacheP12IEngineSoundiPKc
__Z12V_CheckGammav
__Z12V_FixSlashesPcc
__Z12V_RenderViewv
__Z12V_pretifymemfib
__Z12V_vsnwprintfPwiPKwPc
__Z12ValidateNamePci
__Z12VectorAnglesRK6VectorR6QAngle
__Z12VectorRotatePKfRK11matrix3x4_tPf
__Z12VoiceSE_Idlef
__Z12VoiceSE_Initv
__Z12VoiceSE_Termv
__Z12Voice_Deinitv
__Z12ZipGetMemoryP6HZIP__PPvPm
__Z12_InvRSquaredPKf
__Z12build_numberv
__Z12deflate_fastR6TState
__Z13BZ2_blockSortP6EState
__Z13CL_ClearStatev
__Z13CL_FileDeniedPKcj
__Z13CL_FireEventsv
__Z13CL_HTTPStop_fv
__Z13CL_HudMessagePKc
__Z13CL_ListDemo_fRK8CCommand
__Z13CL_PlayDemo_fRK8CCommand
__Z13CL_StartMoviePKciiifiN11VideoSystem14EVideoSystem_tE
__Z13CL_TimeDemo_fRK8CCommand
__Z13CM_BoxVisibleRK6VectorS1_PKhi
__Z13CM_ClearTraceP10CGameTrace
__Z13CM_ClusterPVSi
__Z13COM_CloseFilePv
__Z13COM_LogStringPKcS0_
__Z13COM_ParseFilePKcPci
__Z13COM_ParseLinePKc
__Z13Cbuf_Shutdownv
__Z13ClearIOStatesv
__Z13Con_IsVisiblev
__Z13DAS_InitNodesv
__Z13DAS_StoreNodeP10das_room_ti
__Z13DSP_FastReseti
__Z13DSP_SetPresetii
__Z13DrawSpotLightP13dworldlight_t
__Z13DrawSurfaceIDP11msurface2_tRK6Vector
__Z13Draw_DecalMaxv
__Z13EndDMXContextb
__Z13FindOrAddMeshP9IMateriali
__Z13FindRecvTablePKc
__Z13GetAppModName10ESourceApp
__Z13GetFlagStringi
__Z13GetSaveMemoryv
__Z13GetSearchPathR10CUtlVectorI10CUtlString10CUtlMemoryIS0_iEEPKc
__Z13GetSteamAppIDv
__Z13GetSvPureModev
__Z13GetVProfPanelv
__Z13Get_idsp_roomv
__Z13Host_RunFramef
__Z13Host_Shutdownv
__Z13IN_BudgetDownv
__Z13IN_VProfChildv
__Z13InitPowerInfoP10CPowerInfoi
__Z13Linefile_Drawv
__Z13Mod_LoadEdgesv
__Z13Mod_LoadFacesv
__Z13Mod_LoadLeafsv
__Z13Mod_LoadNodesv
__Z13Mod_SetParentP7mnode_tS0_
__Z13NET_GetPacketiPh
__Z13NET_LagPacketbP11netpacket_s
__Z13NULL_GetNextNP5nul_tP21portable_samplepair_tii
__Z13NUM_FOR_EDICTPK7edict_t
__Z13PolyFromPlaneP6VectorRKS_ff
__Z13Q_UTF32ToUTF8PKwPci25EStringConvertErrorPolicy
__Z13Q_UTF8ToUTF32PKcPwi25EStringConvertErrorPolicy
__Z13R_DecalUnlinkP7decal_tP16worldbrushdata_t
__Z13R_DrawPortalsv
__Z13R_DrawSurfaceP16CWorldRenderListP11msurface2_t
__Z13R_DrawTopViewb
__Z13R_PushDlightsv
__Z13SND_GetDspMixP9channel_ti
__Z13SV_ClearWorldv
__Z13SV_DecalIndexPKc
__Z13SV_ModelIndexPKc
__Z13SV_SolidMovedP7edict_tP12ICollideablePK6Vectorb
__Z13SV_SoundIndexPKc
__Z13SV_StartSoundR16IRecipientFilterP7edict_tiPKcf12soundlevel_tiiiPK6VectorfiP10CUtlVectorIS6_10CUtlMemoryIS6_iEE
__Z13S_ExtraUpdatev
__Z13S_FreeChannelP9channel_t
__Z13S_MarkUISoundP9CSfxTable
__Z13S_ReloadSoundPKc
__Z13S_RestartSongPK11musicsave_t
__Z13S_SoundInfo_fv
__Z13S_Update_Gutsf
__Z13Snd_Restart_fv
__Z13StaticPropMgrv
__Z13String_DecodeP10DecodeInfo
__Z13String_EncodePKhP8DVariantPK8SendPropP8bf_writei
__Z13String_IsZeroPKhP8DVariantPK8SendProp
__Z13Sys_FindClosev
__Z13Sys_FindFirstPKcPci
__Z13TraceShutdownPKci
__Z13TransformAABBRK11matrix3x4_tRK6VectorS4_RS2_S5_
__Z13V_AppendSlashPci
__Z13V_SplitStringPKcS0_R10CUtlVectorIPc10CUtlMemoryIS2_iEE
__Z13V_binarytohexPKhiPci
__Z13V_hextobinaryPKciPhi
__Z13VectorIRotatePKfRK11matrix3x4_tPf
__Z13VectorVectorsRK6VectorRS_S2_
__Z13Vector_DecodeP10DecodeInfo
__Z13Vector_EncodePKhP8DVariantPK8SendPropP8bf_writei
__Z13Vector_IsZeroPKhP8DVariantPK8SendProp
__Z13Voice_Enabledv
__Z13WriteWaveFilePKcS0_iiii
__Z13build_bl_treeR6TState
__Z13jpeg_fdct_1x1PiPPhj
__Z13jpeg_fdct_1x2PiPPhj
__Z13jpeg_fdct_2x1PiPPhj
__Z13jpeg_fdct_2x2PiPPhj
__Z13jpeg_fdct_2x4PiPPhj
__Z13jpeg_fdct_3x3PiPPhj
__Z13jpeg_fdct_3x6PiPPhj
__Z13jpeg_fdct_4x2PiPPhj
__Z13jpeg_fdct_4x4PiPPhj
__Z13jpeg_fdct_4x8PiPPhj
__Z13jpeg_fdct_5x5PiPPhj
__Z13jpeg_fdct_6x3PiPPhj
__Z13jpeg_fdct_6x6PiPPhj
__Z13jpeg_fdct_7x7PiPPhj
__Z13jpeg_fdct_8x4PiPPhj
__Z13jpeg_fdct_9x9PiPPhj
__Z13jpeg_mem_initP18jpeg_common_struct
__Z13jpeg_mem_termP18jpeg_common_struct
__Z13longest_matchR6TStatej
__Z14AddFilesToListR10CUtlVectorI10CUtlString10CUtlMemoryIS0_iEEPKcS6_S6_
__Z14AddLeafPortalsP9leafvis_ti
__Z14AngleNormalizef
__Z14Array_FastCopyPK8SendPropPK8RecvPropPKhPhi
__Z14Array_SkipPropPK8SendPropP7bf_read
__Z14BZ2_decompressP6DState
__Z14BoxOnPlaneSidePKfS0_PK8cplane_t
__Z14CL_AllocDlighti
__Z14CL_AllocElighti
__Z14CL_DecayLightsv
__Z14CL_ReadPacketsb
__Z14CM_BoxLeafnumsR10leafnums_tRK6VectorS3_i
__Z14CM_BoxLeafnumsRK6VectorS1_PiiS2_
__Z14CM_GetVCollidei
__Z14CM_LeafClusteri
__Z14CM_NumClustersv
__Z14CM_RayLeafnumsRK5Ray_tPiiRi
__Z14CM_TraceToLeafILb0EEvP11TraceInfo_tiff
__Z14CM_TraceToLeafILb1EEvP11TraceInfo_tiff
__Z14COM_CreatePathPKc
__Z14COM_GetGameDirPci
__Z14COM_StringCopyPKc
__Z14COM_StringFreePKc
__Z14ClientDLL_Initv
__Z14ClientDLL_Loadv
__Z14Con_ColorPrintRK5ColorPKc
__Z14CreateUniqueIdP10UniqueId_t
__Z14DLY_ChangeTapsP5dly_tiiii
__Z14DSP_SetDspAutoi
__Z14Decal_Shutdownv
__Z14DownloadThreadPv
__Z14Filter_SendBanRK8netadr_s
__Z14Float_SkipPropPK8SendPropP7bf_read
__Z14GetAreaFrustumi
__Z14GetBudgetPanelv
__Z14GetBumpNormalsRK6VectorS1_S1_S1_PS_
__Z14HostState_Initv
__Z14Host_CheckGorev
__Z14Host_ShouldRunv
__Z14Hunk_AllocNameiPKcb
__Z14IN_VProfParentv
__Z14Int_DecodeZeroP10DecodeInfo
__Z14Key_SetBinding12ButtonCode_tPKc
__Z14LFOWAV_InitAllv
__Z14LeafvisChangedP7IConVarPKcf
__Z14LoadEntityDLLsPKcb
__Z14MIX_GetMaxRatedi
__Z14Map_VisCurrentv
__Z14MatrixMultiplyRK7VMatrixS1_RS_
__Z14Model_LessFuncRKPvS1_
__Z14NET_GetFakeLagv
__Z14NET_GetUDPPorti
__Z14NET_OpenSocketPKcRii
__Z14NET_SendPacketP11INetChanneliRK8netadr_sPKhiP8bf_writeb
__Z14NET_SendToImpliP27ISteamNetworkingFakeUDPPortPKciPK8sockaddrii
__Z14ParseDirectivePKc
__Z14PopTraceVisitsP11TraceInfo_t
__Z14R_AnimateLightv
__Z14R_DecalSurfaceP11msurface2_tP11decalinfo_tb
__Z14R_DecalTermAllv
__Z14RecvTable_InitPP9RecvTablei
__Z14RecvTable_Termb
__Z14RenderTriangleRK6VectorS1_S1_5ColorP9IMaterial
__Z14RenderTriangleRK6VectorS1_S1_5Colorb
__Z14ReplayLib_InitPKcP20IClientReplayContext
__Z14SND_MovieStartv
__Z14SND_RecordInitv
__Z14SND_SpatializeP9channel_t
__Z14SV_InitGameDLLv
__Z14SV_RedirectEndv
__Z14S_AlterChanneliiP9CSfxTableiii
__Z14S_OnLoadScreenb
__Z14SaveFreeMemoryPv
__Z14SendTable_InitPP9SendTablei
__Z14SendTable_Termv
__Z14ServerDLL_Loadb
__Z14ServerDTI_Termv
__Z14Shader_Connectb
__Z14ShowHidePerfUIv
__Z14SortServerTagsPKPcS1_
__Z14StringLessThanRKPKcS2_
__Z14Sys_GetFactoryP10CSysModule
__Z14Sys_InitMemoryv
__Z14Sys_LoadModulePKc9Sys_Flags
__Z14Sys_MessageBoxPKcS0_b
__Z14VGui_PlaySoundPKc
__Z14VOX_AddNumbersPcR10CUtlVectorI7WordBuf10CUtlMemoryIS1_iEE
__Z14VOX_GetChanVolP9channel_t
__Z14VOX_TouchSoundPKcR8CUtlDictIiiER10CUtlRBTreeI6ccpairiPFbRKS5_S7_E10CUtlMemoryI15UtlRBTreeNode_tIS5_iEiEEb
__Z14V_SetExtensionPcPKci
__Z14V_SplitString2PKcPS0_iR10CUtlVectorIPc10CUtlMemoryIS3_iEE
__Z14V_StripLastDirPci
__Z14V_sprintf_safeILm1024EEiRAT__cPKcz
__Z14V_sprintf_safeILm1100EEiRAT__cPKcz
__Z14V_sprintf_safeILm16EEiRAT__cPKcz
__Z14V_sprintf_safeILm256EEiRAT__cPKcz
__Z14V_sprintf_safeILm260EEiRAT__cPKcz
__Z14V_sprintf_safeILm32EEiRAT__cPKcz
__Z14V_sprintf_safeILm512EEiRAT__cPKcz
__Z14V_sprintf_safeILm64EEiRAT__cPKcz
__Z14V_stricmp_fastPKcS0_
__Z14V_vsnprintfRetPciPKcS_Pb
__Z14_Host_RunFramef
__Z14_SSE_RSqrtFastf
__Z14compress_blockR6TStateP7ct_dataS2_
__Z14jpeg_fdct_10x5PiPPhj
__Z14jpeg_fdct_12x6PiPPhj
__Z14jpeg_fdct_14x7PiPPhj
__Z14jpeg_fdct_16x8PiPPhj
__Z14jpeg_fdct_5x10PiPPhj
__Z14jpeg_fdct_6x12PiPPhj
__Z14jpeg_fdct_7x14PiPPhj
__Z14jpeg_fdct_8x16PiPPhj
__Z14jpeg_get_largeP18jpeg_common_structm
__Z14jpeg_get_smallP18jpeg_common_structm
__Z14send_all_treesR6TStateiii
__Z15AngleQuaternionRK6QAngleR10Quaternion
__Z15BeginDMXContextv
__Z15BuildGammaTablefffi
__Z15CL_BenchFrame_fRK8CCommand
__Z15CL_FileReceivedPKcj
__Z15CL_IsPortalDemov
__Z15CL_SetupMapNamePKcPci
__Z15CM_EntityStringv
__Z15CM_LeafContentsi
__Z15CM_PointLeafnumRK6Vector
__Z15COM_IsValidPathPKc
__Z15COM_SetupLogDirPKc
__Z15Cbuf_InsertTextPKc
__Z15CheckCacheBuildv
__Z15ClampClientRatei
__Z15ClipPolyToPlaneP6VectoriS0_RKS_ff
__Z15ComputeLightingRK6VectorPS0_bRS_PS_
__Z15ConVar_RegisteriP23IConCommandBaseAccessor
__Z15Con_ClearNotifyv
__Z15Con_ColorPrintfRK5ColorPKcz
__Z15CreateWaveMixerP9IWaveDataiiii
__Z15DSP_Process5To1P5dsp_tP21portable_samplepair_tS2_S2_ib
__Z15DSP_Process5To5P5dsp_tP21portable_samplepair_tS2_S2_ib
__Z15DecalListCreateP11decallist_t
__Z15DecalSurfaceAddP11msurface2_ti
__Z15DrawColoredTextmiiiiiiPKw
__Z15Filter_Shutdownv
__Z15FinishAsyncSavev
__Z15GL_LoadMaterialPKcS0_
__Z15GetAllNeighborsPK13CCoreDispInfoPi
__Z15GetScreenAspectv
__Z15GetUserIDStringRK8USERID_s
__Z15HostState_Framef
__Z15Host_DisconnectbPKc
__Z15Host_Loadgame_fRK8CCommand
__Z15Host_Map_HelperRK8CCommandbbb
__Z15KeepSpecialKeysP9KeyValuesb
__Z15LinearToTexturef
__Z15Linefile_Read_fv
__Z15MD5_Hash_BufferPhPKhibPj
__Z15Map_CheckForHDRP7model_tPKc
__Z15MatrixGetColumnRK11matrix3x4_tiR6Vector
__Z15MatrixInverseTRRK7VMatrixRS_
__Z15Memory_Shutdownv
__Z15Mod_LoadTexinfov
__Z15NET_AddToLaggedPP11netpacket_sS0_
__Z15NET_CloseSocketii
__Z15NET_ErrorStringi
__Z15NET_IsDedicatedv
__Z15NET_OpenSocketsv
__Z15NET_StringToAdrPKcP8netadr_s
__Z15OcclusionSystemv
__Z15PushTraceVisitsP11TraceInfo_t
__Z15Q_UTF8ToUChar32PKcRwRb
__Z15QuaternionAlignRK10QuaternionS1_RS_
__Z15QuaternionBlendRK10QuaternionS1_fRS_
__Z15QuaternionSlerpRK10QuaternionS1_fRS_
__Z15R_BuildLightMapP8dlight_tP10ICallQueueP11msurface2_tRK11matrix3x4_tb
__Z15R_DLightEndViewv
__Z15R_DecalSortInitv
__Z15R_DoDecalSHClipP10CDecalVertS0_P7decal_tiRK6Vector
__Z15R_DrawDecalsAllP17IMatRenderContextiiRK6Vectorif
__Z15R_DrawLightmapsP16IWorldRenderListi
__Z15R_LevelShutdownv
__Z15R_LoadNamedSkysPKc
__Z15R_SetupAreaBitsiPK17VisOverrideData_tPf
__Z15R_TimeRefresh_fv
__Z15R_TopViewBoundsRK8Vector2DS1_
__Z15SNDDMA_Shutdownv
__Z15SV_GenericIndexPKc
__Z15SV_TriggerMovedP7edict_tb
__Z15S_PrecacheSoundPKc
__Z15S_PrefetchSoundPKcb
__Z15S_StopAllSoundsb
__Z15SaveAllocMemorymmb
__Z15ServerDTI_Flushv
__Z15SetupMaxPlayersi
__Z15String_SkipPropPK8SendPropP7bf_read
__Z15SurfHasLightmapP11msurface2_t
__Z15Sys_FindFirstExPKcS0_Pci
__Z15Sys_LoadLibraryPKc9Sys_Flags
__Z15TextureToLineari
__Z15UpdateItemStatePN4vgui8TreeViewEiP9KeyValues
__Z15VOX_ParseStringPc
__Z15VOX_TouchSoundsR8CUtlDictIiiER10CUtlRBTreeI6ccpairiPFbRKS3_S5_E10CUtlMemoryI15UtlRBTreeNode_tIS3_iEiEEb
__Z15V_FixupPathNamePcmPKc
__Z15V_StripFilenamePc
__Z15V_swprintf_safeILm64EEiRAT__wPKwz
__Z15VectorTransformPKfRK11matrix3x4_tPf
__Z15VectorXY_DecodeP10DecodeInfo
__Z15VectorXY_EncodePKhP8DVariantPK8SendPropP8bf_writei
__Z15VectorXY_IsZeroPKhP8DVariantPK8SendProp
__Z15Vector_SkipPropPK8SendPropP7bf_read
__Z15Voice_ForceInitv
__Z15dsp_room_GetIntv
__Z15jpeg_fdct_10x10PiPPhj
__Z15jpeg_fdct_11x11PiPPhj
__Z15jpeg_fdct_12x12PiPPhj
__Z15jpeg_fdct_13x13PiPPhj
__Z15jpeg_fdct_14x14PiPPhj
__Z15jpeg_fdct_15x15PiPPhj
__Z15jpeg_fdct_16x16PiPPhj
__Z15jpeg_fdct_floatPfPPhj
__Z15jpeg_fdct_ifastPiPPhj
__Z15jpeg_fdct_islowPiPPhj
__Z15jpeg_free_largeP18jpeg_common_structPvm
__Z15jpeg_free_smallP18jpeg_common_structPvm
__Z16ADSP_InterpParamP6pset_tS0_S0_iiiiib
__Z16AddPointToBoundsRK6VectorRS_S2_
__Z16Array_DecodeZeroP10DecodeInfo
__Z16CL_ApplyAddAnglev
__Z16CL_ClanIdChangedP7IConVarPKcf
__Z16CL_CopyNewEntityR15CEntityReadInfoii
__Z16CL_DescribeEventiP10CEventInfoPKc
__Z16CL_DispatchSoundRK11SoundInfo_t
__Z16CL_LoadWhitelistP19INetworkStringTablePKc
__Z16CL_QueueDownloadPKc
__Z16CL_RunPrediction17PREDICTION_REASON
__Z16CM_DecompressVisP17CCollisionBSPDataiiPh
__Z16CM_PointContentsRK6Vectori
__Z16CM_RayLeafnums_rRK5Ray_tP17CCollisionBSPDataiffRK6VectorS6_PiiRi
__Z16CM_WriteAreaBitsPhii
__Z16COM_TokenWaitingPKc
__Z16Channel_LessFuncRKjS0_
__Z16ClientDLL_Unloadv
__Z16ClientDLL_Updatev
__Z16ComboBox_Factoryv
__Z16CreateADPCMMixerP9IWaveData
__Z16CreateDmxElementPKc
__Z16CreateVTFTexturev
__Z16DAS_CheckNewRoomP10das_room_t
__Z16DLY_GetNextXfadeP5dly_ti
__Z16DSP_RoomDSPIsOffv
__Z16DecalSurfaceDrawP17IMatRenderContextif
__Z16DevShotGeneratorv
__Z16DrawDebugPolygoniP6Vectorbb
__Z16DrawLightSpritesv
__Z16DrawLightmapPagei
__Z16ED_ClearFreeFlagP7edict_t
__Z16FillStaticBufferP10CGroupMeshP9CDispInfoPK13CCoreDispInfoPK9CDispVerti
__Z16FindAmbientLightv
__Z16Float_DecodeZeroP10DecodeInfo
__Z16Generic_FastCopyPK8SendPropPK8RecvPropPKhPhi
__Z16GetAppSteamAppId10ESourceApp
__Z16GetNetSpikeValuev
__Z16GetSteamUniversev
__Z16Host_AbortServerv
__Z16Host_ChangelevelbPKcS0_
__Z16Host_GetHostInfoPfPiS0_Pci
__Z16InitStudioRenderv
__Z16LoadGameInfoFilePKcRP9KeyValuesS3_S3_
__Z16MapList_ListMapsPKcbbiiPA64_c
__Z16MatrixBuildOrthoR7VMatrixdddddd
__Z16Mod_GameLumpSizei
__Z16Mod_LoadGameLumpiPvi
__Z16Mod_LoadVerticesv
__Z16Mod_TouchAllDataP7model_ti
__Z16OnTVEnablehangedP7IConVarPKcf
__Z16PreUpdateProfilef
__Z16QuaternionAnglesRK10QuaternionR6QAngle
__Z16QuaternionMatrixRK10QuaternionR11matrix3x4_t
__Z16R_BrushBatchInitv
__Z16R_DecalVertsClipP10CDecalVertP7decal_tP11msurface2_tP9IMaterial
__Z16R_DrawBrushModelP13IClientEntityP7model_tRK6VectorRK6QAngle16ERenderDepthModebb
__Z16R_DrawScreenRectffff
__Z16R_DrawWorldListsP16IWorldRenderListmf
__Z16R_MarkLightsLeafP8dlight_tiP7mleaf_t
__Z16R_SetupDecalClipRP10CDecalVertP7decal_tR6VectorP9IMaterialPS4_Pf
__Z16RecvTable_DecodeP9RecvTablePvP7bf_readib
__Z16ResolveQuadraticdd6VectorS_S_S_S_S_iRdS0_
__Z16SCR_UpdateScreenv
__Z16SND_RecordBufferv
__Z16SV_RedirectStart10redirect_tPK8netadr_s
__Z16S_StopAllSoundsCv
__Z16SendTable_EncodePK9SendTablePKvP8bf_writeiP10CUtlMemoryI20CSendProxyRecipientsiEb
__Z16SendTable_GetCRCv
__Z16SerializeTextDMXPKcR10CUtlBufferP11CDmxElement
__Z16ServerDLL_Unloadv
__Z16SetProxiesForURLPvPKc
__Z16SetupMeshReadersP7model_ti
__Z16SetupNewBindingsv
__Z16SignbitsForPlaneP8cplane_t
__Z16SocketWouldBlockv
__Z16SpatialPartitionv
__Z16Sys_ShutdownGamev
__Z16Sys_UnloadModuleP10CSysModule
__Z16URLLabel_Factoryv
__Z16UnloadEntityDLLsv
__Z16V_IsAbsolutePathPKc
__Z16V_RenderVGuiOnlyv
__Z16V_StripExtensionPKcPci
__Z16Vector3DMultiplyRK7VMatrixRK6VectorRS2_
__Z16Vector4DMultiplyRK7VMatrixRK8Vector4DRS2_
__Z16VectorITransformPKfRK11matrix3x4_tPf
__Z16VideoMode_Createv
__Z16Voice_EndChanneli
__Z16Voice_GetChanneli
__Z16Voice_RecordStopv
__Z16Voice_SpatializeP9channel_t
__Z16WaveFixupTmpFilePKc
__Z16_SSE_InvRSquaredPKf
__Z16_VectorNormalizeR6Vector
__Z17ADSP_GetAutoShapeP13auto_params_t
__Z17BChannelLowVolumeP9channel_ti
__Z17BZ2_compressBlockP6EStateh
__Z17BZ2_hbAssignCodesPiPhiii
__Z17BlendSubNeighborsPP13CCoreDispInfoi
__Z17CL_DispatchSoundsv
__Z17CL_DownloadUpdatev
__Z17CL_FullyConnectedv
__Z17CL_RecordLeavePVSi
__Z17CL_TakeScreenshotPKc
__Z17CL_TimeDemoQuit_fRK8CCommand
__Z17CM_AreasConnectedii
__Z17CM_ClipBoxToBrushILb0EEvP11TraceInfo_tPK8cbrush_t
__Z17CM_ClipBoxToBrushILb1EEvP11TraceInfo_tPK8cbrush_t
__Z17CM_ClusterPVSSizev
__Z17CM_TestInDispTreeP11TraceInfo_tP7cleaf_tRK6VectorS5_S5_iP10CGameTrace
__Z17COM_CopyFileChunkPvS_i
__Z17COM_FormatSecondsi
__Z17COM_LoadStackFilePKcPviRi
__Z17CalcPathLengths_RP9CSendNodeR10CUtlVectorIi10CUtlMemoryIiiEEiRi
__Z17CharacterSetBuildP14characterset_tPKc
__Z17ChildCostSortFuncP9KeyValuesS0_
__Z17CompareEntityBitsPKvS0_
__Z17ComputeViewMatrixP7VMatrixRK6VectorRK6QAngle
__Z17ConVar_PrintFlagsPK14ConCommandBase
__Z17ConVar_Unregisterv
__Z17Con_HideConsole_fv
__Z17Con_ShowConsole_fv
__Z17CubemapsFSFactoryPKcPi
__Z17DAS_CalcRoomPropsP10das_room_t
__Z17DAS_CheckNextNodeP10das_room_t
__Z17DataTable_WarningPKcz
__Z17DecalSurfacesInitb
__Z17DestroyVTFTextureP11IVTFTexture
__Z17DrawLeafvis_SolidP9leafvis_t
__Z17Draw_DecalSetNameiPc
__Z17EngineSoundClientv
__Z17FillPathEntries_RP17CSendTablePrecalcP9CSendNodeS2_Ri
__Z17GL_UnloadMaterialP9IMaterial
__Z17Gain_To_Amplitudef
__Z17HostState_NewGamePKcbb
__Z17HostState_Restartv
__Z17InitDLightGlobalsi
__Z17InitMixerControlsv
__Z17InitStartupScreenv
__Z17Int_CompareDeltasPK8SendPropP7bf_readS3_
__Z17Int_IsEncodedZeroPK8SendPropP7bf_read
__Z17IsReplayRenderingv
__Z17Key_BindingForKey12ButtonCode_t
__Z17Key_CountBindingsv
__Z17Key_StartTrapModev
__Z17Key_WriteBindingsR10CUtlBuffer
__Z17MatrixSetIdentityR7VMatrix
__Z17Mod_LoadOcclusionv
__Z17Mod_LoadPrimVertsv
__Z17Mod_LoadSubmodelsR10CUtlVectorI8mmodel_t10CUtlMemoryIS0_iEE
__Z17Mod_LoadSurfedgesP7medge_t
__Z17NET_GetLoopPacketP11netpacket_s
__Z17NET_IsMultiplayerv
__Z17NET_ProcessSocketiP28IConnectionlessPacketHandler
__Z17NET_SetMutiplayerb
__Z17Overlay_TriBLToTRP9CDispInfoP11CMeshReaderR6VectorffiRKS3_
__Z17Overlay_TriTLToBRP9CDispInfoP11CMeshReaderR6VectorffiRKS3_
__Z17ParseFileInternalPKcPcPbP14characterset_tm
__Z17PostUpdateProfilev
__Z17R_BuildWorldListsP16IWorldRenderListP15WorldListInfo_tiPK17VisOverrideData_tbPf
__Z17R_CullBoxSkipNearRK6VectorS1_RK9Frustum_t
__Z17R_DLightStartViewv
__Z17R_DecalSetupVertsR14decalcontext_tP7decal_tP11msurface2_tP9IMaterial
__Z17ReadKeyValuesFilePKc
__Z17ReplaySystem_Initb
__Z17Replay_SetGameDirPKc
__Z17SV_ActivateServerv
__Z17SV_AddOriginToPVSRK6Vector
__Z17SV_CreateBaselinev
__Z17SV_FindOrAddDecalPKcb
__Z17SV_FindOrAddModelPKcb
__Z17SV_FindOrAddSoundPKcb
__Z17SV_RedirectActivev
__Z17S_GetActiveSoundsR10CUtlVectorI9SndInfo_t10CUtlMemoryIS0_iEE
__Z17S_GetMasterVolumev
__Z17S_SetVolumeByGuidif
__Z17S_StopSoundByGuidi
__Z17S_SyncClockAdjust17clocksync_index_t
__Z17SetIdentityMatrixR11matrix3x4_t
__Z17SetupArrayProps_RI9RecvTable8RecvPropEvPT_
__Z17SetupArrayProps_RI9SendTable8SendPropEvPT_
__Z17Shader_Disconnectv
__Z17Shader_DrawChainsPK16CWorldRenderListib
__Z17StringAfterPrefixPKcS0_
__Z17String_DecodeZeroP10DecodeInfo
__Z17SurfNeedsLightmapP11msurface2_t
__Z17Sys_NoCrashDialogv
__Z17UtlStringLessFuncRK10CUtlStringS1_
__Z17VOX_AddRndVirtualPcR10CUtlVectorI7WordBuf10CUtlMemoryIS1_iEE
__Z17VProfExport_Pausev
__Z17V_ComposeFileNamePKcS0_Pci
__Z17V_ExtractFilePathPKcPci
__Z17VectorXY_SkipPropPK8SendPropP7bf_read
__Z17Vector_DecodeZeroP10DecodeInfo
__Z17VideoMode_Destroyv
__Z17VoiceSE_InitMouthi
__Z17VoiceSE_MoveMouthiPsi
__Z17Voice_IsRecordingv
__Z17Voice_RecordStartPKcS0_S0_
__Z17WaveAppendTmpFilePKcPvii
__Z17WaveCreateTmpFilePKciii
__Z18BuildMSurfaceVertsPK16worldbrushdata_tP11msurface2_tP6VectorP8Vector2DPA4_S6_
__Z18BuildRecipientListR10CUtlVectorIP7edict_t10CUtlMemoryIS1_iEERK16IRecipientFilter
__Z18CL_DeleteDLLEntityiPKcb
__Z18CL_InitHL2DemoFlagv
__Z18CL_NameCvarChangedP7IConVarPKcf
__Z18CL_RecordAddEntityi
__Z18CL_ResetEntityBitsv
__Z18CL_SendVoicePacketb
__Z18CM_BrushContents_rP17CCollisionBSPDatai
__Z18CM_DispTreeLeafnumP17CCollisionBSPData
__Z18CM_HeadnodeVisibleiPKhi
__Z18CM_TraceToDispTreeILb0EEvP11TraceInfo_tP13CDispCollTreeff
__Z18CM_TraceToDispTreeILb1EEvP11TraceInfo_tP13CDispCollTreeff
__Z18COM_InitFilesystemPKc
__Z18Catmull_Rom_SplineRK6VectorS1_S1_S1_fRS_
__Z18ChannelCopyVolumesP9channel_tPiii
__Z18ClearCheatCommandsv
__Z18ClientDLL_Shutdownv
__Z18ClipPlaneToFrustumP6VectorS0_S0_
__Z18Cmd_ExecuteCommandRK8CCommand12cmd_source_ti
__Z18ComputeLightRadiusP13dworldlight_tb
__Z18CreateSimpleThreadPFjPvES_Pmj
__Z18DAS_GetSurfaceDataP10das_room_tP10CGameTraceP14das_surfdata_t
__Z18DAS_SetTraceHeightP10das_room_tP10CGameTraceS2_
__Z18DAS_UpdateRoomSizeP10das_room_t
__Z18DSP_DEBUGSetParamsiiPfi
__Z18DSP_LoadPresetFilev
__Z18DispCollTrees_FreeP13CDispCollTree
__Z18DrawSurfaceIDAsIntP11msurface2_tRK6Vector
__Z18Draw_DecalMateriali
__Z18FirstModelInShadowt
__Z18FirstShadowOnModelt
__Z18GetModSubdirectoryPKcPci
__Z18GetObjectClassNamei
__Z18HostState_LoadGamePKcb
__Z18HostState_Shutdownv
__Z18Host_Changelevel_fRK8CCommand
__Z18Host_Client_PrintfPKcz
__Z18Host_FreeToLowMarkb
__Z18Host_InitProcessorv
__Z18Host_PrintDemoListv
__Z18Host_SetAudioStateRK12AudioState_t
__Z18Host_UpdateMapListv
__Z18Hunk_FreeToLowMarki
__Z18InitMaterialSystemv
__Z18InvalidateUniqueIdP10UniqueId_t
__Z18Key_NameForBindingPKc
__Z18MathLib_MMXEnabledv
__Z18MathLib_SSEEnabledv
__Z18MessageBox_Factoryv
__Z18Mod_LoadPrimitivesv
__Z18NET_FindNetChanneliR8netadr_s
__Z18NET_SendLoopPacketiiPKhRK8netadr_s
__Z18PhonemeMP3Shutdownv
__Z18PluginHelpers_MenuP8SVC_Menu
__Z18PrefetchDataStreamPKcii
__Z18R_AddDynamicLightsP8dlight_tP11msurface2_tRK11matrix3x4_tbj
__Z18R_CullNodeInternalP7mnode_tRiRK9Frustum_t
__Z18R_DecalsGetMaxMeshP17IMatRenderContextRiS1_
__Z18R_LightVecUseModelP7model_t
__Z18R_PlayerDecalShootP9IMaterialPviPK7model_tRK6VectorPS6_iRK9color32_s
__Z18RenderWireframeBoxRK6VectorRK6QAngleS1_S1_5Colorb
__Z18SND_InitScaletablev
__Z18SV_FindServerClassPKc
__Z18SV_FindServerClassi
__Z18SV_RedirectAddTextPKc
__Z18SV_ShutdownGameDLLv
__Z18SV_WriteClassInfosP11ServerClassR8bf_write
__Z18SV_WriteSendTablesP11ServerClassR8bf_write
__Z18SV_WriteVoiceCodecR8bf_write
__Z18S_GetMono16SamplesPKcR10CUtlVectorIs10CUtlMemoryIsiEE
__Z18S_StartStaticSoundR18StartSoundParams_t
__Z18SendTable_CRCTableRjP9SendTable
__Z18Shader_SwapBuffersv
__Z18SortMapCompareFuncPKvS0_
__Z18Sys_Error_InternalbPKcPc
__Z18Sys_GetFactoryThisv
__Z18Sys_SetRegKeyValuePKcS0_S0_
__Z18UseDefaultBindingsv
__Z18VGui_DrawHierarchyv
__Z18VGui_FillKeyValuesP9KeyValues
__Z18VProfExport_Resumev
__Z18VProfPlayback_Stepv
__Z18V_DefaultExtensionPcPKci
__Z18V_FixDoubleSlashesPc
__Z18V_GetFileExtensionPKc
__Z18V_MakeAbsolutePathPciPKcS1_
__Z18V_RemoveDotSlashesPccb
__Z18VoiceSE_CloseMouthi
__Z18VoiceSE_EndChannelii
__Z18_DTI_HookDeltaBitsP12CRecvDecoderiii
__Z18_SSE_RSqrtAccuratef
__Z18jpeg_mem_availableP18jpeg_common_structlll
__Z18vgui_drawtree_on_fv
__Z19AddPhonemesFromFilePKc
__Z19Array_CompareDeltasPK8SendPropP7bf_readS3_
__Z19Array_IsEncodedZeroPK8SendPropP7bf_read
__Z19Audio_GetNullDevicev
__Z19BuildGeneralMapListP10CUtlVectorI13maplist_map_t10CUtlMemoryIS0_iEEbPKcPcPi
__Z19CL_CheckClientStatev
__Z19CL_DevShots_NextMapv
__Z19CL_ExtraMouseUpdatef
__Z19CL_HL2Demo_MapCheckPKc
__Z19CL_IsRecordingMoviev
__Z19CL_ProcessVoiceDatav
__Z19CL_RecordEntityBitsii
__Z19CL_SetPagedPoolInfov
__Z19CM_VCollideForModeliPK7model_t
__Z19CM_WorldSpaceBoundsP12ICollideableP6VectorS2_
__Z19CM_WorldSpaceCenterP12ICollideableP6Vector
__Z19COM_CompareFileTimePKcS0_Pi
__Z19COM_DXLevelToStringi
__Z19COM_GetModDirectoryv
__Z19CRC32_ProcessBufferPjPKvi
__Z19CheckSimpleMaterialP9IMaterial
__Z19CheckVarRange_r_lodv
__Z19Cmd_ForwardToServerRK8CCommandb
__Z19Cmd_PropCrosshair_fv
__Z19ComputeViewMatricesP7VMatrixS0_S0_RK10CViewSetup
__Z19Con_ToggleConsole_fv
__Z19CreateSentenceMixerP9voxword_t
__Z19DAS_CheckNewRoomDSPv
__Z19DSP_ConstructPresetbiiiffPfii
__Z19DTI_HookRecvDecoderP12CRecvDecoder
__Z19DispCollTrees_Alloci
__Z19DispInfo_DrawDecalsPP9CDispInfoi
__Z19DispInfo_IndexArrayPvi
__Z19DispInfo_RenderListiPP11msurface2_tibm16ERenderDepthMode
__Z19EvaluateConditionalPKc
__Z19Filter_IsUserBannedRK8USERID_s
__Z19Float_CompareDeltasPK8SendPropP7bf_readS3_
__Z19Float_IsEncodedZeroPK8SendPropP7bf_read
__Z19GL_RebuildLightmapsv
__Z19HideAskConnectPanelv
__Z19Host_AccumulateTimef
__Z19Host_Changelevel2_fRK8CCommand
__Z19Host_GetServerCountv
__Z19Host_LightCrosshairv
__Z19Host_ShutdownServerv
__Z19IN_VProfNextSiblingv
__Z19IN_VProfPrevSiblingv
__Z19IntersectRayWithBoxRK5Ray_tRK13VectorAlignedS4_S4_P10CGameTrace
__Z19IntersectRayWithBoxRK5Ray_tRK6VectorS4_fP10CBaseTracePf
__Z19IntersectRayWithBoxRK6VectorS1_S1_S1_fP10CBaseTracePf
__Z19IntersectRayWithBoxRK6VectorS1_S1_S1_fP14BoxTraceInfo_t
__Z19IntersectRayWithOBBRK5Ray_tRK11matrix3x4_tRK6VectorS7_fP10CBaseTrace
__Z19IntersectRayWithOBBRK5Ray_tRK6VectorRK6QAngleS4_S4_fP10CBaseTrace
__Z19IntersectRayWithOBBRK6VectorS1_RK11matrix3x4_tS1_S1_fP10CBaseTrace
__Z19IntersectRayWithOBBRK6VectorS1_S1_RK6QAngleS1_S1_fP10CBaseTrace
__Z19IntersectRayWithRayRK5Ray_tS1_RfS2_
__Z19KeepKeysMarkedNoMipP9KeyValues
__Z19LightcacheGetStaticP20LightCacheHandle_t__PP8ITexturej
__Z19LinearToScreenGammaf
__Z19MIX_MixPaintbuffersiiiif
__Z19MapReslistGeneratorv
__Z19Map_VisForceFullSkyv
__Z19MarkWaterSurfaces_rP7mnode_t
__Z19MathLib_SSE2Enabledv
__Z19Mod_GameLumpVersioni
__Z19Mod_LoadPrimIndicesv
__Z19Mod_LoadVertNormalsv
__Z19Mod_LoadWorldlightsR14CMapLoadHelperb
__Z19NET_CloseAllSocketsv
__Z19NET_GetLocalAddressv
__Z19NET_OutOfBandPrintfiRK8netadr_sPKcz
__Z19NET_ReceiveDatagramiP11netpacket_s
__Z19PackEntities_NormaliPP11CGameClientP14CFrameSnapshot
__Z19RVA_ConstructDelaysPfS_iPiS0_S0_ff
__Z19R_BuildLightMapGutsP8dlight_tP11msurface2_tRK11matrix3x4_tjbb
__Z19R_DecalComputeBasisRK6VectorPS0_PS_
__Z19R_DrawDecalMeshListR15DecalMeshList_t
__Z19R_LoadWorldGeometryb
__Z19R_SetFogVolumeStateib
__Z19R_Surface_LevelInitv
__Z19RecursiveLightPointP7mnode_tffR6VectorR15LightVecState_t
__Z19RecvTable_ReadInfosP7bf_readi
__Z19SCR_CenterStringOffv
__Z19SND_GetClosestPointP9channel_tR6QAngleR6Vector
__Z19SND_GetGainFromMultfff
__Z19SND_GetGainObscuredP9channel_tbbb
__Z19SV_FindOrAddGenericPKcb
__Z19SV_ForceModelBoundsPKcRK6VectorS3_
__Z19SV_GetSoundDurationPKc
__Z19S_ReloadFilesInListP9IFileList
__Z19S_SetChannelWavtypeP9channel_tP9CSfxTable
__Z19S_SpatializeChannelPiiPK6Vectorff
__Z19S_StartDynamicSoundR18StartSoundParams_t
__Z19SendTable_CalcDeltaPK9SendTablePKviS3_iPiii
__Z19ServerDTI_HookTableP9SendTable
__Z19SetupEdgeIncrementsP16CDispUtilsHelperiiR10CVertIndexS2_S2_S2_RiS3_
__Z19Shader_BrushSurfaceP11msurface2_tP7model_tP13IClientEntity
__Z19ShouldWatchThisPropPK9SendTableiPKc
__Z19ShowAskConnectPanelPKcf
__Z19SortClusterLessFuncRKiS0_
__Z19Sys_CompareFileTimell
__Z19VOX_ParseWordParamsPcP9voxword_ti
__Z19VectorXY_DecodeZeroP10DecodeInfo
__Z19Voice_AssignChannelib
__Z19Voice_GetOutputDataiPciii
__Z19Voice_SamplesPerSecv
__Z19askconnect_accept_fv
__Z19vgui_drawtree_off_fv
__Z20ActivateLightSpritesb
__Z20AddModelDebugOverlayRK15DrawModelInfo_tRK18DrawModelResults_tRK6Vector
__Z20AllocChangeFrameListii
__Z20AllocWorldRenderListv
__Z20BuildMinidumpCommentPKcb
__Z20CL_FlushEntityPacketP12CClientFramePKcz
__Z20CL_PrintStringTablesv
__Z20CL_RegisterResourcesv
__Z20CL_ReloadFilesInListP9IFileList
__Z20CM_InlineModelNumberi
__Z20ClientDLL_GetFactoryv
__Z20ClientDLL_HudVidInitv
__Z20ComputeTrianglePlaneRK6VectorS1_S1_RS_Rf
__Z20CreateWaveDataMemoryR12CAudioSource
__Z20CreateWaveDataStreamR12CAudioSourceP17IWaveStreamSourcePKciiP9CSfxTablei
__Z20DAS_DisplayRoomDEBUGP10das_room_tbf
__Z20DAS_StartTraceChecksP10das_room_t
__Z20DebugDrawPhysCollidePK12CPhysCollideP9IMaterialR11matrix3x4_tRK9color32_sb
__Z20DispInfo_BatchDecalsPP9CDispInfoi
__Z20DispInfo_CreateArrayi
__Z20DispInfo_DeleteArrayPv
__Z20DisplaySystemVersionPci
__Z20DrawPolygonToStencilP17IMatRenderContextiP6Vectorbb
__Z20ExtractFrustumPlanesP6VPlanef
__Z20FUseHighQualityPitchP9channel_t
__Z20Filter_ConvertStringPKcP10ipfilter_t
__Z20Filter_ShouldDiscardRK8netadr_s
__Z20FunctorExecuteThreadPv
__Z20GenerateLumpFileNamePKcPcii
__Z20Host_AllowLoadModulePKcS0_bb
__Z20InitStudioModelStateP7model_t
__Z20IsBoxIntersectingBoxRK6VectorS1_S1_S1_
__Z20IsBoxIntersectingRayRK6VectorS1_RK5Ray_tf
__Z20IsBoxIntersectingRayRK6VectorS1_S1_S1_S1_f
__Z20IsBoxIntersectingRayRK6VectorS1_S1_S1_f
__Z20IsBoxIntersectingRayRKDv4_fS1_RK5Ray_tf
__Z20IsValidFileExtensionPKc
__Z20LightcacheGetDynamicRK6VectorR15LightingState_tR26LightcacheGetDynamic_Statsjb
__Z20MIX_BuildChannelListR12CChannelList
__Z20MIX_ScalePaintBufferiif
__Z20MathLib_3DNowEnabledv
__Z20MatrixInverseGeneralRK7VMatrixRS_
__Z20MatrixTransformPlaneRK7VMatrixRK8cplane_tRS2_
__Z20Mod_GetMaterialCountP7model_t
__Z20Mod_LoadGameLumpDictv
__Z20Mod_LoadMarksurfacesv
__Z20NET_CreateNetChanneliP8netadr_sPKcP18INetChannelHandlerbi
__Z20NET_RemoveNetChannelP11INetChannelb
__Z20NET_StringToSockaddrPKcP8sockaddr
__Z20ParseTokenFromStringPPKc
__Z20PrecalcLightingStateP12lightcache_tPKh
__Z20PrintColorCorrectionv
__Z20R_GetBrushModelPlanePK7model_tiP6Vector
__Z20R_RenderWorldTopViewP16CWorldRenderListP7mnode_t
__Z20RecomputeClipbrushesb
__Z20SCR_EndLoadingPlaquev
__Z20SND_SetSpatialDelaysv
__Z20SV_PrintStringTablesv
__Z20SV_SendClientUpdatesbb
__Z20SW_Mix8StereoDistVarfP21portable_samplepair_tPiPhiji
__Z20SW_Mix8Stereo_InterpP21portable_samplepair_tPiPhiji
__Z20S_Interpolate2xCubicP21portable_samplepair_tS0_ii
__Z20SaveInMemoryCallbackP7IConVarPKcf
__Z20SendTable_PrintStatsv
__Z20SendTable_WriteInfosP9SendTableP8bf_write
__Z20SetNameToSteamIDNameP7IConVar
__Z20SetupFileSystemErrorb14FSReturnCode_tPKcz
__Z20Shader_DecalDrawPolyP10CDecalVertP9IMaterialP11msurface2_tiP7decal_tf
__Z20Shader_DrawDispChainiRK17CMSurfaceSortListm16ERenderDepthMode
__Z20ShutdownStudioRenderv
__Z20String_CompareDeltasPK8SendPropP7bf_readS3_
__Z20String_IsEncodedZeroPK8SendPropP7bf_read
__Z20Surf_ComputeCentroidP11msurface2_tP6Vector
__Z20VCR_EnterPausedStatev
__Z20VOX_GroupInitAllLRUsv
__Z20VOX_LookupRndVirtualPc
__Z20VProfRecord_Shutdownv
__Z20VProfRecord_Snapshotv
__Z20V_StripTrailingSlashPc
__Z20Vector_CompareDeltasPK8SendPropP7bf_readS3_
__Z20Vector_IsEncodedZeroPK8SendPropP7bf_read
__Z20VisualizeQueuedEdgesv
__Z20VoiceSE_EndOverdrivev
__Z20VoiceSE_StartChanneliibi
__Z20Voice_AvgBytesPerSecv
__Z20WriteRemoteVProfDatav
__Z20_Host_RunFrame_Inputfb
__Z20_Host_RunFrame_Soundv
__Z20_ServerDTI_HookTimerPK9SendTable18ServerDTITimerTypeRK11CCycleCount
__Z20_VectorNormalizeFastR6Vector
__Z20sv_setsteamaccount_fRK8CCommand
__Z21Audio_CreateMemoryMP3P9CSfxTable
__Z21BZ2_bz__AssertH__faili
__Z21BZ2_hbMakeCodeLengthsPhPiii
__Z21CL_CopyExistingEntityR15CEntityReadInfo
__Z21CL_InitPortalDemoFlagv
__Z21CL_PreprocessEntitiesv
__Z21CL_PrintWhitelistInfov
__Z21CL_RecordDeleteEntityiP11ClientClass
__Z21CM_GetAreaPortalPlaneRK6VectoriP6VPlane
__Z21CM_PhysCollideForDispi
__Z21CM_RecursiveHullCheckP11TraceInfo_tiff
__Z21CM_SetAreaPortalStateii
__Z21CM_SetupAreaFloodNumsPhPi
__Z21CalcBarycentricCooefsRK6VectorS1_S1_S1_RfS2_S2_
__Z21CalcSqrDistanceToAABBRK6VectorS1_S1_
__Z21Callback_DecalChangedPvP19INetworkStringTableiPKcPKv
__Z21Callback_ModelChangedPvP19INetworkStringTableiPKcPKv
__Z21Callback_SoundChangedPvP19INetworkStringTableiPKcPKv
__Z21Cbuf_EscapeCommandArgPKcPcj
__Z21CheckSpecialCheatVarsv
__Z21CheckVarRange_GenericP6ConVarii
__Z21ClientDLL_VoiceStatusib
__Z21CollisionBSPData_LoadPKcP17CCollisionBSPData
__Z21ColorRGBExp32ToVectorRK13ColorRGBExp32R6Vector
__Z21ConnectMDLCacheNotifyv
__Z21ConnectTier1LibrariesPPFPvPKcPiEi
__Z21ConnectTier2LibrariesPPFPvPKcPiEi
__Z21ConnectTier3LibrariesPPFPvPKcPiEi
__Z21CreateAskConnectPanelj
__Z21CreateVProfGraphPanelPN4vgui5PanelE
__Z21DAS_TraceNodeToPlayerP10das_room_tP10das_node_t
__Z21DSP_ChangePresetValueiiif
__Z21DSP_ProcessQuadToMonoP5dsp_tP21portable_samplepair_tS2_ib
__Z21DSP_ProcessQuadToQuadP5dsp_tP21portable_samplepair_tS2_ib
__Z21DefaultCompletionFuncPKcPA64_c
__Z21DevShotGenerator_Initv
__Z21DispInfo_ClearAllTagsPv
__Z21DispInfo_ComputeIndexPvP9IDispInfo
__Z21DownloadListGeneratorv
__Z21DrawModelDebugOverlayRK15DrawModelInfo_tRK18DrawModelResults_tRK6Vectorfff
__Z21ED_ClearFreeEdictListv
__Z21FileSystem_LoadModulePKc
__Z21Filter_StringToUserIDPKc
__Z21GetEdgeIndexFromPointRK10CVertIndexi
__Z21GetLightingConditionsRK6VectorPS_iP11LightDesc_tRP8ITexture
__Z21GetMP3Duration_HelperPKc
__Z21HostState_RunGameInitv
__Z21Host_GetSoundDurationPKc
__Z21Host_Map_Background_fRK8CCommand
__Z21Host_Map_Commentary_fRK8CCommand
__Z21Host_RecomputeSpeed_fv
__Z21Host_ShowIPCCallCountv
__Z21IncrementalUpdateTreePN4vgui8TreeViewEP9KeyValuesPFbS1_iS3_Ei
__Z21Int_GetTypeNameStringv
__Z21IntersectRayWithPlaneRK6VectorS1_S1_f
__Z21Key_CheckDoneTrappingR12ButtonCode_t
__Z21LongTickWatcherThreadPv
__Z21MIX_MixUpsampleBufferR12CChannelListiiii
__Z21Map_CheckFeatureFlagsv
__Z21Map_VisCurrentClusterv
__Z21MaybeReportMissingWavPKc
__Z21Mod_GetModelMaterialsP7model_tiPP9IMaterial
__Z21Mod_LoadLeafWaterDatav
__Z21Mod_MarkWaterSurfacesP7model_t
__Z21NET_SendQueuedPacketsv
__Z21Net_CloseFakeUDPPortsb
__Z21Overlay_DispUVToWorldP9CDispInfoP11CMeshReaderRK8Vector2DR6VectorR18moverlayfragment_t
__Z21R_BuildCubemapSamplesi
__Z21R_CanUseVisibleDLighti
__Z21R_GetVisibleFogVolumeRK6VectorP22VisibleFogVolumeInfo_t
__Z21R_TryLightMarkSurfaceP8dlight_tP18msurfacelighting_tP11msurface2_ti
__Z21RecvTable_DecodeZerosP9RecvTablePvi
__Z21RecvTable_MergeDeltasP9RecvTableP7bf_readS2_P8bf_writeiPib
__Z21ReplaySystem_Shutdownv
__Z21SV_BroadcastVoiceDataP7IClientiPcx
__Z21SV_ComputeClientPacksiPP11CGameClientP14CFrameSnapshot
__Z21SV_RedirectCheckFlushi
__Z21SW_Mix16StereoDistVarfP21portable_samplepair_tPiPsiji
__Z21S_InternalReloadSoundP9CSfxTable
__Z21S_IsSoundStillPlayingi
__Z21S_SoundDurationByGuidi
__Z21SendProxy_Int8ToInt32PK8SendPropPKvS3_P8DVariantii
__Z21SetBitBufErrorHandlerPFv15BitBufErrorTypePKcE
__Z21Shader_BeginRenderingv
__Z21ShutdownMixerControlsv
__Z21Sys_OutputDebugStringPKc
__Z21UpdateNameFromSteamIDP7IConVarP8CSteamID
__Z21VOX_ParseLineCommandsPci
__Z21V_UnqualifiedFileNamePKc
__Z21VectorToColorRGBExp32RK6VectorR13ColorRGBExp32
__Z21Voice_AddIncomingDataiPKcii
__Z21Voice_ConfiguredCodecv
__Z21Voice_InitWithDefaultPKc
__Z21Voice_UserDesiresStopv
__Z21WorldStaticMeshCreatev
__Z21_Host_RunFrame_Clientb
__Z21_Host_RunFrame_Renderv
__Z21_Host_RunFrame_Serverb
__Z21mat_texture_list_on_fv
__Z21vgui_drawtree_clear_fv
__Z22ADSP_InterpolatePresetP6pset_tS0_S0_P13auto_params_ti
__Z22AdjustLightCacheOriginP12lightcache_tRK6Vectori
__Z22AngleNormalizePositivef
__Z22Audio_CreateMemoryWaveP9CSfxTable
__Z22BuildMSurfacePrimVertsP16worldbrushdata_tP12mprimitive_tR12CMeshBuilderP11msurface2_t
__Z22CL_GetPrecacheUserDataP19INetworkStringTablei
__Z22CL_PortalDemo_MapCheckPKc
__Z22CL_TakeSnapshotAndSwapv
__Z22CM_DiscardEntityStringv
__Z22CM_InlineModelContentsi
__Z22CM_PostTraceToDispTreeP11TraceInfo_t
__Z22CM_SetAreaPortalStatesPKiS0_i
__Z22CM_SurfacepropsForDispi
__Z22CM_TransformedBoxTraceRK5Ray_tiiRK6VectorRK6QAngleR10CGameTrace
__Z22COM_CheckGameDirectoryPKc
__Z22COM_IsValidLogFilenamePKc
__Z22COM_ShutdownFileSystemv
__Z22CaselessStringLessThanRKPKcS2_
__Z22ClientDLL_ProcessInputv
__Z22ComputeDynamicLightingRK6VectorPS0_RS_
__Z22Con_CreateConsolePanelPN4vgui5PanelE
__Z22ConsoleLogFileCallbackP7IConVarPKcf
__Z22CreateSpatialPartitionRK6VectorS1_
__Z22DEBUG_StopSoundMeasureii
__Z22DestroyVProfGraphPanelv
__Z22DispInfo_DrawPrimLists16ERenderDepthMode
__Z22DrawLightDebuggingInfov
__Z22ED_AllowImmediateReusev
__Z22Engine_WorldLightAnglePK13dworldlight_tRK6VectorS4_S4_
__Z22FindNeighborCornerVertP13CCoreDispInfoRK6Vector
__Z22GetNoEscCharConversionv
__Z22GetPinCornerFromStringPKc
__Z22HostState_GameShutdownv
__Z22Host_FreeStateAndWorldb
__Z22Host_ReadConfigurationv
__Z22Host_VoiceRecordStop_fv
__Z22IterateLightmapSamplesP9CDispInfoRK27ProcessLightmapSampleData_t
__Z22KeepKeysMatchingFilterP9KeyValuesPKc
__Z22MIX_ScaleChannelVolumeP13paintbuffer_tP9channel_tPii
__Z22MXR_LoadAllSoundMixersv
__Z22MatrixBuildTranslationR7VMatrixRK6Vector
__Z22Mod_LoadCubemapSamplesv
__Z22Mod_SetMaterialVarFlagP7model_tjb
__Z22NET_PrintChannelStatusP11INetChannel
__Z22OnChangeThreadAffinityP7IConVarPKcf
__Z22PreparePanelMessageMapPN4vgui15PanelMessageMapE
__Z22QuaternionSlerpNoAlignRK10QuaternionS1_fRS_
__Z22R_Areaportal_LevelInitv
__Z22R_DecalReSortMaterialsv
__Z22R_DrawBrushModelShadowP17IClientRenderable
__Z22R_MarkDLightNotVisiblei
__Z22RemapPlayerOrMusicVolsP9channel_tPibbf
__Z22SCR_BeginLoadingPlaquev
__Z22SV_ForceSimpleMaterialPKc
__Z22SV_InitGameServerSteamv
__Z22SV_MaybeWriteSendTableP9SendTableR8bf_writeb
__Z22S_IsLoopingSoundByGuidi
__Z22SendProxy_FloatToFloatPK8SendPropPKvS3_P8DVariantii
__Z22SendProxy_Int16ToInt32PK8SendPropPKvS3_P8DVariantii
__Z22SendProxy_Int32ToInt32PK8SendPropPKvS3_P8DVariantii
__Z22SendProxy_UInt8ToInt32PK8SendPropPKvS3_P8DVariantii
__Z22ShutdownMaterialSystemv
__Z22SortInfoToLightmapPagei
__Z22SurfHasBumpedLightmapsP11msurface2_t
__Z22VProfPlayback_StepBackv
__Z22V_ExtractFileExtensionPKcPci
__Z22VectorXY_CompareDeltasPK8SendPropP7bf_readS3_
__Z22VectorXY_IsEncodedZeroPK8SendPropP7bf_read
__Z22VoiceSE_StartOverdrivev
__Z22Voice_SetupAudioSourceii
__Z22WorldStaticMeshDestroyv
__Z22mat_hdr_level_CallbackP7IConVarPKcf
__Z22mat_texture_list_off_fv
__Z22stb_compress_dxt_blockPhPKhii
__Z23ADSP_SetParamIfNegativeP6pset_tS0_S0_iiiiibf
__Z23Array_GetTypeNameStringv
__Z23Audio_CreateStreamedMP3P9CSfxTable
__Z23CL_GetDownloadQueueSizev
__Z23CL_MarkEntitiesOutOfPVSP7CBitVecILi2048EE
__Z23CL_SetSteamCrashCommentv
__Z23COM_GetUncompressedSizePKvj
__Z23Callback_GenericChangedPvP19INetworkStringTableiPKcPKv
__Z23Cbuf_AddTextWithMarkers19ECmdExecutionMarkerPKcS_
__Z23ChannelLoudestCurVolumePK9channel_t
__Z23CheckVarRange_r_rootlodv
__Z23ClientDLL_GetAllClassesv
__Z23ConVar_PrintDescriptionPK14ConCommandBase
__Z23CreateInterfaceInternalPKcPi
__Z23DSP_CheckDspAutoEnabledv
__Z23DSP_CheckRestorePresetsv
__Z23DSP_ProcessQuadToStereoP5dsp_tP21portable_samplepair_tS2_ib
__Z23DSP_ProcessStereoToMonoP5dsp_tP21portable_samplepair_tS2_ib
__Z23DestroySpatialPartitionP17ISpatialPartition
__Z23DeveloperChangeCallbackP7IConVarPKcf
__Z23DispInfo_BuildPrimListsiPP11msurface2_tibPP9CDispInfoRi
__Z23Draw_DecalIndexFromNamePcPb
__Z23Draw_DecalNameFromIndexi
__Z23EnumerateLeafInSphere_RP7mnode_tR20EnumLeafSphereInfo_ti
__Z23FileSystem_UnloadModuleP10CSysModule
__Z23Float_GetTypeNameStringv
__Z23FrustumPlanesFromMatrixRK7VMatrixR9Frustum_t
__Z23FullViewColorAdjustmentv
__Z23GenerateQuadIndexBufferPtii
__Z23HostState_ChangeLevelMPPKcS0_
__Z23HostState_ChangeLevelSPPKcS0_
__Z23HostState_SetSpawnPointR6VectorR6QAngle
__Z23Host_DefaultMapFileNamePKcPcj
__Z23Host_IsSinglePlayerGamev
__Z23Host_Status_PrintClientP7IClientbPFvPKczE
__Z23Host_VoiceRecordStart_fv
__Z23Host_WriteConfigurationPKcb
__Z23IncrementalUpdateTree_RPN4vgui8TreeViewEiP9KeyValuesRbPFbS1_iS3_E
__Z23IntersectRayWithAAPlaneRK6VectorS1_iff
__Z23IsAskConnectPanelActivePci
__Z23IsBoxIntersectingSphereRK6VectorS1_S1_f
__Z23Key_NameForBindingExactPKc
__Z23LightmapPageCompareFuncPKvS0_
__Z23MIX_CompressPaintbufferii
__Z23MXR_DebugShowMixVolumesv
__Z23MapPropOffsetsToIndicesPK10CBaseEdictP17CSendTablePrecalcPKttPt
__Z23Map_AreAnyLeavesVisibleRK16worldbrushdata_tPii
__Z23MatrixBuildPerspectiveXR7VMatrixdddd
__Z23Mod_LoadLeafs_Version_0R14CMapLoadHelper
__Z23Mod_LoadLeafs_Version_1R14CMapLoadHelperS0_S0_
__Z23R_ComputeLightingOriginP17IClientRenderableP11studiohdr_tRK11matrix3x4_tR6Vector
__Z23R_Surface_LevelShutdownv
__Z23RecvTable_FreeSendTableP9SendTable
__Z23RemoveVProfDataListenerj
__Z23RenderWireframeSweptBoxRK6VectorS1_RK6QAngleS1_S1_5Colorb
__Z23SND_StealDynamicChanneliiRK6VectorP9CSfxTablefb
__Z23S_GetGainFromSoundLevel12soundlevel_tf
__Z23S_Interpolate2xLinear_2iP21portable_samplepair_tS0_i
__Z23SendProxy_UInt16ToInt32PK8SendPropPKvS3_P8DVariantii
__Z23SendProxy_UInt32ToInt32PK8SendPropPKvS3_P8DVariantii
__Z23SendTable_WritePropListPK9SendTablePKviP8bf_writeiPKii
__Z23Shader_DrawChainsStaticRK17CMSurfaceSortListib
__Z23Shader_DrawDynamicChainRK17CMSurfaceSortListRK18surfacesortgroup_tb
__Z23SurfSetupSurfaceContextR12SurfaceCtx_tP11msurface2_t
__Z23TesselateDisplacement_RI22CEngineTesselateHelperEvPT_RK10CVertIndexii
__Z23VGui_RecursivePrintTreejP9KeyValuesi
__Z23VOX_CompactSentenceFilev
__Z23VOX_LookupGlobalVirtualiiPci
__Z23VOX_LookupSectorVirtualPc
__Z23VOX_ReplaceVirtualNamesP9channel_t
__Z23VProfRecord_StartOrStopv
__Z23V_RenderVGuiOnly_NoSwapv
__Z23Voice_GetCompressedDataPcib
__Z23jpeg_open_backing_storeP18jpeg_common_structP20backing_store_structl
__Z23showbudget_texture_on_fv
__Z24Audio_CreateOpenALDevicev
__Z24Audio_CreateStreamedWaveP9CSfxTable
__Z24BZ2_hbCreateDecodeTablesPiS_S_Phiii
__Z24BaseUI_ProgressEnabled_fv
__Z24BuildMSurfacePrimIndicesP16worldbrushdata_tP12mprimitive_tR12CMeshBuilder
__Z24CL_ProcessPacketEntitiesP18SVC_PacketEntities
__Z24CL_ReallocateDynamicDatai
__Z24CM_CreateDispPhysCollideP11dphysdisp_ti
__Z24COM_ExplainDisconnectionbPKcz
__Z24Callback_UserInfoChangedPvP19INetworkStringTableiPKcPKv
__Z24ChangeVProfScopeCallbackP7IConVarPKcf
__Z24ClearStaticLightingCachev
__Z24CollisionBSPData_DestroyP17CCollisionBSPData
__Z24CollisionBSPData_PreLoadP17CCollisionBSPData
__Z24CopyListPanelToClipboardPN4vgui9ListPanelE
__Z24CreateVoiceRecord_OpenALi
__Z24DecalUpdateAndDrawSingleR14decalcontext_tP11msurface2_tP7decal_t
__Z24DisconnectMDLCacheNotifyv
__Z24DisconnectTier1Librariesv
__Z24DisconnectTier2Librariesv
__Z24DisconnectTier3Librariesv
__Z24DispInfoRenderDebugModesv
__Z24DispInfo_DrawDecalsGroupii
__Z24DrawScreenSpaceRectangleP9IMaterialiiiiffffiiPviif
__Z24EngineBitBufErrorHandler15BitBufErrorTypePKc
__Z24GetCStringCharConversionv
__Z24GetFileFromRemoteStorageP19ISteamRemoteStoragePKcS2_
__Z24GetSteamInfIDVersionInfov
__Z24InitMaterialSystemConfigb
__Z24IntersectRayWithBoxBrushP11TraceInfo_tPK8cbrush_tP11cboxbrush_t
__Z24IntersectRayWithTriangleRK5Ray_tRK6VectorS4_S4_b
__Z24IsSphereIntersectingConeRK6VectorfS1_S1_ff
__Z24MXR_DebugGraphMixVolumesP16debug_showvols_ti
__Z24MXR_SetCurrentSoundMixerPKc
__Z24MapReslistGenerator_Initv
__Z24MarkDLightsOnStaticPropsv
__Z24NET_ClearLoopbackBuffersv
__Z24OnSndSurroundCvarChangedP7IConVarPKcf
__Z24PointInQuadToBarycentricRK6VectorS1_S1_S1_S1_R8Vector2D
__Z24R_DrawDecalsAllImmediateP17IMatRenderContextiiRK6Vectorif
__Z24R_DrawDecalsAll_GatheredP17IMatRenderContextPP7decal_tiRK6Vectorf
__Z24R_DrawIdentityBrushModelP16IWorldRenderListP7model_t
__Z24R_RedownloadAllLightmapsv
__Z24R_RenderDynamicLightmapsP8dlight_tP10ICallQueueP11msurface2_tRK11matrix3x4_t
__Z24RecvTable_CreateDecodersPK20CStandardSendProxiesbPb
__Z24RecvTable_RecvClassInfosP7bf_readbi
__Z24SV_MaybeWriteSendTable_RP9SendTableR8bf_write
__Z24SV_ReplicateConVarChangePK6ConVarPKc
__Z24SendProxy_VectorToVectorPK8SendPropPKvS3_P8DVariantii
__Z24SendTable_BuildHierarchyP9CSendNodePK9SendTableP21CBuildHierarchyStruct
__Z24Sendprop_UsingDebugWatchv
__Z24String_GetTypeNameStringv
__Z24SurfNeedsBumpedLightmapsP11msurface2_t
__Z24TangentSpaceComputeBasisR6VectorS0_RKS_S2_b
__Z24TangentSpaceSurfaceSetupP11msurface2_tR6Vector
__Z24TransformIntoSubNeighborP16CDispUtilsHelperiiRK10CVertIndexRS1_
__Z24UpdateStudioRenderConfigv
__Z24VGui_CreateDrawTreePanelPN4vgui5PanelE
__Z24VGui_UpdateDrawTreePanelv
__Z24Vector_GetTypeNameStringv
__Z24_SSE_VectorNormalizeFastR6Vector
__Z24showbudget_texture_off_fv
__Z25BuildMSurfaceVertexArraysP16worldbrushdata_tP11msurface2_tfR12CMeshBuilder
__Z25BuildPropOffsetToIndexMapP17CSendTablePrecalcPK20CStandardSendProxies
__Z25CL_CreateTextureListPanelPN4vgui5PanelE
__Z25CL_GetBackgroundLevelNamePcib
__Z25CL_PreserveExistingEntityi
__Z25CM_DestroyDispPhysCollidev
__Z25CalcMaxNumVertsAndIndicesiPiS_
__Z25ComplexBufferFillPlaybackP20OpaqueAudioConverterPmP15AudioBufferListPP28AudioStreamPacketDescriptionPv
__Z25ComputeModContentFilenamePKcPcm
__Z25CreateStaticLightingCacheRK6VectorS1_S1_
__Z25DSP_DEBUGReloadPresetFilev
__Z25DSP_ProcessStereoToStereoP5dsp_tP21portable_samplepair_tS2_ib
__Z25DataTable_ClearWriteFlagsP11ServerClass
__Z25DecalSortTreeSortLessFuncRK23DecalMaterialSortData_tS1_
__Z25DevShotGenerator_Shutdownv
__Z25DrawDecalsOnSingleSurfaceP17IMatRenderContextP11msurface2_t
__Z25EngineTool_SuppressDeInitv
__Z25EngineTraceRenderRayCastsv
__Z25GetIntersectingSurfaces_RP30GetIntersectingSurfaces_StructP7mnode_t
__Z25GetModContentSubdirectoryPKcPci
__Z25Host_CheckDumpMemoryStatsv
__Z25InitializeEntityDLLFieldsP7edict_t
__Z25InstallBitBufErrorHandlerv
__Z25IsBoxIntersectingTriangleRK6VectorS1_S1_S1_S1_RK8cplane_tf
__Z25MapReslistGenerator_Usagev
__Z25Mod_LeafAmbientColorAtPosP6VectorRKS_i
__Z25Mod_LoadVertNormalIndicesv
__Z25Mod_RecomputeTranslucencyP7model_tiiPvf
__Z25NET_RemoveAllExtraSocketsv
__Z25Net_CheckOpenFakeUDPPortsb
__Z25OnSndSurroundCvarChanged2P7IConVarPKcf
__Z25PrintMaterialSystemConfigRK23MaterialSystem_Config_t
__Z25Q_RemoveAllEvilCharactersPc
__Z25R_ComputeDynamicLightMaskP8dlight_tP11msurface2_tP18msurfacelighting_tRK11matrix3x4_t
__Z25R_DecalGetMaterialAndSizeiRP9IMaterialRfS2_
__Z25R_GetBrushModelPlaneCountPK7model_t
__Z25R_MarkDlightsOnBrushModelP7model_tP17IClientRenderable
__Z25R_StudioInitLightingCachev
__Z25ReadCheatCommandsFromFilePc
__Z25RegisterVProfDataListenerj
__Z25SV_EnsureInstanceBaselineP11ServerClassiPKvi
__Z25ScreenSpaceRectFromPointsP17IMatRenderContextPA10_6VectorPiiS4_S4_S4_S4_
__Z25SeedRandomNumberGeneratorb
__Z25SendTable_GetNumFlatPropsP9SendTable
__Z25SetSerializationDelimiterP18CUtlCharConversion
__Z25Shader_DrawSurfaceDynamicP17IMatRenderContextP11msurface2_tb
__Z25ShowHideColorCorrectionUIv
__Z25VGui_AddPopupsToKeyValuesP9KeyValues
__Z25VOX_LookupSentenceByIndexPciPi
__Z25VProfRecord_IsPlayingBackv
__Z25WorldLightToMaterialLightP13dworldlight_tR11LightDesc_t
__Z25WriteRemoteVProfGroupDataR17VProfListenInfo_t
__Z26AddWorldLightToAmbientCubeP13dworldlight_tRK6VectorRA6_S1_
__Z26AppSystemCreateInterfaceFnPKcPi
__Z26BuildBrushModelVertexArrayP16worldbrushdata_tP11msurface2_tP13BrushVertex_t
__Z26CL_ChangeCloudSettingsCvarP7IConVarPKcf
__Z26CL_CreateEntityReportPanelPN4vgui5PanelE
__Z26CM_BoxTraceAgainstLeafListRK5Ray_tPiiibR10CGameTrace
__Z26CacheAndUnloadLightmapDatav
__Z26CheckOtherInstancesRunningv
__Z26ClientDLL_FrameStageNotify18ClientFrameStage_t
__Z26CollisionBSPData_LoadAreasP17CCollisionBSPData
__Z26CollisionBSPData_LoadLeafsP17CCollisionBSPData
__Z26CollisionBSPData_LoadNodesP17CCollisionBSPData
__Z26ComputeDecalLightmapOffsetP11msurface2_t
__Z26ComputeWorldToScreenMatrixP7VMatrixRKS_RK10CViewSetup
__Z26CopyPrecalcedLightingStateP12lightcache_tR15LightingState_tR19LightingStateInfo_t
__Z26DecalSurfaceDraw_NonQueuedP17IMatRenderContextiRK6Vectorif
__Z26DispCollTrees_FreeLeafListP17CCollisionBSPData
__Z26DispInfo_CreateFromMapDispP7model_tiPK11ddispinfo_tP13CCoreDispInfoPK9CDispVertPK8CDispTriPK25MaterialSystem_SortInfo_tb
__Z26DispInfo_DrawDecalMeshListR15DecalMeshList_t
__Z26DispInfo_LoadDisplacementsP7model_tb
__Z26FileSystem_LoadSearchPathsR18CFSSearchPathsInit
__Z26FindOrAddPanelAnimationMapPKc
__Z26FirstShadowOnModelInstancet
__Z26GeneratePerspectiveFrustumRK6VectorS1_S1_S1_ffffR9Frustum_t
__Z26GeneratePolygonIndexBufferPtii
__Z26Host_IsSecureServerAllowedv
__Z26InitWellKnownRenderTargetsv
__Z26LocalTransfer_InitFastCopyPK9SendTablePK20CStandardSendProxiesP9RecvTablePK20CStandardRecvProxiesRiSA_
__Z26MXR_UpdateAllDuckerVolumesv
__Z26Mod_LoadLeafMinDistToWaterv
__Z26OnSndSurroundLegacyChangedP7IConVarPKcf
__Z26PointInQuadFromBarycentricRK6VectorS1_S1_S1_RK8Vector2DRS_
__Z26PrintPartialChangeEntsListv
__Z26R_Areaportal_LevelShutdownv
__Z26S_ComputeDelayForSoundtimef17clocksync_index_t
__Z26S_GetCurrentlyPlayingMusicR10CUtlVectorI11musicsave_t10CUtlMemoryIS0_iEE
__Z26ScrollBar_Vertical_Factoryv
__Z26SendCvarValueQueryToClientP7IClientPKcb
__Z26Sys_CreateFileAssociationsiP19FileAssociationInfo
__Z26UpdateMaterialSystemConfigv
__Z26VOX_LookupGlobalSeqVirtualiiPci
__Z26VectorXY_GetTypeNameStringv
__Z26VoiceTweak_GetControlFloat17VoiceTweakControl
__Z26VoiceTweak_IsStillTweakingv
__Z26VoiceTweak_SetControlFloat17VoiceTweakControlf
__Z26Voice_ConfiguredSampleRatev
__Z26Voice_UpdateVoiceTweakModev
__Z26_Host_Map_f_CompletionFuncPKcS0_PA64_c
__Z27AddIntersectingLeafSurfacesP7mleaf_tP30GetIntersectingSurfaces_Struct
__Z27AudioQueueIsRunningCallbackPvP16OpaqueAudioQueuem
__Z27CL_LatchInterpolationAmountv
__Z27CM_SnapPointToReferenceLeafRK6VectorfPS_
__Z27CM_TransformedPointContentsRK6VectoriS1_RK6QAngle
__Z27CollisionBSPData_LoadPlanesP17CCollisionBSPData
__Z27ComputePointFromBarycentricRK8Vector2DS1_S1_ffRS_
__Z27ConstructNearAndFarPolygonsP6VectorS0_f
__Z27DataTable_ClearWriteFlags_RP9SendTable
__Z27DataTable_GetTypeNameStringv
__Z27DispInfo_InitMaterialSystemv
__Z27DrawSavedModelDebugOverlaysv
__Z27EngineTool_UpdateScreenshotv
__Z27FileSystem_GetExecutableDirPci
__Z27GenerateLineLoopIndexBufferPtii
__Z27GetPanelAnimationDictionaryv
__Z27HostState_OnClientConnectedv
__Z27InitializeStandardMaterialsv
__Z27IsBoxIntersectingBoxExtentsRK6VectorS1_S1_S1_
__Z27MIX_UpsampleAllPaintbuffersR12CChannelListii
__Z27OnSndSurroundLegacyChanged2P7IConVarPKcf
__Z27Overlay_OverlayPlaneToWorldRK6VectorP11msurface2_tS1_RS_
__Z27SW_Mix8StereoDistVar_InterpfP21portable_samplepair_tPiPhiji
__Z27SetTexInfoBaseTexture2Flagsv
__Z27Shader_SetChainTextureStateP17IMatRenderContextP11msurface2_tP13IClientEntityb
__Z27SteamInternal_Init_SteamUGCPP9ISteamUGC
__Z27VGui_UpdateTextureListPanelv
__Z27VProfPlayback_SeekToPercentf
__Z27Voice_LocalPlayerTalkingAckv
__Z27Voice_OnAudioSourceShutdowni
__Z27_Host_RunFrame_Server_Asynci
__Z28AudioSource_GetSoundDurationP9CSfxTable
__Z28AudioSource_GetSoundDurationPKc
__Z28CL_DemoCheckGameUIRevealTimev
__Z28CL_SetupLocalNetworkBackDoorb
__Z28CL_ShouldLoadBackgroundLevelRK8CCommand
__Z28CNetworkStringTable_LessFuncRKPvS1_
__Z28COM_BufferToBufferDecompressPvPjPKvj
__Z28Catmull_Rom_Spline_NormalizeRK6VectorS1_S1_S1_fRS_
__Z28CollisionBSPData_LinkPhysicsv
__Z28CollisionBSPData_LoadBrushesP17CCollisionBSPData
__Z28CollisionBSPData_LoadPhysicsP17CCollisionBSPData
__Z28CollisionBSPData_LoadTexinfoP17CCollisionBSPDataR10CUtlVectorIt10CUtlMemoryItiEE
__Z28CreateVoiceRecord_AudioQueuei
__Z28Create_CvarToggleCheckButtonv
__Z28Cubemap_CreateDefaultCubemapPKcP8IBSPPack
__Z28DecalSurfaceDraw_QueueHelperbi6VectoriPP7decal_tiiif
__Z28EngineTool_CheckQuitHandlersv
__Z28GenerateLineStripIndexBufferPtii
__Z28HostState_IsGameShuttingDownv
__Z28Host_CountVariablesWithFlagsib
__Z28LocalTransfer_TransferEntityPK10CBaseEdictPK9SendTablePKvP9RecvTablePvbbi
__Z28MIX_MixChannelsToPaintbufferR12CChannelListiiii
__Z28MapReslistGenerator_Shutdownv
__Z28MatrixBuildPerspectiveZRangeR7VMatrixdd
__Z28MatrixBuildRotationAboutAxisR7VMatrixRK6Vectorf
__Z28MatrixBuildRotationAboutAxisRK6VectorfR11matrix3x4_t
__Z28NET_DiscardStaleSplitpacketsi
__Z28OverrideMaterialSystemConfigR23MaterialSystem_Config_t
__Z28PackEntities_NetworkBackDooriPP11CGameClientP14CFrameSnapshot
__Z28PanelGeometryChangedCallBackP7IConVarPKcf
__Z28R_DrawDecalsAll_GatherDecalsP17IMatRenderContextiiR10CUtlVectorIP7decal_t10CUtlMemoryIS3_iEE
__Z28R_InstallBrushRenderOverrideP14IBrushRenderer
__Z28R_SetupDecalVertsForMSurfaceP7decal_tP11msurface2_tP6VectorP10CDecalVert
__Z28ReleaseMaterialSystemObjectsv
__Z28RestoreMaterialSystemObjectsi
__Z28SV_CreateNetworkStringTablesv
__Z28SW_Mix16StereoDistVar_InterpfP21portable_samplepair_tPiPsiji
__Z28S_GetGuidForLastSoundEmittedv
__Z28ScrollBar_Horizontal_Factoryv
__Z28SendProxy_SendLocalDataTablePK8SendPropPKvS3_P20CSendProxyRecipientsi
__Z28SendTable_GenerateProxyPathsP17CSendTablePrecalci
__Z28SendTable_WriteAllDeltaPropsPK9SendTablePKviS3_iiP8bf_write
__Z28Shader_DrawWireframePolygonsRK10CUtlVectorIP11msurface2_t10CUtlMemoryIS1_iEE
__Z28SteamInternal_Init_SteamAppsPP10ISteamApps
__Z28SteamInternal_Init_SteamHTTPPP10ISteamHTTP
__Z28SteamInternal_Init_SteamUserPP10ISteamUser
__Z28SurfComputeTextureCoordinateRK12SurfaceCtx_tP11msurface2_tRK6VectorR8Vector2D
__Z28VOX_LookupRangeHeadingOrGridiPcP9channel_tiPS_S2_S2_Pib
__Z28VProfPlayback_GetCurrentTickv
__Z28VoiceTweak_EndVoiceTweakModev
__Z29CL_CheckToDisplayStartupMenusRK8CCommand
__Z29CL_DemoTransitionFromTestChmbv
__Z29CM_SnapPointToReferenceLeaf_rP17CCollisionBSPDataRK6VectorifPS1_
__Z29Callback_DynamicModelsChangedPvP19INetworkStringTableiPKcPKv
__Z29Cmd_AddClientCmdCanExecuteVarPKc
__Z29CollisionBSPData_LoadDispInfoP17CCollisionBSPData
__Z29CollisionBSPData_LoadTexturesP17CCollisionBSPData
__Z29DispInfo_CreateMaterialGroupsP7model_tPK25MaterialSystem_SortInfo_t
__Z29EngineTool_InstallQuitHandlerPvPFbS_E
__Z29EngineTool_OverrideSampleRateRi
__Z29GenerateSequentialIndexBufferPtii
__Z29Host_BuildConVarUpdateMessageP13NET_SetConVarib
__Z29Host_CleanupConVarStringValuePKc
__Z29InvalidateStaticLightingCachev
__Z29IsCircleIntersectingRectangleRK8Vector2DS1_S1_f
__Z29MaterialConfigLightingChangedv
__Z29MaterialSystem_CreateSortinfov
__Z29MaterialSytsem_DoBumpWarningsv
__Z29R_SetupDecalTextureSpaceBasisP7decal_tR6VectorP9IMaterialPS1_Pf
__Z29SV_FrameExecuteThreadDeferredv
__Z29SetupClientSendTableHierarchyv
__Z29Shader_DrawLightmapPageChainsP16IWorldRenderListi
__Z29SteamInternal_Init_SteamInputPP11ISteamInput
__Z29SteamInternal_Init_SteamMusicPP11ISteamMusic
__Z29SteamInternal_Init_SteamUtilsPP11ISteamUtils
__Z29SteamInternal_Init_SteamVideoPP11ISteamVideo
__Z29SurfComputeLightmapCoordinateRK12SurfaceCtx_tP11msurface2_tRK6VectorR8Vector2D
__Z29TexCoordInQuadFromBarycentricRK8Vector2DS1_S1_S1_S1_RS_
__Z29VGui_MoveDrawTreePanelToFrontv
__Z29VOX_AddSentenceWavesToResListv
__Z2vaPKcz
__Z30CL_CheckForPureServerWhitelistRP9IFileList
__Z30CL_DemoTransitionFromRavenholmv
__Z30ChangeCallback_RefreshDrawTreeP7IConVarPKcf
__Z30CollisionBSPData_LoadSubmodelsP17CCollisionBSPData
__Z30HostState_OnClientDisconnectedv
__Z30HostTimerSpinMsChangedCallbackP7IConVarPKcf
__Z30Host_AllowQueuedMaterialSystemb
__Z30IsBoxIntersectingSphereExtentsRK6VectorS1_S1_f
__Z30MXR_GetMixGroupFromSoundsourceP9channel_ti12soundlevel_t
__Z30MaterialSystem_DestroySortinfov
__Z30R_BuildCubemapSamples_PreBuildv
__Z30R_RemoveAllDecalsFromAllModelsv
__Z30SendProxy_DataTableToDataTablePK8SendPropPKvS3_P20CSendProxyRecipientsi
__Z30SendTable_CullPropsFromProxiesPK9SendTablePKiiiPK20CSendProxyRecipientsiS6_iPii
__Z30ServerDTI_AddEntityEncodeEventP9SendTablef
__Z30SetSerializationArrayDelimiterPKc
__Z30Shader_DrawLightmapPageSurfaceP11msurface2_tfff
__Z30Shader_DrawTranslucentSurfacesP16IWorldRenderListimb
__Z30ShutdownWellKnownRenderTargetsv
__Z30SteamInternal_Init_SteamClientPP12ISteamClient
__Z30VoiceTweak_StartVoiceTweakModev
__Z30showbudget_texture_global_on_fv
__Z31AddProjectedTextureDecalsToListP16CWorldRenderListi
__Z31Audio_CreateMacAudioQueueDevicev
__Z31COM_BufferToBufferCompress_LZSSPvPjPKvj
__Z31Cbuf_HasRoomForExecutionMarkersi
__Z31CollisionBSPData_LoadBrushSidesP17CCollisionBSPDataR10CUtlVectorIt10CUtlMemoryItiEE
__Z31CollisionBSPData_LoadVisibilityP17CCollisionBSPData
__Z31DataTable_WriteClassInfosBufferP11ServerClassP8bf_write
__Z31DataTable_WriteSendTablesBufferP11ServerClassP8bf_write
__Z31DispInfo_ShutdownMaterialSystemv
__Z31R_BuildCubemapSamples_PostBuildv
__Z31R_CheckForLightingConfigChangesv
__Z31SV_DetermineMulticastRecipientsbRK6VectorR7CBitVecILi255EE
__Z31SW_Mix8StereoDirectional_InterpfP21portable_samplepair_tPiPhiji
__Z31SetupDefaultAskConnectAcceptKeyv
__Z31SteamInternal_Init_SteamAppListPP13ISteamAppList
__Z31SteamInternal_Init_SteamFriendsPP13ISteamFriends
__Z31VProfPlayback_GetCurrentPercentv
__Z31showbudget_texture_global_off_fv
__Z32Callback_InstanceBaselineChangedPvP19INetworkStringTableiPKcPKv
__Z32CollisionBSPData_LoadAreaPortalsP17CCollisionBSPData
__Z32CollisionBSPData_LoadLeafBrushesP17CCollisionBSPData
__Z32DispInfo_AddShadowsToMeshBuilderR12CMeshBuilderti
__Z32Engine_WorldLightDistanceFalloffPK13dworldlight_tRK6Vectorb
__Z32FileSystem_SetWhitelistSpewFlagsv
__Z32HandleServerAllowColorCorrectionv
__Z32Host_ReadPreStartupConfigurationv
__Z32InitExtraClientCmdCanExecuteVarsv
__Z32InvalidateSharedEdictChangeInfosv
__Z32MapReslistGenerator_BuildMapListv
__Z32MatrixBuildPerspectiveOffCenterXR7VMatrixdddddddd
__Z32NET_CheckCleanupFakeIPConnectioniRK8netadr_s
__Z32NET_FindOrCreateSplitPacketEntryiP8netadr_s
__Z32R_StudioCheckReinitLightingCachev
__Z32Replay_GetFirstAvailableFilenamePciPKcS1_S1_i
__Z32Replay_IsSupportedModAndPlatformv
__Z32SW_Mix16StereoDirectional_InterpfP21portable_samplepair_tPiPsiji
__Z33BrushModel_GetLightingAndMaterialRK6VectorS1_RS_S2_
__Z33CL_DemoTransitionFromTrainstationv
__Z33COM_BufferToBufferCompress_SnappyPvPjPKvj
__Z33CollisionBSPData_GetCollisionTreei
__Z33CollisionBSPData_LoadEntityStringP17CCollisionBSPData
__Z33ConstructStringVArgsInternal_ImplIwEvPT_iPKS0_iPc
__Z33DataTable_MaybeCreateReceiveTableR10CUtlVectorIP9SendTable10CUtlMemoryIS1_iEES1_b
__Z33DispInfo_CreateEmptyStaticBuffersP7model_tPK11ddispinfo_t
__Z33R_DrawDecalsAllImmediate_GatheredP17IMatRenderContextPP7decal_tiRK6Vectorf
__Z33SteamInternal_Init_SteamInventoryPP15ISteamInventory
__Z33SteamInternal_Init_SteamUserStatsPP15ISteamUserStats
__Z34ClearMaterialConfigLightingChangedv
__Z34DataTable_LoadDataTablesFromBufferP7bf_readi
__Z34PrintSvPureWhitelistClassificationPK20CPureServerWhitelist
__Z34SV_InstallClientStringTableMirrorsv
__Z34SteamInternal_Init_SteamControllerPP16ISteamController
__Z34SteamInternal_Init_SteamGameSearchPP16ISteamGameSearch
__Z34SteamInternal_Init_SteamGameServerPP16ISteamGameServer
__Z34SteamInternal_Init_SteamNetworkingPP16ISteamNetworking
__Z34Vector3DMultiplyPositionProjectiveRK7VMatrixRK6VectorRS2_
__Z35DataTable_MaybeCreateReceiveTable_RR10CUtlVectorIP9SendTable10CUtlMemoryIS1_iEES1_
__Z35DataTable_ParseClassInfosFromBufferP12CClientStateP7bf_read
__Z35SteamInternal_Init_SteamHTMLSurfacePP17ISteamHTMLSurface
__Z35SteamInternal_Init_SteamMatchmakingPP17ISteamMatchmaking
__Z35SteamInternal_Init_SteamMusicRemotePP17ISteamMusicRemote
__Z35SteamInternal_Init_SteamScreenshotsPP17ISteamScreenshots
__Z36CL_IsGamePathValidAndSafeForDownloadPKc
__Z36CollisionBSPData_LoadLeafs_Version_0P17CCollisionBSPDataR14CMapLoadHelper
__Z36CollisionBSPData_LoadLeafs_Version_1P17CCollisionBSPDataR14CMapLoadHelper
__Z37AllowDebugDedicatedServerOutsideSteamv
__Z37DataTable_MaybeWriteSendTableBuffer_RP9SendTableP8bf_write
__Z37DispInfo_ReleaseMaterialSystemObjectsP7model_t
__Z37DrawDecalsOnSingleSurface_QueueHelperP11msurface2_t6Vector
__Z37Q_StripPrecedingAndTrailingWhitespacePc
__Z37R_DrawDecalsAllImmediate_GatherDecalsP17IMatRenderContextiiR10CUtlVectorIP7decal_t10CUtlMemoryIS3_iEE
__Z37SendTable_BuildHierarchy_IteratePropsP9CSendNodePK9SendTableP21CBuildHierarchyStructPPK8SendPropRi
__Z37SteamInternal_Init_SteamGameServerUGCPP9ISteamUGC
__Z37SteamInternal_Init_SteamRemoteStoragePP19ISteamRemoteStorage
__Z38Shader_LeafContainsTranslucentSurfacesP16IWorldRenderListim
__Z38StaticLightCacheAffectedByDynamicLightP20LightCacheHandle_t__
__Z38SteamInternal_Init_SteamGameServerHTTPPP10ISteamHTTP
__Z39MaterialSystem_RegisterLightmapSurfacesv
__Z39SteamInternal_Init_SteamGameServerStatsPP21ISteamGameServerStats
__Z39SteamInternal_Init_SteamGameServerUtilsPP11ISteamUtils
__Z40CalculateAABBFromProjectionMatrixInverseRK7VMatrixP6VectorS3_
__Z40DataTable_SetupReceiveTableFromSendTableP9SendTableb
__Z40SteamInternal_Init_SteamParentalSettingsPP22ISteamParentalSettings
__Z41ComputeIntersectionBarycentricCoordinatesRK5Ray_tRK6VectorS4_S4_RfS5_Pf
__Z41GetMaterialSystemConfigForBenchmarkUploadP9KeyValues
__Z42CalculateSphereFromProjectionMatrixInverseRK7VMatrixP6VectorPf
__Z42StaticLightCacheNeedsSwitchableLightUpdateP20LightCacheHandle_t__
__Z42SteamInternal_Init_SteamMatchmakingServersPP24ISteamMatchmakingServers
__Z43SteamInternal_Init_SteamGameServerInventoryPP15ISteamInventory
__Z44DataTable_CreateClientTablesFromServerTablesv
__Z44SetSteamNetworkingSocketsDebugOutputFunctionv
__Z44StaticLightCacheAffectedByAnimatedLightStyleP20LightCacheHandle_t__
__Z44SteamInternal_Init_SteamGameServerNetworkingPP16ISteamNetworking
__Z45CL_InstallAndInvokeClientStringTableCallbacksv
__Z47Q_AggressiveStripPrecedingAndTrailingWhitespacePc
__Z49DataTable_CreateClientClassInfosFromServerClassesP16CBaseClientState
__Z4Biasff
__Z4Gainff
__Z51COM_GetIdealDestinationCompressionBufferSize_Snappyj
__Z5TracePKcz
__Z5crc32mPKhm
__Z6CM_VisPhiii
__Z6ConMsgPKcz
__Z6DevMsgPKcz
__Z6GetRamv
__Z6Hash12PKv
__Z6Q_log2i
__Z6R_Initv
__Z6S_Initv
__Z6S_PlayPKcb
__Z6SinCosfPfS_
__Z6V_Initv
__Z6V_atofPKc
__Z6V_atoiPKc
__Z6ZipAddP6HZIP__PKcPvjj
__Z6_sqrtff
__Z7AMP_ModP5amp_tf
__Z7BindKeyPKcbS0_
__Z7CL_Initv
__Z7CL_Movefb
__Z7CM_StabP11TraceInfo_tRK6VectorS3_i
__Z7CRS_ModPvf
__Z7DFR_ModPvf
__Z7DLY_ModPvf
__Z7ED_FreeP7edict_t
__Z7EFO_ModPvf
__Z7ENV_ModPvf
__Z7FLT_ModPvf
__Z7FogUI_fv
__Z7GetSpewPcm
__Z7LFO_ModP5lfo_tf
__Z7MD5InitP12MD5Context_t
__Z7MDY_ModP5mdy_tf
__Z7PTC_ModP5ptc_tf
__Z7RVA_ModPvf
__Z7_rsqrtff
__Z7ct_initR6TStatePt
__Z7deflateR6TState
__Z7lm_initR6TStateiPt
__Z7r_lod_fP7IConVarPKcf
__Z8AMP_FreeP5amp_t
__Z8Approachfff
__Z8CCS_Initv
__Z8CCS_Tickf
__Z8CL_Retryv
__Z8COM_Initv
__Z8CRC_FilePjPKc
__Z8CRS_FreeP5crs_t
__Z8CalcFovYff
__Z8Cmd_Initv
__Z8Con_Initv
__Z8DFR_FreeP5dfr_t
__Z8DLY_FreeP5dly_t
__Z8DMXAllocm
__Z8DSP_Freei
__Z8DTI_Initv
__Z8DTI_Termv
__Z8DemoUI_fv
__Z8ED_Alloci
__Z8EFO_FreeP5efo_t
__Z8ENV_FreeP5env_t
__Z8EndTraceRP11TraceInfo_t
__Z8FLT_FreeP5flt_t
__Z8HSLToRGBPiS_S_
__Z8HSVtoRGBRK6VectorRS_
__Z8Key_Initv
__Z8LFO_FreeP5lfo_t
__Z8MD5FinalPhP12MD5Context_t
__Z8MDY_FreeP5mdy_t
__Z8NET_Initb
__Z8NULL_ModPvf
__Z8PTC_FreeP5ptc_t
__Z8RGBToHSLPiS_S_
__Z8RGBtoHSVRK6VectorRS_
__Z8RVA_FreeP5rva_t
__Z8SCR_Initv
__Z8SV_Frameb
__Z8SV_Thinkb
__Z8S_UpdatePK12AudioState_t
__Z8Sys_ExitPKcz
__Z8V_atoi64PKc
__Z8ct_tallyR6TStateii
__Z8memfgetsPhiPiPci
__Z9AMP_Allocfffffffb
__Z9COM_ParsePKc
__Z9CRS_Allocifff
__Z9Cbuf_Initv
__Z9CloseZipZP6HZIP__
__Z9DFR_AllocPiS_S_i
__Z9DSP_Allocifi
__Z9DTI_Flushv
__Z9DemoUI2_fv
__Z9EDICT_NUMi
__Z9EFO_Allocfffb
__Z9ENV_Allocifffffffb
__Z9EnableHDRb
__Z9HashBlockPKvj
__Z9Host_Initb
__Z9Key_EventRK12InputEvent_t
__Z9LFO_Allocifbf
__Z9MD5UpdateP12MD5Context_tPKhj
__Z9MD5_PrintPhi
__Z9MM_GetQosv
__Z9NULL_FreeP5nul_t
__Z9PTC_Allocfff
__Z9RVA_AllocPiS_S_iP5flt_tifff
__Z9R_CullBoxRK6VectorS1_RK9Frustum_t
__Z9RenderBoxRK6VectorRK6QAngleS1_S1_5ColorP9IMaterialb
__Z9RenderBoxRK6VectorRK6QAngleS1_S1_5Colorbb
__Z9Replay_vaPKcz
__Z9S_IsMusicP9channel_t
__Z9SerializeI10CUtlStringEbR10CUtlBufferRK10CUtlVectorIT_10CUtlMemoryIS4_iEE
__Z9SerializeI10QuaternionEbR10CUtlBufferRK10CUtlVectorIT_10CUtlMemoryIS4_iEE
__Z9SerializeI10UniqueId_tEbR10CUtlBufferRK10CUtlVectorIT_10CUtlMemoryIS4_iEE
__Z9SerializeI15CUtlBinaryBlockEbR10CUtlBufferRK10CUtlVectorIT_10CUtlMemoryIS4_iEE
__Z9SerializeI5ColorEbR10CUtlBufferRK10CUtlVectorIT_10CUtlMemoryIS4_iEE
__Z9SerializeI6QAngleEbR10CUtlBufferRK10CUtlVectorIT_10CUtlMemoryIS4_iEE
__Z9SerializeI6VectorEbR10CUtlBufferRK10CUtlVectorIT_10CUtlMemoryIS4_iEE
__Z9SerializeI7VMatrixEbR10CUtlBufferRK10CUtlVectorIT_10CUtlMemoryIS4_iEE
__Z9SerializeI8Vector2DEbR10CUtlBufferRK10CUtlVectorIT_10CUtlMemoryIS4_iEE
__Z9SerializeI8Vector4DEbR10CUtlBufferRK10CUtlVectorIT_10CUtlMemoryIS4_iEE
__Z9SerializeIbEbR10CUtlBufferRK10CUtlVectorIT_10CUtlMemoryIS3_iEE
__Z9SerializeIfEbR10CUtlBufferRK10CUtlVectorIT_10CUtlMemoryIS3_iEE
__Z9SerializeIiEbR10CUtlBufferRK10CUtlVectorIT_10CUtlMemoryIS3_iEE
__Z9SerializeR10CUtlBufferRK10CUtlString
__Z9SerializeR10CUtlBufferRK10Quaternion
__Z9SerializeR10CUtlBufferRK10UniqueId_t
__Z9SerializeR10CUtlBufferRK15CUtlBinaryBlock
__Z9SerializeR10CUtlBufferRK5Color
__Z9SerializeR10CUtlBufferRK6QAngle
__Z9SerializeR10CUtlBufferRK6Vector
__Z9SerializeR10CUtlBufferRK7VMatrix
__Z9SerializeR10CUtlBufferRK8Vector2D
__Z9SerializeR10CUtlBufferRK8Vector4D
__Z9SerializeR10CUtlBufferRKb
__Z9SerializeR10CUtlBufferRKf
__Z9SerializeR10CUtlBufferRKi
__Z9SetupSpanii12NeighborSpanR10CVertIndexS1_
__Z9Sys_ErrorPKcz
__Z9Sys_Sleepi
__Z9Sys_mkdirPKc
__Z9TraceInitPKcS0_i
__Z9VOX_TouchPKcR8CUtlDictIiiE
__Z9V_StrTrimPc
__Z9V_stricmpPKcS0_
__Z9V_stristrPKcS0_
__Z9V_stristrPcPKc
__Z9V_strncatPcPKcmi
__Z9V_strncmpPKcS0_i
__Z9V_strncpyPcPKci
__Z9V_wcsncpyPwPKwi
__Z9_SSE_Sqrtf
__Z9bi_windupR6TState
__Z9gen_codesR6TStateP7ct_datai
__Z9scan_treeR6TStateP7ct_datai
__Z9send_bitsR6TStateii
__Z9send_treeR6TStateP7ct_datai
__Z9tmpstr512v
__ZGVZ10R_LightVecRK6VectorS1_bRS_PfS3_S3_S3_E8_counter
__ZGVZ11DataMapInitI11GAME_HEADEREP9datamap_tPT_E10nameHolder
__ZGVZ11DataMapInitI11SAVE_HEADEREP9datamap_tPT_E10nameHolder
__ZGVZ11DataMapInitI11decallist_tEP9datamap_tPT_E10nameHolder
__ZGVZ11DataMapInitI11levellist_tEP9datamap_tPT_E10nameHolder
__ZGVZ11DataMapInitI11musicsave_tEP9datamap_tPT_E10nameHolder
__ZGVZ11DataMapInitI13player_info_sEP9datamap_tPT_E10nameHolder
__ZGVZ11DataMapInitI14SAVELIGHTSTYLEEP9datamap_tPT_E10nameHolder
__ZGVZ11DataMapInitI15VTFFileHeader_tEP9datamap_tPT_E10nameHolder
__ZGVZ11DataMapInitI19VTFFileBaseHeader_tEP9datamap_tPT_E10nameHolder
__ZGVZ11DataMapInitI19VTFFileHeaderV7_1_tEP9datamap_tPT_E10nameHolder
__ZGVZ11DataMapInitI19VTFFileHeaderV7_2_tEP9datamap_tPT_E10nameHolder
__ZGVZ11DataMapInitI19VTFFileHeaderV7_3_tEP9datamap_tPT_E10nameHolder
__ZGVZ11DataMapInitI19VTFFileHeaderX360_tEP9datamap_tPT_E10nameHolder
__ZGVZ11DataMapInitI6lump_tEP9datamap_tPT_E10nameHolder
__ZGVZ11DataMapInitI9dheader_tEP9datamap_tPT_E10nameHolder
__ZGVZ13COM_ParseLinePKcE8nBindLen
__ZGVZ13GetSaveMemoryvE12g_SaveMemory
__ZGVZ15AllocTempVectorvE8s_nIndex
__ZGVZ15AllocTempVectorvE9s_vecTemp
__ZGVZ15FinishAsyncSavevE11autoMutex__
__ZGVZ15Host_Map_HelperRK8CCommandbbbE22dev_loadtime_map_start
__ZGVZ15Voice_ForceInitvE13sv_voicecodec
__ZGVZ16DecalSurfaceDrawP17IMatRenderContextifE10DrawDecals
__ZGVZ17ComputeViewMatrixP7VMatrixRK6VectorRK6QAngleE12baseRotation
__ZGVZ17R_BuildWorldListsP16IWorldRenderListP15WorldListInfo_tiPK17VisOverrideData_tbPfE10r_spewleaf
__ZGVZ19Audio_GetNullDevicevE10nullDevice
__ZGVZ20GetConsoleLogManagervE6object
__ZGVZ20LightcacheGetDynamicRK6VectorR15LightingState_tR26LightcacheGetDynamic_StatsjbE8_counter
__ZGVZ21Filter_StringToUserIDPKcE2id
__ZGVZ21Host_ShowIPCCallCountvE11s_nLastTick
__ZGVZ21Host_ShowIPCCallCountvE12s_nLastFrame
__ZGVZ21MaybeReportMissingWavPKcE9wavErrors
__ZGVZ21_Host_RunFrame_ServerbE8_counter
__ZGVZ22ComputeDynamicLightingRK6VectorPS0_RS_E11ambientTerm
__ZGVZ23MapPropOffsetsToIndicesPK10CBaseEdictP17CSendTablePrecalcPKttPtE8testDict
__ZGVZ23Shader_DrawChainsStaticRK17CMSurfaceSortListibE8_counter
__ZGVZ24EngineBitBufErrorHandler15BitBufErrorTypePKcE10errorNames
__ZGVZ27GetPanelAnimationDictionaryvE10dictionary
__ZGVZ28GetPanelMessageMapDictionaryvE10dictionary
__ZGVZL14VisCache_BuildR13VisCacheEntryRK16worldbrushdata_tE8_counter
__ZGVZL18ComputeLightStylesP12lightcache_tR15LightingState_tRK6VectoriPKhE8_counter
__ZGVZL21g_exec_CompletionFuncPKcPA64_cE12execComplete
__ZGVZL21g_load_CompletionFuncPKcPA64_cE12loadComplete
__ZGVZL22ComputeDynamicLightingP12lightcache_tR15LightingState_tRK6VectoriPKhE8_counter
__ZGVZL25CheckMSurfaceBaseTexture2P16worldbrushdata_tP11msurface2_tE8nameDict
__ZGVZL25g_listdemo_CompletionFuncPKcPA64_cE16listdemoComplete
__ZGVZL25g_playdemo_CompletionFuncPKcPA64_cE16playdemoComplete
__ZGVZL25g_timedemo_CompletionFuncPKcPA64_cE16timedemoComplete
__ZGVZL27g_benchframe_CompletionFuncPKcPA64_cE18benchframeComplete
__ZGVZL29g_timedemoquit_CompletionFuncPKcPA64_cE20timedemoquitComplete
__ZGVZL34ComputeStaticLightingForCacheEntryP15CBaseLightCacheRK6VectoribE8_counter
__ZGVZL6statusRK8CCommandE7sv_tags
__ZGVZN10CShadowMgr22ProjectAndClipVerticesERKNS_8Shadow_tERK7VMatrixPS4_iPP6VectorPPP14ShadowVertex_tE4clip
__ZGVZN11CBaseServer18UpdateMasterServerEvE20bUpdateMasterServers
__ZGVZN11CBugUIPanel13GetMessageMapEvE6s_pMap
__ZGVZN11CBugUIPanel8GetKBMapEvE6s_pMap
__ZGVZN11CFogUIPanel13GetMessageMapEvE6s_pMap
__ZGVZN11CFogUIPanel8GetKBMapEvE6s_pMap
__ZGVZN11CGameServer14SetHibernatingEbE28s_flPlatFloatTimeBeginUptime
__ZGVZN11CPluginMenu13GetMessageMapEvE6s_pMap
__ZGVZN11CPluginMenu8GetKBMapEvE6s_pMap
__ZGVZN11CStaticProp13DrawModelSlowEiE10debugColor_0
__ZGVZN11CVProfLabel13GetMessageMapEvE6s_pMap
__ZGVZN11CVProfLabel8GetKBMapEvE6s_pMap
__ZGVZN11CVProfPanel13GetMessageMapEvE6s_pMap
__ZGVZN11CVProfPanel8GetKBMapEvE6s_pMap
__ZGVZN11TxViewPanel13GetMessageMapEvE6s_pMap
__ZGVZN11TxViewPanel8GetKBMapEvE6s_pMap
__ZGVZN12CClientState16ConsistencyCheckEbE12s_LastConfig
__ZGVZN12CColorSlider13GetMessageMapEvE6s_pMap
__ZGVZN12CColorSlider8GetKBMapEvE6s_pMap
__ZGVZN12CDemoUIPanel13GetMessageMapEvE6s_pMap
__ZGVZN12CDemoUIPanel8GetKBMapEvE6s_pMap
__ZGVZN12CEngineTrace8TraceRayERK5Ray_tjP12ITraceFilterP10CGameTraceE8_counter
__ZGVZN12CModelRender19StudioSetupLightingERK16DrawModelState_tRK6VectorPP20LightCacheHandle_t__bbRbR15DrawModelInfo_tRK17ModelRenderInfo_tiE4temp
__ZGVZN12CModelRender19StudioSetupLightingERK16DrawModelState_tRK6VectorPP20LightCacheHandle_t__bbRbR15DrawModelInfo_tRK17ModelRenderInfo_tiE5white
__ZGVZN12CModelRender20DrawModelShadowSetupEP17IClientRenderableiiP15DrawModelInfo_tP11matrix3x4_tE11r_shadowlod
__ZGVZN12CModelRender20DrawModelShadowSetupEP17IClientRenderableiiP15DrawModelInfo_tP11matrix3x4_tE15r_shadowlodbias
__ZGVZN12CModelRender24TimeAverageLightingStateEtP15LightingState_tiPK6VectorE13s_WorldLights
__ZGVZN12CModelRender24TimeAverageLightingStateEtP15LightingState_tiPK6VectorE19actualLightingState
__ZGVZN12CPerfUIPanel13GetMessageMapEvE6s_pMap
__ZGVZN12CPerfUIPanel8GetKBMapEvE6s_pMap
__ZGVZN12CProfileTree13GetMessageMapEvE6s_pMap
__ZGVZN12CProfileTree8GetKBMapEvE6s_pMap
__ZGVZN13CDemoUIPanel213GetMessageMapEvE6s_pMap
__ZGVZN13CDemoUIPanel28GetKBMapEvE6s_pMap
__ZGVZN13CVmtTextEntry13GetMessageMapEvE6s_pMap
__ZGVZN13CVmtTextEntry8GetKBMapEvE6s_pMap
__ZGVZN14CDrawTreeFrame13GetMessageMapEvE6s_pMap
__ZGVZN14CDrawTreeFrame8GetKBMapEvE6s_pMap
__ZGVZN14CStaticPropMgr17ChangeRenderGroupER11CStaticPropE17opaqueRenderGroup
__ZGVZN14CStaticPropMgr18ComputePropOpacityER11CStaticPropE23localplayer_visionflags
__ZGVZN15CSmallTextEntry13GetMessageMapEvE6s_pMap
__ZGVZN15CSmallTextEntry8GetKBMapEvE6s_pMap
__ZGVZN16CAskConnectPanel13GetMessageMapEvE6s_pMap
__ZGVZN16CAskConnectPanel8GetKBMapEvE6s_pMap
__ZGVZN16CDemoEditorPanel13GetMessageMapEvE6s_pMap
__ZGVZN16CDemoEditorPanel8GetKBMapEvE6s_pMap
__ZGVZN16CLookupViewPanel13GetMessageMapEvE6s_pMap
__ZGVZN16CLookupViewPanel8GetKBMapEvE6s_pMap
__ZGVZN16COcclusionSystem10IsOccludedERK6VectorS2_E5mutex
__ZGVZN16CPluginUIManager13GetMessageMapEvE6s_pMap
__ZGVZN16CPluginUIManager8GetKBMapEvE6s_pMap
__ZGVZN16CPrecisionSlider13GetMessageMapEvE6s_pMap
__ZGVZN16CPrecisionSlider8GetKBMapEvE6s_pMap
__ZGVZN16CPropFadeUIPanel13GetMessageMapEvE6s_pMap
__ZGVZN16CPropFadeUIPanel8GetKBMapEvE6s_pMap
__ZGVZN17CCurveEditorPanel13GetMessageMapEvE6s_pMap
__ZGVZN17CCurveEditorPanel8GetKBMapEvE6s_pMap
__ZGVZN17CLookupViewWindow13GetMessageMapEvE6s_pMap
__ZGVZN17CLookupViewWindow8GetKBMapEvE6s_pMap
__ZGVZN17COcclusionUIPanel13GetMessageMapEvE6s_pMap
__ZGVZN17COcclusionUIPanel8GetKBMapEvE6s_pMap
__ZGVZN17CPerfUIChildPanel13GetMessageMapEvE6s_pMap
__ZGVZN17CPerfUIChildPanel8GetKBMapEvE6s_pMap
__ZGVZN17CPluginHudMessage13GetMessageMapEvE6s_pMap
__ZGVZN17CPluginHudMessage8GetKBMapEvE6s_pMap
__ZGVZN17CTextureListPanel13GetMessageMapEvE6s_pMap
__ZGVZN17CTextureListPanel8GetKBMapEvE6s_pMap
__ZGVZN17CVideoMode_Common18CenterEngineWindowEPviiE16sdl_displayindex
__ZGVZN17CVideoMode_Common32ResetCurrentModeForNewResolutionEiibE16sdl_displayindex
__ZGVZN18CBuildModeNavCombo13GetMessageMapEvE6s_pMap
__ZGVZN18CBuildModeNavCombo8GetKBMapEvE6s_pMap
__ZGVZN18CDemoSmootherPanel13GetMessageMapEvE6s_pMap
__ZGVZN18CDemoSmootherPanel8GetKBMapEvE6s_pMap
__ZGVZN19CAreaPortalsUIPanel13GetMessageMapEvE6s_pMap
__ZGVZN19CAreaPortalsUIPanel8GetKBMapEvE6s_pMap
__ZGVZN19CBudgetHistoryPanel5PaintEvE15s_CurrentHeight
__ZGVZN19CBudgetHistoryPanel5PaintEvE7s_Rects
__ZGVZN19CColorCurvesUIPanel13GetMessageMapEvE6s_pMap
__ZGVZN19CColorCurvesUIPanel8GetKBMapEvE6s_pMap
__ZGVZN19CColorLevelsUIPanel13GetMessageMapEvE6s_pMap
__ZGVZN19CColorLevelsUIPanel8GetKBMapEvE6s_pMap
__ZGVZN19CColorLookupUIPanel13GetMessageMapEvE6s_pMap
__ZGVZN19CColorLookupUIPanel8GetKBMapEvE6s_pMap
__ZGVZN19CNewOperationDialog13GetMessageMapEvE6s_pMap
__ZGVZN19CNewOperationDialog8GetKBMapEvE6s_pMap
__ZGVZN19COperationListPanel13GetMessageMapEvE6s_pMap
__ZGVZN19COperationListPanel8GetKBMapEvE6s_pMap
__ZGVZN19CPluginGameUIDialog13GetMessageMapEvE6s_pMap
__ZGVZN19CPluginGameUIDialog8GetKBMapEvE6s_pMap
__ZGVZN19CSelectedHSVUIPanel13GetMessageMapEvE6s_pMap
__ZGVZN19CSelectedHSVUIPanel8GetKBMapEvE6s_pMap
__ZGVZN20CColorBalanceUIPanel13GetMessageMapEvE6s_pMap
__ZGVZN20CColorBalanceUIPanel8GetKBMapEvE6s_pMap
__ZGVZN20CColorHistogramPanel13GetMessageMapEvE6s_pMap
__ZGVZN20CColorHistogramPanel8GetKBMapEvE6s_pMap
__ZGVZN20CDragDropHelperPanel13GetMessageMapEvE6s_pMap
__ZGVZN20CDragDropHelperPanel8GetKBMapEvE6s_pMap
__ZGVZN20CRenderTextureEditor13GetMessageMapEvE6s_pMap
__ZGVZN20CRenderTextureEditor8GetKBMapEvE6s_pMap
__ZGVZN21CBaseActionEditDialog13GetMessageMapEvE6s_pMap
__ZGVZN21CBaseActionEditDialog8GetKBMapEvE6s_pMap
__ZGVZN21CColorCurvesEditPanel13GetMessageMapEvE6s_pMap
__ZGVZN21CColorCurvesEditPanel8GetKBMapEvE6s_pMap
__ZGVZN21CLocalNetworkBackdoor12InitFastCopyEvE15compatSendProxy
__ZGVZN21CreateDirectoryDialog13GetMessageMapEvE6s_pMap
__ZGVZN21CreateDirectoryDialog8GetKBMapEvE6s_pMap
__ZGVZN22CProfileHierarchyPanel13GetMessageMapEvE6s_pMap
__ZGVZN22CProfileHierarchyPanel8GetKBMapEvE6s_pMap
__ZGVZN22CUncorrectedImagePanel13GetMessageMapEvE6s_pMap
__ZGVZN22CUncorrectedImagePanel8GetKBMapEvE6s_pMap
__ZGVZN23CColorCorrectionUIPanel13GetMessageMapEvE6s_pMap
__ZGVZN23CColorCorrectionUIPanel8GetKBMapEvE6s_pMap
__ZGVZN23CProceduralTexturePanel13GetMessageMapEvE6s_pMap
__ZGVZN23CProceduralTexturePanel8GetKBMapEvE6s_pMap
__ZGVZN24CColorOperationListPanel13GetMessageMapEvE6s_pMap
__ZGVZN24CColorOperationListPanel8GetKBMapEvE6s_pMap
__ZGVZN25CFullScreenSelectionPanel13GetMessageMapEvE6s_pMap
__ZGVZN25CFullScreenSelectionPanel8GetKBMapEvE6s_pMap
__ZGVZN28CColorCorrectionUIChildPanel13GetMessageMapEvE6s_pMap
__ZGVZN28CColorCorrectionUIChildPanel8GetKBMapEvE6s_pMap
__ZGVZN28CRenderTexturesListViewPanel10RenderTileEiiiE10clrLblWarn
__ZGVZN28CRenderTexturesListViewPanel10RenderTileEiiiE11clrLblError
__ZGVZN28CRenderTexturesListViewPanel10RenderTileEiiiE12clrLblNormal
__ZGVZN28CRenderTexturesListViewPanel13GetMessageMapEvE6s_pMap
__ZGVZN28CRenderTexturesListViewPanel8GetKBMapEvE6s_pMap
__ZGVZN31CBaseActionPlaySoundStartDialog13GetMessageMapEvE6s_pMap
__ZGVZN31CBaseActionPlaySoundStartDialog8GetKBMapEvE6s_pMap
__ZGVZN4vgui10ClickPanel13GetMessageMapEvE6s_pMap
__ZGVZN4vgui10ClickPanel8GetKBMapEvE6s_pMap
__ZGVZN4vgui10GraphPanel13GetMessageMapEvE6s_pMap
__ZGVZN4vgui10GraphPanel8GetKBMapEvE6s_pMap
__ZGVZN4vgui10ImagePanel13GetMessageMapEvE6s_pMap
__ZGVZN4vgui10ImagePanel8GetKBMapEvE6s_pMap
__ZGVZN4vgui10MenuButton13GetMessageMapEvE6s_pMap
__ZGVZN4vgui10MenuButton8GetKBMapEvE6s_pMap
__ZGVZN4vgui10MessageBox13GetMessageMapEvE6s_pMap
__ZGVZN4vgui10MessageBox8GetKBMapEvE6s_pMap
__ZGVZN4vgui11CheckButton13GetMessageMapEvE6s_pMap
__ZGVZN4vgui11CheckButton8GetKBMapEvE6s_pMap
__ZGVZN4vgui11InputDialog13GetMessageMapEvE6s_pMap
__ZGVZN4vgui11InputDialog8GetKBMapEvE6s_pMap
__ZGVZN4vgui11ProgressBar13GetMessageMapEvE6s_pMap
__ZGVZN4vgui11ProgressBar8GetKBMapEvE6s_pMap
__ZGVZN4vgui11RadioButton13GetMessageMapEvE6s_pMap
__ZGVZN4vgui11RadioButton8GetKBMapEvE6s_pMap
__ZGVZN4vgui12ContextLabel13GetMessageMapEvE6s_pMap
__ZGVZN4vgui12ContextLabel8GetKBMapEvE6s_pMap
__ZGVZN4vgui12ExpandButton13GetMessageMapEvE6s_pMap
__ZGVZN4vgui12ExpandButton8GetKBMapEvE6s_pMap
__ZGVZN4vgui12ListViewItem13GetMessageMapEvE6s_pMap
__ZGVZN4vgui12ListViewItem8GetKBMapEvE6s_pMap
__ZGVZN4vgui12PropertyPage13GetMessageMapEvE6s_pMap
__ZGVZN4vgui12PropertyPage8GetKBMapEvE6s_pMap
__ZGVZN4vgui12ToggleButton13GetMessageMapEvE6s_pMap
__ZGVZN4vgui12ToggleButton8GetKBMapEvE6s_pMap
__ZGVZN4vgui12TreeNodeText13GetMessageMapEvE6s_pMap
__ZGVZN4vgui12TreeNodeText8GetKBMapEvE6s_pMap
__ZGVZN4vgui13EditablePanel13GetMessageMapEvE6s_pMap
__ZGVZN4vgui13EditablePanel16OnKeyCodePressedE12ButtonCode_tE28vgui_nav_lock_default_button
__ZGVZN4vgui13EditablePanel8GetKBMapEvE6s_pMap
__ZGVZN4vgui13ListViewPanel13GetMessageMapEvE6s_pMap
__ZGVZN4vgui13ListViewPanel8GetKBMapEvE6s_pMap
__ZGVZN4vgui13MenuSeparator13GetMessageMapEvE6s_pMap
__ZGVZN4vgui13MenuSeparator8GetKBMapEvE6s_pMap
__ZGVZN4vgui13PropertySheet13GetMessageMapEvE6s_pMap
__ZGVZN4vgui13PropertySheet8GetKBMapEvE6s_pMap
__ZGVZN4vgui14FileOpenDialog13GetMessageMapEvE6s_pMap
__ZGVZN4vgui14FileOpenDialog8GetKBMapEvE6s_pMap
__ZGVZN4vgui14PanelListPanel13GetMessageMapEvE6s_pMap
__ZGVZN4vgui14PanelListPanel8GetKBMapEvE6s_pMap
__ZGVZN4vgui14PropertyDialog13GetMessageMapEvE6s_pMap
__ZGVZN4vgui14PropertyDialog8GetKBMapEvE6s_pMap
__ZGVZN4vgui15BaseInputDialog13GetMessageMapEvE6s_pMap
__ZGVZN4vgui15BaseInputDialog8GetKBMapEvE6s_pMap
__ZGVZN4vgui15BuildModeDialog13GetMessageMapEvE6s_pMap
__ZGVZN4vgui15BuildModeDialog8GetKBMapEvE6s_pMap
__ZGVZN4vgui15ScrollBarSlider13GetMessageMapEvE6s_pMap
__ZGVZN4vgui15ScrollBarSlider8GetKBMapEvE6s_pMap
__ZGVZN4vgui15TileViewPanelEx13GetMessageMapEvE6s_pMap
__ZGVZN4vgui15TileViewPanelEx8GetKBMapEvE6s_pMap
__ZGVZN4vgui16RichTextInterior13GetMessageMapEvE6s_pMap
__ZGVZN4vgui16RichTextInterior8GetKBMapEvE6s_pMap
__ZGVZN4vgui17FrameSystemButton13GetMessageMapEvE6s_pMap
__ZGVZN4vgui17FrameSystemButton8GetKBMapEvE6s_pMap
__ZGVZN4vgui18FileCompletionEdit13GetMessageMapEvE6s_pMap
__ZGVZN4vgui18FileCompletionEdit8GetKBMapEvE6s_pMap
__ZGVZN4vgui18ScalableImagePanel13GetMessageMapEvE6s_pMap
__ZGVZN4vgui18ScalableImagePanel8GetKBMapEvE6s_pMap
__ZGVZN4vgui19AnimatingImagePanel13GetMessageMapEvE6s_pMap
__ZGVZN4vgui19AnimatingImagePanel8GetKBMapEvE6s_pMap
__ZGVZN4vgui19AnimationController13GetMessageMapEvE6s_pMap
__ZGVZN4vgui19AnimationController8GetKBMapEvE6s_pMap
__ZGVZN4vgui19CircularProgressBar13GetMessageMapEvE6s_pMap
__ZGVZN4vgui19CircularProgressBar8GetKBMapEvE6s_pMap
__ZGVZN4vgui20CTreeViewListControl13GetMessageMapEvE6s_pMap
__ZGVZN4vgui20CTreeViewListControl8GetKBMapEvE6s_pMap
__ZGVZN4vgui21ContinuousProgressBar13GetMessageMapEvE6s_pMap
__ZGVZN4vgui21ContinuousProgressBar8GetKBMapEvE6s_pMap
__ZGVZN4vgui21CvarToggleCheckButtonI11UIConVarRefE13GetMessageMapEvE6s_pMap
__ZGVZN4vgui21CvarToggleCheckButtonI11UIConVarRefE8GetKBMapEvE6s_pMap
__ZGVZN4vgui21DirectorySelectDialog13GetMessageMapEvE6s_pMap
__ZGVZN4vgui21DirectorySelectDialog8GetKBMapEvE6s_pMap
__ZGVZN4vgui22GetAnimationControllerEvE22s_pAnimationController
__ZGVZN4vgui31GetPanelKeyBindingMapDictionaryEvE10dictionary
__ZGVZN4vgui4Menu13GetMessageMapEvE6s_pMap
__ZGVZN4vgui4Menu8GetKBMapEvE6s_pMap
__ZGVZN4vgui5Frame13GetMessageMapEvE6s_pMap
__ZGVZN4vgui5Frame8GetKBMapEvE6s_pMap
__ZGVZN4vgui5Label13GetMessageMapEvE6s_pMap
__ZGVZN4vgui5Label8GetKBMapEvE6s_pMap
__ZGVZN4vgui5Panel13GetMessageMapEvE6s_pMap
__ZGVZN4vgui5Panel16OnKeyCodePressedE12ButtonCode_tE13vgui_nav_lock
__ZGVZN4vgui5Panel8GetKBMapEvE6s_pMap
__ZGVZN4vgui6Button13GetMessageMapEvE6s_pMap
__ZGVZN4vgui6Button7DoClickEvE13vgui_nav_lock
__ZGVZN4vgui6Button8GetKBMapEvE6s_pMap
__ZGVZN4vgui6Slider13GetMessageMapEvE6s_pMap
__ZGVZN4vgui6Slider8GetKBMapEvE6s_pMap
__ZGVZN4vgui7Divider13GetMessageMapEvE6s_pMap
__ZGVZN4vgui7Divider8GetKBMapEvE6s_pMap
__ZGVZN4vgui7MenuBar13GetMessageMapEvE6s_pMap
__ZGVZN4vgui7MenuBar8GetKBMapEvE6s_pMap
__ZGVZN4vgui7PageTab13GetMessageMapEvE6s_pMap
__ZGVZN4vgui7PageTab8GetKBMapEvE6s_pMap
__ZGVZN4vgui8ComboBox13GetMessageMapEvE6s_pMap
__ZGVZN4vgui8ComboBox8GetKBMapEvE6s_pMap
__ZGVZN4vgui8MenuItem13GetMessageMapEvE6s_pMap
__ZGVZN4vgui8MenuItem8GetKBMapEvE6s_pMap
__ZGVZN4vgui8RichText13GetMessageMapEvE6s_pMap
__ZGVZN4vgui8RichText8GetKBMapEvE6s_pMap
__ZGVZN4vgui8TreeNode13GetMessageMapEvE6s_pMap
__ZGVZN4vgui8TreeNode8GetKBMapEvE6s_pMap
__ZGVZN4vgui8TreeView13GetMessageMapEvE6s_pMap
__ZGVZN4vgui8TreeView8GetKBMapEvE6s_pMap
__ZGVZN4vgui8URLLabel13GetMessageMapEvE6s_pMap
__ZGVZN4vgui8URLLabel8GetKBMapEvE6s_pMap
__ZGVZN4vgui9ListPanel13GetMessageMapEvE6s_pMap
__ZGVZN4vgui9ListPanel8GetKBMapEvE6s_pMap
__ZGVZN4vgui9ScrollBar13GetMessageMapEvE6s_pMap
__ZGVZN4vgui9ScrollBar8GetKBMapEvE6s_pMap
__ZGVZN4vgui9TextEntry13GetMessageMapEvE6s_pMap
__ZGVZN4vgui9TextEntry8GetKBMapEvE6s_pMap
__ZGVZN5CGame24UpdateDesktopInformationEvE16sdl_displayindex
__ZGVZN7CEngine5FrameEvE17pSyncReportConVar
__ZGVZN7CRender18EndUpdateLightmapsEvE13threadDlights
__ZGVZN8CMessage13GetMessageMapEvE6s_pMap
__ZGVZN8CMessage8GetKBMapEvE6s_pMap
__ZGVZN8CNetChan12HandleUploadEPNS_15dataFragments_sEP18INetChannelHandlerE14s_pAllowUpload
__ZGVZN9CDispInfo23SetupDecalNodeIntersectERK10CVertIndexiP14CDispDecalBasePK12ShadowInfo_tE5cache
__ZGVZNK11CDmxElement8GetValueI10CUtlStringEERKT_PKcE12defaultValue
__ZGVZNK13CDmxAttribute8GetArrayIP11CDmxElementEERK10CUtlVectorIT_10CUtlMemoryIS4_iEEvE12defaultArray
__ZGVZNK13CDmxAttribute8GetValueI10CUtlStringEERKT_vE12defaultValue
__ZL10BindToggleRK8CCommand
__ZL10SpewEdictsv
__ZL10VOX_Reloadv
__ZL10bDrawWater
__ZL10cl_timeout
__ZL10clientport
__ZL10con_enable
__ZL10demo_debug
__ZL10demo_pauseRK8CCommand
__ZL10demoui2_on
__ZL10disconnectRK8CCommand
__ZL10encode_mcuP20jpeg_compress_structPPA64_s
__ZL10error_exitP18jpeg_common_struct
__ZL10facingName
__ZL10fakejitter
__ZL10g_BreakSet
__ZL10g_BreakSet
__ZL10g_GroupLRU
__ZL10g_Registry
__ZL10host_Sleep
__ZL10killserverRK8CCommand
__ZL10lasterrorZ
__ZL10lightcache
__ZL10lightprobeRK8CCommand
__ZL10listmodelsRK8CCommand
__ZL10maxplayersRK8CCommand
__ZL10mm_messageRK8CCommand
__ZL10namelockidRK8CCommand
__ZL10net_nohltv
__ZL10net_statusRK8CCommand
__ZL10r_drawleaf
__ZL10r_flushlod
__ZL10s_BreakSet
__ZL10s_FatBytes
__ZL10s_nTrapKey
__ZL10s_pKeyInfo
__ZL10s_pLagData
__ZL10screenshotRK8CCommand
__ZL10singlestep
__ZL10start_passP20jpeg_compress_structi
__ZL10startdemosRK8CCommand
__ZL10startmovieRK8CCommand
__ZL10sv_contact
__ZL10sv_logbans
__ZL10sv_logecho
__ZL10sv_logfile
__ZL10sv_logsdir
__ZL10sv_maxrate
__ZL10sv_minrate
__ZL10sv_timeout
__ZL10tv_clientsRK8CCommand
__ZL10tv_maxrate
__ZL10tv_timeout
__ZL10unbind_macRK8CCommand
__ZL10vox_reload
__ZL10vprof_Implv
__ZL11Create_Menuv
__ZL11DecodeFloatPK8SendPropP7bf_read
__ZL11Host_Maps_fRK8CCommand
__ZL11R_DecalNodeP7mnode_tP11decalinfo_t
__ZL11S_PlayDelayRK8CCommand
__ZL11SortStricmpPKPcS1_
__ZL11alloc_largeP18jpeg_common_structim
__ZL11alloc_smallP18jpeg_common_structim
__ZL11bench_startRK8CCommand
__ZL11box_command
__ZL11bsPutUInt32P6EStatej
__ZL11bug_command
__ZL11cache_printRK8CCommand
__ZL11changelevel
__ZL11cl_rate_var
__ZL11cl_showentsRK8CCommand
__ZL11cl_takejpeg
__ZL11cmd_command
__ZL11curlWriteFnPvmmS_
__ZL11demo_resumeRK8CCommand
__ZL11demoui2_off
__ZL11differencesRK8CCommand
__ZL11droppackets
__ZL11dumpsavedirRK8CCommand
__ZL11emit_2bytesP20jpeg_compress_structi
__ZL11emit_bits_eP20huff_entropy_encoderji
__ZL11emit_bits_sP13working_stateji
__ZL11emit_eobrunP20huff_entropy_encoder
__ZL11emit_markerP20jpeg_compress_struct11JPEG_MARKER
__ZL11extra_dbits
__ZL11extra_lbits
__ZL11finish_passP20jpeg_compress_struct
__ZL11forward_DCTP20jpeg_compress_structP19jpeg_component_infoPPhPA64_sjjj
__ZL11g_AreaStack
__ZL11g_CVoiceSfx
__ZL11g_HostState
__ZL11g_HostTimes
__ZL11g_PerfTools
__ZL11g_SendQueue
__ZL11g_SpewMutex
__ZL11g_cmapnames
__ZL11g_cursorset
__ZL11g_nSortType
__ZL11g_pConPanel
__ZL11g_viewSetup
__ZL11gameui_hideRK8CCommand
__ZL11hideconsole
__ZL11listener_up
__ZL11log_command
__ZL11map_noareas
__ZL11mem_compactRK8CCommand
__ZL11memory_diffRK8CCommand
__ZL11memory_listRK8CCommand
__ZL11memory_markRK8CCommand
__ZL11net_packets
__ZL11net_showmsg
__ZL11net_sockets
__ZL11null_methodP20jpeg_compress_struct
__ZL11plugin_loadRK8CCommand
__ZL11pulCRCTable
__ZL11r_drawworld
__ZL11r_shadowids
__ZL11s_CvarQuery
__ZL11s_EngineAPI
__ZL11s_Grayscale
__ZL11s_MapBuffer
__ZL11s_MapHeader
__ZL11s_PropCache
__ZL11s_ShadowMgr
__ZL11s_SoundPool
__ZL11s_bTrapMode
__ZL11s_nCVarFlag
__ZL11s_pSortFunc
__ZL11s_pTokenBuf
__ZL11s_szMapName
__ZL11saveShadows
__ZL11sdr_command
__ZL11showconsole
__ZL11snd_restart
__ZL11star_memoryRK8CCommand
__ZL11startupmenu
__ZL11sv_ShutDownv
__ZL11sv_logflush
__ZL11sv_memlimit
__ZL11sv_netspike
__ZL11sv_password
__ZL11sv_pausable
__ZL11sv_shutdown
__ZL11tv_password
__ZL11vec2_origin
__ZL11vec2_origin
__ZL11vec2_origin
__ZL11vec2_origin
__ZL11vec2_origin
__ZL11vec2_origin
__ZL11vec2_origin
__ZL11vec2_origin
__ZL11vec2_origin
__ZL11vec2_origin
__ZL11vec2_origin
__ZL11vec2_origin
__ZL11vec2_origin
__ZL11vec2_origin
__ZL11vec2_origin
__ZL11vec2_origin
__ZL11vec2_origin
__ZL11vec2_origin
__ZL11vec2_origin
__ZL11vec2_origin
__ZL11vec2_origin
__ZL11vec2_origin
__ZL11vec2_origin
__ZL11vec2_origin
__ZL11vec2_origin
__ZL11vec2_origin
__ZL11vec2_origin
__ZL11vec2_origin
__ZL11vec2_origin
__ZL11vec2_origin
__ZL11vec2_origin
__ZL11vec2_origin
__ZL11vec2_origin
__ZL11vec2_origin
__ZL11vec2_origin
__ZL11vec2_origin
__ZL11vec2_origin
__ZL11vec2_origin
__ZL11vec2_origin
__ZL11vec2_origin
__ZL11vec2_origin
__ZL11vec2_origin
__ZL11vec2_origin
__ZL11vec2_origin
__ZL11vec2_origin
__ZL11vec2_origin
__ZL11vec2_origin
__ZL11vec2_origin
__ZL11vec2_origin
__ZL11vec2_origin
__ZL11vec2_origin
__ZL11vec2_origin
__ZL11vec2_origin
__ZL11vec2_origin
__ZL11vec2_origin
__ZL11vec2_origin
__ZL11vec2_origin
__ZL11vec2_origin
__ZL11vec2_origin
__ZL11vec2_origin
__ZL11vec2_origin
__ZL11vec2_origin
__ZL11vec2_origin
__ZL11vec2_origin
__ZL11vec2_origin
__ZL11vec2_origin
__ZL11vec2_origin
__ZL11vec2_origin
__ZL11vec2_origin
__ZL11vec2_origin
__ZL11vec2_origin
__ZL11vec2_origin
__ZL11vec2_origin
__ZL11vec2_origin
__ZL11vec2_origin
__ZL11vec2_origin
__ZL11vec2_origin
__ZL11vec2_origin
__ZL11vec2_origin
__ZL11vec2_origin
__ZL11vec2_origin
__ZL11vec2_origin
__ZL11vec2_origin
__ZL11vec2_origin
__ZL11vec2_origin
__ZL11vec2_origin
__ZL11vec2_origin
__ZL11vec2_origin
__ZL11vec2_origin
__ZL11vec2_origin
__ZL11vec2_origin
__ZL11vec2_origin
__ZL11vec2_origin
__ZL11vec2_origin
__ZL11vec2_origin
__ZL11vec2_origin
__ZL11vec2_origin
__ZL11vec2_origin
__ZL11vec2_origin
__ZL11vec2_origin
__ZL11vec2_origin
__ZL11vec2_origin
__ZL11vec2_origin
__ZL11vec2_origin
__ZL11vec2_origin
__ZL11vec2_origin
__ZL11vec2_origin
__ZL11vec2_origin
__ZL11vec2_origin
__ZL11vec2_origin
__ZL11vec2_origin
__ZL11vec2_origin
__ZL11vec2_origin
__ZL11vec2_origin
__ZL11vec2_origin
__ZL11vec2_origin
__ZL11vec2_origin
__ZL11vec2_origin
__ZL11vec2_origin
__ZL11vec2_origin
__ZL11vec2_origin
__ZL11vec2_origin
__ZL11vec2_origin
__ZL11vec2_origin
__ZL11vec2_origin
__ZL11vec2_origin
__ZL11vec2_origin
__ZL11vec2_origin
__ZL11vec2_origin
__ZL11vec2_origin
__ZL11vec2_origin
__ZL11vec2_origin
__ZL11vec2_origin
__ZL11vec2_origin
__ZL11vec2_origin
__ZL11vec2_origin
__ZL11vec2_origin
__ZL11vec2_origin
__ZL11vec2_origin
__ZL11vec2_origin
__ZL11vec2_origin
__ZL11vec2_origin
__ZL11vec2_origin
__ZL11vec2_origin
__ZL11vec2_origin
__ZL11vec2_origin
__ZL11vec2_origin
__ZL11vec2_origin
__ZL11vec2_origin
__ZL11vec2_origin
__ZL11vec2_origin
__ZL11vec2_origin
__ZL11vec2_origin
__ZL11vec2_origin
__ZL11vec2_origin
__ZL11vec2_origin
__ZL11vec2_origin
__ZL11vec2_origin
__ZL11vec2_origin
__ZL11vec2_origin
__ZL11vec2_origin
__ZL11vec2_origin
__ZL11vec2_origin
__ZL11vec2_origin
__ZL11vec2_origin
__ZL11vec2_origin
__ZL11vec2_origin
__ZL11vec2_origin
__ZL11vec2_origin
__ZL11vec2_origin
__ZL11vec2_origin
__ZL11vec2_origin
__ZL11vec2_origin
__ZL11vec2_origin
__ZL11vec2_origin
__ZL11vec2_origin
__ZL11vec2_origin
__ZL11vec2_origin
__ZL11vec2_origin
__ZL11vec2_origin
__ZL11vec2_origin
__ZL11vec2_origin
__ZL11vec2_origin
__ZL11vec2_origin
__ZL11vec2_origin
__ZL11vec2_origin
__ZL11vec2_origin
__ZL11vec2_origin
__ZL11vec2_origin
__ZL11vec2_origin
__ZL11vec2_origin
__ZL11vec2_origin
__ZL11vec2_origin
__ZL11vec2_origin
__ZL11vec2_origin
__ZL11vec2_origin
__ZL11vec2_origin
__ZL11vec2_origin
__ZL11vec2_origin
__ZL11vec2_origin
__ZL11vec2_origin
__ZL11vec2_origin
__ZL11vec2_origin
__ZL11vec2_origin
__ZL11vec2_origin
__ZL11vec2_origin
__ZL11vec2_origin
__ZL11vec2_origin
__ZL11vec2_origin
__ZL11vec2_origin
__ZL11vec2_origin
__ZL11vec2_origin
__ZL11vec2_origin
__ZL11vec2_origin
__ZL11vec2_origin
__ZL11vec4_origin
__ZL11vec4_origin
__ZL11vec4_origin
__ZL11vec4_origin
__ZL11vec4_origin
__ZL11vec4_origin
__ZL11vec4_origin
__ZL11vec4_origin
__ZL11vec4_origin
__ZL11vec4_origin
__ZL11vec4_origin
__ZL11vec4_origin
__ZL11vec4_origin
__ZL11vec4_origin
__ZL11vec4_origin
__ZL11vec4_origin
__ZL11vec4_origin
__ZL11vec4_origin
__ZL11vec4_origin
__ZL11vec4_origin
__ZL11vec4_origin
__ZL11vec4_origin
__ZL11vec4_origin
__ZL11vec4_origin
__ZL11vec4_origin
__ZL11vec4_origin
__ZL11vec4_origin
__ZL11vec4_origin
__ZL11vec4_origin
__ZL11vec4_origin
__ZL11vec4_origin
__ZL11vec4_origin
__ZL11vec4_origin
__ZL11vec4_origin
__ZL11vec4_origin
__ZL11vec4_origin
__ZL11vec4_origin
__ZL11vec4_origin
__ZL11vec4_origin
__ZL11vec4_origin
__ZL11vec4_origin
__ZL11vec4_origin
__ZL11vec4_origin
__ZL11vec4_origin
__ZL11vec4_origin
__ZL11vec4_origin
__ZL11vec4_origin
__ZL11vec4_origin
__ZL11vec4_origin
__ZL11vec4_origin
__ZL11vec4_origin
__ZL11vec4_origin
__ZL11vec4_origin
__ZL11vec4_origin
__ZL11vec4_origin
__ZL11vec4_origin
__ZL11vec4_origin
__ZL11vec4_origin
__ZL11vec4_origin
__ZL11vec4_origin
__ZL11vec4_origin
__ZL11vec4_origin
__ZL11vec4_origin
__ZL11vec4_origin
__ZL11vec4_origin
__ZL11vec4_origin
__ZL11vec4_origin
__ZL11vec4_origin
__ZL11vec4_origin
__ZL11vec4_origin
__ZL11vec4_origin
__ZL11vec4_origin
__ZL11vec4_origin
__ZL11vec4_origin
__ZL11vec4_origin
__ZL11vec4_origin
__ZL11vec4_origin
__ZL11vec4_origin
__ZL11vec4_origin
__ZL11vec4_origin
__ZL11vec4_origin
__ZL11vec4_origin
__ZL11vec4_origin
__ZL11vec4_origin
__ZL11vec4_origin
__ZL11vec4_origin
__ZL11vec4_origin
__ZL11vec4_origin
__ZL11vec4_origin
__ZL11vec4_origin
__ZL11vec4_origin
__ZL11vec4_origin
__ZL11vec4_origin
__ZL11vec4_origin
__ZL11vec4_origin
__ZL11vec4_origin
__ZL11vec4_origin
__ZL11vec4_origin
__ZL11vec4_origin
__ZL11vec4_origin
__ZL11vec4_origin
__ZL11vec4_origin
__ZL11vec4_origin
__ZL11vec4_origin
__ZL11vec4_origin
__ZL11vec4_origin
__ZL11vec4_origin
__ZL11vec4_origin
__ZL11vec4_origin
__ZL11vec4_origin
__ZL11vec4_origin
__ZL11vec4_origin
__ZL11vec4_origin
__ZL11vec4_origin
__ZL11vec4_origin
__ZL11vec4_origin
__ZL11vec4_origin
__ZL11vec4_origin
__ZL11vec4_origin
__ZL11vec4_origin
__ZL11vec4_origin
__ZL11vec4_origin
__ZL11vec4_origin
__ZL11vec4_origin
__ZL11vec4_origin
__ZL11vec4_origin
__ZL11vec4_origin
__ZL11vec4_origin
__ZL11vec4_origin
__ZL11vprof_child
__ZL11vprof_graph
__ZL11vprof_resetRK8CCommand
__ZL12Create_Labelv
__ZL12Create_Panelv
__ZL12DrawShadowIDtRK6Vector
__ZL12FastSortFuncPN4vgui9ListPanelERKNS_13ListPanelItemES4_
__ZL12Filter_Add_fRK8CCommand
__ZL12LightmapLessRKP11msurface2_tS2_
__ZL12LoadSaveGamePKc
__ZL12MD5TransformPjPKj
__ZL12alloc_barrayP18jpeg_common_structijj
__ZL12alloc_sarrayP18jpeg_common_structijj
__ZL12arith_encodeP20jpeg_compress_structPhi
__ZL12bind_command
__ZL12changelevel2
__ZL12cl_soundfile
__ZL12curlHeaderFnPvmmS_
__ZL12do_barray_ioP18jpeg_common_structP20jvirt_barray_controli
__ZL12do_sarray_ioP18jpeg_common_structP20jvirt_sarray_controli
__ZL12echo_command
__ZL12emit_messageP18jpeg_common_structi
__ZL12emit_restartP20jpeg_compress_structi
__ZL12endshowvprof
__ZL12exec_command
__ZL12extra_blbits
__ZL12fallbackSortPjS_S_ii
__ZL12flush_bits_eP20huff_entropy_encoder
__ZL12flush_bits_sP13working_state
__ZL12flush_lockedRK8CCommand
__ZL12g_EngineTool
__ZL12g_FrameIndex
__ZL12g_FreeEdicts
__ZL12g_MapListMgr
__ZL12g_OverlayMgr
__ZL12g_RCONClient
__ZL12g_RCONServer
__ZL12g_WhiteSpace
__ZL12g_nSpewLines
__ZL12g_pStatsFile
__ZL12g_rgmapnames
__ZL12g_viewWindow.0
__ZL12g_viewWindow.1
__ZL12g_viewWindow.2
__ZL12g_viewWindow.3
__ZL12gs_szGameDir
__ZL12help_command
__ZL12host_profile
__ZL12incrementvarRK8CCommand
__ZL12intconverter
__ZL12jpeg_command
__ZL12jpeg_quality
__ZL12kick_command
__ZL12lightbuckets
__ZL12load_command
__ZL12mem_vcollideRK8CCommand
__ZL12net_blockmsg
__ZL12net_channelsRK8CCommand
__ZL12net_showdrop
__ZL12null_convertP20jpeg_compress_structPPhPS2_ji
__ZL12pass_startupP20jpeg_compress_struct
__ZL12path_command
__ZL12ping_command
__ZL12plugin_pauseRK8CCommand
__ZL12plugin_printRK8CCommand
__ZL12r_ambientmin
__ZL12r_drawdecals
__ZL12r_drawlights
__ZL12r_drawskybox
__ZL12r_eyeshift_x
__ZL12r_eyeshift_y
__ZL12r_eyeshift_z
__ZL12rcon_address
__ZL12rcon_command
__ZL12rgpparseword
__ZL12s_AudioState
__ZL12s_CacheMutex
__ZL12s_DefaultQos
__ZL12s_DispDecals
__ZL12s_EntityBits
__ZL12s_ExtIndices
__ZL12s_MatIndices
__ZL12s_Recipients
__ZL12s_Recipients
__ZL12s_Recipients
__ZL12s_Recipients
__ZL12s_RenderView
__ZL12s_XboxSystem
__ZL12s_bAllowSSE2
__ZL12s_bConnected
__ZL12s_bForceSend
__ZL12s_bIsHL2Demo
__ZL12s_nSoundGuid
__ZL12s_nTrapKeyUp
__ZL12s_pDLightVis
__ZL12s_pFaceEdges
__ZL12s_pWireframe
__ZL12s_szLoadName
__ZL12save_command
__ZL12save_console
__ZL12sndplaydelay
__ZL12stb__Expand5
__ZL12stb__Expand6
__ZL12stb__OMatch5
__ZL12stb__OMatch6
__ZL12stop_command
__ZL12sv_deltatime
__ZL12sv_filterban
__ZL12sv_logblocks
__ZL12sv_logsecret
__ZL12tv_autoretry
__ZL12user_command
__ZL12vec2_invalid
__ZL12vec2_invalid
__ZL12vec2_invalid
__ZL12vec2_invalid
__ZL12vec2_invalid
__ZL12vec2_invalid
__ZL12vec2_invalid
__ZL12vec2_invalid
__ZL12vec2_invalid
__ZL12vec2_invalid
__ZL12vec2_invalid
__ZL12vec2_invalid
__ZL12vec2_invalid
__ZL12vec2_invalid
__ZL12vec2_invalid
__ZL12vec2_invalid
__ZL12vec2_invalid
__ZL12vec2_invalid
__ZL12vec2_invalid
__ZL12vec2_invalid
__ZL12vec2_invalid
__ZL12vec2_invalid
__ZL12vec2_invalid
__ZL12vec2_invalid
__ZL12vec2_invalid
__ZL12vec2_invalid
__ZL12vec2_invalid
__ZL12vec2_invalid
__ZL12vec2_invalid
__ZL12vec2_invalid
__ZL12vec2_invalid
__ZL12vec2_invalid
__ZL12vec2_invalid
__ZL12vec2_invalid
__ZL12vec2_invalid
__ZL12vec2_invalid
__ZL12vec2_invalid
__ZL12vec2_invalid
__ZL12vec2_invalid
__ZL12vec2_invalid
__ZL12vec2_invalid
__ZL12vec2_invalid
__ZL12vec2_invalid
__ZL12vec2_invalid
__ZL12vec2_invalid
__ZL12vec2_invalid
__ZL12vec2_invalid
__ZL12vec2_invalid
__ZL12vec2_invalid
__ZL12vec2_invalid
__ZL12vec2_invalid
__ZL12vec2_invalid
__ZL12vec2_invalid
__ZL12vec2_invalid
__ZL12vec2_invalid
__ZL12vec2_invalid
__ZL12vec2_invalid
__ZL12vec2_invalid
__ZL12vec2_invalid
__ZL12vec2_invalid
__ZL12vec2_invalid
__ZL12vec2_invalid
__ZL12vec2_invalid
__ZL12vec2_invalid
__ZL12vec2_invalid
__ZL12vec2_invalid
__ZL12vec2_invalid
__ZL12vec2_invalid
__ZL12vec2_invalid
__ZL12vec2_invalid
__ZL12vec2_invalid
__ZL12vec2_invalid
__ZL12vec2_invalid
__ZL12vec2_invalid
__ZL12vec2_invalid
__ZL12vec2_invalid
__ZL12vec2_invalid
__ZL12vec2_invalid
__ZL12vec2_invalid
__ZL12vec2_invalid
__ZL12vec2_invalid
__ZL12vec2_invalid
__ZL12vec2_invalid
__ZL12vec2_invalid
__ZL12vec2_invalid
__ZL12vec2_invalid
__ZL12vec2_invalid
__ZL12vec2_invalid
__ZL12vec2_invalid
__ZL12vec2_invalid
__ZL12vec2_invalid
__ZL12vec2_invalid
__ZL12vec2_invalid
__ZL12vec2_invalid
__ZL12vec2_invalid
__ZL12vec2_invalid
__ZL12vec2_invalid
__ZL12vec2_invalid
__ZL12vec2_invalid
__ZL12vec2_invalid
__ZL12vec2_invalid
__ZL12vec2_invalid
__ZL12vec2_invalid
__ZL12vec2_invalid
__ZL12vec2_invalid
__ZL12vec2_invalid
__ZL12vec2_invalid
__ZL12vec2_invalid
__ZL12vec2_invalid
__ZL12vec2_invalid
__ZL12vec2_invalid
__ZL12vec2_invalid
__ZL12vec2_invalid
__ZL12vec2_invalid
__ZL12vec2_invalid
__ZL12vec2_invalid
__ZL12vec2_invalid
__ZL12vec2_invalid
__ZL12vec2_invalid
__ZL12vec2_invalid
__ZL12vec2_invalid
__ZL12vec2_invalid
__ZL12vec2_invalid
__ZL12vec2_invalid
__ZL12vec2_invalid
__ZL12vec2_invalid
__ZL12vec2_invalid
__ZL12vec2_invalid
__ZL12vec2_invalid
__ZL12vec2_invalid
__ZL12vec2_invalid
__ZL12vec2_invalid
__ZL12vec2_invalid
__ZL12vec2_invalid
__ZL12vec2_invalid
__ZL12vec2_invalid
__ZL12vec2_invalid
__ZL12vec2_invalid
__ZL12vec2_invalid
__ZL12vec2_invalid
__ZL12vec2_invalid
__ZL12vec2_invalid
__ZL12vec2_invalid
__ZL12vec2_invalid
__ZL12vec2_invalid
__ZL12vec2_invalid
__ZL12vec2_invalid
__ZL12vec2_invalid
__ZL12vec2_invalid
__ZL12vec2_invalid
__ZL12vec2_invalid
__ZL12vec2_invalid
__ZL12vec2_invalid
__ZL12vec2_invalid
__ZL12vec2_invalid
__ZL12vec2_invalid
__ZL12vec2_invalid
__ZL12vec2_invalid
__ZL12vec2_invalid
__ZL12vec2_invalid
__ZL12vec2_invalid
__ZL12vec2_invalid
__ZL12vec2_invalid
__ZL12vec2_invalid
__ZL12vec2_invalid
__ZL12vec2_invalid
__ZL12vec2_invalid
__ZL12vec2_invalid
__ZL12vec2_invalid
__ZL12vec2_invalid
__ZL12vec2_invalid
__ZL12vec2_invalid
__ZL12vec2_invalid
__ZL12vec2_invalid
__ZL12vec2_invalid
__ZL12vec2_invalid
__ZL12vec2_invalid
__ZL12vec2_invalid
__ZL12vec2_invalid
__ZL12vec2_invalid
__ZL12vec2_invalid
__ZL12vec2_invalid
__ZL12vec2_invalid
__ZL12vec2_invalid
__ZL12vec2_invalid
__ZL12vec2_invalid
__ZL12vec2_invalid
__ZL12vec2_invalid
__ZL12vec2_invalid
__ZL12vec2_invalid
__ZL12vec2_invalid
__ZL12vec2_invalid
__ZL12vec2_invalid
__ZL12vec2_invalid
__ZL12vec2_invalid
__ZL12vec2_invalid
__ZL12vec2_invalid
__ZL12vec2_invalid
__ZL12vec2_invalid
__ZL12vec2_invalid
__ZL12vec2_invalid
__ZL12vec2_invalid
__ZL12vec2_invalid
__ZL12vec2_invalid
__ZL12vec2_invalid
__ZL12vec2_invalid
__ZL12vec2_invalid
__ZL12vec2_invalid
__ZL12vec2_invalid
__ZL12vec2_invalid
__ZL12vec2_invalid
__ZL12vec2_invalid
__ZL12vec2_invalid
__ZL12vec2_invalid
__ZL12vec2_invalid
__ZL12vec4_invalid
__ZL12vec4_invalid
__ZL12vec4_invalid
__ZL12vec4_invalid
__ZL12vec4_invalid
__ZL12vec4_invalid
__ZL12vec4_invalid
__ZL12vec4_invalid
__ZL12vec4_invalid
__ZL12vec4_invalid
__ZL12vec4_invalid
__ZL12vec4_invalid
__ZL12vec4_invalid
__ZL12vec4_invalid
__ZL12vec4_invalid
__ZL12vec4_invalid
__ZL12vec4_invalid
__ZL12vec4_invalid
__ZL12vec4_invalid
__ZL12vec4_invalid
__ZL12vec4_invalid
__ZL12vec4_invalid
__ZL12vec4_invalid
__ZL12vec4_invalid
__ZL12vec4_invalid
__ZL12vec4_invalid
__ZL12vec4_invalid
__ZL12vec4_invalid
__ZL12vec4_invalid
__ZL12vec4_invalid
__ZL12vec4_invalid
__ZL12vec4_invalid
__ZL12vec4_invalid
__ZL12vec4_invalid
__ZL12vec4_invalid
__ZL12vec4_invalid
__ZL12vec4_invalid
__ZL12vec4_invalid
__ZL12vec4_invalid
__ZL12vec4_invalid
__ZL12vec4_invalid
__ZL12vec4_invalid
__ZL12vec4_invalid
__ZL12vec4_invalid
__ZL12vec4_invalid
__ZL12vec4_invalid
__ZL12vec4_invalid
__ZL12vec4_invalid
__ZL12vec4_invalid
__ZL12vec4_invalid
__ZL12vec4_invalid
__ZL12vec4_invalid
__ZL12vec4_invalid
__ZL12vec4_invalid
__ZL12vec4_invalid
__ZL12vec4_invalid
__ZL12vec4_invalid
__ZL12vec4_invalid
__ZL12vec4_invalid
__ZL12vec4_invalid
__ZL12vec4_invalid
__ZL12vec4_invalid
__ZL12vec4_invalid
__ZL12vec4_invalid
__ZL12vec4_invalid
__ZL12vec4_invalid
__ZL12vec4_invalid
__ZL12vec4_invalid
__ZL12vec4_invalid
__ZL12vec4_invalid
__ZL12vec4_invalid
__ZL12vec4_invalid
__ZL12vec4_invalid
__ZL12vec4_invalid
__ZL12vec4_invalid
__ZL12vec4_invalid
__ZL12vec4_invalid
__ZL12vec4_invalid
__ZL12vec4_invalid
__ZL12vec4_invalid
__ZL12vec4_invalid
__ZL12vec4_invalid
__ZL12vec4_invalid
__ZL12vec4_invalid
__ZL12vec4_invalid
__ZL12vec4_invalid
__ZL12vec4_invalid
__ZL12vec4_invalid
__ZL12vec4_invalid
__ZL12vec4_invalid
__ZL12vec4_invalid
__ZL12vec4_invalid
__ZL12vec4_invalid
__ZL12vec4_invalid
__ZL12vec4_invalid
__ZL12vec4_invalid
__ZL12vec4_invalid
__ZL12vec4_invalid
__ZL12vec4_invalid
__ZL12vec4_invalid
__ZL12vec4_invalid
__ZL12vec4_invalid
__ZL12vec4_invalid
__ZL12vec4_invalid
__ZL12vec4_invalid
__ZL12vec4_invalid
__ZL12vec4_invalid
__ZL12vec4_invalid
__ZL12vec4_invalid
__ZL12vec4_invalid
__ZL12vec4_invalid
__ZL12vec4_invalid
__ZL12vec4_invalid
__ZL12vec4_invalid
__ZL12vec4_invalid
__ZL12vec4_invalid
__ZL12vec4_invalid
__ZL12vec4_invalid
__ZL12vec4_invalid
__ZL12vec4_invalid
__ZL12vec4_invalid
__ZL12vec4_invalid
__ZL12vec4_invalid
__ZL12vec4_invalid
__ZL12vec4_invalid
__ZL12vec4_invalid
__ZL12vec4_invalid
__ZL12vec4_invalid
__ZL12vec4_invalid
__ZL12vprof_parent
__ZL13AddRecvTableRP9SendTablePP9RecvTableRi
__ZL13AudioCallbackPvP16OpaqueAudioQueueP16AudioQueueBuffer
__ZL13CM_TestInLeafP11TraceInfo_ti
__ZL13Create_Buttonv
__ZL13Create_Sliderv
__ZL13LastSpikeTime
__ZL13MarkSmallNodeP7mnode_t
__ZL13R_DecalShoot_P9IMaterialiPK7model_tRK6VectorPS5_iRK9color32_sS7_Pv
__ZL13SV_PackEntityiP7edict_tP11ServerClassP14CFrameSnapshot
__ZL13alias_command
__ZL13banid_command
__ZL13boolconverter
__ZL13buildcubemapsRK8CCommand
__ZL13cl_fullupdateRK8CCommand
__ZL13cl_showevents
__ZL13compress_dataP20jpeg_compress_structPPPh
__ZL13con_timestamp
__ZL13current_skill
__ZL13demo_gototickRK8CCommand
__ZL13demos_command
__ZL13dump_buffer_eP20huff_entropy_encoder
__ZL13dump_buffer_sP13working_state
__ZL13dump_x360_cfgRK8CCommand
__ZL13dumplongticksRK8CCommand
__ZL13endshowbudget
__ZL13flush_command
__ZL13fontconverter
__ZL13g_BugReporter
__ZL13g_ConVarFlags
__ZL13g_InitTracker
__ZL13g_LastMixTime
__ZL13g_Menu_Helper
__ZL13g_ModelLoader
__ZL13g_PreserveDSP
__ZL13g_ShaderDebug
__ZL13g_SideVertMul
__ZL13g_SpewHistory
__ZL13g_TerrainList
__ZL13g_VoiceWriter
__ZL13g_pVProfPanel
__ZL13g_pchSkipName
__ZL13g_vox_isector
__ZL13g_warn_enable
__ZL13initial_setupP20jpeg_compress_structi
__ZL13mat_crosshairRK8CCommand
__ZL13mem_dumpstats
__ZL13memory_statusRK8CCommand
__ZL13mm_minplayers
__ZL13movie_fixwaveRK8CCommand
__ZL13net_dedicated
__ZL13net_showpeaks
__ZL13net_splitrate
__ZL13out_of_memoryP18jpeg_common_structi
__ZL13pause_command
__ZL13plugin_unloadRK8CCommand
__ZL13r_cleardecalsRK8CCommand
__ZL13r_drawtopview
__ZL13r_fastzreject
__ZL13r_lightinterp
__ZL13reduce_scriptP20jpeg_compress_struct
__ZL13retry_command
__ZL13rgb_ycc_startP20jpeg_compress_struct
__ZL13s_EmptyConVar
__ZL13s_Matchmaking
__ZL13s_ModelRender
__ZL13s_NetChannels
__ZL13s_ToolBSPTree
__ZL13s_bAllow3DNow
__ZL13s_bBenchframe
__ZL13s_bMMXEnabled
__ZL13s_bRegistered
__ZL13s_bSSEEnabled
__ZL13s_pVoxelColor
__ZL13self_destructP18jpeg_common_struct
__ZL13sendMTFValuesP6EState
__ZL13spike_command
__ZL13sv_deltaprint
__ZL13sv_netspike_fRK8CCommand
__ZL13sv_redirected
__ZL13sv_redirectto
__ZL13sv_voicecodec
__ZL13toggleconsole
__ZL13tv_deltacache
__ZL13tv_maxclients
__ZL13tv_relayvoice
__ZL13tv_stoprecordRK8CCommand
__ZL13users_command
__ZL13vgui_drawtree
__ZL13vprof_command
__ZL13vprof_on_Implv
__ZL13vprof_verbose
__ZL13vtune_command
__ZL13xload_command
__ZL13xsave_command
__ZL14AddPlaneToListR10CUtlVectorI8cplane_t10CUtlMemoryIS0_iEERK6Vectorfi
__ZL14CCPairLessFuncRK6ccpairS1_
__ZL14Create_Dividerv
__ZL14Create_MenuBarv
__ZL14DrawPointLightRK6Vectorf
__ZL14FmtCommaNumberPcj
__ZL14LastSpikeFrame
__ZL14add_huff_tableP20jpeg_compress_structPP9JHUFF_TBLPKhS5_
__ZL14bSaveDrawBeams
__ZL14cl_allowupload
__ZL14cl_cmdrate_var
__ZL14cl_jpegquality
__ZL14cl_snapshotnum
__ZL14colorconverter
__ZL14con_drawnotify
__ZL14con_notifytime
__ZL14default_bzfreePvS_
__ZL14demo_avellimit
__ZL14demo_timescaleRK8CCommand
__ZL14emit_ac_symbolP20huff_entropy_encoderii
__ZL14emit_dc_symbolP20huff_entropy_encoderii
__ZL14emit_jfif_app0P20jpeg_compress_struct
__ZL14emit_restart_eP20huff_entropy_encoderi
__ZL14emit_restart_sP13working_statei
__ZL14endvoicerecord
__ZL14envmap_command
__ZL14error_sign_lut
__ZL14escape_command
__ZL14floatconverter
__ZL14format_messageP18jpeg_common_structPc
__ZL14gFakePlaneType
__ZL14g_AreaCullInfo
__ZL14g_DebugOverlay
__ZL14g_EstFrameTime
__ZL14g_GameLumpDict
__ZL14g_Label_Helper
__ZL14g_Panel_Helper
__ZL14g_SentenceFile
__ZL14g_TriInfos_5x5
__ZL14g_TriInfos_9x9
__ZL14g_VertInfo_5x5
__ZL14g_VertInfo_9x9
__ZL14g_VisibleAreas
__ZL14g_fColorPrintf
__ZL14g_fVprofOnByUI
__ZL14g_pBudgetPanel
__ZL14g_pEncodeCodec
__ZL14g_pVoiceRecord
__ZL14g_sv_pure_mode
__ZL14host_checkheap
__ZL14host_hunklevel
__ZL14int_downsampleP20jpeg_compress_structP19jpeg_component_infoPPhS4_
__ZL14kickid_command
__ZL14lineartoscreen
__ZL14listid_command
__ZL14listip_command
__ZL14lockplayernameRK8CCommand
__ZL14logaddress_addRK8CCommand
__ZL14logaddress_delRK8CCommand
__ZL14map_background
__ZL14map_commentary
__ZL14memory_command
__ZL14net_drawslider
__ZL14net_showevents
__ZL14net_showsplits
__ZL14net_udp_rcvbuf
__ZL14output_messageP18jpeg_common_struct
__ZL14p_intconverter
__ZL14per_scan_setupP20jpeg_compress_struct
__ZL14plugin_unpauseRK8CCommand
__ZL14prop_crosshair
__ZL14r_ambientboost
__ZL14r_drawentities
__ZL14r_itemblinkmax
__ZL14r_lightaverage
__ZL14r_sse2_command
__ZL14record_command
__ZL14reload_command
__ZL14rpt_vprof_time
__ZL14s_EngineReplay
__ZL14s_MapLumpFiles
__ZL14s_PartitionMax
__ZL14s_PartitionMin
__ZL14s_Steam3Client
__ZL14s_Steam3Server
__ZL14s_SteamAppInfo
__ZL14s_bIsDedicated
__ZL14s_bSSE2Enabled
__ZL14s_pVertexColor
__ZL14sep_downsampleP20jpeg_compress_structPPPhjS3_j
__ZL14snd_buildcacheRK8CCommand
__ZL14start_iMCU_rowP20jpeg_compress_struct
__ZL14startshowvprof
__ZL14status_command
__ZL14stb__QuantGTab
__ZL14sv_allowupload
__ZL14sv_consistency
__ZL14sv_dump_edictsRK8CCommand
__ZL14sv_log_onefile
__ZL14sv_maxroutable
__ZL14sv_voiceenable
__ZL14systemlinkport
__ZL14toggle_command
__ZL14tv_msg_command
__ZL14unbind_command
__ZL14violence_agibs
__ZL14violence_hgibs
__ZL14vprof_counters
__ZL14vprof_off_Implv
__ZL15AutoSave_Silentb
__ZL15CalcSphereColorP12SphereCalc_tff
__ZL15Create_MenuItemv
__ZL15Create_RichTextv
__ZL15Create_TreeViewv
__ZL15DefaultSortFuncP9KeyValuesS0_
__ZL15DefaultSortFuncPN4vgui9ListPanelERKNS_13ListPanelItemES4_
__ZL15DrawLightSpriteP13dworldlight_tf
__ZL15HandleEngineKeyRK12InputEvent_t
__ZL15InitPowerInfo_RP10CPowerInfoiRK10CVertIndexS3_S3_S3_S3_S3_i
__ZL15WatchDogHandlerv
__ZL15async_serialize
__ZL15cache_print_lruRK8CCommand
__ZL15cl_precacheinfoRK8CCommand
__ZL15cl_snapshotname
__ZL15cl_view_command
__ZL15cl_voice_filter
__ZL15compress_outputP20jpeg_compress_structPPPh
__ZL15con_filter_text
__ZL15connect_command
__ZL15default_bzallocPvii
__ZL15demo_setendtickRK8CCommand
__ZL15dump_x360_savesRK8CCommand
__ZL15emit_pseudo_sosP20jpeg_compress_struct
__ZL15encode_mcu_huffP20jpeg_compress_structPPA64_s
__ZL15extra_pool_slop
__ZL15first_pool_slop
__ZL15g_Button_Helper
__ZL15g_CameraTexture
__ZL15g_CvarUtilities
__ZL15g_DTISendTables
__ZL15g_EngineVGuiImp
__ZL15g_GlobalCounter
__ZL15g_PowerInfo_5x5
__ZL15g_PowerInfo_9x9
__ZL15g_ScriptSymbols
__ZL15g_SideVerts_5x5
__ZL15g_SideVerts_9x9
__ZL15g_Slider_Helper
__ZL15g_SoundMessages
__ZL15g_VEngineServer
__ZL15g_VProfRecorder
__ZL15g_bInColorPrint
__ZL15g_fIsDebugPrint
__ZL15g_nRandomValues
__ZL15g_nStaticDecals
__ZL15g_nVisibleAreas
__ZL15g_pfnDeferredOp
__ZL15gameui_activateRK8CCommand
__ZL15h2v1_downsampleP20jpeg_compress_structP19jpeg_component_infoPPhS4_
__ZL15h2v2_downsampleP20jpeg_compress_structP19jpeg_component_infoPPhS4_
__ZL15handle_compressP9bz_stream
__ZL15host_runofftimeRK8CCommand
__ZL15htest_one_blockP20jpeg_compress_structPsiPlS2_
__ZL15key_findbindingRK8CCommand
__ZL15kickall_command
__ZL15light_crosshair
__ZL15lineartotexture
__ZL15logaddress_listRK8CCommand
__ZL15mat_savechangesRK8CCommand
__ZL15matchmakingport
__ZL15mem_eat_command
__ZL15mm_session_infoRK8CCommand
__ZL15multvar_command
__ZL15nSaveLightStyle
__ZL15net_maxfilesize
__ZL15net_multiplayer
__ZL15progress_enable
__ZL15r_3dnow_command
__ZL15r_ambientfactor
__ZL15r_dlightvisible
__ZL15r_drawlightinfo
__ZL15r_itemblinkrate
__ZL15r_maxmodeldecal
__ZL15r_maxnewsamples
__ZL15r_maxsampledist
__ZL15r_minnewsamples
__ZL15r_occlusionspew
__ZL15recompute_speed
__ZL15reset_error_mgrP18jpeg_common_struct
__ZL15restart_command
__ZL15rgb_ycc_convertP20jpeg_compress_structPPhPS2_ji
__ZL15s_CommandBuffer
__ZL15s_DecalSurfaces
__ZL15s_MapFileHandle
__ZL15s_ShaderConvars.0
__ZL15s_ShaderConvars.1
__ZL15s_ShaderConvars.2
__ZL15s_StaticPropMgr
__ZL15s_TooltipWindow
__ZL15s_VEngineClient
__ZL15s_bDoneTrapping
__ZL15s_bInDMXContext
__ZL15s_bIsPortalDemo
__ZL15s_bIsRavenHolmn
__ZL15s_lastsoundtime
__ZL15s_pDeltaIndices
__ZL15s_pDynamicLight
__ZL15save_asyncdelay
__ZL15setinfo_command
__ZL15skyboxMaterials
__ZL15snd_async_flushRK8CCommand
__ZL15start_pass_coefP20jpeg_compress_struct10J_BUF_MODE
__ZL15start_pass_huffP20jpeg_compress_structi
__ZL15start_pass_mainP20jpeg_compress_struct10J_BUF_MODE
__ZL15start_pass_prepP20jpeg_compress_struct10J_BUF_MODE
__ZL15startshowbudget
__ZL15stb__QuantRBTab
__ZL15std_huff_tablesP20jpeg_compress_struct
__ZL15steamapicontext
__ZL15stringconverter
__ZL15sv_forcepreload
__ZL15sv_precacheinfoRK8CCommand
__ZL15texturetolinear
__ZL15tv_dispatchmode
__ZL15tv_stop_command
__ZL15unpause_command
__ZL15validate_scriptP20jpeg_compress_struct
__ZL15version_command
__ZL15violence_ablood
__ZL15violence_hblood
__ZL15voice_overdrive
__ZL15vprof_cachemissRK8CCommand
__ZL15writeid_command
__ZL15writeip_command
__ZL16Create_ListPanelv
__ZL16Create_TextEntryv
__ZL16FindCommonPrefixPKc
__ZL16FindPlayerByNameP11CClientInfoPKc
__ZL16LzmaDec_TryDummyPK8CLzmaDecPKhm
__ZL16PerfMark_command
__ZL16SaveFileLessFuncRK10CUtlSymbolS1_
__ZL16SaveTextureImagePKc
__ZL16TheDownloadCache
__ZL16UseDebugMaterialPKcP8ITextureP20CAutoMatSysDebugMode
__ZL16VideoModeComparePKvS0_
__ZL16_restart_command
__ZL16autosave_command
__ZL16bSaveMatSpecular
__ZL16bind_mac_command
__ZL16cl_allowdownload
__ZL16cl_connectmethod
__ZL16cl_ignorepackets
__ZL16currentloadedsky
__ZL16cvarlist_command
__ZL16demo_interplimit
__ZL16demo_togglepauseRK8CCommand
__ZL16demolist_command
__ZL16devshots_nextmap
__ZL16dumpstringtablesRK8CCommand
__ZL16emit_adobe_app14P20jpeg_compress_struct
__ZL16encode_one_blockP13working_statePsiP13c_derived_tblS3_
__ZL16endmovie_command
__ZL16finish_pass_huffP20jpeg_compress_struct
__ZL16fps_max_callbackP7IConVarPKcf
__ZL16fs_warning_levelRK8CCommand
__ZL16g_ChildVerts_5x5
__ZL16g_ChildVerts_9x9
__ZL16g_DecalAllocator
__ZL16g_DecalVertCache
__ZL16g_Divider_Helper
__ZL16g_ErrorEdges_5x5
__ZL16g_ErrorEdges_9x9
__ZL16g_FrameMissCount
__ZL16g_FullFrameDepth
__ZL16g_MakingDevShots
__ZL16g_MenuBar_Helper
__ZL16g_ServerDTITimer
__ZL16g_TriInfos_17x17
__ZL16g_VertInfo_17x17
__ZL16g_VirtualTerrain
__ZL16g_localBumpBasis
__ZL16g_nDynamicDecals
__ZL16g_pStaticLZMABuf
__ZL16g_szDefferedArg1
__ZL16g_szDefferedArg2
__ZL16gs_hReplayModule
__ZL16host_writeconfigRK8CCommand
__ZL16init_destinationP20jpeg_compress_struct
__ZL16listdemo_command
__ZL16listener_forward
__ZL16map_edit_command
__ZL16mat_edit_command
__ZL16mat_forcedynamic
__ZL16mat_info_command
__ZL16mat_monitorgamma
__ZL16mat_setvideomodeRK8CCommand
__ZL16mat_softwareskin
__ZL16mat_texture_list
__ZL16mem_dump_command
__ZL16mem_test_command
__ZL16minisave_command
__ZL16mm_stats_command
__ZL16mod_touchalldata
__ZL16nOldBloomDisable
__ZL16nOldOcclusionVal
__ZL16net_maxcleartime
__ZL16net_showudp_wire
__ZL16net_splitpackets
__ZL16nextdemo_command
__ZL16p_floatconverter
__ZL16playdemo_command
__ZL16plugin_pause_allRK8CCommand
__ZL16pre_process_dataP20jpeg_compress_structPPhPjjPS2_S3_j
__ZL16prepare_for_passP20jpeg_compress_struct
__ZL16r_ShowViewerArea
__ZL16r_drawfuncdetail
__ZL16r_drawlightcache
__ZL16r_drawlightcache
__ZL16r_dscale_basefov
__ZL16r_dscale_fardist
__ZL16r_flashlightclip
__ZL16r_overlayfademax
__ZL16r_overlayfademin
__ZL16r_portalsopenall
__ZL16r_printdecalinfo
__ZL16r_showenvcubemap
__ZL16redirect_command
__ZL16removeid_command
__ZL16removeip_command
__ZL16rgb_gray_convertP20jpeg_compress_structPPhPS2_ji
__ZL16s_DownloadSystem
__ZL16s_LoaderProgress
__ZL16s_MDLCacheNotify
__ZL16s_PendingSockets
__ZL16s_SavedModelInfo
__ZL16s_TempVertMemory
__ZL16s_VProfListeners
__ZL16s_bBuiltBreakSet
__ZL16s_bExitWhenEmpty
__ZL16s_bSortAscending
__ZL16s_iNetSpikeValue
__ZL16s_nDLLIdentifier
__ZL16s_nDesiredFPSMax
__ZL16s_nTempVertCount
__ZL16s_pAttributeSize
__ZL16s_pLightVecModel
__ZL16s_pSourceIndices
__ZL16setpause_command
__ZL16startvoicerecord
__ZL16stopdemo_command
__ZL16sv_allowdownload
__ZL16term_destinationP20jpeg_compress_struct
__ZL16timedemo_command
__ZL16tv_chatgroupsize
__ZL16tv_chattimelimit
__ZL16tv_relay_command
__ZL16tv_relaypassword
__ZL16tv_retry_command
__ZL16vgui_togglepanelRK8CCommand
__ZL16vprof_expand_allRK8CCommand
__ZL16vprof_graphwidth
__ZL16vprof_on_command
__ZL16vprof_reset_Implv
__ZL17AscendingSortFuncPKvS0_
__ZL17Create_GraphPanelv
__ZL17Create_ImagePanelv
__ZL17Create_MenuButtonv
__ZL17DecalDepthComparePK11decallist_tS1_
__ZL17DrawExtrusionFaceRK6VectorS1_PS_ii5ColorR12CMeshBuilder
__ZL17IsSourceModLoadedv
__ZL17KilobytesSortFuncPN4vgui9ListPanelERKNS_13ListPanelItemES4_
__ZL17MapList_CountMapsPKcbRi
__ZL17R_FlowThroughAreaiRK6VectorPK11CPortalRectPK17VisOverrideData_tPf
__ZL17VGui_RecursePanelR10CUtlVectorIj10CUtlMemoryIjiEEiijb
__ZL17_autosave_command
__ZL17add_pair_to_blockP6EState
__ZL17autosavedangerousRK8CCommand
__ZL17bench_end_command
__ZL17bzopen_or_bzdopenPKciS0_i
__ZL17cached_r_avglight
__ZL17cl_downloadfilter
__ZL17cl_updaterate_var
__ZL17cmyk_ycck_convertP20jpeg_compress_structPPhPS2_ji
__ZL17colorcorrectionui
__ZL17con_filter_enable
__ZL17encode_mcu_gatherP20jpeg_compress_structPPA64_s
__ZL17expand_right_edgePPhijj
__ZL17findflags_command
__ZL17forward_DCT_floatP20jpeg_compress_structP19jpeg_component_infoPPhPA64_sjjj
__ZL17fs_printopenfilesRK8CCommand
__ZL17g_ComboBox_Helper
__ZL17g_DecalClipVerts2
__ZL17g_DragDropCapture
__ZL17g_FileSystemError
__ZL17g_ImageFormatInfo
__ZL17g_MenuItem_Helper
__ZL17g_ModelInfoClient
__ZL17g_ModelInfoServer
__ZL17g_OcclusionSystem
__ZL17g_PowerInfo_17x17
__ZL17g_RichText_Helper
__ZL17g_SideVertCorners
__ZL17g_SideVerts_17x17
__ZL17g_SteamAPIContext
__ZL17g_TeenyFBTexture0
__ZL17g_TeenyFBTexture1
__ZL17g_TeenyFBTexture2
__ZL17g_TimeLastMemTest
__ZL17g_TimerLessBudget
__ZL17g_TreeView_Helper
__ZL17g_URLLabel_Helper
__ZL17g_UploadGameStats
__ZL17g_VEngineServer22
__ZL17g_bFirstHookTimer
__ZL17g_bSaveInProgress
__ZL17g_bVoiceRecording
__ZL17g_nSaveQueueState
__ZL17g_rgDemoTypeNames
__ZL17g_snd_trace_count
__ZL17g_syncReportLevel
__ZL17grayscale_convertP20jpeg_compress_structPPhPS2_ji
__ZL17host_timer_reportRK8CCommand
__ZL17key_listboundkeysRK8CCommand
__ZL17logaddress_delallRK8CCommand
__ZL17mat_configcurrentRK8CCommand
__ZL17mat_drawTitleSafe
__ZL17mat_enable_vrmodeRK8CCommand
__ZL17mem_periodicdumps
__ZL17mm_max_spectators
__ZL17mm_select_sessionRK8CCommand
__ZL17net_chokeloopback
__ZL17net_compressvoice
__ZL17net_maxpacketdrop
__ZL17net_showfragments
__ZL17net_start_command
__ZL17orig_demo_message
__ZL17r_ambientfraction
__ZL17r_drawbatchdecals
__ZL17r_drawclipbrushes
__ZL17r_drawstaticprops
__ZL17r_dscale_farscale
__ZL17r_dscale_neardist
__ZL17r_fastzrejectdisp
__ZL17r_lightcachemodel
__ZL17r_partition_level
__ZL17r_portalscloseall
__ZL17r_shadowwireframe
__ZL17recordingCallbackPvPmPK14AudioTimeStampmmP15AudioBufferList
__ZL17s_DefaultAccessor
__ZL17s_DownloadManager
__ZL17s_iDuplicateIndex
__ZL17s_nLastSortColumn
__ZL17s_nMapEdgesLoaded
__ZL17s_pAllStaticProps
__ZL17s_pBoxFaceIndices
__ZL17save_finish_asyncRK8CCommand
__ZL17snd_async_showmemRK8CCommand
__ZL17soundfade_command
__ZL17stuffcmds_command
__ZL17sv_ShutDownCancelv
__ZL17sv_maxuptimelimit
__ZL17sv_minuptimelimit
__ZL17timedemo_runcount
__ZL17tv_name_changed_fP7IConVarPKcf
__ZL17tv_overridemaster
__ZL17tv_record_command
__ZL17tv_status_command
__ZL17unbindall_command
__ZL17voice_writevoices
__ZL17vprof_dump_spikes
__ZL17vprof_graphheight
__ZL17vprof_off_command
__ZL17vprof_record_stopRK8CCommand
__ZL17vprof_remote_stopRK8CCommand
__ZL17vprof_reset_peaksRK8CCommand
__ZL17vprof_siblingnext
__ZL17vprof_siblingprev
__ZL17vprof_vtune_groupRK8CCommand
__ZL17vprof_warningmsec
__ZL17write_file_headerP20jpeg_compress_struct
__ZL17write_marker_byteP20jpeg_compress_structi
__ZL17write_scan_headerP20jpeg_compress_struct
__ZL17write_tables_onlyP20jpeg_compress_struct
__ZL18BindToggle_command
__ZL18BuildSingleCubemapPKcRK6VectoribS0_P5IVTex
__ZL18CreateTempFilenameR14TempFilename_tPKcS2_b
__ZL18Create_CheckButtonv
__ZL18Create_ProgressBarv
__ZL18Create_RadioButtonv
__ZL18OpenSocketInternaliiiPKcibi
__ZL18ReadVideoConfigIntPKcPi
__ZL18ReadVideoConfigIntPKci
__ZL18RenderTexturedRectPN4vgui5PanelEP9IMaterialiiiiii
__ZL18ReslistLogLessFuncRK10CUtlStringS1_
__ZL18SV_CheatsChanged_fP7IConVarPKcf
__ZL18_autosavedangerousRK8CCommand
__ZL18access_virt_barrayP18jpeg_common_structP20jvirt_barray_controljji
__ZL18access_virt_sarrayP18jpeg_common_structP20jvirt_sarray_controljji
__ZL18benchframe_command
__ZL18cached_r_radiosity
__ZL18cl_showdemooverlay
__ZL18demo_pause_command
__ZL18disconnect_command
__ZL18emit_buffered_bitsP20huff_entropy_encoderPcj
__ZL18expand_bottom_edgePPhjii
__ZL18finish_pass_gatherP20jpeg_compress_struct
__ZL18finish_pass_masterP20jpeg_compress_struct
__ZL18g_ChildVerts_17x17
__ZL18g_ErrorEdges_17x17
__ZL18g_ExecutionMarkers
__ZL18g_FileAssociations
__ZL18g_GameLumpFilename
__ZL18g_ListPanel_Helper
__ZL18g_ScrollBar_Helper
__ZL18g_SpatialPartition
__ZL18g_TextEntry_Helper
__ZL18g_VideoConfigMutex
__ZL18g_iQueryCvarCookie
__ZL18g_nNewActionNumber
__ZL18g_nTotalEntChanges
__ZL18gameui_allowescapeRK8CCommand
__ZL18k_szDownloadPathID
__ZL18killserver_command
__ZL18lightprobe_command
__ZL18listmodels_command
__ZL18mat_crosshair_editRK8CCommand
__ZL18maxplayers_command
__ZL18mm_message_command
__ZL18mod_forcetouchdata
__ZL18mod_load_showstall
__ZL18namelockid_command
__ZL18net_chan_stats_lru
__ZL18net_status_command
__ZL18plugin_unpause_allRK8CCommand
__ZL18r_colorstaticprops
__ZL18r_decalstaticprops
__ZL18r_dscale_nearscale
__ZL18r_flashlightnodraw
__ZL18r_flashlightrender
__ZL18r_frustumcullworld
__ZL18r_lightcachecenter
__ZL18r_occludermincount
__ZL18r_overlaywireframe
__ZL18r_printdecalinfo_fv
__ZL18s_ClientDemoPlayer
__ZL18s_DispShadowDecals
__ZL18s_GameEventManager
__ZL18s_PVSInfoAllocator
__ZL18s_StartDirContexts
__ZL18s_debug_bits_start
__ZL18s_debug_info_shown
__ZL18s_pRegistryConVars
__ZL18s_pVProfGraphPanel
__ZL18s_queryRateChecker
__ZL18screenshot_command
__ZL18start_pass_fdctmgrP20jpeg_compress_struct
__ZL18startdemos_command
__ZL18startmovie_command
__ZL18sv_logfilecompress
__ZL18sv_lowedict_action
__ZL18sv_max_queries_sec
__ZL18sv_redirect_buffer
__ZL18sv_setsteamaccount
__ZL18sv_setsteamgroup_fP7IConVarPKcf
__ZL18sv_shutdown_cancel
__ZL18textureidconverter
__ZL18tv_clients_command
__ZL18tv_title_changed_fP7IConVarPKcf
__ZL18unbind_mac_command
__ZL18vprof_cachemiss_onRK8CCommand
__ZL18vprof_collapse_allRK8CCommand
__ZL18vprof_expand_groupRK8CCommand
__ZL18vprof_record_startRK8CCommand
__ZL18vprof_remote_startRK8CCommand
__ZL18write_file_trailerP20jpeg_compress_struct
__ZL18write_frame_headerP20jpeg_compress_struct
__ZL19BuildSpriteLoadNamePKcPciRb
__ZL19CEventInfo_LessFuncRKP10CEventInfoS2_
__ZL19CalcHemisphereColorP12SphereCalc_tff
__ZL19ClearNodeClientDataP10CVProfNode
__ZL19Create_ExpandButtonv
__ZL19Create_ToggleButtonv
__ZL19GenerateBoxVerticesRK6VectorRK6QAngleS1_S1_PS_
__ZL19LzmaDec_DecodeReal2P8CLzmaDecmPKh
__ZL19R_DecalMaterialSortP7decal_tP11msurface2_t
__ZL19SortAttributeByNamePKvS0_
__ZL19TakeCubemapSnapshotRK6VectorPKciib
__ZL19WriteVideoConfigIntPKci
__ZL19__g_CVEfx_singleton
__ZL19bench_start_command
__ZL19budget_toggle_groupRK8CCommand
__ZL19cache_print_command
__ZL19cache_print_summaryRK8CCommand
__ZL19cl_showents_command
__ZL19compress_first_passP20jpeg_compress_structPPPh
__ZL19con_filter_text_out
__ZL19configuration_table
__ZL19demo_recordcommands
__ZL19demo_resume_command
__ZL19devshots_screenshotRK8CCommand
__ZL19differences_command
__ZL19dumpsavedir_command
__ZL19empty_output_bufferP20jpeg_compress_struct
__ZL19encode_mcu_AC_firstP20jpeg_compress_structPPA64_s
__ZL19encode_mcu_AC_firstP20jpeg_compress_structPPA64_s
__ZL19encode_mcu_DC_firstP20jpeg_compress_structPPA64_s
__ZL19encode_mcu_DC_firstP20jpeg_compress_structPPA64_s
__ZL19fullsize_downsampleP20jpeg_compress_structP19jpeg_component_infoPPhS4_
__ZL19g_BitWriteMasksInit
__ZL19g_ChildNodeIndexMul
__ZL19g_DemoActionManager
__ZL19g_EdgeVisualization
__ZL19g_GraphPanel_Helper
__ZL19g_ImagePanel_Helper
__ZL19g_MenuButton_Helper
__ZL19g_MessageBox_Helper
__ZL19g_ModDirPermissions
__ZL19g_PartialChangeEnts
__ZL19g_bVoiceOverdriveOn
__ZL19g_flLastPerfRequest
__ZL19g_nTotalPropChanges
__ZL19g_pSentenceFileList
__ZL19g_pTextureListPanel
__ZL19g_szMapLoadOverride
__ZL19gameui_hide_command
__ZL19host_name_changed_fP7IConVarPKcf
__ZL19mem_compact_command
__ZL19mem_test_each_frame
__ZL19memory_diff_command
__ZL19memory_list_command
__ZL19memory_mark_command
__ZL19mod_dynamicloadspew
__ZL19net_chan_limit_msec
__ZL19net_chan_stats_dump
__ZL19net_compresspackets
__ZL19net_warningthrottle
__ZL19plugin_load_command
__ZL19pre_process_contextP20jpeg_compress_structPPhPjjPS2_S3_j
__ZL19r_eyeglintlodpixels
__ZL19r_flashlightscissor
__ZL19r_overlayfadeenable
__ZL19realize_virt_arraysP18jpeg_common_struct
__ZL19replay_record_voice
__ZL19request_virt_barrayP18jpeg_common_structiijjj
__ZL19request_virt_sarrayP18jpeg_common_structiijjj
__ZL19s_CheatCodeCommands
__ZL19s_EngineSoundClient
__ZL19s_EngineSoundServer
__ZL19s_EngineTraceClient
__ZL19s_EngineTraceServer
__ZL19s_nMapLoadRecursion
__ZL19s_oldsampleOutCount
__ZL19s_pDecalDestroyList
__ZL19s_pWireframeIgnoreZ
__ZL19s_static_p4_factory
__ZL19s_timeForceShutdown
__ZL19save_huddelayframes
__ZL19screenshot_internalRK8CCommand
__ZL19star_memory_command
__ZL19sv_cacheencodedents
__ZL19sv_enableoldqueries
__ZL19sv_max_connects_sec
__ZL19vprof_cachemiss_offRK8CCommand
__ZL19vprof_playback_stepRK8CCommand
__ZL19vprof_playback_stopRK8CCommand
__ZL19vprof_reset_command
__ZL19write_marker_headerP20jpeg_compress_structij
__ZL20ChannelVolComparatorPKvS0_
__ZL20ComputeLightmapColorP11msurface2_tiibR6Vector
__ZL20Create_EditablePanelv
__ZL20Create_ListViewPanelv
__ZL20DrawDebugInformationRK10CUtlVectorIP11msurface2_t10CUtlMemoryIS1_iEE
__ZL20EnumerateLeafInBox_RP7mnode_tR17EnumLeafBoxInfo_t
__ZL20ListFileNameSortFuncPN4vgui9ListPanelERKNS_13ListPanelItemES4_
__ZL20ListFileSizeSortFuncPN4vgui9ListPanelERKNS_13ListPanelItemES4_
__ZL20ListFileTypeSortFuncPN4vgui9ListPanelERKNS_13ListPanelItemES4_
__ZL20R_RecursiveWorldNodeP16CWorldRenderListP7mnode_ti
__ZL20RconAddressChanged_fP7IConVarPKcf
__ZL20SvTagsChangeCallbackP7IConVarPKcf
__ZL20Sys_TryInitSteamInfoPvR21SteamInfVersionInfo_tPKcS3_b
__ZL20_bugreporter_restartRK8CCommand
__ZL20audit_save_in_memoryRK8CCommand
__ZL20cached_r_worldlights
__ZL20cl_debug_player_perf
__ZL20cl_flushentitypacket
__ZL20demo_interpolateview
__ZL20demo_legacy_rollback
__ZL20encode_mcu_AC_refineP20jpeg_compress_structPPA64_s
__ZL20encode_mcu_AC_refineP20jpeg_compress_structPPA64_s
__ZL20encode_mcu_DC_refineP20jpeg_compress_structPPA64_s
__ZL20encode_mcu_DC_refineP20jpeg_compress_structPPA64_s
__ZL20flush_locked_command
__ZL20fog_enable_water_fog
__ZL20g_AsyncWaveDataCache
__ZL20g_BitBufErrorHandler
__ZL20g_BuildModeDialogMgr
__ZL20g_CheckButton_Helper
__ZL20g_CleanupSymbolTable
__ZL20g_ProgressBar_Helper
__ZL20g_ProjectionToOffset
__ZL20g_QueuedPacketSender
__ZL20g_RadioButton_Helper
__ZL20g_bConfigCfgExecuted
__ZL20g_bNeedPresetRestore
__ZL20g_pBudgetPanelShared
__ZL20g_pColorCorrectionUI
__ZL20g_pEntityReportPanel
__ZL20g_pServerDTIFilename
__ZL20g_unStaticLZMABufRef
__ZL20gameui_preventescapeRK8CCommand
__ZL20incrementvar_command
__ZL20mat_color_projection
__ZL20mat_powersavingsmode
__ZL20mem_vcollide_command
__ZL20mod_dynamicloadpause
__ZL20net_channels_command
__ZL20plugin_pause_command
__ZL20plugin_print_command
__ZL20posix_signal_handleri
__ZL20r_flashlightdrawclip
__ZL20s_ClientDemoRecorder
__ZL20s_CommandBufferMutex
__ZL20s_DispDecalFragments
__ZL20s_EngineClientReplay
__ZL20s_EngineRandomStream
__ZL20s_OrthographicCenter
__ZL20s_StudioRenderConfig
__ZL20s_VisualizationColor
__ZL20s_WingedTestEdgeList
__ZL20s_bUseVProjectBinDir
__ZL20s_connectRateChecker
__ZL20s_nMapSurfacesLoaded
__ZL20snd_dumpclientsoundsRK8CCommand
__ZL20sv_creationtickcheck
__ZL20sv_debugtempentities
__ZL20sv_instancebaselines
__ZL20sv_useexplicitdelete
__ZL20timedemoquit_command
__ZL20vgui_drawtree_bounds
__ZL20vgui_drawtree_freeze
__ZL20vgui_drawtree_hidden
__ZL20vprof_adddebuggroup1RK8CCommand
__ZL20vprof_cachemiss_Implv
__ZL20vprof_playback_startRK8CCommand
__ZL21CreateExecutionMarkerv
__ZL21Create_PanelListPanelv
__ZL21MapList_CheckPrintMapPKcS0_ibbS0_
__ZL21ProcessLightmapSampleRK27ProcessLightmapSampleData_tRK6VectorS4_S4_S4_iiii
__ZL21RconPasswordChanged_fP7IConVarPKcf
__ZL21StripWhitespaceWorkeriPwPbb
__ZL21VID_ProcessMovieFrameRK11MovieInfo_tbPKciiPh
__ZL21buildcubemaps_command
__ZL21cached_mat_fullbright
__ZL21cl_fullupdate_command
__ZL21create_context_bufferP20jpeg_compress_struct
__ZL21demo_gototick_command
__ZL21dump_x360_cfg_command
__ZL21dumplongticks_command
__ZL21g_EngineSoundServices
__ZL21g_ExpandButton_Helper
__ZL21g_FileSystemErrorMode
__ZL21g_FullFrameFBTexture0
__ZL21g_FullFrameFBTexture1
__ZL21g_FullFrameFBTexture2
__ZL21g_PowerOfTwoFBTexture
__ZL21g_SideVertCorners_5x5
__ZL21g_SideVertCorners_9x9
__ZL21g_ToggleButton_Helper
__ZL21g_bViewerInSolidSpace
__ZL21g_exec_CompletionFuncPKcPA64_c
__ZL21g_load_CompletionFuncPKcPA64_c
__ZL21g_pTextureBudgetPanel
__ZL21g_unStaticLZMABufSize
__ZL21host_ShowIPCCallCount
__ZL21mat_crosshair_command
__ZL21memory_status_command
__ZL21mod_dynamicmodeldebugRK8CCommand
__ZL21mod_dynamicunloadtime
__ZL21movie_fixwave_command
__ZL21net_disconnect_reason
__ZL21plugin_unload_command
__ZL21print_colorcorrection
__ZL21r_cleardecals_command
__ZL21r_flashlightculldepth
__ZL21r_flashlightdrawdepth
__ZL21r_modelwireframedecal
__ZL21r_proplightingpooling
__ZL21s_DispShadowFragments
__ZL21s_GameEventManagerOld
__ZL21s_LastFileLoadingFrom
__ZL21s_eTxListPanelRequest
__ZL21s_flIntervalStartTime
__ZL21s_iTooltipWindowCount
__ZL21s_nVisibleDLightCount
__ZL21s_pVertexColorIgnoreZ
__ZL21start_pass_downsampleP20jpeg_compress_struct
__ZL21stb__MatchColorsBlockPhS_i
__ZL21sv_logfilename_format
__ZL21sv_lowedict_threshold
__ZL21sv_max_queries_window
__ZL21sys_minidumpspewlines
__ZL21szSvNetSpikeUsageText
__ZL21tv_stoprecord_command
__ZL21vgui_drawtree_visible
__ZL21vprof_dump_groupnamesRK8CCommand
__ZL21vprof_dump_oninterval
__ZL21vprof_generate_reportRK8CCommand
__ZL22ConCommandBaseLessFuncRKPK14ConCommandBaseS3_
__ZL22ListBaseStringSortFuncPN4vgui9ListPanelERKNS_13ListPanelItemES4_PKc
__ZL22bugreporter_includebsp
__ZL22cl_always_flush_models
__ZL22cl_snapshot_subdirname
__ZL22demo_pauseatservertick
__ZL22demo_quitafterplayback
__ZL22demo_timescale_command
__ZL22error_coefficients_lut
__ZL22g_ColorCorrectionTools
__ZL22g_EditablePanel_Helper
__ZL22g_FrameSnapshotManager
__ZL22g_KeyValues2ErrorStack
__ZL22g_ListViewPanel_Helper
__ZL22g_OrientationRotations
__ZL22g_PowerInfoInitializer
__ZL22g_TempBudgetGroupSpace
__ZL22g_TotalServerDTICycles
__ZL22g_Vec3DispCollEpsilons
__ZL22g_bVoiceRecordStopping
__ZL22g_iLastReplacedDynamic
__ZL22g_pBlacklistedCommands
__ZL22g_vox_lastsectorupdate
__ZL22h2v2_smooth_downsampleP20jpeg_compress_structP19jpeg_component_infoPPhS4_
__ZL22jpeg_gen_optimal_tableP20jpeg_compress_structP9JHUFF_TBLPl
__ZL22jpeg_std_message_table
__ZL22lockplayername_command
__ZL22logaddress_add_command
__ZL22logaddress_del_command
__ZL22mat_crosshair_explorerRK8CCommand
__ZL22mat_texture_list_txlodRK8CCommand
__ZL22mat_texture_save_fontsRK8CCommand
__ZL22mod_offline_hdr_switch
__ZL22net_droponsendoverflow
__ZL22plugin_unpause_command
__ZL22r_drawtranslucentworld
__ZL22s_LocalNetworkBackdoor
__ZL22s_MaterialProxyFactory
__ZL22s_ResourcePreloadModel
__ZL22s_ResourcePreloadSound
__ZL22s_pBrushRenderOverride
__ZL22sdr_spew_level_changedP7IConVarPKcf
__ZL22select_scan_parametersP20jpeg_compress_struct
__ZL22snd_buildcache_command
__ZL22sv_dump_edicts_command
__ZL22sv_max_connects_window
__ZL22vgui_drawtree_panelptr
__ZL22vprof_dump_spikes_node
__ZL22vprof_playback_averageRK8CCommand
__ZL22vprof_reset_peaks_Implv
__ZL23CL_SoundMessageLessFuncRK11SoundInfo_tS1_
__ZL23CreateLightmapsFromDataP14CColorMeshData
__ZL23FnCreateCDemoActionZoomv
__ZL23InitPowerInfoTriInfos_RP10CPowerInfoRK10CVertIndexRP8CTriInfoii
__ZL23SDRCommandsAutocompletePKcPA64_c
__ZL23SV_ParallelSendSnapshotRP11CGameClient
__ZL23SetMasterServerKeyValueP16ISteamGameServerP7IConVar
__ZL23autosavedangerousissafeRK8CCommand
__ZL23bugreporter_uploadasync
__ZL23cache_print_lru_command
__ZL23cl_LocalNetworkBackdoor
__ZL23cl_playback_screenshots
__ZL23cl_precacheinfo_command
__ZL23demo_setendtick_command
__ZL23dt_UsePartialChangeEnts
__ZL23dump_x360_saves_command
__ZL23g_ChildNodeDependencies
__ZL23g_ExecutionMarkerStream
__ZL23g_Mathlib_GammaToLinear
__ZL23g_Mathlib_LinearToGamma
__ZL23g_PanelListPanel_Helper
__ZL23g_SideVertCorners_17x17
__ZL23g_SteamInfIDVersionInfo
__ZL23g_ToolFrameworkInternal
__ZL23g_fVprofCacheMissOnByUI
__ZL23g_flLastPeriodicMemDump
__ZL23g_rgDemoTimingTypeNames
__ZL23gameui_activate_command
__ZL23host_runofftime_command
__ZL23jpeg_make_c_derived_tblP20jpeg_compress_structiiPP13c_derived_tbl
__ZL23key_findbinding_command
__ZL23logaddress_list_command
__ZL23mat_force_tonemap_scale
__ZL23mat_monitorgamma_tv_exp
__ZL23mat_reset_rendertargetsRK8CCommand
__ZL23mat_savechanges_command
__ZL23mm_session_info_command
__ZL23mod_dynamicloadthrottle
__ZL23net_splitpacket_maxrate
__ZL23r_flashlightrenderworld
__ZL23r_flashlightupdatedepth
__ZL23r_renderoverlayfragment
__ZL23s_SaveRestoreFileSystem
__ZL23s_bActivateLightSprites
__ZL23s_bAllocatorInitialized
__ZL23s_bIsListenerUnderwater
__ZL23s_bMaterialsInitialized
__ZL23s_bSuppressRebindChecks
__ZL23s_fDemoRevealGameUITime
__ZL23s_pCurrentSortingColumn
__ZL23snd_async_flush_command
__ZL23std_luminance_quant_tbl
__ZL23sv_precacheinfo_command
__ZL23voice_overdrivefadetime
__ZL23vprof_cachemiss_command
__ZL23vprof_cachemiss_on_Implv
__ZL23vprof_playback_stepbackRK8CCommand
__ZL23vprof_report_oninterval
__ZL23vprof_unaccounted_limit
__ZL24AddWorldLightToLightCubeP13dworldlight_tP6VectorRKS1_f
__ZL24CopySendPropsToRecvPropsR10CUtlRBTreeI14MatchingProp_ttPFbRKS0_S2_E10CUtlMemoryI15UtlRBTreeNode_tIS0_tEtEERK10CUtlVectorIPK8SendPropS5_ISE_iEERSB_IPK8RecvPropS5_ISL_iEE
__ZL24Create_CBitmapImagePanelv
__ZL24ListFileModifiedSortFuncPN4vgui9ListPanelERKNS_13ListPanelItemES4_
__ZL24PosixPreMinidumpCallbackPv
__ZL24SortSurfacesByLightmapIDPP11msurface2_ti
__ZL24VGui_RecursiveFindPanelsR10CUtlVectorIj10CUtlMemoryIjiEEjPKc
__ZL24VOX_BuildVirtualNameListPcR10CUtlVectorI7WordBuf10CUtlMemoryIS1_iEE
__ZL24__g_CreateCVEfxIVEfx_reg
__ZL24cl_takesnapshot_internal
__ZL24demo_fastforwardramptime
__ZL24demo_togglepause_command
__ZL24dt_ShowPartialChangeEnts
__ZL24dumpstringtables_command
__ZL24fs_warning_level_command
__ZL24g_DashboardMusicMixValue
__ZL24g_QuarterSizedFBTexture0
__ZL24g_QuarterSizedFBTexture1
__ZL24g_ResolvedFullFrameDepth
__ZL24g_VoiceOverdriveDuration
__ZL24g_WaterReflectionTexture
__ZL24g_WaterRefractionTexture
__ZL24g_bLocalPlayerTalkingAck
__ZL24g_szModSaveContainerName
__ZL24gameui_allowescapetoshowRK8CCommand
__ZL24host_writeconfig_command
__ZL24mat_setvideomode_command
__ZL24mem_test_every_n_seconds
__ZL24originaldrawMRMModelsVal
__ZL24plugin_pause_all_command
__ZL24process_data_simple_mainP20jpeg_compress_structPPhPjj
__ZL24r_DrawSpecificStaticProp
__ZL24r_dlightvisiblethisframe
__ZL24r_flashlightrendermodels
__ZL24r_flashlightrendermodels
__ZL24s_bConfigLightingChanged
__ZL24s_nMaxVisibleDLightCount
__ZL24sv_parallel_packentities
__ZL24sv_parallel_sendsnapshot
__ZL24sys_minidumpexpandedspew
__ZL24vgui_drawtree_panelalpha
__ZL24vgui_drawtree_popupsonly
__ZL24vgui_togglepanel_command
__ZL24vprof_cachemiss_off_Implv
__ZL24vprof_expand_all_command
__ZL24vprof_generate_report_AIRK8CCommand
__ZL25CM_RecursiveHullCheckImplILb0EEvP11TraceInfo_tiffRK6VectorS4_
__ZL25CM_RecursiveHullCheckImplILb1EEvP11TraceInfo_tiffRK6VectorS4_
__ZL25Create_ScalableImagePanelv
__ZL25EnumerateLeavesAlongRay_RP7mnode_tRK5Ray_tffP22ISpatialLeafEnumeratori
__ZL25FindIntersectionAtSurfaceP11msurface2_tfR6VectorR15LightVecState_t
__ZL25Host_Map_f_CompletionFuncPKcPA64_c
__ZL25autosavedangerous_command
__ZL25fs_printopenfiles_command
__ZL25g_BreakSetIncludingColons
__ZL25g_BreakSetIncludingColons
__ZL25g_DashboardMusicMixTarget
__ZL25g_PhysDefaultObjectParams
__ZL25g_listdemo_CompletionFuncPKcPA64_c
__ZL25g_playdemo_CompletionFuncPKcPA64_c
__ZL25g_timedemo_CompletionFuncPKcPA64_c
__ZL25host_timer_report_command
__ZL25key_listboundkeys_command
__ZL25logaddress_delall_command
__ZL25mat_configcurrent_command
__ZL25mat_enable_vrmode_command
__ZL25mm_select_session_command
__ZL25mod_dynamicunloadtextures
__ZL25r_flashlightdrawsweptbbox
__ZL25s_bSortAscendingSecondary
__ZL25s_flPreviousHostFramerate
__ZL25save_finish_async_command
__ZL25snd_async_showmem_command
__ZL25std_chrominance_quant_tbl
__ZL25sv_max_queries_sec_global
__ZL25vprof_record_stop_command
__ZL25vprof_remote_stop_command
__ZL25vprof_reset_peaks_command
__ZL25vprof_vtune_group_command
__ZL26Create_AnimatingImagePanelv
__ZL26Create_CircularProgressBarv
__ZL26ListFileAttributesSortFuncPN4vgui9ListPanelERKNS_13ListPanelItemES4_
__ZL26ProcessLightmapSampleAlphaRK27ProcessLightmapSampleData_tRK6VectorS4_S4_S4_iiii
__ZL26R_RecursiveWorldNodeNoCullP16CWorldRenderListP7mnode_ti
__ZL26R_SetupVisibleAreaFrustumsv
__ZL26SendTable_GetPropsExcludedPK9SendTableP11ExcludePropRii
__ZL26SetDataTableProxyIndices_RP17CSendTablePrecalcP9CSendNodeP21CBuildHierarchyStruct
__ZL26SetRecursiveProxyIndices_RP9SendTableP9CSendNodeRi
__ZL26Shader_WorldZFillSurfChainRK17CMSurfaceSortListRK18surfacesortgroup_tR12CMeshBuilderRij
__ZL26TextureCVarChangedCallBackP7IConVarPKcf
__ZL26WorldLightFromDynamicLightRK8dlight_tR13dworldlight_t
__ZL26__g_CGameUIFuncs_singleton
__ZL26__g_CVoiceServer_singleton
__ZL26_autosavedangerous_command
__ZL26demo_fastforwardfinalspeed
__ZL26demo_fastforwardstartspeed
__ZL26fullsize_smooth_downsampleP20jpeg_compress_structP19jpeg_component_infoPPhS4_
__ZL26g_CBitmapImagePanel_Helper
__ZL26gameui_allowescape_command
__ZL26gameui_preventescapetoshowRK8CCommand
__ZL26jpeg_calc_trans_dimensionsP20jpeg_compress_struct
__ZL26mat_crosshair_edit_command
__ZL26plugin_unpause_all_command
__ZL26r_drawmodelstatsoverlaymax
__ZL26r_drawmodelstatsoverlaymin
__ZL26s_NetworkStringTableClient
__ZL26s_NetworkStringTableServer
__ZL26s_OrthographicHalfDiagonal
__ZL26s_bRunningWithDebugModules
__ZL26s_pBoxFaceIndicesInsideOut
__ZL26s_pCurrentSortingListPanel
__ZL26sv_max_connects_sec_global
__ZL26sv_setsteamblockingcheck_fP7IConVarPKcf
__ZL26vgui_drawtree_render_order
__ZL26voiceconvar_file_changed_fP7IConVarPKcf
__ZL26vprof_cachemiss_on_command
__ZL26vprof_collapse_all_command
__ZL26vprof_expand_group_command
__ZL26vprof_generate_report_Implv
__ZL26vprof_record_start_command
__ZL26vprof_remote_start_command
__ZL27CURRENT_SAVEFILE_HEADER_TAG
__ZL27CheckSmallVolumeDifferencesP7mnode_tRK6Vector
__ZL27ConVarNetworkChangeCallbackP7IConVarPKcf
__ZL27Create_CTreeViewListControlv
__ZL27MatchRecvPropsToSendProps_RR10CUtlRBTreeI14MatchingProp_ttPFbRKS0_S2_E10CUtlMemoryI15UtlRBTreeNode_tIS0_tEtEEPKcP9SendTableP9RecvTablebPb
__ZL27ProcessLightmapSampleBumpedRK27ProcessLightmapSampleData_tRK6VectorS4_S4_S4_iiii
__ZL27StaticPropColorMeshCallbackRK18FileAsyncRequest_ti15FSAsyncStatus_t
__ZL27budget_toggle_group_command
__ZL27cache_print_summary_command
__ZL27devshots_screenshot_command
__ZL27g_BuildCubemaps16BitTexture
__ZL27g_LocalPlayerTalkingTimeout
__ZL27g_ScalableImagePanel_Helper
__ZL27g_ScreenFromWorldProjection
__ZL27g_ScrollBar_Vertical_Helper
__ZL27g_benchframe_CompletionFuncPKcPA64_c
__ZL27g_sv_pure_waiting_on_reload
__ZL27mat_crosshair_printmaterialRK8CCommand
__ZL27mat_monitorgamma_tv_enabled
__ZL27net_compresspackets_minsize
__ZL27r_flashlightdrawfrustumbbox
__ZL27s_DrawWorldListsToSortGroup
__ZL27s_SplitPacketSequenceNumber
__ZL27vgui_drawtree_draw_selected
__ZL27vprof_cachemiss_off_command
__ZL27vprof_playback_step_command
__ZL27vprof_playback_stop_command
__ZL28AddWorldLightToLightingStateP13dworldlight_tP8CCubeMapI26LightShadowZBufferSample_tLi8EER15LightingState_tR19LightingStateInfo_tRK6VectorPKhbbb
__ZL28Create_ContinuousProgressBarv
__ZL28FnCreateCDemoActionSkipAheadv
__ZL28StaticPropColorTexelCallbackRK18FileAsyncRequest_ti15FSAsyncStatus_t
__ZL28__CreateCVEfxIVEfx_interfacev
__ZL28_bugreporter_restart_command
__ZL28audit_save_in_memory_command
__ZL28g_AnimatingImagePanel_Helper
__ZL28g_CircularProgressBar_Helper
__ZL28gameui_preventescape_command
__ZL28mat_crosshair_reloadmaterialRK8CCommand
__ZL28net_chan_stats_dump_top_msgs
__ZL28p_screenspace_intconverter_X
__ZL28p_screenspace_intconverter_Y
__ZL28proportional_width_converter
__ZL28replay_voice_during_playback
__ZL28snd_dumpclientsounds_command
__ZL28sv_quota_stringcmdspersecond
__ZL28vprof_adddebuggroup1_command
__ZL28vprof_generate_report_budgetRK8CCommand
__ZL28vprof_playback_start_command
__ZL29ComputeLightmapFromLightstyleP18msurfacelighting_tbbib
__ZL29SendTable_CalcNextVectorElemsP9SendTable
__ZL29ServerNotifyVarChangeCallbackP7IConVarPKcf
__ZL29VideoMode_AdjustForModeChangev
__ZL29g_AnimationPropertyConverters
__ZL29g_CTreeViewListControl_Helper
__ZL29g_ScrollBar_Horizontal_Helper
__ZL29g_timedemoquit_CompletionFuncPKcPA64_c
__ZL29host_competitive_ever_enabled
__ZL29mat_monitorgamma_tv_range_max
__ZL29mat_monitorgamma_tv_range_min
__ZL29mat_powersavingsmode_callbackP7IConVarPKcf
__ZL29mod_dynamicmodeldebug_command
__ZL29proportional_height_converter
__ZL29s_bFPSMaxDrivenByPowerSavings
__ZL29vprof_dump_groupnames_command
__ZL29vprof_generate_report_AI_Implv
__ZL29vprof_generate_report_AI_onlyRK8CCommand
__ZL29vprof_generate_report_command
__ZL2f3
__ZL2io
__ZL30FileSystem_AddLoadedSearchPathR18CFSSearchPathsInitPKcS2_b
__ZL30FnCreateCDemoActionCDTrackStopv
__ZL30HLTV_Callback_InstanceBaselinePvP19INetworkStringTableiPKcPKv
__ZL30g_ContinuousProgressBar_Helper
__ZL30g_CvarToggleCheckButton_Helper
__ZL30g_pLoadingProgressDescriptions
__ZL30mat_crosshair_explorer_command
__ZL30mat_texture_list_txlod_command
__ZL30mat_texture_save_fonts_command
__ZL30r_lightcache_numambientsamples
__ZL30s_pNonModifiedPointerProxyHead
__ZL30vprof_dump_spikes_budget_group
__ZL30vprof_generate_report_map_loadRK8CCommand
__ZL30vprof_playback_average_command
__ZL31CM_GetCollideableTriggerTestBoxP12ICollideableP6VectorS2_b
__ZL31FnCreateCDemoActionCDTrackStartv
__ZL31FnCreateCDemoActionPlayCommandsv
__ZL31FnCreateCDemoActionStopPlaybackv
__ZL31LightIntensityAndDirectionInBoxP13dworldlight_tP8CCubeMapI26LightShadowZBufferSample_tLi8EERK6VectorS7_S7_iPS5_
__ZL31autosavedangerousissafe_command
__ZL31g_szModSaveContainerDisplayName
__ZL31mat_reset_rendertargets_command
__ZL31vprof_generate_report_hierarchyRK8CCommand
__ZL31vprof_playback_stepback_command
__ZL32FnCreateCDemoActionPausePlaybackv
__ZL32__g_CClientEngineTools_singleton
__ZL32__g_CServerEngineTools_singleton
__ZL32gameui_allowescapetoshow_command
__ZL32opt_EnumerateLeavesFastAlgorithm
__ZL32s_MarkStaticPropLightsEnumerator
__ZL32s_currentSortingColumnTypeIsText
__ZL32vprof_generate_report_AI_command
__ZL33EnumerateLeavesAlongExtrudedRay_RP7mnode_tRK5Ray_tffP22ISpatialLeafEnumeratori
__ZL33FnCreateCDemoActionPlaySoundStartv
__ZL33Host_Changelevel_f_CompletionFuncPKcPA64_c
__ZL33LightIntensityAndDirectionAtPointP13dworldlight_tP8CCubeMapI26LightShadowZBufferSample_tLi8EERK6VectoriP13IHandleEntityPS5_
__ZL33SteamNetworkingSocketsDebugOutput38ESteamNetworkingSocketsDebugOutputTypePKc
__ZL33__g_CDedicatedServerAPI_singleton
__ZL33vprof_generate_report_budget_Implv
__ZL34CToolFrameworkInternal_QuitHandlerPv
__ZL34ComputeAmbientFromSphericalSamplesRK6VectorPS_
__ZL34ComputeStaticLightingForCacheEntryP15CBaseLightCacheRK6Vectorib
__ZL34FnCreateCDemoActionScreenFadeStartv
__ZL34Host_Changelevel2_f_CompletionFuncPKcPA64_c
__ZL34__g_CreateCCvarQueryICvarQuery_reg
__ZL34__g_CreateCEngineAPIIEngineAPI_reg
__ZL34__g_CreateCShadowMgrIShadowMgr_reg
__ZL34g_arrNetChannelProcessingCallbacks
__ZL34gameui_preventescapetoshow_command
__ZL34s_SaveRestoreFileSystemPassthrough
__ZL34vprof_generate_report_AI_only_Implv
__ZL35FnCreateCDemoActionTextMessageStartv
__ZL35FnCreateEditorCBaseActionZoomDialogP16CDemoEditorPanelP15CBaseDemoActionb
__ZL35Net_InternalOpenOrCloseFakeUDPPortsbb
__ZL35WriteMaterialSystemConfigToRegistryRK23MaterialSystem_Config_t
__ZL35g_bExecutionMarkerStreamInitialized
__ZL35g_pNetChannelProcessingActivePacket
__ZL35mat_crosshair_printmaterial_command
__ZL35s_bVideoConfigOverriddenFromCmdLine
__ZL35s_pConversionArrays_NoEscConversion
__ZL35vprof_generate_report_map_load_Implv
__ZL36ComputeAmbientFromAxisAlignedSamplesRK6VectorPS_
__ZL36FnCreateEditorCBaseActionPauseDialogP16CDemoEditorPanelP15CBaseDemoActionb
__ZL36Host_Map_Commentary_f_CompletionFuncPKcPA64_c
__ZL36__g_CreateCEngineToolIEngineTool_reg
__ZL36__g_CreateCEngineVGuiIEngineVGui_reg
__ZL36__g_CreateCXboxSystemIXboxSystem_reg
__ZL36g_bRecursiveRequestToShowTextureList
__ZL36mat_crosshair_reloadmaterial_command
__ZL36vprof_generate_report_budget_command
__ZL36vprof_generate_report_hierarchy_Implv
__ZL37FnCreateCDemoActionChangePlaybackRatev
__ZL37cached_r_lightcache_numambientsamples
__ZL37vprof_generate_report_AI_only_command
__ZL38__CreateCCvarQueryICvarQuery_interfacev
__ZL38__CreateCEngineAPIIEngineAPI_interfacev
__ZL38__CreateCShadowMgrIShadowMgr_interfacev
__ZL38__g_CreateCGameUIFuncsIGameUIFuncs_reg
__ZL38__g_CreateCMatchmakingIMatchmaking_reg
__ZL38__g_CreateCVProfExportIVProfExport_reg
__ZL38__g_CreateCVRenderViewIVRenderView_reg
__ZL38__g_CreateCVoiceServerIVoiceServer_reg
__ZL38vprof_generate_report_map_load_command
__ZL39__g_CreateCModelRenderIVModelRender_reg
__ZL39vprof_generate_report_hierarchy_command
__ZL3boxRK8CCommand
__ZL3bsWP6EStateij
__ZL3bugRK8CCommand
__ZL3cmdRK8CCommand
__ZL3efx
__ZL3f05
__ZL3logRK8CCommand
__ZL3map
__ZL3sdrRK8CCommand
__ZL3vis
__ZL40FnCreateEditorCBaseActionSkipAheadDialogP16CDemoEditorPanelP15CBaseDemoActionb
__ZL40__CreateCEngineToolIEngineTool_interfacev
__ZL40__CreateCEngineVGuiIEngineVGui_interfacev
__ZL40__CreateCXboxSystemIXboxSystem_interfacev
__ZL40__g_CreateCEngineReplayIEngineReplay_reg
__ZL40s_pConversionArrays_StringCharConversion
__ZL41__g_CreateCEngineClientIVEngineClient_reg
__ZL41__g_CreateCModelInfoServerIVModelInfo_reg
__ZL42__CreateCGameUIFuncsIGameUIFuncs_interfacev
__ZL42__CreateCMatchmakingIMatchmaking_interfacev
__ZL42__CreateCVProfExportIVProfExport_interfacev
__ZL42__CreateCVRenderViewIVRenderView_interfacev
__ZL42__CreateCVoiceServerIVoiceServer_interfacev
__ZL42__g_CreateCVEngineServerIVEngineServer_reg
__ZL43FnCreateEditorCBaseActionCDTrackStartDialogP16CDemoEditorPanelP15CBaseDemoActionb
__ZL43FnCreateEditorCBaseActionPlayCommandsDialogP16CDemoEditorPanelP15CBaseDemoActionb
__ZL43FnCreateEditorCBaseActionStopPlaybackDialogP16CDemoEditorPanelP15CBaseDemoActionb
__ZL43__CreateCModelRenderIVModelRender_interfacev
__ZL43__g_CreateCIVDebugOverlayIVDebugOverlay_reg
__ZL44__CreateCEngineReplayIEngineReplay_interfacev
__ZL44__g_CreateCDownloadSystemIDownloadSystem_reg
__ZL44__g_CreateCEngineClientIVEngineClient013_reg
__ZL44__g_CreateCEngineSoundClientIEngineSound_reg
__ZL44__g_CreateCEngineSoundServerIEngineSound_reg
__ZL44__g_CreateCEngineTraceClientIEngineTrace_reg
__ZL44__g_CreateCEngineTraceServerIEngineTrace_reg
__ZL44__g_CreateCModelInfoServerIVModelInfo003_reg
__ZL45FnCreateEditorCBaseActionPlaySoundStartDialogP16CDemoEditorPanelP15CBaseDemoActionb
__ZL45__CreateCEngineClientIVEngineClient_interfacev
__ZL45__CreateCModelInfoServerIVModelInfo_interfacev
__ZL45__g_CreateCEngineToolIEngineToolFramework_reg
__ZL45__g_CreateCVEngineServerIVEngineServer021_reg
__ZL45__g_CreateCVEngineServerIVEngineServer022_reg
__ZL46FnCreateEditorCBaseActionScreenFadeStartDialogP16CDemoEditorPanelP15CBaseDemoActionb
__ZL46__CreateCVEngineServerIVEngineServer_interfacev
__ZL46__g_CreateCUploadGameStatsIUploadGameStats_reg
__ZL47FnCreateEditorCBaseActionTextMessageStartDialogP16CDemoEditorPanelP15CBaseDemoActionb
__ZL47__CreateCIVDebugOverlayIVDebugOverlay_interfacev
__ZL47__g_CreateCModelInfoClientIVModelInfoClient_reg
__ZL47__g_CreateCServerPluginIServerPluginHelpers_reg
__ZL48__CreateCDownloadSystemIDownloadSystem_interfacev
__ZL48__CreateCEngineClientIVEngineClient013_interfacev
__ZL48__CreateCEngineSoundClientIEngineSound_interfacev
__ZL48__CreateCEngineSoundServerIEngineSound_interfacev
__ZL48__CreateCEngineTraceClientIEngineTrace_interfacev
__ZL48__CreateCEngineTraceServerIEngineTrace_interfacev
__ZL48__CreateCModelInfoServerIVModelInfo003_interfacev
__ZL48__g_CreateCReplayDemoPlayerIReplayDemoPlayer_reg
__ZL48__g_CreateCServerRemoteAccessIGameServerData_reg
__ZL48__g_CreateCSpatialPartitionISpatialPartition_reg
__ZL48__g_CreateCStaticPropMgrIStaticPropMgrClient_reg
__ZL48__g_CreateCStaticPropMgrIStaticPropMgrServer_reg
__ZL49FnCreateEditorCBaseActionChangePlaybackRateDialogP16CDemoEditorPanelP15CBaseDemoActionb
__ZL49__CreateCEngineToolIEngineToolFramework_interfacev
__ZL49__CreateCVEngineServerIVEngineServer021_interfacev
__ZL49__CreateCVEngineServerIVEngineServer022_interfacev
__ZL49__g_CreateCGameEventManagerIGameEventManager2_reg
__ZL4bindRK8CCommand
__ZL4echoRK8CCommand
__ZL4helpRK8CCommand
__ZL4incs
__ZL4jpegRK8CCommand
__ZL4kickRK8CCommand
__ZL4maps
__ZL4pathRK8CCommand
__ZL4pingRK8CCommand
__ZL4play
__ZL4rconRK8CCommand
__ZL4saveRK8CCommand
__ZL4stopRK8CCommand
__ZL4userRK8CCommand
__ZL50__CreateCUploadGameStatsIUploadGameStats_interfacev
__ZL50__g_CreateCClientEngineToolsIClientEngineTools_reg
__ZL50__g_CreateCIVDebugOverlayIVPhysicsDebugOverlay_reg
__ZL50__g_CreateCServerEngineToolsIServerEngineTools_reg
__ZL51__CreateCModelInfoClientIVModelInfoClient_interfacev
__ZL51__CreateCServerPluginIServerPluginHelpers_interfacev
__ZL51__g_CreateCGameEventManagerOldIGameEventManager_reg
__ZL52__CreateCReplayDemoPlayerIReplayDemoPlayer_interfacev
__ZL52__CreateCServerRemoteAccessIGameServerData_interfacev
__ZL52__CreateCSpatialPartitionISpatialPartition_interfacev
__ZL52__CreateCStaticPropMgrIStaticPropMgrClient_interfacev
__ZL52__CreateCStaticPropMgrIStaticPropMgrServer_interfacev
__ZL52__g_CreateCDedicatedServerAPIIDedicatedServerAPI_reg
__ZL52__g_CreateCEngineClientReplayIEngineClientReplay_reg
__ZL53__CreateCGameEventManagerIGameEventManager2_interfacev
__ZL54__CreateCClientEngineToolsIClientEngineTools_interfacev
__ZL54__CreateCIVDebugOverlayIVPhysicsDebugOverlay_interfacev
__ZL54__CreateCServerEngineToolsIServerEngineTools_interfacev
__ZL55__CreateCGameEventManagerOldIGameEventManager_interfacev
__ZL56__CreateCDedicatedServerAPIIDedicatedServerAPI_interfacev
__ZL56__CreateCEngineClientReplayIEngineClientReplay_interfacev
__ZL58__g_CreateCToolFrameworkInternalIToolFrameworkInternal_reg
__ZL5S_SayRK8CCommand
__ZL5addip
__ZL5aliasRK8CCommand
__ZL5banidRK8CCommand
__ZL5banip
__ZL5clear
__ZL5demosRK8CCommand
__ZL5flushRK8CCommand
__ZL5fogui
__ZL5pauseRK8CCommand
__ZL5retryRK8CCommand
__ZL5speak
__ZL5spikeRK8CCommand
__ZL5stats
__ZL5usersRK8CCommand
__ZL5vprofRK8CCommand
__ZL5vtuneRK8CCommand
__ZL5xloadRK8CCommand
__ZL5xsaveRK8CCommand
__ZL60__g_CreateCEngineUniformRandomStreamIUniformRandomStream_reg
__ZL62__CreateCToolFrameworkInternalIToolFrameworkInternal_interfacev
__ZL64__CreateCEngineUniformRandomStreamIUniformRandomStream_interfacev
__ZL6S_PlayRK8CCommand
__ZL6SzFreePvS_
__ZL6demoui
__ZL6envmapRK8CCommand
__ZL6escapeRK8CCommand
__ZL6g_Game
__ZL6g_mark
__ZL6hostip
__ZL6ipname
__ZL6kickidRK8CCommand
__ZL6listidRK8CCommand
__ZL6listipRK8CCommand
__ZL6memoryRK8CCommand
__ZL6perfui
__ZL6pvsrow
__ZL6r_eyes
__ZL6r_flex
__ZL6r_nohw
__ZL6r_nosw
__ZL6r_skin
__ZL6r_sse2RK8CCommand
__ZL6recordRK8CCommand
__ZL6reloadRK8CCommand
__ZL6s_pMap
__ZL6s_text
__ZL6statusRK8CCommand
__ZL6toggleRK8CCommand
__ZL6tv_msgRK8CCommand
__ZL6unbindRK8CCommand
__ZL6volume
__ZL70__g_CreateCNetworkStringTableContainerINetworkStringTableContainer_reg
__ZL74__CreateCNetworkStringTableContainerINetworkStringTableContainer_interfacev
__ZL76__g_CreateCNetworkStringTableContainerServerINetworkStringTableContainer_reg
__ZL7Ease_Inf
__ZL7SzAllocPvm
__ZL7cl_viewRK8CCommand
__ZL7connectRK8CCommand
__ZL7demoui2
__ZL7fakelag
__ZL7gRender
__ZL7g_Alloc
__ZL7g_KBMgr
__ZL7g_hfind
__ZL7kickallRK8CCommand
__ZL7mainGtUjjPhPtjPi
__ZL7mem_eatRK8CCommand
__ZL7multvarRK8CCommand
__ZL7playvol
__ZL7r_3dnowRK8CCommand
__ZL7r_novis
__ZL7r_teeth
__ZL7restartRK8CCommand
__ZL7setinfoRK8CCommand
__ZL7sv_pure
__ZL7tv_stopRK8CCommand
__ZL7unpauseRK8CCommand
__ZL7versionRK8CCommand
__ZL7writeidRK8CCommand
__ZL7writeipRK8CCommand
__ZL80__CreateCNetworkStringTableContainerServerINetworkStringTableContainer_interfacev
__ZL8CubeFaceR12CMeshBuilder6VectoriiiifRK9color32_s
__ZL8DrawAxesRK6VectorPS_i5ColorR12CMeshBuilder
__ZL8Ease_Outf
__ZL8PerfMarkRK8CCommand
__ZL8SaveGameRK8CCommand
__ZL8_restartRK8CCommand
__ZL8autosaveRK8CCommand
__ZL8bind_macRK8CCommand
__ZL8bl_order
__ZL8cmd_exit
__ZL8conPanel
__ZL8cvarNext
__ZL8cvarlistRK8CCommand
__ZL8demolistRK8CCommand
__ZL8dsp_parm
__ZL8dummySfx
__ZL8emit_dacP20jpeg_compress_struct
__ZL8emit_dhtP20jpeg_compress_structii
__ZL8emit_dqtP20jpeg_compress_structi
__ZL8emit_driP20jpeg_compress_struct
__ZL8emit_sofP20jpeg_compress_struct11JPEG_MARKER
__ZL8emit_sosP20jpeg_compress_struct
__ZL8endmovieRK8CCommand
__ZL8fakeloss
__ZL8g_Engine
__ZL8g_Meshes
__ZL8g_Tracks
__ZL8g_nTrees
__ZL8g_pBugUI
__ZL8hltvport
__ZL8hostport
__ZL8map_editRK8CCommand
__ZL8mat_editRK8CCommand
__ZL8mat_infoRK8CCommand
__ZL8mem_dumpRK8CCommand
__ZL8mem_testRK8CCommand
__ZL8minisaveRK8CCommand
__ZL8mm_statsRK8CCommand
__ZL8net_noip
__ZL8nextdemoRK8CCommand
__ZL8r_entity
__ZL8redirectRK8CCommand
__ZL8removeidRK8CCommand
__ZL8removeipRK8CCommand
__ZL8s_Sounds
__ZL8s_pEdges
__ZL8s_raddir
__ZL8setpauseRK8CCommand
__ZL8stopdemoRK8CCommand
__ZL8sv_stats
__ZL8tv_relayRK8CCommand
__ZL8tv_retryRK8CCommand
__ZL8viscache
__ZL8voxcomma
__ZL8vprof_onRK8CCommand
__ZL9CalcColorP12SphereCalc_tiRK6VectorPh
__ZL9Ease_Bothf
__ZL9SV_Pure_fRK8CCommand
__ZL9S_PlayVolRK8CCommand
__ZL9_autosaveRK8CCommand
__ZL9bench_endRK8CCommand
__ZL9cmd_alias
__ZL9con_times
__ZL9con_trace
__ZL9crc_table
__ZL9dti_flush
__ZL9emit_byteP20jpeg_compress_structi
__ZL9emit_byteiP20jpeg_compress_struct
__ZL9errorText
__ZL9findflagsRK8CCommand
__ZL9free_poolP18jpeg_common_structi
__ZL9g_ASCache
__ZL9g_ColInfo
__ZL9g_KVMutex
__ZL9g_pPerfUI
__ZL9heartbeat
__ZL9net_error
__ZL9net_nodns
__ZL9net_startRK8CCommand
__ZL9playflush
__ZL9r_eyemove
__ZL9r_eyesize
__ZL9r_lockpvs
__ZL9s_FakeLag
__ZL9s_MsgData
__ZL9s_buffers
__ZL9s_pFatPVS
__ZL9soundfade
__ZL9soundfadeRK8CCommand
__ZL9soundinfo
__ZL9soundlist
__ZL9stopsound
__ZL9stuffcmdsRK8CCommand
__ZL9tv_nochat
__ZL9tv_recordRK8CCommand
__ZL9tv_statusRK8CCommand
__ZL9unbindallRK8CCommand
__ZL9voxperiod
__ZL9vprof_offRK8CCommand
__ZN10BlankImage11SetRotationEi
__ZN10BlankImage12GetNumFramesEv
__ZN10BlankImage14GetContentSizeERiS0_
__ZN10BlankImage5EvictEv
__ZN10BlankImage5GetIDEv
__ZN10BlankImage5PaintEv
__ZN10BlankImage6SetPosEii
__ZN10BlankImage7GetSizeERiS0_
__ZN10BlankImage7SetSizeEii
__ZN10BlankImage8SetColorE5Color
__ZN10BlankImage8SetFrameEi
__ZN10BlankImageD0Ev
__ZN10BlankImageD1Ev
__ZN10CBaseEdict17GetChangeAccessorEv
__ZN10CBasePanel6OnTickEv
__ZN10CBasePanelC2EPN4vgui5PanelEPKc
__ZN10CBasePanelD0Ev
__ZN10CBasePanelD1Ev
__ZN10CBasePanelD2Ev
__ZN10CCallQueueD1Ev
__ZN10CClipPlane6m_DistE
__ZN10CClipPlane9m_pNormalE
__ZN10CCvarQuery14QueryInterfaceEPKc
__ZN10CCvarQuery18AreConVarsLinkableEPK6ConVarS2_
__ZN10CCvarQuery4InitEv
__ZN10CCvarQuery7ConnectEPFPvPKcPiE
__ZN10CCvarQuery8ShutdownEv
__ZN10CEngineAPI10DisconnectEv
__ZN10CEngineAPI14QueryInterfaceEPKc
__ZN10CEngineAPI14SetStartupInfoER13StartupInfo_t
__ZN10CEngineAPI15RunListenServerEv
__ZN10CEngineAPI15SetEngineWindowEPv
__ZN10CEngineAPI18ActivateSimulationEb
__ZN10CEngineAPI18HandleSetModeErrorEv
__ZN10CEngineAPI18PostConsoleCommandEPKc
__ZN10CEngineAPI3RunEv
__ZN10CEngineAPI4InitEv
__ZN10CEngineAPI6SetMapEPKc
__ZN10CEngineAPI7ConnectEPFPvPKcPiE
__ZN10CEngineAPI7ModInitEPKcS1_
__ZN10CEngineAPI8MainLoopEv
__ZN10CEngineAPI8ShutdownEv
__ZN10CEngineAPI9OnStartupEPvPKc
__ZN10CErrorTextILi95000EE12BuildCommentEPKcb
__ZN10CErrorTextILi95000EE13CommentPrintfEPKcz
__ZN10CErrorTextILi95000EE20BuildCommentExtendedEv
__ZN10CErrorTextILi95000EE21BuildCommentMemStatusEv
__ZN10CGameEvent10SetWStringEPKcPKw
__ZN10CGameEvent6SetIntEPKci
__ZN10CGameEvent6SetPtrEPKcPKv
__ZN10CGameEvent7IsEmptyEPKc
__ZN10CGameEvent7SetBoolEPKcb
__ZN10CGameEvent8SetFloatEPKcf
__ZN10CGameEvent9SetStringEPKcS1_
__ZN10CGameEvent9SetUint64EPKcy
__ZN10CGameEventD0Ev
__ZN10CGameEventD1Ev
__ZN10CHLTVFrame11FreeBuffersEv
__ZN10CHLTVFrame12AllocBuffersEv
__ZN10CHLTVFrame12CopyHLTVDataERS_
__ZN10CHLTVFrame18IsMemPoolAllocatedEv
__ZN10CHLTVFrameC2Ev
__ZN10CHLTVFrameD0Ev
__ZN10CHLTVFrameD1Ev
__ZN10CHostState11FrameUpdateEf
__ZN10CHostState13State_NewGameEv
__ZN10CHostState17OnClientConnectedEv
__ZN10CHostState18State_GameShutdownEv
__ZN10CHostState19State_ChangeLevelMPEv
__ZN10CHostState9State_RunEf
__ZN10CMPAHeader12DecodeHeaderEjb
__ZN10CMPAHeader12m_dwBitratesE
__ZN10CMPAHeader15SkipEmptyFramesEv
__ZN10CMPAHeader16m_dwCoefficientsE
__ZN10CMPAHeader16m_dwPaddingSizesE
__ZN10CMPAHeader17m_dwSamplingRatesE
__ZN10CMPAHeader20m_dwSamplesPerFramesE
__ZN10CMPAHeaderC1EP8CMPAFilejbb
__ZN10CMPAHeaderC2EP8CMPAFilejbb
__ZN10CMPAHeaderD1Ev
__ZN10CModelInfo11GetVCollideEPK7model_t
__ZN10CModelInfo11GetVCollideEi
__ZN10CModelInfo13OnLevelChangeEv
__ZN10CModelInfo14GetModelRadiusEPK7model_t
__ZN10CModelInfo14GetStudiomodelEPK7model_t
__ZN10CModelInfo16GetModelContentsEi
__ZN10CModelInfo16GetModelKeyValueEPK7model_tR10CUtlBuffer
__ZN10CModelInfo17GetModelExtraDataEPK7model_t
__ZN10CModelInfo17GetModelMaterialsEPK7model_tiPP9IMaterial
__ZN10CModelInfo18AddRefDynamicModelEi
__ZN10CModelInfo18LookupDynamicModelEi
__ZN10CModelInfo19ReleaseDynamicModelEi
__ZN10CModelInfo20GetIlluminationPointEPK7model_tP17IClientRenderableRK6VectorRK6QAnglePS5_
__ZN10CModelInfo20GetModelKeyValueTextEPK7model_t
__ZN10CModelInfo21IsDynamicModelLoadingEi
__ZN10CModelInfo21RecomputeTranslucencyEPK7model_tiiPvf
__ZN10CModelInfo22SetViewScreenFadeRangeEff
__ZN10CModelInfo23SetLevelScreenFadeRangeEff
__ZN10CModelInfo25RegisterModelLoadCallbackEiP18IModelLoadCallbackb
__ZN10CModelInfo27GetCollideForVirtualTerrainEi
__ZN10CModelInfo27UnregisterModelLoadCallbackEiP18IModelLoadCallback
__ZN10CModelInfo32GetSurfacepropsForVirtualTerrainEi
__ZN10CModelInfoD0Ev
__ZN10CModelInfoD1Ev
__ZN10CShadowMgr11SetMaterialERNS_8Shadow_tEP9IMaterialS3_Pv
__ZN10CShadowMgr12CreateShadowEP9IMaterialS1_Pvi
__ZN10CShadowMgr12EnableShadowEtb
__ZN10CShadowMgr13DestroyShadowEt
__ZN10CShadowMgr13EnumerateLeafEii
__ZN10CShadowMgr13LevelShutdownEv
__ZN10CShadowMgr13ProjectShadowEtRK6VectorS2_RK7VMatrixRK8Vector2DiPKifffS2_
__ZN10CShadowMgr13RenderShadowsEPK7VMatrix
__ZN10CShadowMgr14ClearTempCacheEv
__ZN10CShadowMgr14CreateShadowExEP9IMaterialS1_Pvi
__ZN10CShadowMgr14SetFalloffBiasEth
__ZN10CShadowMgr15CleanupMaterialERNS_8Shadow_tE
__ZN10CShadowMgr15ModelHasShadowsEt
__ZN10CShadowMgr16AddShadowToModelEtt
__ZN10CShadowMgr16GetSurfaceBoundsEP11msurface2_t
__ZN10CShadowMgr16RenderShadowListEP17IMatRenderContexttPK7VMatrix
__ZN10CShadowMgr17AddExtraClipPlaneEtRK6Vectorf
__ZN10CShadowMgr17ApplyShadowToLeafERKNS_8Shadow_tEP7mleaf_tPNS_17ShadowBuildInfo_tE
__ZN10CShadowMgr17ProjectFlashlightEtRK7VMatrixiPKi
__ZN10CShadowMgr17RenderFlashlightsEbPK7VMatrix
__ZN10CShadowMgr17SetShadowMaterialEtP9IMaterialS1_Pv
__ZN10CShadowMgr17SetShadowTexCoordEtffff
__ZN10CShadowMgr18AddSurfaceToShadowEtP11msurface2_t
__ZN10CShadowMgr18GetFlashlightStateEt
__ZN10CShadowMgr18InvalidShadowIndexEv
__ZN10CShadowMgr19IsShadowNearSurfaceEtP11msurface2_tPK7VMatrixS4_
__ZN10CShadowMgr19RenderDebuggingInfoERKNS_18ShadowRenderInfo_tEPFvtRK6VectorE
__ZN10CShadowMgr19SetModelShadowStateEt
__ZN10CShadowMgr20AddDecalToShadowListEtt
__ZN10CShadowMgr20ClearExtraClipPlanesEt
__ZN10CShadowMgr20ComputeSurfaceBoundsEPNS_15SurfaceBounds_tEP11msurface2_t
__ZN10CShadowMgr20DrawFlashlightDecalsEib
__ZN10CShadowMgr20GetFlashlightFrustumEt
__ZN10CShadowMgr20SetStencilAndScissorEP17IMatRenderContextRNS_16FlashlightInfo_tEb
__ZN10CShadowMgr21AddShadowToBrushModelEtP7model_tRK6VectorRK6QAngle
__ZN10CShadowMgr21ApplyFlashlightToLeafERKNS_8Shadow_tEP7mleaf_tPNS_17ShadowBuildInfo_tE
__ZN10CShadowMgr21ClearShadowRenderListEv
__ZN10CShadowMgr21ComputeShadowVerticesERNS_13ShadowDecal_tEPK7VMatrixS4_PNS_19ShadowVertexCache_tE
__ZN10CShadowMgr21UpdateFlashlightStateEtRK17FlashlightState_t
__ZN10CShadowMgr22DrawFlashlightOverlaysEib
__ZN10CShadowMgr22ProjectAndClipVerticesERKNS_8Shadow_tERK7VMatrixPS4_iPP6VectorPPP14ShadowVertex_t
__ZN10CShadowMgr22ProjectAndClipVerticesEtiPP6VectorPPP14ShadowVertex_t
__ZN10CShadowMgr23AddFlashlightRenderableEtP17IClientRenderable
__ZN10CShadowMgr23RenderProjectedTexturesEPK7VMatrix
__ZN10CShadowMgr24GenerateShadowRenderInfoEP17IMatRenderContexttRNS_18ShadowRenderInfo_tE
__ZN10CShadowMgr24SetFlashlightRenderStateEt
__ZN10CShadowMgr25ApplyShadowToDisplacementERNS_17ShadowBuildInfo_tEP9IDispInfob
__ZN10CShadowMgr25RemoveAllShadowsFromModelEt
__ZN10CShadowMgr25SetFlashlightDepthTextureEtP8ITextureh
__ZN10CShadowMgr25SetFlashlightStencilMasksEb
__ZN10CShadowMgr26DrawFlashlightDepthTextureEv
__ZN10CShadowMgr26SetNumWorldMaterialBucketsEi
__ZN10CShadowMgr28RemoveShadowDecalFromSurfaceEP11msurface2_tt
__ZN10CShadowMgr29AddNormalShadowsToMeshBuilderER12CMeshBuilderRNS_18ShadowRenderInfo_tE
__ZN10CShadowMgr30AllocFlashlightMaterialBucketsEt
__ZN10CShadowMgr30EnableStencilAndScissorMaskingEP17IMatRenderContextRKNS_16FlashlightInfo_tEb
__ZN10CShadowMgr30GenerateNormalShadowRenderInfoEP17IMatRenderContextRNS_13ShadowDecal_tERNS_18ShadowRenderInfo_tE
__ZN10CShadowMgr30ProjectVerticesIntoShadowSpaceERK7VMatrixfiPP6VectorR17ShadowClipState_t
__ZN10CShadowMgr30RemoveAllShadowsFromBrushModelEP7model_t
__ZN10CShadowMgr31AddShadowsOnSurfaceToRenderListEt
__ZN10CShadowMgr35DrawFlashlightDecalsOnDisplacementsEiPP9CDispInfoib
__ZN10CShadowMgr35DrawFlashlightDecalsOnSingleSurfaceEP11msurface2_tb
__ZN10CShadowMgr7GetInfoEt
__ZN10CShadowMgr9LevelInitEi
__ZN10CShadowMgrC2Ev
__ZN10CShadowMgrD1Ev
__ZN10CShadowMgrD2Ev
__ZN10CUtlBuffer10ParseTokenEP14characterset_tPcib
__ZN10CUtlBuffer11GetOverflowEi
__ZN10CUtlBuffer11PutOverflowEi
__ZN10CUtlBuffer12AssumeMemoryEPviii
__ZN10CUtlBuffer12SetBigEndianEb
__ZN10CUtlBuffer13EatCPPCommentEv
__ZN10CUtlBuffer13EatWhiteSpaceEv
__ZN10CUtlBuffer14EnsureCapacityEi
__ZN10CUtlBuffer14PeekWhiteSpaceEi
__ZN10CUtlBuffer15PeekStringMatchEiPKci
__ZN10CUtlBuffer16PeekStringLengthEv
__ZN10CUtlBuffer16SetOverflowFuncsEMS_FbiES1_
__ZN10CUtlBuffer17GetStringInternalEPcm
__ZN10CUtlBuffer17SetExternalBufferEPviii
__ZN10CUtlBuffer18AddNullTerminationEv
__ZN10CUtlBuffer18GetDelimitedStringEP18CUtlCharConversionPci
__ZN10CUtlBuffer18PutDelimitedStringEP18CUtlCharConversionPKc
__ZN10CUtlBuffer21CheckArbitraryPeekGetEiRi
__ZN10CUtlBuffer24GetDelimitedCharInternalEP18CUtlCharConversion
__ZN10CUtlBuffer3GetEPvi
__ZN10CUtlBuffer3PutEPKvi
__ZN10CUtlBuffer5ScanfEPKcz
__ZN10CUtlBuffer6PrintfEPKcz
__ZN10CUtlBuffer7GetUpToEPvi
__ZN10CUtlBuffer7PeekGetEii
__ZN10CUtlBuffer7PutCharEc
__ZN10CUtlBuffer7SeekGetENS_10SeekType_tEi
__ZN10CUtlBuffer7SeekPutENS_10SeekType_tEi
__ZN10CUtlBuffer7VaScanfEPKcPc
__ZN10CUtlBuffer8CheckGetEi
__ZN10CUtlBuffer8CheckPutEi
__ZN10CUtlBuffer9PutStringEPKc
__ZN10CUtlBufferC1EPKvii
__ZN10CUtlBufferC1Eiii
__ZN10CUtlBufferC2EPKvii
__ZN10CUtlBufferC2Eiii
__ZN10CUtlBufferD1Ev
__ZN10CUtlMemoryI15UtlRBTreeNode_tI10CUtlSymboltEtE4GrowEi
__ZN10CUtlMemoryI15UtlRBTreeNode_tI14MatchingProp_ttEtE4GrowEi
__ZN10CUtlMemoryI15UtlRBTreeNode_tI16CVoiceWriterDatatEtE4GrowEi
__ZN10CUtlMemoryI15UtlRBTreeNode_tIN15CUtlSymbolTable16CStringPoolIndexEtEtE4GrowEi
__ZN10CUtlMemoryI15UtlRBTreeNode_tIN18CUtlCachedFileDataI22CAudioSourceCachedInfoE13ElementType_tEtEtE4GrowEi
__ZN10CUtlMemoryI15UtlRBTreeNode_tIN7CUtlMapI10CUtlStringitPFbRKS2_S4_EE6Node_tEtEtE4GrowEi
__ZN10CUtlMemoryI15UtlRBTreeNode_tIN7CUtlMapI10CUtlSymbolN14CSaveDirectory6file_tEtPFbRKS2_S6_EE6Node_tEtEtE4GrowEi
__ZN10CUtlMemoryI15UtlRBTreeNode_tIN7CUtlMapIPKcitPFbRKS3_S5_EE6Node_tEtEtE4GrowEi
__ZN10CUtlMemoryI15UtlRBTreeNode_tIN7CUtlMapIPv10DecalEntrytPFbRKS2_S5_EE6Node_tEtEtE4GrowEi
__ZN10CUtlMemoryI15UtlRBTreeNode_tIN7CUtlMapIPv12SfxDictEntrytPFbRKS2_S5_EE6Node_tEtEtE4GrowEi
__ZN10CUtlMemoryI15UtlRBTreeNode_tIN7CUtlMapIPv23CNetworkStringTableItemtPFbRKS2_S5_EE6Node_tEtEtE4GrowEi
__ZN10CUtlMemoryI15UtlRBTreeNode_tIN7CUtlMapIPvN12CModelLoader12ModelEntry_tEtPFbRKS2_S6_EE6Node_tEtEtE4GrowEi
__ZN10CUtlMemoryI15UtlRBTreeNode_tIN7CUtlMapIjP11INetChanneltPFbRKjS5_EE6Node_tEtEtE4GrowEi
__ZN10CUtlMemoryI15UtlRBTreeNode_tIN7CUtlMapItN15MatViewOverride14ViewParamsLast6TxInfoEtPFbRKtS6_EE6Node_tEtEtE4GrowEi
__ZN10CUtlMemoryI15UtlRBTreeNode_tIN7CUtlMapItN15MatViewOverride14ViewParamsLast6VarMapEtPFbRKtS6_EE6Node_tEtEtE4GrowEi
__ZN10CUtlMemoryI15UtlRBTreeNode_tIN7CUtlMapItttPFbRKtS3_EE6Node_tEtEtE4GrowEi
__ZN10CUtlMemoryI15UtlRBTreeNode_tIP10CEventInfotEtE4GrowEi
__ZN10CUtlMemoryI15UtlRBTreeNode_tIP12IMaterialVartEtE4GrowEi
__ZN10CUtlMemoryI15UtlRBTreeNode_tIPK14ConCommandBasetEtE4GrowEi
__ZN10CUtlMemoryI15UtlRBTreeNode_tIPKctEtE4GrowEi
__ZN10CUtlMemoryI15UtlRBTreeNode_tIPvtEtE4GrowEi
__ZN10CUtlMemoryI19UtlLinkedListElem_tI10CDispDecaltEtE4GrowEi
__ZN10CUtlMemoryI19UtlLinkedListElem_tI10CUtlBuffertEtE4GrowEi
__ZN10CUtlMemoryI19UtlLinkedListElem_tI10CUtlStringtEtE4GrowEi
__ZN10CUtlMemoryI19UtlLinkedListElem_tI13VisCacheEntrytEtE4GrowEi
__ZN10CUtlMemoryI19UtlLinkedListElem_tI15SendQueueItem_ttEtE4GrowEi
__ZN10CUtlMemoryI19UtlLinkedListElem_tI16CDispShadowDecaltEtE4GrowEi
__ZN10CUtlMemoryI19UtlLinkedListElem_tI16CUtlKeyValuePairI19CUtlConstStringBaseIcE23CNetworkStringTableItemEtEtE4GrowEi
__ZN10CUtlMemoryI19UtlLinkedListElem_tI16CUtlKeyValuePairIP7model_t7empty_tEtEtE4GrowEi
__ZN10CUtlMemoryI19UtlLinkedListElem_tI18CDispDecalFragmenttEtE4GrowEi
__ZN10CUtlMemoryI19UtlLinkedListElem_tI18moverlayfragment_ttEtE4GrowEi
__ZN10CUtlMemoryI19UtlLinkedListElem_tI19CDispShadowFragmenttEtE4GrowEi
__ZN10CUtlMemoryI19UtlLinkedListElem_tIN10CShadowMgr15SortOrderInfo_tEtEtE4GrowEi
__ZN10CUtlMemoryI19UtlLinkedListElem_tIN10CShadowMgr16FlashlightInfo_tEtEtE4GrowEi
__ZN10CUtlMemoryI19UtlLinkedListElem_tIN10CShadowMgr19ShadowVertexCache_tEtEtE4GrowEi
__ZN10CUtlMemoryI19UtlLinkedListElem_tIN10CShadowMgr23ShadowVertexLargeList_tEtEtE4GrowEi
__ZN10CUtlMemoryI19UtlLinkedListElem_tIN10CShadowMgr23ShadowVertexSmallList_tEtEtE4GrowEi
__ZN10CUtlMemoryI19UtlLinkedListElem_tIN11COverlayMgr17RenderQueueHead_tEtEtE4GrowEi
__ZN10CUtlMemoryI19UtlLinkedListElem_tIN12CModelRender15ModelInstance_tEtEtE4GrowEi
__ZN10CUtlMemoryI19UtlLinkedListElem_tIN13CUtlMultiListIN16CDataManagerBase22resource_lru_element_tEtE6List_tEtEtE4GrowEi
__ZN10CUtlMemoryI19UtlLinkedListElem_tIN17CBidirectionalSetIttttE16BucketListInfo_tEtEtE4GrowEi
__ZN10CUtlMemoryI19UtlLinkedListElem_tIN17CBidirectionalSetIttttE17ElementListInfo_tEtEtE4GrowEi
__ZN10CUtlMemoryI19UtlLinkedListElem_tIN17CBrushBatchRender13brushrender_tEtEtE4GrowEi
__ZN10CUtlMemoryI19UtlLinkedListElem_tIN4vgui9ListPanel8column_tEhEhE4GrowEi
__ZN10CUtlMemoryI19UtlLinkedListElem_tIP11msurface2_ttEtE4GrowEi
__ZN10CUtlMemoryI19UtlLinkedListElem_tIP12CRecvDecodertEtE4GrowEi
__ZN10CUtlMemoryI19UtlLinkedListElem_tIP13CDTISendTabletEtE4GrowEi
__ZN10CUtlMemoryI19UtlLinkedListElem_tIP14CFrameSnapshottEtE4GrowEi
__ZN10CUtlMemoryI19UtlLinkedListElem_tIP16CClientSendTabletEtE4GrowEi
__ZN10CUtlMemoryI19UtlLinkedListElem_tIP9RecvTabletEtE4GrowEi
__ZN10CUtlMemoryI19UtlLinkedListElem_tIftEtE4GrowEi
__ZN10CUtlMemoryI19UtlLinkedListElem_tIttEtE4GrowEi
__ZN10CUtlMemoryIN4vgui16MessageMapItem_tEiE4GrowEi
__ZN10CUtlRBTreeI10CUtlStringiPFbRKS0_S2_E10CUtlMemoryI15UtlRBTreeNode_tIS0_iEiEE15InsertRebalanceEi
__ZN10CUtlRBTreeI10CUtlStringiPFbRKS0_S2_E10CUtlMemoryI15UtlRBTreeNode_tIS0_iEiEE6InsertES2_
__ZN10CUtlRBTreeI10CUtlStringiPFbRKS0_S2_E10CUtlMemoryI15UtlRBTreeNode_tIS0_iEiEE7NewNodeEv
__ZN10CUtlRBTreeI10CUtlStringiPFbRKS0_S2_E10CUtlMemoryI15UtlRBTreeNode_tIS0_iEiEE9RemoveAllEv
__ZN10CUtlRBTreeI10CUtlStringiPFbRKS0_S2_E10CUtlMemoryI15UtlRBTreeNode_tIS0_iEiEED2Ev
__ZN10CUtlRBTreeI10CUtlSymboltPFbRKS0_S2_E10CUtlMemoryI15UtlRBTreeNode_tIS0_tEtEE10RotateLeftEt
__ZN10CUtlRBTreeI10CUtlSymboltPFbRKS0_S2_E10CUtlMemoryI15UtlRBTreeNode_tIS0_tEtEE11RotateRightEt
__ZN10CUtlRBTreeI10CUtlSymboltPFbRKS0_S2_E10CUtlMemoryI15UtlRBTreeNode_tIS0_tEtEE15InsertRebalanceEt
__ZN10CUtlRBTreeI10CUtlSymboltPFbRKS0_S2_E10CUtlMemoryI15UtlRBTreeNode_tIS0_tEtEE5PurgeEv
__ZN10CUtlRBTreeI10CUtlSymboltPFbRKS0_S2_E10CUtlMemoryI15UtlRBTreeNode_tIS0_tEtEE6InsertES2_
__ZN10CUtlRBTreeI10CUtlSymboltPFbRKS0_S2_E10CUtlMemoryI15UtlRBTreeNode_tIS0_tEtEE7NewNodeEv
__ZN10CUtlRBTreeI10CUtlSymboltPFbRKS0_S2_E10CUtlMemoryI15UtlRBTreeNode_tIS0_tEtEED2Ev
__ZN10CUtlRBTreeI11SoundInfo_tiPFbRKS0_S2_E10CUtlMemoryI15UtlRBTreeNode_tIS0_iEiEE15InsertRebalanceEi
__ZN10CUtlRBTreeI11SoundInfo_tiPFbRKS0_S2_E10CUtlMemoryI15UtlRBTreeNode_tIS0_iEiEE6InsertES2_
__ZN10CUtlRBTreeI11SoundInfo_tiPFbRKS0_S2_E10CUtlMemoryI15UtlRBTreeNode_tIS0_iEiEE7NewNodeEv
__ZN10CUtlRBTreeI11SoundInfo_tiPFbRKS0_S2_E10CUtlMemoryI15UtlRBTreeNode_tIS0_iEiEED1Ev
__ZN10CUtlRBTreeI11SoundInfo_tiPFbRKS0_S2_E10CUtlMemoryI15UtlRBTreeNode_tIS0_iEiEED2Ev
__ZN10CUtlRBTreeI13MP3Duration_tiPFbRKS0_S2_E10CUtlMemoryI15UtlRBTreeNode_tIS0_iEiEE15InsertRebalanceEi
__ZN10CUtlRBTreeI13MP3Duration_tiPFbRKS0_S2_E10CUtlMemoryI15UtlRBTreeNode_tIS0_iEiEE6InsertES2_
__ZN10CUtlRBTreeI13MP3Duration_tiPFbRKS0_S2_E10CUtlMemoryI15UtlRBTreeNode_tIS0_iEiEE7NewNodeEv
__ZN10CUtlRBTreeI13MP3Duration_tiPFbRKS0_S2_E10CUtlMemoryI15UtlRBTreeNode_tIS0_iEiEED1Ev
__ZN10CUtlRBTreeI13MP3Duration_tiPFbRKS0_S2_E10CUtlMemoryI15UtlRBTreeNode_tIS0_iEiEED2Ev
__ZN10CUtlRBTreeI14MatchingProp_ttPFbRKS0_S2_E10CUtlMemoryI15UtlRBTreeNode_tIS0_tEtEE10RotateLeftEt
__ZN10CUtlRBTreeI14MatchingProp_ttPFbRKS0_S2_E10CUtlMemoryI15UtlRBTreeNode_tIS0_tEtEE11RotateRightEt
__ZN10CUtlRBTreeI14MatchingProp_ttPFbRKS0_S2_E10CUtlMemoryI15UtlRBTreeNode_tIS0_tEtEE15InsertRebalanceEt
__ZN10CUtlRBTreeI14MatchingProp_ttPFbRKS0_S2_E10CUtlMemoryI15UtlRBTreeNode_tIS0_tEtEE5PurgeEv
__ZN10CUtlRBTreeI14MatchingProp_ttPFbRKS0_S2_E10CUtlMemoryI15UtlRBTreeNode_tIS0_tEtEE6InsertES2_
__ZN10CUtlRBTreeI14MatchingProp_ttPFbRKS0_S2_E10CUtlMemoryI15UtlRBTreeNode_tIS0_tEtEE7NewNodeEv
__ZN10CUtlRBTreeI14MatchingProp_ttPFbRKS0_S2_E10CUtlMemoryI15UtlRBTreeNode_tIS0_tEtEED2Ev
__ZN10CUtlRBTreeI16CVoiceWriterDatatPFbRKS0_S2_E10CUtlMemoryI15UtlRBTreeNode_tIS0_tEtEE10RotateLeftEt
__ZN10CUtlRBTreeI16CVoiceWriterDatatPFbRKS0_S2_E10CUtlMemoryI15UtlRBTreeNode_tIS0_tEtEE11RotateRightEt
__ZN10CUtlRBTreeI16CVoiceWriterDatatPFbRKS0_S2_E10CUtlMemoryI15UtlRBTreeNode_tIS0_tEtEE15InsertRebalanceEt
__ZN10CUtlRBTreeI16CVoiceWriterDatatPFbRKS0_S2_E10CUtlMemoryI15UtlRBTreeNode_tIS0_tEtEE6InsertES2_
__ZN10CUtlRBTreeI16CVoiceWriterDatatPFbRKS0_S2_E10CUtlMemoryI15UtlRBTreeNode_tIS0_tEtEE7NewNodeEv
__ZN10CUtlRBTreeI16CVoiceWriterDatatPFbRKS0_S2_E10CUtlMemoryI15UtlRBTreeNode_tIS0_tEtEE9RemoveAllEv
__ZN10CUtlRBTreeI16CVoiceWriterDatatPFbRKS0_S2_E10CUtlMemoryI15UtlRBTreeNode_tIS0_tEtEED2Ev
__ZN10CUtlRBTreeI16MasterFileHash_tiPFbRKS0_S2_E10CUtlMemoryI15UtlRBTreeNode_tIS0_iEiEED2Ev
__ZN10CUtlRBTreeI18UserReportedFile_tiPFbRKS0_S2_E10CUtlMemoryI15UtlRBTreeNode_tIS0_iEiEE9RemoveAllEv
__ZN10CUtlRBTreeI18UserReportedFile_tiPFbRKS0_S2_E10CUtlMemoryI15UtlRBTreeNode_tIS0_iEiEED2Ev
__ZN10CUtlRBTreeI22UserReportedFileHash_tiPFbRKS0_S2_E10CUtlMemoryI15UtlRBTreeNode_tIS0_iEiEED2Ev
__ZN10CUtlRBTreeI23DecalMaterialSortData_tiPFbRKS0_S2_E10CUtlMemoryI15UtlRBTreeNode_tIS0_iEiEE15InsertRebalanceEi
__ZN10CUtlRBTreeI23DecalMaterialSortData_tiPFbRKS0_S2_E10CUtlMemoryI15UtlRBTreeNode_tIS0_iEiEE6InsertES2_
__ZN10CUtlRBTreeI23DecalMaterialSortData_tiPFbRKS0_S2_E10CUtlMemoryI15UtlRBTreeNode_tIS0_iEiEE7NewNodeEv
__ZN10CUtlRBTreeI23DecalMaterialSortData_tiPFbRKS0_S2_E10CUtlMemoryI15UtlRBTreeNode_tIS0_iEiEED2Ev
__ZN10CUtlRBTreeI6ccpairiPFbRKS0_S2_E10CUtlMemoryI15UtlRBTreeNode_tIS0_iEiEE15InsertRebalanceEi
__ZN10CUtlRBTreeI6ccpairiPFbRKS0_S2_E10CUtlMemoryI15UtlRBTreeNode_tIS0_iEiEE6InsertES2_
__ZN10CUtlRBTreeI6ccpairiPFbRKS0_S2_E10CUtlMemoryI15UtlRBTreeNode_tIS0_iEiEE7NewNodeEv
__ZN10CUtlRBTreeI6ccpairiPFbRKS0_S2_E10CUtlMemoryI15UtlRBTreeNode_tIS0_iEiEED2Ev
__ZN10CUtlRBTreeIN12CIPRateLimit8iprate_sEiPFbRKS1_S3_E10CUtlMemoryI15UtlRBTreeNode_tIS1_iEiEE15InsertRebalanceEi
__ZN10CUtlRBTreeIN12CIPRateLimit8iprate_sEiPFbRKS1_S3_E10CUtlMemoryI15UtlRBTreeNode_tIS1_iEiEE15RemoveRebalanceEi
__ZN10CUtlRBTreeIN12CIPRateLimit8iprate_sEiPFbRKS1_S3_E10CUtlMemoryI15UtlRBTreeNode_tIS1_iEiEE6InsertES3_
__ZN10CUtlRBTreeIN12CIPRateLimit8iprate_sEiPFbRKS1_S3_E10CUtlMemoryI15UtlRBTreeNode_tIS1_iEiEE6UnlinkEi
__ZN10CUtlRBTreeIN12CIPRateLimit8iprate_sEiPFbRKS1_S3_E10CUtlMemoryI15UtlRBTreeNode_tIS1_iEiEE7NewNodeEv
__ZN10CUtlRBTreeIN12CIPRateLimit8iprate_sEiPFbRKS1_S3_E10CUtlMemoryI15UtlRBTreeNode_tIS1_iEiEED2Ev
__ZN10CUtlRBTreeIN15CKeyBindingsMgr11KBContext_tEiPFbRKS1_S3_E10CUtlMemoryI15UtlRBTreeNode_tIS1_iEiEE9RemoveAllEv
__ZN10CUtlRBTreeIN15CKeyBindingsMgr11KBContext_tEiPFbRKS1_S3_E10CUtlMemoryI15UtlRBTreeNode_tIS1_iEiEED2Ev
__ZN10CUtlRBTreeIN15CUtlSymbolTable16CStringPoolIndexEtNS0_5CLessE10CUtlMemoryI15UtlRBTreeNode_tIS1_tEtEE10RotateLeftEt
__ZN10CUtlRBTreeIN15CUtlSymbolTable16CStringPoolIndexEtNS0_5CLessE10CUtlMemoryI15UtlRBTreeNode_tIS1_tEtEE11RotateRightEt
__ZN10CUtlRBTreeIN15CUtlSymbolTable16CStringPoolIndexEtNS0_5CLessE10CUtlMemoryI15UtlRBTreeNode_tIS1_tEtEE15InsertRebalanceEt
__ZN10CUtlRBTreeIN15CUtlSymbolTable16CStringPoolIndexEtNS0_5CLessE10CUtlMemoryI15UtlRBTreeNode_tIS1_tEtEE5PurgeEv
__ZN10CUtlRBTreeIN15CUtlSymbolTable16CStringPoolIndexEtNS0_5CLessE10CUtlMemoryI15UtlRBTreeNode_tIS1_tEtEE6InsertERKS1_
__ZN10CUtlRBTreeIN15CUtlSymbolTable16CStringPoolIndexEtNS0_5CLessE10CUtlMemoryI15UtlRBTreeNode_tIS1_tEtEE7NewNodeEv
__ZN10CUtlRBTreeIN15CUtlSymbolTable16CStringPoolIndexEtNS0_5CLessE10CUtlMemoryI15UtlRBTreeNode_tIS1_tEtEED2Ev
__ZN10CUtlRBTreeIN18CAsyncWavDataCache12CacheEntry_tEiPFbRKS1_S3_E10CUtlMemoryI15UtlRBTreeNode_tIS1_iEiEE15InsertRebalanceEi
__ZN10CUtlRBTreeIN18CAsyncWavDataCache12CacheEntry_tEiPFbRKS1_S3_E10CUtlMemoryI15UtlRBTreeNode_tIS1_iEiEE6InsertES3_
__ZN10CUtlRBTreeIN18CAsyncWavDataCache12CacheEntry_tEiPFbRKS1_S3_E10CUtlMemoryI15UtlRBTreeNode_tIS1_iEiEE7NewNodeEv
__ZN10CUtlRBTreeIN18CAsyncWavDataCache12CacheEntry_tEiPFbRKS1_S3_E10CUtlMemoryI15UtlRBTreeNode_tIS1_iEiEED2Ev
__ZN10CUtlRBTreeIN18CAsyncWavDataCache13BufferEntry_tEiPFbRKS1_S3_E10CUtlMemoryI15UtlRBTreeNode_tIS1_iEiEE15InsertRebalanceEi
__ZN10CUtlRBTreeIN18CAsyncWavDataCache13BufferEntry_tEiPFbRKS1_S3_E10CUtlMemoryI15UtlRBTreeNode_tIS1_iEiEE15RemoveRebalanceEi
__ZN10CUtlRBTreeIN18CAsyncWavDataCache13BufferEntry_tEiPFbRKS1_S3_E10CUtlMemoryI15UtlRBTreeNode_tIS1_iEiEE6InsertES3_
__ZN10CUtlRBTreeIN18CAsyncWavDataCache13BufferEntry_tEiPFbRKS1_S3_E10CUtlMemoryI15UtlRBTreeNode_tIS1_iEiEE6UnlinkEi
__ZN10CUtlRBTreeIN18CAsyncWavDataCache13BufferEntry_tEiPFbRKS1_S3_E10CUtlMemoryI15UtlRBTreeNode_tIS1_iEiEE7NewNodeEv
__ZN10CUtlRBTreeIN18CAsyncWavDataCache13BufferEntry_tEiPFbRKS1_S3_E10CUtlMemoryI15UtlRBTreeNode_tIS1_iEiEED2Ev
__ZN10CUtlRBTreeIN18CUtlCachedFileDataI22CAudioSourceCachedInfoE13ElementType_tEtPFbRKS3_S5_E10CUtlMemoryI15UtlRBTreeNode_tIS3_tEtEE10RotateLeftEt
__ZN10CUtlRBTreeIN18CUtlCachedFileDataI22CAudioSourceCachedInfoE13ElementType_tEtPFbRKS3_S5_E10CUtlMemoryI15UtlRBTreeNode_tIS3_tEtEE11RotateRightEt
__ZN10CUtlRBTreeIN18CUtlCachedFileDataI22CAudioSourceCachedInfoE13ElementType_tEtPFbRKS3_S5_E10CUtlMemoryI15UtlRBTreeNode_tIS3_tEtEE15InsertRebalanceEt
__ZN10CUtlRBTreeIN18CUtlCachedFileDataI22CAudioSourceCachedInfoE13ElementType_tEtPFbRKS3_S5_E10CUtlMemoryI15UtlRBTreeNode_tIS3_tEtEE5PurgeEv
__ZN10CUtlRBTreeIN18CUtlCachedFileDataI22CAudioSourceCachedInfoE13ElementType_tEtPFbRKS3_S5_E10CUtlMemoryI15UtlRBTreeNode_tIS3_tEtEE6InsertES5_
__ZN10CUtlRBTreeIN18CUtlCachedFileDataI22CAudioSourceCachedInfoE13ElementType_tEtPFbRKS3_S5_E10CUtlMemoryI15UtlRBTreeNode_tIS3_tEtEE7NewNodeEv
__ZN10CUtlRBTreeIN18CUtlCachedFileDataI22CAudioSourceCachedInfoE13ElementType_tEtPFbRKS3_S5_E10CUtlMemoryI15UtlRBTreeNode_tIS3_tEtEED2Ev
__ZN10CUtlRBTreeIN22CProfileHierarchyPanel14ColumnPanels_tEiPFbRKS1_S3_E10CUtlMemoryI15UtlRBTreeNode_tIS1_iEiEE15InsertRebalanceEi
__ZN10CUtlRBTreeIN22CProfileHierarchyPanel14ColumnPanels_tEiPFbRKS1_S3_E10CUtlMemoryI15UtlRBTreeNode_tIS1_iEiEE6InsertES3_
__ZN10CUtlRBTreeIN22CProfileHierarchyPanel14ColumnPanels_tEiPFbRKS1_S3_E10CUtlMemoryI15UtlRBTreeNode_tIS1_iEiEE7NewNodeEv
__ZN10CUtlRBTreeIN22CProfileHierarchyPanel14ColumnPanels_tEiPFbRKS1_S3_E10CUtlMemoryI15UtlRBTreeNode_tIS1_iEiEE9RemoveAllEv
__ZN10CUtlRBTreeIN22CProfileHierarchyPanel14ColumnPanels_tEiPFbRKS1_S3_E10CUtlMemoryI15UtlRBTreeNode_tIS1_iEiEED2Ev
__ZN10CUtlRBTreeIN27CDmxSerializationDictionary16DmxElementInfo_tEiPFbRKS1_S3_E10CUtlMemoryI15UtlRBTreeNode_tIS1_iEiEE15InsertRebalanceEi
__ZN10CUtlRBTreeIN27CDmxSerializationDictionary16DmxElementInfo_tEiPFbRKS1_S3_E10CUtlMemoryI15UtlRBTreeNode_tIS1_iEiEE6InsertES3_
__ZN10CUtlRBTreeIN27CDmxSerializationDictionary16DmxElementInfo_tEiPFbRKS1_S3_E10CUtlMemoryI15UtlRBTreeNode_tIS1_iEiEE7NewNodeEv
__ZN10CUtlRBTreeIN27CDmxSerializationDictionary16DmxElementInfo_tEiPFbRKS1_S3_E10CUtlMemoryI15UtlRBTreeNode_tIS1_iEiEED2Ev
__ZN10CUtlRBTreeIN4vgui9ListPanel11IndexItem_tEiPFbRKS2_S4_E10CUtlMemoryI15UtlRBTreeNode_tIS2_iEiEE15InsertRebalanceEi
__ZN10CUtlRBTreeIN4vgui9ListPanel11IndexItem_tEiPFbRKS2_S4_E10CUtlMemoryI15UtlRBTreeNode_tIS2_iEiEE15RemoveRebalanceEi
__ZN10CUtlRBTreeIN4vgui9ListPanel11IndexItem_tEiPFbRKS2_S4_E10CUtlMemoryI15UtlRBTreeNode_tIS2_iEiEE6InsertES4_
__ZN10CUtlRBTreeIN4vgui9ListPanel11IndexItem_tEiPFbRKS2_S4_E10CUtlMemoryI15UtlRBTreeNode_tIS2_iEiEE6UnlinkEi
__ZN10CUtlRBTreeIN4vgui9ListPanel11IndexItem_tEiPFbRKS2_S4_E10CUtlMemoryI15UtlRBTreeNode_tIS2_iEiEE7NewNodeEv
__ZN10CUtlRBTreeIN4vgui9ListPanel11IndexItem_tEiPFbRKS2_S4_E10CUtlMemoryI15UtlRBTreeNode_tIS2_iEiEED2Ev
__ZN10CUtlRBTreeIN7CUtlMapI10CUtlStringitPFbRKS1_S3_EE6Node_tEtNS6_8CKeyLessE10CUtlMemoryI15UtlRBTreeNode_tIS7_tEtEE10RotateLeftEt
__ZN10CUtlRBTreeIN7CUtlMapI10CUtlStringitPFbRKS1_S3_EE6Node_tEtNS6_8CKeyLessE10CUtlMemoryI15UtlRBTreeNode_tIS7_tEtEE11RotateRightEt
__ZN10CUtlRBTreeIN7CUtlMapI10CUtlStringitPFbRKS1_S3_EE6Node_tEtNS6_8CKeyLessE10CUtlMemoryI15UtlRBTreeNode_tIS7_tEtEE15InsertRebalanceEt
__ZN10CUtlRBTreeIN7CUtlMapI10CUtlStringitPFbRKS1_S3_EE6Node_tEtNS6_8CKeyLessE10CUtlMemoryI15UtlRBTreeNode_tIS7_tEtEE6InsertERKS7_
__ZN10CUtlRBTreeIN7CUtlMapI10CUtlStringitPFbRKS1_S3_EE6Node_tEtNS6_8CKeyLessE10CUtlMemoryI15UtlRBTreeNode_tIS7_tEtEE7NewNodeEv
__ZN10CUtlRBTreeIN7CUtlMapI10CUtlStringitPFbRKS1_S3_EE6Node_tEtNS6_8CKeyLessE10CUtlMemoryI15UtlRBTreeNode_tIS7_tEtEE9RemoveAllEv
__ZN10CUtlRBTreeIN7CUtlMapI10CUtlStringitPFbRKS1_S3_EE6Node_tEtNS6_8CKeyLessE10CUtlMemoryI15UtlRBTreeNode_tIS7_tEtEED2Ev
__ZN10CUtlRBTreeIN7CUtlMapI10CUtlSymbolN14CSaveDirectory6file_tEtPFbRKS1_S5_EE6Node_tEtNS8_8CKeyLessE10CUtlMemoryI15UtlRBTreeNode_tIS9_tEtEE10RotateLeftEt
__ZN10CUtlRBTreeIN7CUtlMapI10CUtlSymbolN14CSaveDirectory6file_tEtPFbRKS1_S5_EE6Node_tEtNS8_8CKeyLessE10CUtlMemoryI15UtlRBTreeNode_tIS9_tEtEE11RotateRightEt
__ZN10CUtlRBTreeIN7CUtlMapI10CUtlSymbolN14CSaveDirectory6file_tEtPFbRKS1_S5_EE6Node_tEtNS8_8CKeyLessE10CUtlMemoryI15UtlRBTreeNode_tIS9_tEtEE15InsertRebalanceEt
__ZN10CUtlRBTreeIN7CUtlMapI10CUtlSymbolN14CSaveDirectory6file_tEtPFbRKS1_S5_EE6Node_tEtNS8_8CKeyLessE10CUtlMemoryI15UtlRBTreeNode_tIS9_tEtEE15RemoveRebalanceEt
__ZN10CUtlRBTreeIN7CUtlMapI10CUtlSymbolN14CSaveDirectory6file_tEtPFbRKS1_S5_EE6Node_tEtNS8_8CKeyLessE10CUtlMemoryI15UtlRBTreeNode_tIS9_tEtEE4LinkEt
__ZN10CUtlRBTreeIN7CUtlMapI10CUtlSymbolN14CSaveDirectory6file_tEtPFbRKS1_S5_EE6Node_tEtNS8_8CKeyLessE10CUtlMemoryI15UtlRBTreeNode_tIS9_tEtEE5PurgeEv
__ZN10CUtlRBTreeIN7CUtlMapI10CUtlSymbolN14CSaveDirectory6file_tEtPFbRKS1_S5_EE6Node_tEtNS8_8CKeyLessE10CUtlMemoryI15UtlRBTreeNode_tIS9_tEtEE6InsertERKS9_
__ZN10CUtlRBTreeIN7CUtlMapI10CUtlSymbolN14CSaveDirectory6file_tEtPFbRKS1_S5_EE6Node_tEtNS8_8CKeyLessE10CUtlMemoryI15UtlRBTreeNode_tIS9_tEtEE6UnlinkEt
__ZN10CUtlRBTreeIN7CUtlMapI10CUtlSymbolN14CSaveDirectory6file_tEtPFbRKS1_S5_EE6Node_tEtNS8_8CKeyLessE10CUtlMemoryI15UtlRBTreeNode_tIS9_tEtEE7NewNodeEv
__ZN10CUtlRBTreeIN7CUtlMapI10CUtlSymbolN14CSaveDirectory6file_tEtPFbRKS1_S5_EE6Node_tEtNS8_8CKeyLessE10CUtlMemoryI15UtlRBTreeNode_tIS9_tEtEED2Ev
__ZN10CUtlRBTreeIN7CUtlMapIPKc10CUtlStringtPFbRKS2_S5_EE6Node_tEtNS8_8CKeyLessE10CUtlMemoryI15UtlRBTreeNode_tIS9_tEtEE9RemoveAllEv
__ZN10CUtlRBTreeIN7CUtlMapIPKc10CUtlStringtPFbRKS2_S5_EE6Node_tEtNS8_8CKeyLessE10CUtlMemoryI15UtlRBTreeNode_tIS9_tEtEED2Ev
__ZN10CUtlRBTreeIN7CUtlMapIPKc12CMapListItemiPFbRKS2_S5_EE6Node_tEiNS8_8CKeyLessE10CUtlMemoryI15UtlRBTreeNode_tIS9_iEiEE15InsertRebalanceEi
__ZN10CUtlRBTreeIN7CUtlMapIPKc12CMapListItemiPFbRKS2_S5_EE6Node_tEiNS8_8CKeyLessE10CUtlMemoryI15UtlRBTreeNode_tIS9_iEiEE6InsertERKS9_
__ZN10CUtlRBTreeIN7CUtlMapIPKc12CMapListItemiPFbRKS2_S5_EE6Node_tEiNS8_8CKeyLessE10CUtlMemoryI15UtlRBTreeNode_tIS9_iEiEE7NewNodeEv
__ZN10CUtlRBTreeIN7CUtlMapIPKc12CMapListItemiPFbRKS2_S5_EE6Node_tEiNS8_8CKeyLessE10CUtlMemoryI15UtlRBTreeNode_tIS9_iEiEED2Ev
__ZN10CUtlRBTreeIN7CUtlMapIPKcN12CSaveRestore18RestoreLookupTableEiPFbRKS2_S6_EE6Node_tEiNS9_8CKeyLessE10CUtlMemoryI15UtlRBTreeNode_tISA_iEiEE15InsertRebalanceEi
__ZN10CUtlRBTreeIN7CUtlMapIPKcN12CSaveRestore18RestoreLookupTableEiPFbRKS2_S6_EE6Node_tEiNS9_8CKeyLessE10CUtlMemoryI15UtlRBTreeNode_tISA_iEiEE6InsertERKSA_
__ZN10CUtlRBTreeIN7CUtlMapIPKcN12CSaveRestore18RestoreLookupTableEiPFbRKS2_S6_EE6Node_tEiNS9_8CKeyLessE10CUtlMemoryI15UtlRBTreeNode_tISA_iEiEE7NewNodeEv
__ZN10CUtlRBTreeIN7CUtlMapIPKcN12CSaveRestore18RestoreLookupTableEiPFbRKS2_S6_EE6Node_tEiNS9_8CKeyLessE10CUtlMemoryI15UtlRBTreeNode_tISA_iEiEE9RemoveAllEv
__ZN10CUtlRBTreeIN7CUtlMapIPKcN12CSaveRestore18RestoreLookupTableEiPFbRKS2_S6_EE6Node_tEiNS9_8CKeyLessE10CUtlMemoryI15UtlRBTreeNode_tISA_iEiEED2Ev
__ZN10CUtlRBTreeIN7CUtlMapIPKcN25CPanelAnimationDictionary32PanelAnimationMapDictionaryEntryEiPFbRKS2_S6_EE6Node_tEiNS9_8CKeyLessE10CUtlMemoryI15UtlRBTreeNode_tISA_iEiEE15InsertRebalanceEi
__ZN10CUtlRBTreeIN7CUtlMapIPKcN25CPanelAnimationDictionary32PanelAnimationMapDictionaryEntryEiPFbRKS2_S6_EE6Node_tEiNS9_8CKeyLessE10CUtlMemoryI15UtlRBTreeNode_tISA_iEiEE6InsertERKSA_
__ZN10CUtlRBTreeIN7CUtlMapIPKcN25CPanelAnimationDictionary32PanelAnimationMapDictionaryEntryEiPFbRKS2_S6_EE6Node_tEiNS9_8CKeyLessE10CUtlMemoryI15UtlRBTreeNode_tISA_iEiEE7NewNodeEv
__ZN10CUtlRBTreeIN7CUtlMapIPKcN25CPanelAnimationDictionary32PanelAnimationMapDictionaryEntryEiPFbRKS2_S6_EE6Node_tEiNS9_8CKeyLessE10CUtlMemoryI15UtlRBTreeNode_tISA_iEiEED2Ev
__ZN10CUtlRBTreeIN7CUtlMapIPKcN26CPanelMessageMapDictionary30PanelMessageMapDictionaryEntryEiPFbRKS2_S6_EE6Node_tEiNS9_8CKeyLessE10CUtlMemoryI15UtlRBTreeNode_tISA_iEiEE15InsertRebalanceEi
__ZN10CUtlRBTreeIN7CUtlMapIPKcN26CPanelMessageMapDictionary30PanelMessageMapDictionaryEntryEiPFbRKS2_S6_EE6Node_tEiNS9_8CKeyLessE10CUtlMemoryI15UtlRBTreeNode_tISA_iEiEE6InsertERKSA_
__ZN10CUtlRBTreeIN7CUtlMapIPKcN26CPanelMessageMapDictionary30PanelMessageMapDictionaryEntryEiPFbRKS2_S6_EE6Node_tEiNS9_8CKeyLessE10CUtlMemoryI15UtlRBTreeNode_tISA_iEiEE7NewNodeEv
__ZN10CUtlRBTreeIN7CUtlMapIPKcN26CPanelMessageMapDictionary30PanelMessageMapDictionaryEntryEiPFbRKS2_S6_EE6Node_tEiNS9_8CKeyLessE10CUtlMemoryI15UtlRBTreeNode_tISA_iEiEED2Ev
__ZN10CUtlRBTreeIN7CUtlMapIPKcN29CPanelKeyBindingMapDictionary33PanelKeyBindingMapDictionaryEntryEiPFbRKS2_S6_EE6Node_tEiNS9_8CKeyLessE10CUtlMemoryI15UtlRBTreeNode_tISA_iEiEE15InsertRebalanceEi
__ZN10CUtlRBTreeIN7CUtlMapIPKcN29CPanelKeyBindingMapDictionary33PanelKeyBindingMapDictionaryEntryEiPFbRKS2_S6_EE6Node_tEiNS9_8CKeyLessE10CUtlMemoryI15UtlRBTreeNode_tISA_iEiEE6InsertERKSA_
__ZN10CUtlRBTreeIN7CUtlMapIPKcN29CPanelKeyBindingMapDictionary33PanelKeyBindingMapDictionaryEntryEiPFbRKS2_S6_EE6Node_tEiNS9_8CKeyLessE10CUtlMemoryI15UtlRBTreeNode_tISA_iEiEE7NewNodeEv
__ZN10CUtlRBTreeIN7CUtlMapIPKcN29CPanelKeyBindingMapDictionary33PanelKeyBindingMapDictionaryEntryEiPFbRKS2_S6_EE6Node_tEiNS9_8CKeyLessE10CUtlMemoryI15UtlRBTreeNode_tISA_iEiEED2Ev
__ZN10CUtlRBTreeIN7CUtlMapIPKcN4vgui12VPanelHandleEiPFbRKS2_S6_EE6Node_tEiNS9_8CKeyLessE10CUtlMemoryI15UtlRBTreeNode_tISA_iEiEE15InsertRebalanceEi
__ZN10CUtlRBTreeIN7CUtlMapIPKcN4vgui12VPanelHandleEiPFbRKS2_S6_EE6Node_tEiNS9_8CKeyLessE10CUtlMemoryI15UtlRBTreeNode_tISA_iEiEE15RemoveRebalanceEi
__ZN10CUtlRBTreeIN7CUtlMapIPKcN4vgui12VPanelHandleEiPFbRKS2_S6_EE6Node_tEiNS9_8CKeyLessE10CUtlMemoryI15UtlRBTreeNode_tISA_iEiEE6InsertERKSA_
__ZN10CUtlRBTreeIN7CUtlMapIPKcN4vgui12VPanelHandleEiPFbRKS2_S6_EE6Node_tEiNS9_8CKeyLessE10CUtlMemoryI15UtlRBTreeNode_tISA_iEiEE6UnlinkEi
__ZN10CUtlRBTreeIN7CUtlMapIPKcN4vgui12VPanelHandleEiPFbRKS2_S6_EE6Node_tEiNS9_8CKeyLessE10CUtlMemoryI15UtlRBTreeNode_tISA_iEiEE7NewNodeEv
__ZN10CUtlRBTreeIN7CUtlMapIPKcN4vgui12VPanelHandleEiPFbRKS2_S6_EE6Node_tEiNS9_8CKeyLessE10CUtlMemoryI15UtlRBTreeNode_tISA_iEiEED2Ev
__ZN10CUtlRBTreeIN7CUtlMapIPKcP13memhandle_t__iPFbRKS2_S6_EE6Node_tEiNS9_8CKeyLessE10CUtlMemoryI15UtlRBTreeNode_tISA_iEiEED2Ev
__ZN10CUtlRBTreeIN7CUtlMapIPKcP9CSentenceiPFbRKS2_S6_EE6Node_tEiNS9_8CKeyLessE10CUtlMemoryI15UtlRBTreeNode_tISA_iEiEE15InsertRebalanceEi
__ZN10CUtlRBTreeIN7CUtlMapIPKcP9CSentenceiPFbRKS2_S6_EE6Node_tEiNS9_8CKeyLessE10CUtlMemoryI15UtlRBTreeNode_tISA_iEiEE15RemoveRebalanceEi
__ZN10CUtlRBTreeIN7CUtlMapIPKcP9CSentenceiPFbRKS2_S6_EE6Node_tEiNS9_8CKeyLessE10CUtlMemoryI15UtlRBTreeNode_tISA_iEiEE6InsertERKSA_
__ZN10CUtlRBTreeIN7CUtlMapIPKcP9CSentenceiPFbRKS2_S6_EE6Node_tEiNS9_8CKeyLessE10CUtlMemoryI15UtlRBTreeNode_tISA_iEiEE6UnlinkEi
__ZN10CUtlRBTreeIN7CUtlMapIPKcP9CSentenceiPFbRKS2_S6_EE6Node_tEiNS9_8CKeyLessE10CUtlMemoryI15UtlRBTreeNode_tISA_iEiEE7NewNodeEv
__ZN10CUtlRBTreeIN7CUtlMapIPKcP9CSentenceiPFbRKS2_S6_EE6Node_tEiNS9_8CKeyLessE10CUtlMemoryI15UtlRBTreeNode_tISA_iEiEED2Ev
__ZN10CUtlRBTreeIN7CUtlMapIPKcP9KeyValuesiPFbRKS2_S6_EE6Node_tEiNS9_8CKeyLessE10CUtlMemoryI15UtlRBTreeNode_tISA_iEiEE15InsertRebalanceEi
__ZN10CUtlRBTreeIN7CUtlMapIPKcP9KeyValuesiPFbRKS2_S6_EE6Node_tEiNS9_8CKeyLessE10CUtlMemoryI15UtlRBTreeNode_tISA_iEiEE6InsertERKSA_
__ZN10CUtlRBTreeIN7CUtlMapIPKcP9KeyValuesiPFbRKS2_S6_EE6Node_tEiNS9_8CKeyLessE10CUtlMemoryI15UtlRBTreeNode_tISA_iEiEE7NewNodeEv
__ZN10CUtlRBTreeIN7CUtlMapIPKcP9KeyValuesiPFbRKS2_S6_EE6Node_tEiNS9_8CKeyLessE10CUtlMemoryI15UtlRBTreeNode_tISA_iEiEED2Ev
__ZN10CUtlRBTreeIN7CUtlMapIPKcPN20CPureServerWhitelist8CCommandEiPFbRKS2_S7_EE6Node_tEiNSA_8CKeyLessE10CUtlMemoryI15UtlRBTreeNode_tISB_iEiEE15InsertRebalanceEi
__ZN10CUtlRBTreeIN7CUtlMapIPKcPN20CPureServerWhitelist8CCommandEiPFbRKS2_S7_EE6Node_tEiNSA_8CKeyLessE10CUtlMemoryI15UtlRBTreeNode_tISB_iEiEE15RemoveRebalanceEi
__ZN10CUtlRBTreeIN7CUtlMapIPKcPN20CPureServerWhitelist8CCommandEiPFbRKS2_S7_EE6Node_tEiNSA_8CKeyLessE10CUtlMemoryI15UtlRBTreeNode_tISB_iEiEE6InsertERKSB_
__ZN10CUtlRBTreeIN7CUtlMapIPKcPN20CPureServerWhitelist8CCommandEiPFbRKS2_S7_EE6Node_tEiNSA_8CKeyLessE10CUtlMemoryI15UtlRBTreeNode_tISB_iEiEE6UnlinkEi
__ZN10CUtlRBTreeIN7CUtlMapIPKcPN20CPureServerWhitelist8CCommandEiPFbRKS2_S7_EE6Node_tEiNSA_8CKeyLessE10CUtlMemoryI15UtlRBTreeNode_tISB_iEiEE7NewNodeEv
__ZN10CUtlRBTreeIN7CUtlMapIPKcPN20CPureServerWhitelist8CCommandEiPFbRKS2_S7_EE6Node_tEiNSA_8CKeyLessE10CUtlMemoryI15UtlRBTreeNode_tISB_iEiEED2Ev
__ZN10CUtlRBTreeIN7CUtlMapIPKcPN4vgui32IPanelAnimationPropertyConverterEiPFbRKS2_S7_EE6Node_tEiNSA_8CKeyLessE10CUtlMemoryI15UtlRBTreeNode_tISB_iEiEE15InsertRebalanceEi
__ZN10CUtlRBTreeIN7CUtlMapIPKcPN4vgui32IPanelAnimationPropertyConverterEiPFbRKS2_S7_EE6Node_tEiNSA_8CKeyLessE10CUtlMemoryI15UtlRBTreeNode_tISB_iEiEE6InsertERKSB_
__ZN10CUtlRBTreeIN7CUtlMapIPKcPN4vgui32IPanelAnimationPropertyConverterEiPFbRKS2_S7_EE6Node_tEiNSA_8CKeyLessE10CUtlMemoryI15UtlRBTreeNode_tISB_iEiEE7NewNodeEv
__ZN10CUtlRBTreeIN7CUtlMapIPKcPN4vgui32IPanelAnimationPropertyConverterEiPFbRKS2_S7_EE6Node_tEiNSA_8CKeyLessE10CUtlMemoryI15UtlRBTreeNode_tISB_iEiEED2Ev
__ZN10CUtlRBTreeIN7CUtlMapIPKciiPFbRKS2_S4_EE6Node_tEiNS7_8CKeyLessE10CUtlMemoryI15UtlRBTreeNode_tIS8_iEiEE15InsertRebalanceEi
__ZN10CUtlRBTreeIN7CUtlMapIPKciiPFbRKS2_S4_EE6Node_tEiNS7_8CKeyLessE10CUtlMemoryI15UtlRBTreeNode_tIS8_iEiEE6InsertERKS8_
__ZN10CUtlRBTreeIN7CUtlMapIPKciiPFbRKS2_S4_EE6Node_tEiNS7_8CKeyLessE10CUtlMemoryI15UtlRBTreeNode_tIS8_iEiEE7NewNodeEv
__ZN10CUtlRBTreeIN7CUtlMapIPKciiPFbRKS2_S4_EE6Node_tEiNS7_8CKeyLessE10CUtlMemoryI15UtlRBTreeNode_tIS8_iEiEED2Ev
__ZN10CUtlRBTreeIN7CUtlMapIPKcitPFbRKS2_S4_EE6Node_tEtNS7_8CKeyLessE10CUtlMemoryI15UtlRBTreeNode_tIS8_tEtEE10RotateLeftEt
__ZN10CUtlRBTreeIN7CUtlMapIPKcitPFbRKS2_S4_EE6Node_tEtNS7_8CKeyLessE10CUtlMemoryI15UtlRBTreeNode_tIS8_tEtEE11RotateRightEt
__ZN10CUtlRBTreeIN7CUtlMapIPKcitPFbRKS2_S4_EE6Node_tEtNS7_8CKeyLessE10CUtlMemoryI15UtlRBTreeNode_tIS8_tEtEE15InsertRebalanceEt
__ZN10CUtlRBTreeIN7CUtlMapIPKcitPFbRKS2_S4_EE6Node_tEtNS7_8CKeyLessE10CUtlMemoryI15UtlRBTreeNode_tIS8_tEtEE5PurgeEv
__ZN10CUtlRBTreeIN7CUtlMapIPKcitPFbRKS2_S4_EE6Node_tEtNS7_8CKeyLessE10CUtlMemoryI15UtlRBTreeNode_tIS8_tEtEE6InsertERKS8_
__ZN10CUtlRBTreeIN7CUtlMapIPKcitPFbRKS2_S4_EE6Node_tEtNS7_8CKeyLessE10CUtlMemoryI15UtlRBTreeNode_tIS8_tEtEE7NewNodeEv
__ZN10CUtlRBTreeIN7CUtlMapIPKcitPFbRKS2_S4_EE6Node_tEtNS7_8CKeyLessE10CUtlMemoryI15UtlRBTreeNode_tIS8_tEtEED2Ev
__ZN10CUtlRBTreeIN7CUtlMapIPv10DecalEntrytPFbRKS1_S4_EE6Node_tEtNS7_8CKeyLessE10CUtlMemoryI15UtlRBTreeNode_tIS8_tEtEE10RotateLeftEt
__ZN10CUtlRBTreeIN7CUtlMapIPv10DecalEntrytPFbRKS1_S4_EE6Node_tEtNS7_8CKeyLessE10CUtlMemoryI15UtlRBTreeNode_tIS8_tEtEE11RotateRightEt
__ZN10CUtlRBTreeIN7CUtlMapIPv10DecalEntrytPFbRKS1_S4_EE6Node_tEtNS7_8CKeyLessE10CUtlMemoryI15UtlRBTreeNode_tIS8_tEtEE15InsertRebalanceEt
__ZN10CUtlRBTreeIN7CUtlMapIPv10DecalEntrytPFbRKS1_S4_EE6Node_tEtNS7_8CKeyLessE10CUtlMemoryI15UtlRBTreeNode_tIS8_tEtEE5PurgeEv
__ZN10CUtlRBTreeIN7CUtlMapIPv10DecalEntrytPFbRKS1_S4_EE6Node_tEtNS7_8CKeyLessE10CUtlMemoryI15UtlRBTreeNode_tIS8_tEtEE6InsertERKS8_
__ZN10CUtlRBTreeIN7CUtlMapIPv10DecalEntrytPFbRKS1_S4_EE6Node_tEtNS7_8CKeyLessE10CUtlMemoryI15UtlRBTreeNode_tIS8_tEtEE7NewNodeEv
__ZN10CUtlRBTreeIN7CUtlMapIPv10DecalEntrytPFbRKS1_S4_EE6Node_tEtNS7_8CKeyLessE10CUtlMemoryI15UtlRBTreeNode_tIS8_tEtEED2Ev
__ZN10CUtlRBTreeIN7CUtlMapIPv12SfxDictEntrytPFbRKS1_S4_EE6Node_tEtNS7_8CKeyLessE10CUtlMemoryI15UtlRBTreeNode_tIS8_tEtEE10RotateLeftEt
__ZN10CUtlRBTreeIN7CUtlMapIPv12SfxDictEntrytPFbRKS1_S4_EE6Node_tEtNS7_8CKeyLessE10CUtlMemoryI15UtlRBTreeNode_tIS8_tEtEE11RotateRightEt
__ZN10CUtlRBTreeIN7CUtlMapIPv12SfxDictEntrytPFbRKS1_S4_EE6Node_tEtNS7_8CKeyLessE10CUtlMemoryI15UtlRBTreeNode_tIS8_tEtEE15InsertRebalanceEt
__ZN10CUtlRBTreeIN7CUtlMapIPv12SfxDictEntrytPFbRKS1_S4_EE6Node_tEtNS7_8CKeyLessE10CUtlMemoryI15UtlRBTreeNode_tIS8_tEtEE5PurgeEv
__ZN10CUtlRBTreeIN7CUtlMapIPv12SfxDictEntrytPFbRKS1_S4_EE6Node_tEtNS7_8CKeyLessE10CUtlMemoryI15UtlRBTreeNode_tIS8_tEtEE6InsertERKS8_
__ZN10CUtlRBTreeIN7CUtlMapIPv12SfxDictEntrytPFbRKS1_S4_EE6Node_tEtNS7_8CKeyLessE10CUtlMemoryI15UtlRBTreeNode_tIS8_tEtEE7NewNodeEv
__ZN10CUtlRBTreeIN7CUtlMapIPv12SfxDictEntrytPFbRKS1_S4_EE6Node_tEtNS7_8CKeyLessE10CUtlMemoryI15UtlRBTreeNode_tIS8_tEtEED2Ev
__ZN10CUtlRBTreeIN7CUtlMapIPv23CNetworkStringTableItemtPFbRKS1_S4_EE6Node_tEtNS7_8CKeyLessE10CUtlMemoryI15UtlRBTreeNode_tIS8_tEtEE10RotateLeftEt
__ZN10CUtlRBTreeIN7CUtlMapIPv23CNetworkStringTableItemtPFbRKS1_S4_EE6Node_tEtNS7_8CKeyLessE10CUtlMemoryI15UtlRBTreeNode_tIS8_tEtEE11RotateRightEt
__ZN10CUtlRBTreeIN7CUtlMapIPv23CNetworkStringTableItemtPFbRKS1_S4_EE6Node_tEtNS7_8CKeyLessE10CUtlMemoryI15UtlRBTreeNode_tIS8_tEtEE15InsertRebalanceEt
__ZN10CUtlRBTreeIN7CUtlMapIPv23CNetworkStringTableItemtPFbRKS1_S4_EE6Node_tEtNS7_8CKeyLessE10CUtlMemoryI15UtlRBTreeNode_tIS8_tEtEE6InsertERKS8_
__ZN10CUtlRBTreeIN7CUtlMapIPv23CNetworkStringTableItemtPFbRKS1_S4_EE6Node_tEtNS7_8CKeyLessE10CUtlMemoryI15UtlRBTreeNode_tIS8_tEtEE7NewNodeEv
__ZN10CUtlRBTreeIN7CUtlMapIPv23CNetworkStringTableItemtPFbRKS1_S4_EE6Node_tEtNS7_8CKeyLessE10CUtlMemoryI15UtlRBTreeNode_tIS8_tEtEE9RemoveAllEv
__ZN10CUtlRBTreeIN7CUtlMapIPv23CNetworkStringTableItemtPFbRKS1_S4_EE6Node_tEtNS7_8CKeyLessE10CUtlMemoryI15UtlRBTreeNode_tIS8_tEtEED2Ev
__ZN10CUtlRBTreeIN7CUtlMapIPvN12CModelLoader12ModelEntry_tEtPFbRKS1_S5_EE6Node_tEtNS8_8CKeyLessE10CUtlMemoryI15UtlRBTreeNode_tIS9_tEtEE10RotateLeftEt
__ZN10CUtlRBTreeIN7CUtlMapIPvN12CModelLoader12ModelEntry_tEtPFbRKS1_S5_EE6Node_tEtNS8_8CKeyLessE10CUtlMemoryI15UtlRBTreeNode_tIS9_tEtEE11RotateRightEt
__ZN10CUtlRBTreeIN7CUtlMapIPvN12CModelLoader12ModelEntry_tEtPFbRKS1_S5_EE6Node_tEtNS8_8CKeyLessE10CUtlMemoryI15UtlRBTreeNode_tIS9_tEtEE15InsertRebalanceEt
__ZN10CUtlRBTreeIN7CUtlMapIPvN12CModelLoader12ModelEntry_tEtPFbRKS1_S5_EE6Node_tEtNS8_8CKeyLessE10CUtlMemoryI15UtlRBTreeNode_tIS9_tEtEE5PurgeEv
__ZN10CUtlRBTreeIN7CUtlMapIPvN12CModelLoader12ModelEntry_tEtPFbRKS1_S5_EE6Node_tEtNS8_8CKeyLessE10CUtlMemoryI15UtlRBTreeNode_tIS9_tEtEE6InsertERKS9_
__ZN10CUtlRBTreeIN7CUtlMapIPvN12CModelLoader12ModelEntry_tEtPFbRKS1_S5_EE6Node_tEtNS8_8CKeyLessE10CUtlMemoryI15UtlRBTreeNode_tIS9_tEtEE7NewNodeEv
__ZN10CUtlRBTreeIN7CUtlMapIPvN12CModelLoader12ModelEntry_tEtPFbRKS1_S5_EE6Node_tEtNS8_8CKeyLessE10CUtlMemoryI15UtlRBTreeNode_tIS9_tEtEED2Ev
__ZN10CUtlRBTreeIN7CUtlMapIiN8CNetChan24MessageProcessingStats_tEi8CDefLessIiEE6Node_tEiNS5_8CKeyLessE10CUtlMemoryI15UtlRBTreeNode_tIS6_iEiEE15InsertRebalanceEi
__ZN10CUtlRBTreeIN7CUtlMapIiN8CNetChan24MessageProcessingStats_tEi8CDefLessIiEE6Node_tEiNS5_8CKeyLessE10CUtlMemoryI15UtlRBTreeNode_tIS6_iEiEE6InsertERKS6_
__ZN10CUtlRBTreeIN7CUtlMapIiN8CNetChan24MessageProcessingStats_tEi8CDefLessIiEE6Node_tEiNS5_8CKeyLessE10CUtlMemoryI15UtlRBTreeNode_tIS6_iEiEE7NewNodeEv
__ZN10CUtlRBTreeIN7CUtlMapIiN8CNetChan24MessageProcessingStats_tEi8CDefLessIiEE6Node_tEiNS5_8CKeyLessE10CUtlMemoryI15UtlRBTreeNode_tIS6_iEiEED2Ev
__ZN10CUtlRBTreeIN7CUtlMapIjP11INetChanneltPFbRKjS4_EE6Node_tEtNS7_8CKeyLessE10CUtlMemoryI15UtlRBTreeNode_tIS8_tEtEE10RotateLeftEt
__ZN10CUtlRBTreeIN7CUtlMapIjP11INetChanneltPFbRKjS4_EE6Node_tEtNS7_8CKeyLessE10CUtlMemoryI15UtlRBTreeNode_tIS8_tEtEE11RotateRightEt
__ZN10CUtlRBTreeIN7CUtlMapIjP11INetChanneltPFbRKjS4_EE6Node_tEtNS7_8CKeyLessE10CUtlMemoryI15UtlRBTreeNode_tIS8_tEtEE15InsertRebalanceEt
__ZN10CUtlRBTreeIN7CUtlMapIjP11INetChanneltPFbRKjS4_EE6Node_tEtNS7_8CKeyLessE10CUtlMemoryI15UtlRBTreeNode_tIS8_tEtEE15RemoveRebalanceEt
__ZN10CUtlRBTreeIN7CUtlMapIjP11INetChanneltPFbRKjS4_EE6Node_tEtNS7_8CKeyLessE10CUtlMemoryI15UtlRBTreeNode_tIS8_tEtEE5PurgeEv
__ZN10CUtlRBTreeIN7CUtlMapIjP11INetChanneltPFbRKjS4_EE6Node_tEtNS7_8CKeyLessE10CUtlMemoryI15UtlRBTreeNode_tIS8_tEtEE6InsertERKS8_
__ZN10CUtlRBTreeIN7CUtlMapIjP11INetChanneltPFbRKjS4_EE6Node_tEtNS7_8CKeyLessE10CUtlMemoryI15UtlRBTreeNode_tIS8_tEtEE6UnlinkEt
__ZN10CUtlRBTreeIN7CUtlMapIjP11INetChanneltPFbRKjS4_EE6Node_tEtNS7_8CKeyLessE10CUtlMemoryI15UtlRBTreeNode_tIS8_tEtEE7NewNodeEv
__ZN10CUtlRBTreeIN7CUtlMapIjP11INetChanneltPFbRKjS4_EE6Node_tEtNS7_8CKeyLessE10CUtlMemoryI15UtlRBTreeNode_tIS8_tEtEED2Ev
__ZN10CUtlRBTreeIN7CUtlMapItN15MatViewOverride14ViewParamsLast6TxInfoEtPFbRKtS5_EE6Node_tEtNS8_8CKeyLessE10CUtlMemoryI15UtlRBTreeNode_tIS9_tEtEE10RotateLeftEt
__ZN10CUtlRBTreeIN7CUtlMapItN15MatViewOverride14ViewParamsLast6TxInfoEtPFbRKtS5_EE6Node_tEtNS8_8CKeyLessE10CUtlMemoryI15UtlRBTreeNode_tIS9_tEtEE11RotateRightEt
__ZN10CUtlRBTreeIN7CUtlMapItN15MatViewOverride14ViewParamsLast6TxInfoEtPFbRKtS5_EE6Node_tEtNS8_8CKeyLessE10CUtlMemoryI15UtlRBTreeNode_tIS9_tEtEE15InsertRebalanceEt
__ZN10CUtlRBTreeIN7CUtlMapItN15MatViewOverride14ViewParamsLast6TxInfoEtPFbRKtS5_EE6Node_tEtNS8_8CKeyLessE10CUtlMemoryI15UtlRBTreeNode_tIS9_tEtEE5PurgeEv
__ZN10CUtlRBTreeIN7CUtlMapItN15MatViewOverride14ViewParamsLast6TxInfoEtPFbRKtS5_EE6Node_tEtNS8_8CKeyLessE10CUtlMemoryI15UtlRBTreeNode_tIS9_tEtEE6InsertERKS9_
__ZN10CUtlRBTreeIN7CUtlMapItN15MatViewOverride14ViewParamsLast6TxInfoEtPFbRKtS5_EE6Node_tEtNS8_8CKeyLessE10CUtlMemoryI15UtlRBTreeNode_tIS9_tEtEE7NewNodeEv
__ZN10CUtlRBTreeIN7CUtlMapItN15MatViewOverride14ViewParamsLast6TxInfoEtPFbRKtS5_EE6Node_tEtNS8_8CKeyLessE10CUtlMemoryI15UtlRBTreeNode_tIS9_tEtEED2Ev
__ZN10CUtlRBTreeIN7CUtlMapItN15MatViewOverride14ViewParamsLast6VarMapEtPFbRKtS5_EE6Node_tEtNS8_8CKeyLessE10CUtlMemoryI15UtlRBTreeNode_tIS9_tEtEE10RotateLeftEt
__ZN10CUtlRBTreeIN7CUtlMapItN15MatViewOverride14ViewParamsLast6VarMapEtPFbRKtS5_EE6Node_tEtNS8_8CKeyLessE10CUtlMemoryI15UtlRBTreeNode_tIS9_tEtEE11RotateRightEt
__ZN10CUtlRBTreeIN7CUtlMapItN15MatViewOverride14ViewParamsLast6VarMapEtPFbRKtS5_EE6Node_tEtNS8_8CKeyLessE10CUtlMemoryI15UtlRBTreeNode_tIS9_tEtEE15InsertRebalanceEt
__ZN10CUtlRBTreeIN7CUtlMapItN15MatViewOverride14ViewParamsLast6VarMapEtPFbRKtS5_EE6Node_tEtNS8_8CKeyLessE10CUtlMemoryI15UtlRBTreeNode_tIS9_tEtEE15RemoveRebalanceEt
__ZN10CUtlRBTreeIN7CUtlMapItN15MatViewOverride14ViewParamsLast6VarMapEtPFbRKtS5_EE6Node_tEtNS8_8CKeyLessE10CUtlMemoryI15UtlRBTreeNode_tIS9_tEtEE6InsertERKS9_
__ZN10CUtlRBTreeIN7CUtlMapItN15MatViewOverride14ViewParamsLast6VarMapEtPFbRKtS5_EE6Node_tEtNS8_8CKeyLessE10CUtlMemoryI15UtlRBTreeNode_tIS9_tEtEE6UnlinkEt
__ZN10CUtlRBTreeIN7CUtlMapItN15MatViewOverride14ViewParamsLast6VarMapEtPFbRKtS5_EE6Node_tEtNS8_8CKeyLessE10CUtlMemoryI15UtlRBTreeNode_tIS9_tEtEE7NewNodeEv
__ZN10CUtlRBTreeIN7CUtlMapItN15MatViewOverride14ViewParamsLast6VarMapEtPFbRKtS5_EE6Node_tEtNS8_8CKeyLessE10CUtlMemoryI15UtlRBTreeNode_tIS9_tEtEE9RemoveAllEv
__ZN10CUtlRBTreeIN7CUtlMapItN15MatViewOverride14ViewParamsLast6VarMapEtPFbRKtS5_EE6Node_tEtNS8_8CKeyLessE10CUtlMemoryI15UtlRBTreeNode_tIS9_tEtEED2Ev
__ZN10CUtlRBTreeIN7CUtlMapItttPFbRKtS2_EE6Node_tEtNS5_8CKeyLessE10CUtlMemoryI15UtlRBTreeNode_tIS6_tEtEE10RotateLeftEt
__ZN10CUtlRBTreeIN7CUtlMapItttPFbRKtS2_EE6Node_tEtNS5_8CKeyLessE10CUtlMemoryI15UtlRBTreeNode_tIS6_tEtEE11RotateRightEt
__ZN10CUtlRBTreeIN7CUtlMapItttPFbRKtS2_EE6Node_tEtNS5_8CKeyLessE10CUtlMemoryI15UtlRBTreeNode_tIS6_tEtEE15InsertRebalanceEt
__ZN10CUtlRBTreeIN7CUtlMapItttPFbRKtS2_EE6Node_tEtNS5_8CKeyLessE10CUtlMemoryI15UtlRBTreeNode_tIS6_tEtEE5PurgeEv
__ZN10CUtlRBTreeIN7CUtlMapItttPFbRKtS2_EE6Node_tEtNS5_8CKeyLessE10CUtlMemoryI15UtlRBTreeNode_tIS6_tEtEE6InsertERKS6_
__ZN10CUtlRBTreeIN7CUtlMapItttPFbRKtS2_EE6Node_tEtNS5_8CKeyLessE10CUtlMemoryI15UtlRBTreeNode_tIS6_tEtEE7NewNodeEv
__ZN10CUtlRBTreeIN7CUtlMapItttPFbRKtS2_EE6Node_tEtNS5_8CKeyLessE10CUtlMemoryI15UtlRBTreeNode_tIS6_tEtEED2Ev
__ZN10CUtlRBTreeIN7CUtlMapIyii8CDefLessIyEE6Node_tEiNS3_8CKeyLessE10CUtlMemoryI15UtlRBTreeNode_tIS4_iEiEE15InsertRebalanceEi
__ZN10CUtlRBTreeIN7CUtlMapIyii8CDefLessIyEE6Node_tEiNS3_8CKeyLessE10CUtlMemoryI15UtlRBTreeNode_tIS4_iEiEE6InsertERKS4_
__ZN10CUtlRBTreeIN7CUtlMapIyii8CDefLessIyEE6Node_tEiNS3_8CKeyLessE10CUtlMemoryI15UtlRBTreeNode_tIS4_iEiEE7NewNodeEv
__ZN10CUtlRBTreeIN7CUtlMapIyii8CDefLessIyEE6Node_tEiNS3_8CKeyLessE10CUtlMemoryI15UtlRBTreeNode_tIS4_iEiEED2Ev
__ZN10CUtlRBTreeIP10CEventInfotPFbRKS1_S3_E10CUtlMemoryI15UtlRBTreeNode_tIS1_tEtEE10RotateLeftEt
__ZN10CUtlRBTreeIP10CEventInfotPFbRKS1_S3_E10CUtlMemoryI15UtlRBTreeNode_tIS1_tEtEE11RotateRightEt
__ZN10CUtlRBTreeIP10CEventInfotPFbRKS1_S3_E10CUtlMemoryI15UtlRBTreeNode_tIS1_tEtEE15InsertRebalanceEt
__ZN10CUtlRBTreeIP10CEventInfotPFbRKS1_S3_E10CUtlMemoryI15UtlRBTreeNode_tIS1_tEtEE5PurgeEv
__ZN10CUtlRBTreeIP10CEventInfotPFbRKS1_S3_E10CUtlMemoryI15UtlRBTreeNode_tIS1_tEtEE6InsertES3_
__ZN10CUtlRBTreeIP10CEventInfotPFbRKS1_S3_E10CUtlMemoryI15UtlRBTreeNode_tIS1_tEtEE7NewNodeEv
__ZN10CUtlRBTreeIP10CEventInfotPFbRKS1_S3_E10CUtlMemoryI15UtlRBTreeNode_tIS1_tEtEED2Ev
__ZN10CUtlRBTreeIP11msurface2_tiPFbRKS1_S3_E10CUtlMemoryI15UtlRBTreeNode_tIS1_iEiEE15InsertRebalanceEi
__ZN10CUtlRBTreeIP11msurface2_tiPFbRKS1_S3_E10CUtlMemoryI15UtlRBTreeNode_tIS1_iEiEE6InsertES3_
__ZN10CUtlRBTreeIP11msurface2_tiPFbRKS1_S3_E10CUtlMemoryI15UtlRBTreeNode_tIS1_iEiEE7NewNodeEv
__ZN10CUtlRBTreeIP11msurface2_tiPFbRKS1_S3_E10CUtlMemoryI15UtlRBTreeNode_tIS1_iEiEED2Ev
__ZN10CUtlRBTreeIP12IMaterialVartPFbRKS1_S3_E10CUtlMemoryI15UtlRBTreeNode_tIS1_tEtEE10RotateLeftEt
__ZN10CUtlRBTreeIP12IMaterialVartPFbRKS1_S3_E10CUtlMemoryI15UtlRBTreeNode_tIS1_tEtEE11RotateRightEt
__ZN10CUtlRBTreeIP12IMaterialVartPFbRKS1_S3_E10CUtlMemoryI15UtlRBTreeNode_tIS1_tEtEE15InsertRebalanceEt
__ZN10CUtlRBTreeIP12IMaterialVartPFbRKS1_S3_E10CUtlMemoryI15UtlRBTreeNode_tIS1_tEtEE16InsertIfNotFoundES3_
__ZN10CUtlRBTreeIP12IMaterialVartPFbRKS1_S3_E10CUtlMemoryI15UtlRBTreeNode_tIS1_tEtEE5PurgeEv
__ZN10CUtlRBTreeIP12IMaterialVartPFbRKS1_S3_E10CUtlMemoryI15UtlRBTreeNode_tIS1_tEtEE7NewNodeEv
__ZN10CUtlRBTreeIP12IMaterialVartPFbRKS1_S3_E10CUtlMemoryI15UtlRBTreeNode_tIS1_tEtEED2Ev
__ZN10CUtlRBTreeIPK14ConCommandBasetPFbRKS2_S4_E10CUtlMemoryI15UtlRBTreeNode_tIS2_tEtEE10RotateLeftEt
__ZN10CUtlRBTreeIPK14ConCommandBasetPFbRKS2_S4_E10CUtlMemoryI15UtlRBTreeNode_tIS2_tEtEE11RotateRightEt
__ZN10CUtlRBTreeIPK14ConCommandBasetPFbRKS2_S4_E10CUtlMemoryI15UtlRBTreeNode_tIS2_tEtEE15InsertRebalanceEt
__ZN10CUtlRBTreeIPK14ConCommandBasetPFbRKS2_S4_E10CUtlMemoryI15UtlRBTreeNode_tIS2_tEtEE5PurgeEv
__ZN10CUtlRBTreeIPK14ConCommandBasetPFbRKS2_S4_E10CUtlMemoryI15UtlRBTreeNode_tIS2_tEtEE6InsertES4_
__ZN10CUtlRBTreeIPK14ConCommandBasetPFbRKS2_S4_E10CUtlMemoryI15UtlRBTreeNode_tIS2_tEtEE7NewNodeEv
__ZN10CUtlRBTreeIPK14ConCommandBasetPFbRKS2_S4_E10CUtlMemoryI15UtlRBTreeNode_tIS2_tEtEED2Ev
__ZN10CUtlRBTreeIPKciPFbRKS1_S3_E10CUtlMemoryI15UtlRBTreeNode_tIS1_iEiEE15InsertRebalanceEi
__ZN10CUtlRBTreeIPKciPFbRKS1_S3_E10CUtlMemoryI15UtlRBTreeNode_tIS1_iEiEE6InsertES3_
__ZN10CUtlRBTreeIPKciPFbRKS1_S3_E10CUtlMemoryI15UtlRBTreeNode_tIS1_iEiEE7NewNodeEv
__ZN10CUtlRBTreeIPKciPFbRKS1_S3_E10CUtlMemoryI15UtlRBTreeNode_tIS1_iEiEED2Ev
__ZN10CUtlRBTreeIPKctPFbRKS1_S3_E10CUtlMemoryI15UtlRBTreeNode_tIS1_tEtEE10RotateLeftEt
__ZN10CUtlRBTreeIPKctPFbRKS1_S3_E10CUtlMemoryI15UtlRBTreeNode_tIS1_tEtEE11RotateRightEt
__ZN10CUtlRBTreeIPKctPFbRKS1_S3_E10CUtlMemoryI15UtlRBTreeNode_tIS1_tEtEE15InsertRebalanceEt
__ZN10CUtlRBTreeIPKctPFbRKS1_S3_E10CUtlMemoryI15UtlRBTreeNode_tIS1_tEtEE16InsertIfNotFoundES3_
__ZN10CUtlRBTreeIPKctPFbRKS1_S3_E10CUtlMemoryI15UtlRBTreeNode_tIS1_tEtEE5PurgeEv
__ZN10CUtlRBTreeIPKctPFbRKS1_S3_E10CUtlMemoryI15UtlRBTreeNode_tIS1_tEtEE7NewNodeEv
__ZN10CUtlRBTreeIPKctPFbRKS1_S3_E10CUtlMemoryI15UtlRBTreeNode_tIS1_tEtEED2Ev
__ZN10CUtlRBTreeIPviPFbRKS0_S2_E10CUtlMemoryI15UtlRBTreeNode_tIS0_iEiEE15InsertRebalanceEi
__ZN10CUtlRBTreeIPviPFbRKS0_S2_E10CUtlMemoryI15UtlRBTreeNode_tIS0_iEiEE6InsertES2_
__ZN10CUtlRBTreeIPviPFbRKS0_S2_E10CUtlMemoryI15UtlRBTreeNode_tIS0_iEiEE7NewNodeEv
__ZN10CUtlRBTreeIPvtPFbRKS0_S2_E10CUtlMemoryI15UtlRBTreeNode_tIS0_tEtEE10RotateLeftEt
__ZN10CUtlRBTreeIPvtPFbRKS0_S2_E10CUtlMemoryI15UtlRBTreeNode_tIS0_tEtEE11RotateRightEt
__ZN10CUtlRBTreeIPvtPFbRKS0_S2_E10CUtlMemoryI15UtlRBTreeNode_tIS0_tEtEE15InsertRebalanceEt
__ZN10CUtlRBTreeIPvtPFbRKS0_S2_E10CUtlMemoryI15UtlRBTreeNode_tIS0_tEtEE5PurgeEv
__ZN10CUtlRBTreeIPvtPFbRKS0_S2_E10CUtlMemoryI15UtlRBTreeNode_tIS0_tEtEE6InsertES2_
__ZN10CUtlRBTreeIPvtPFbRKS0_S2_E10CUtlMemoryI15UtlRBTreeNode_tIS0_tEtEE7NewNodeEv
__ZN10CUtlRBTreeIPvtPFbRKS0_S2_E10CUtlMemoryI15UtlRBTreeNode_tIS0_tEtEED2Ev
__ZN10CUtlString10FixSlashesEc
__ZN10CUtlString12GetForModifyEv
__ZN10CUtlString3SetEPKc
__ZN10CUtlString5PurgeEv
__ZN10CUtlString6AppendEPKc
__ZN10CUtlString6FormatEPKcz
__ZN10CUtlString7FormatVEPKcPc
__ZN10CUtlString9TrimRightEPKc
__ZN10CUtlStringD1Ev
__ZN10CUtlStringaSEPKc
__ZN10CUtlStringaSERKS_
__ZN10CUtlStringpLEPKc
__ZN10CUtlStringpLEi
__ZN10CUtlSymbol10InitializeEv
__ZN10CUtlSymbol14s_pSymbolTableE
__ZN10CUtlSymbolC1EPKc
__ZN10CUtlVectorI10CUtlString10CUtlMemoryIS0_iEE12InsertBeforeEiRKS0_
__ZN10CUtlVectorI10CUtlString10CUtlMemoryIS0_iEED2Ev
__ZN10CUtlVectorI10CUtlSymbol10CUtlMemoryIS0_iEED2Ev
__ZN10CUtlVectorI10Quaternion10CUtlMemoryIS0_iEED2Ev
__ZN10CUtlVectorI10UniqueId_t10CUtlMemoryIS0_iEED2Ev
__ZN10CUtlVectorI10ipfilter_t10CUtlMemoryIS0_iEED1Ev
__ZN10CUtlVectorI10ipfilter_t10CUtlMemoryIS0_iEED2Ev
__ZN10CUtlVectorI10meshlist_t10CUtlMemoryIS0_iEED1Ev
__ZN10CUtlVectorI10meshlist_t10CUtlMemoryIS0_iEED2Ev
__ZN10CUtlVectorI10moverlay_t10CUtlMemoryIS0_iEE20InsertMultipleBeforeEii
__ZN10CUtlVectorI10moverlay_t10CUtlMemoryIS0_iEED2Ev
__ZN10CUtlVectorI10sentence_t10CUtlMemoryIS0_iEED1Ev
__ZN10CUtlVectorI10sentence_t10CUtlMemoryIS0_iEED2Ev
__ZN10CUtlVectorI11CPortalRect10CUtlMemoryIS0_iEED1Ev
__ZN10CUtlVectorI11CPortalRect10CUtlMemoryIS0_iEED2Ev
__ZN10CUtlVectorI11CStaticProp10CUtlMemoryIS0_iEE20InsertMultipleBeforeEii
__ZN10CUtlVectorI11CStaticProp10CUtlMemoryIS0_iEED2Ev
__ZN10CUtlVectorI11SoundInfo_t10CUtlMemoryIS0_iEE12InsertBeforeEi
__ZN10CUtlVectorI11SoundInfo_t10CUtlMemoryIS0_iEED2Ev
__ZN10CUtlVectorI11batchlist_t23CUtlMemoryFixedGrowableIS0_Lm512EiEE12InsertBeforeEi
__ZN10CUtlVectorI11batchlist_t23CUtlMemoryFixedGrowableIS0_Lm512EiEED2Ev
__ZN10CUtlVectorI11modelsize_t10CUtlMemoryIS0_iEED2Ev
__ZN10CUtlVectorI11musicsave_t10CUtlMemoryIS0_iEED2Ev
__ZN10CUtlVectorI11netpacket_s10CUtlMemoryIS0_iEE20InsertMultipleBeforeEii
__ZN10CUtlVectorI11netpacket_s10CUtlMemoryIS0_iEED1Ev
__ZN10CUtlVectorI11netpacket_s10CUtlMemoryIS0_iEED2Ev
__ZN10CUtlVectorI11netsocket_t10CUtlMemoryIS0_iEE10GrowVectorEi
__ZN10CUtlVectorI11netsocket_t10CUtlMemoryIS0_iEED1Ev
__ZN10CUtlVectorI11netsocket_t10CUtlMemoryIS0_iEED2Ev
__ZN10CUtlVectorI12CDispCollTri11CHunkMemoryIS0_EE20InsertMultipleBeforeEii
__ZN10CUtlVectorI12userfilter_t10CUtlMemoryIS0_iEED1Ev
__ZN10CUtlVectorI12userfilter_t10CUtlMemoryIS0_iEED2Ev
__ZN10CUtlVectorI13CAreaCullInfo10CUtlMemoryIS0_iEE20InsertMultipleBeforeEii
__ZN10CUtlVectorI13CAreaCullInfo10CUtlMemoryIS0_iEED1Ev
__ZN10CUtlVectorI13CAreaCullInfo10CUtlMemoryIS0_iEED2Ev
__ZN10CUtlVectorI13maplist_map_t10CUtlMemoryIS0_iEE9AddToTailERKS0_
__ZN10CUtlVectorI13maplist_map_t10CUtlMemoryIS0_iEED2Ev
__ZN10CUtlVectorI13overlayvert_t10CUtlMemoryIS0_iEE10GrowVectorEi
__ZN10CUtlVectorI13overlayvert_t10CUtlMemoryIS0_iEE9CopyArrayEPKS0_i
__ZN10CUtlVectorI13overlayvert_t10CUtlMemoryIS0_iEED2Ev
__ZN10CUtlVectorI13paintbuffer_t10CUtlMemoryIS0_iEE9AddToTailEv
__ZN10CUtlVectorI13paintbuffer_t10CUtlMemoryIS0_iEED1Ev
__ZN10CUtlVectorI13paintbuffer_t10CUtlMemoryIS0_iEED2Ev
__ZN10CUtlVectorI13rdecalmodel_t10CUtlMemoryIS0_iEED2Ev
__ZN10CUtlVectorI14_XUSER_CONTEXT10CUtlMemoryIS0_iEE9AddToTailERKS0_
__ZN10CUtlVectorI14_XUSER_CONTEXT10CUtlMemoryIS0_iEED2Ev
__ZN10CUtlVectorI14filelistelem_t10CUtlMemoryIS0_iEED2Ev
__ZN10CUtlVectorI14materiallist_t10CUtlMemoryIS0_iEED2Ev
__ZN10CUtlVectorI15AppSystemInfo_t10CUtlMemoryIS0_iEE9AddToTailERKS0_
__ZN10CUtlVectorI15AppSystemInfo_t10CUtlMemoryIS0_iEED2Ev
__ZN10CUtlVectorI15CClientSendProp10CUtlMemoryIS0_iEE20InsertMultipleBeforeEii
__ZN10CUtlVectorI15CClientSendProp10CUtlMemoryIS0_iEED2Ev
__ZN10CUtlVectorI15CEmphasisSample10CUtlMemoryIS0_iEE9AddToTailERKS0_
__ZN10CUtlVectorI15CEmphasisSample10CUtlMemoryIS0_iEED2Ev
__ZN10CUtlVectorI15CUtlBinaryBlock10CUtlMemoryIS0_iEE5PurgeEv
__ZN10CUtlVectorI15CUtlBinaryBlock10CUtlMemoryIS0_iEED2Ev
__ZN10CUtlVectorI15CheatCodeData_t10CUtlMemoryIS0_iEED1Ev
__ZN10CUtlVectorI15CheatCodeData_t10CUtlMemoryIS0_iEED2Ev
__ZN10CUtlVectorI15LightingState_t10CUtlMemoryIS0_iEE10GrowVectorEi
__ZN10CUtlVectorI15LightingState_t10CUtlMemoryIS0_iEED2Ev
__ZN10CUtlVectorI15_XUSER_PROPERTY10CUtlMemoryIS0_iEE9AddToTailERKS0_
__ZN10CUtlVectorI15_XUSER_PROPERTY10CUtlMemoryIS0_iEED2Ev
__ZN10CUtlVectorI15demosmoothing_t10CUtlMemoryIS0_iEE9AddToTailERKS0_
__ZN10CUtlVectorI15demosmoothing_t10CUtlMemoryIS0_iEED2Ev
__ZN10CUtlVectorI15pendingsocket_t10CUtlMemoryIS0_iEED2Ev
__ZN10CUtlVectorI15sentencegroup_t10CUtlMemoryIS0_iEED1Ev
__ZN10CUtlVectorI15sentencegroup_t10CUtlMemoryIS0_iEED2Ev
__ZN10CUtlVectorI16CBudgetGroupInfo10CUtlMemoryIS0_iEE20InsertMultipleBeforeEii
__ZN10CUtlVectorI16CBudgetGroupInfo10CUtlMemoryIS0_iEED2Ev
__ZN10CUtlVectorI16CSortedCacheFile10CUtlMemoryIS0_iEED2Ev
__ZN10CUtlVectorI16DecalSortTrees_t10CUtlMemoryIS0_iEE9AddToTailEv
__ZN10CUtlVectorI16DecalSortTrees_t10CUtlMemoryIS0_iEED1Ev
__ZN10CUtlVectorI16DecalSortTrees_t10CUtlMemoryIS0_iEED2Ev
__ZN10CUtlVectorI16DemoCommandQueue10CUtlMemoryIS0_iEED2Ev
__ZN10CUtlVectorI17CDispCollTriCache10CUtlMemoryIS0_iEE20InsertMultipleBeforeEii
__ZN10CUtlVectorI17CDispCollTriCache10CUtlMemoryIS0_iEED2Ev
__ZN10CUtlVectorI17CSplitPacketEntry10CUtlMemoryIS0_iEED2Ev
__ZN10CUtlVectorI17ResourceEntryInfo10CUtlMemoryIS0_iEE10GrowVectorEi
__ZN10CUtlVectorI17ResourceEntryInfo10CUtlMemoryIS0_iEED2Ev
__ZN10CUtlVectorI17VProfListenInfo_t10CUtlMemoryIS0_iEED1Ev
__ZN10CUtlVectorI17VProfListenInfo_t10CUtlMemoryIS0_iEED2Ev
__ZN10CUtlVectorI18CFrameCacheEntry_s10CUtlMemoryIS0_iEED2Ev
__ZN10CUtlVectorI18StringHistoryEntry10CUtlMemoryIS0_iEE9AddToTailERKS0_
__ZN10CUtlVectorI18StringHistoryEntry10CUtlMemoryIS0_iEED2Ev
__ZN10CUtlVectorI18surfacesortgroup_t10CUtlMemoryIS0_iEE20InsertMultipleBeforeEii
__ZN10CUtlVectorI18surfacesortgroup_t10CUtlMemoryIS0_iEED2Ev
__ZN10CUtlVectorI19UnpackedDataCache_t10CUtlMemoryIS0_iEE20InsertMultipleBeforeEii
__ZN10CUtlVectorI19UnpackedDataCache_t10CUtlMemoryIS0_iEED2Ev
__ZN10CUtlVectorI20CGameEventDescriptor10CUtlMemoryIS0_iEED2Ev
__ZN10CUtlVectorI20CSendProxyRecipients10CUtlMemoryIS0_iEE20InsertMultipleBeforeEii
__ZN10CUtlVectorI20CSendProxyRecipients10CUtlMemoryIS0_iEED2Ev
__ZN10CUtlVectorI20DispCollPlaneIndex_t10CUtlMemoryIS0_iEE10GrowVectorEi
__ZN10CUtlVectorI20DispCollPlaneIndex_t10CUtlMemoryIS0_iEED2Ev
__ZN10CUtlVectorI20LightmapUpdateInfo_t10CUtlMemoryIS0_iEED1Ev
__ZN10CUtlVectorI20LightmapUpdateInfo_t10CUtlMemoryIS0_iEED2Ev
__ZN10CUtlVectorI20StaticPropLeafLump_t10CUtlMemoryIS0_iEE20InsertMultipleBeforeEii
__ZN10CUtlVectorI20StaticPropLeafLump_t10CUtlMemoryIS0_iEED2Ev
__ZN10CUtlVectorI20dgamelump_internal_t10CUtlMemoryIS0_iEED1Ev
__ZN10CUtlVectorI20dgamelump_internal_t10CUtlMemoryIS0_iEED2Ev
__ZN10CUtlVectorI21DecalMaterialBucket_t10CUtlMemoryIS0_iEE9AddToTailEv
__ZN10CUtlVectorI21DecalMaterialBucket_t10CUtlMemoryIS0_iEED2Ev
__ZN10CUtlVectorI22PanelAnimationMapEntry10CUtlMemoryIS0_iEED2Ev
__ZN10CUtlVectorI23DecalSortVertexFormat_t10CUtlMemoryIS0_iEED1Ev
__ZN10CUtlVectorI23DecalSortVertexFormat_t10CUtlMemoryIS0_iEED2Ev
__ZN10CUtlVectorI23EdgeVisualizationInfo_t10CUtlMemoryIS0_iEE20InsertMultipleBeforeEii
__ZN10CUtlVectorI23EdgeVisualizationInfo_t10CUtlMemoryIS0_iEED1Ev
__ZN10CUtlVectorI23EdgeVisualizationInfo_t10CUtlMemoryIS0_iEED2Ev
__ZN10CUtlVectorI23LightmapTransformInfo_t10CUtlMemoryIS0_iEE9AddToTailEv
__ZN10CUtlVectorI23LightmapTransformInfo_t10CUtlMemoryIS0_iEED1Ev
__ZN10CUtlVectorI23LightmapTransformInfo_t10CUtlMemoryIS0_iEED2Ev
__ZN10CUtlVectorI23ModelDebugOverlayData_t10CUtlMemoryIS0_iEED1Ev
__ZN10CUtlVectorI23ModelDebugOverlayData_t10CUtlMemoryIS0_iEED2Ev
__ZN10CUtlVectorI24CReplayFrameCacheEntry_s10CUtlMemoryIS0_iEED2Ev
__ZN10CUtlVectorI26CFastLocalTransferPropInfo10CUtlMemoryIS0_iEED2Ev
__ZN10CUtlVectorI5Color10CUtlMemoryIS0_iEED2Ev
__ZN10CUtlVectorI6QAngle10CUtlMemoryIS0_iEED2Ev
__ZN10CUtlVectorI6S3RGBA10CUtlMemoryIS0_iEE20InsertMultipleBeforeEii
__ZN10CUtlVectorI6S3RGBA10CUtlMemoryIS0_iEED2Ev
__ZN10CUtlVectorI6Vector10CUtlMemoryIS0_iEE10GrowVectorEi
__ZN10CUtlVectorI6Vector10CUtlMemoryIS0_iEED1Ev
__ZN10CUtlVectorI6Vector10CUtlMemoryIS0_iEED2Ev
__ZN10CUtlVectorI7CSPVert10CUtlMemoryIS0_iEE10GrowVectorEi
__ZN10CUtlVectorI7CSPVert10CUtlMemoryIS0_iEED2Ev
__ZN10CUtlVectorI7Spike_t10CUtlMemoryIS0_iEE9AddToTailERKS0_
__ZN10CUtlVectorI7Spike_t10CUtlMemoryIS0_iEED2Ev
__ZN10CUtlVectorI7VMatrix10CUtlMemoryIS0_iEED2Ev
__ZN10CUtlVectorI7WordBuf10CUtlMemoryIS0_iEE9AddToTailERKS0_
__ZN10CUtlVectorI7WordBuf10CUtlMemoryIS0_iEED2Ev
__ZN10CUtlVectorI7model_t10CUtlMemoryIS0_iEE20InsertMultipleBeforeEii
__ZN10CUtlVectorI7model_t10CUtlMemoryIS0_iEED2Ev
__ZN10CUtlVectorI8AddAngle10CUtlMemoryIS0_iEED2Ev
__ZN10CUtlVectorI8CDTIProp10CUtlMemoryIS0_iEE20InsertMultipleBeforeEii
__ZN10CUtlVectorI8CDTIProp10CUtlMemoryIS0_iEED2Ev
__ZN10CUtlVectorI8Vector2D10CUtlMemoryIS0_iEED2Ev
__ZN10CUtlVectorI8Vector4D10CUtlMemoryIS0_iEE9AddToTailERKS0_
__ZN10CUtlVectorI8Vector4D10CUtlMemoryIS0_iEED2Ev
__ZN10CUtlVectorI8cplane_t10CUtlMemoryIS0_iEE9AddToTailERKS0_
__ZN10CUtlVectorI8cplane_t10CUtlMemoryIS0_iEED2Ev
__ZN10CUtlVectorI8mmodel_t10CUtlMemoryIS0_iEE20InsertMultipleBeforeEii
__ZN10CUtlVectorI8mmodel_t10CUtlMemoryIS0_iEED2Ev
__ZN10CUtlVectorI8netadr_s10CUtlMemoryIS0_iEED2Ev
__ZN10CUtlVectorI8rmodel_t10CUtlMemoryIS0_iEED2Ev
__ZN10CUtlVectorI9CPrimList10CUtlMemoryIS0_iEE20InsertMultipleBeforeEii
__ZN10CUtlVectorI9CPrimList10CUtlMemoryIS0_iEED2Ev
__ZN10CUtlVectorI9robject_t10CUtlMemoryIS0_iEED2Ev
__ZN10CUtlVectorIN10CShadowMgr19ShadowVertexCache_tE10CUtlMemoryIS1_iEED2Ev
__ZN10CUtlVectorIN11CBugUIPanel12includedfileE10CUtlMemoryIS1_iEED2Ev
__ZN10CUtlVectorIN11CEngineTool13QuitHandler_tE10CUtlMemoryIS1_iEED2Ev
__ZN10CUtlVectorIN11CEngineVGui22LoadingProgressEntry_tE10CUtlMemoryIS1_iEED2Ev
__ZN10CUtlVectorIN11CRConServer12FailedRCon_tE10CUtlMemoryIS1_iEE12InsertBeforeEi
__ZN10CUtlVectorIN11CRConServer12FailedRCon_tE10CUtlMemoryIS1_iEED2Ev
__ZN10CUtlVectorIN11CVTFTexture21ResourceMemorySectionE10CUtlMemoryIS1_iEE10GrowVectorEi
__ZN10CUtlVectorIN11CVTFTexture21ResourceMemorySectionE10CUtlMemoryIS1_iEED2Ev
__ZN10CUtlVectorIN12CSaveRestore20SaveRestoreTranslateE10CUtlMemoryIS1_iEE9AddToTailERKS1_
__ZN10CUtlVectorIN12CSaveRestore20SaveRestoreTranslateE10CUtlMemoryIS1_iEED2Ev
__ZN10CUtlVectorIN12IVProfExport24CExportedBudgetGroupInfoE10CUtlMemoryIS1_iEE20InsertMultipleBeforeEii
__ZN10CUtlVectorIN12IVProfExport24CExportedBudgetGroupInfoE10CUtlMemoryIS1_iEED1Ev
__ZN10CUtlVectorIN12IVProfExport24CExportedBudgetGroupInfoE10CUtlMemoryIS1_iEED2Ev
__ZN10CUtlVectorIN13NET_SetConVar6cvar_sE10CUtlMemoryIS1_iEE9AddToTailERKS1_
__ZN10CUtlVectorIN13NET_SetConVar6cvar_sE10CUtlMemoryIS1_iEED2Ev
__ZN10CUtlVectorIN13SVC_ClassInfo7class_sE10CUtlMemoryIS1_iEED2Ev
__ZN10CUtlVectorIN14CSocketCreator16AcceptedSocket_tE10CUtlMemoryIS1_iEE12InsertBeforeEi
__ZN10CUtlVectorIN14CSocketCreator16AcceptedSocket_tE10CUtlMemoryIS1_iEED2Ev
__ZN10CUtlVectorIN14CStaticPropMgr16StaticPropDict_tE10CUtlMemoryIS1_iEE20InsertMultipleBeforeEii
__ZN10CUtlVectorIN14CStaticPropMgr16StaticPropDict_tE10CUtlMemoryIS1_iEED2Ev
__ZN10CUtlVectorIN14CStaticPropMgr16StaticPropFade_tE10CUtlMemoryIS1_iEED2Ev
__ZN10CUtlVectorIN14CVProfRecorder12CNodeAverageE10CUtlMemoryIS1_iEED2Ev
__ZN10CUtlVectorIN15CAppSystemGroup8Module_tE10CUtlMemoryIS1_iEE9AddToTailEv
__ZN10CUtlVectorIN15CAppSystemGroup8Module_tE10CUtlMemoryIS1_iEED2Ev
__ZN10CUtlVectorIN15CUtlHandleTableIN4vgui10BuildGroupELi20EE11EntryType_tE10CUtlMemoryIS4_iEED2Ev
__ZN10CUtlVectorIN15CWingedEdgeList12WingedEdge_tE10CUtlMemoryIS1_iEE9AddToTailEv
__ZN10CUtlVectorIN15CWingedEdgeList12WingedEdge_tE10CUtlMemoryIS1_iEED2Ev
__ZN10CUtlVectorIN15CWingedEdgeList9Surface_tE10CUtlMemoryIS1_iEED2Ev
__ZN10CUtlVectorIN16CBaseBudgetPanel21BudgetGroupTimeData_tE10CUtlMemoryIS1_iEE20InsertMultipleBeforeEii
__ZN10CUtlVectorIN16CBaseBudgetPanel21BudgetGroupTimeData_tE10CUtlMemoryIS1_iEED2Ev
__ZN10CUtlVectorIN17CBrushBatchRender13surfacelist_tE10CUtlMemoryIS1_iEED2Ev
__ZN10CUtlVectorIN17CMaterialsBucketsIP11msurface2_tE18MaterialSortInfo_tE10CUtlMemoryIS4_iEE20InsertMultipleBeforeEii
__ZN10CUtlVectorIN17CMaterialsBucketsIP11msurface2_tE18MaterialSortInfo_tE10CUtlMemoryIS4_iEED2Ev
__ZN10CUtlVectorIN17CSendTablePrecalc10CProxyPathE10CUtlMemoryIS1_iEE20InsertMultipleBeforeEii
__ZN10CUtlVectorIN17CSendTablePrecalc10CProxyPathE10CUtlMemoryIS1_iEED2Ev
__ZN10CUtlVectorIN17CSendTablePrecalc15CProxyPathEntryE10CUtlMemoryIS1_iEE20InsertMultipleBeforeEii
__ZN10CUtlVectorIN17CSendTablePrecalc15CProxyPathEntryE10CUtlMemoryIS1_iEED2Ev
__ZN10CUtlVectorIN20CDragDropHelperPanel17DragHelperPanel_tE10CUtlMemoryIS1_iEED2Ev
__ZN10CUtlVectorIN20CGameSaveRestoreInfo12CHashElementE10CUtlMemoryIS1_iEED2Ev
__ZN10CUtlVectorIN21CDmxElementDictionary10DictInfo_tE10CUtlMemoryIS1_iEED2Ev
__ZN10CUtlVectorIN21CDmxElementDictionary15AttributeInfo_tE10CUtlMemoryIS1_iEED2Ev
__ZN10CUtlVectorIN22CProfileHierarchyPanel12PanelEntry_tE10CUtlMemoryIS1_iEE10GrowVectorEi
__ZN10CUtlVectorIN22CProfileHierarchyPanel12PanelEntry_tE10CUtlMemoryIS1_iEED2Ev
__ZN10CUtlVectorIN23CNetworkStringTableItem12itemchange_sE10CUtlMemoryIS1_iEED2Ev
__ZN10CUtlVectorIN4vgui10BoundKey_tE10CUtlMemoryIS1_iEE10GrowVectorEi
__ZN10CUtlVectorIN4vgui13PropertySheet6Page_tE10CUtlMemoryIS2_iEED2Ev
__ZN10CUtlVectorIN4vgui16MessageMapItem_tE10CUtlMemoryIS1_iEE9AddToTailERKS1_
__ZN10CUtlVectorIN4vgui19AnimationController10RanEvent_tE10CUtlMemoryIS2_iEE9AddToTailERKS2_
__ZN10CUtlVectorIN4vgui19AnimationController10RanEvent_tE10CUtlMemoryIS2_iEED2Ev
__ZN10CUtlVectorIN4vgui19AnimationController13AnimCommand_tE10CUtlMemoryIS2_iEED2Ev
__ZN10CUtlVectorIN4vgui19AnimationController14AnimSequence_tE10CUtlMemoryIS2_iEED2Ev
__ZN10CUtlVectorIN4vgui19AnimationController15PostedMessage_tE10CUtlMemoryIS2_iEED2Ev
__ZN10CUtlVectorIN4vgui19AnimationController17ActiveAnimation_tE10CUtlMemoryIS2_iEED2Ev
__ZN10CUtlVectorIN4vgui19label_colorchange_tE10CUtlMemoryIS1_iEED2Ev
__ZN10CUtlVectorIN4vgui20CTreeViewListControl11CColumnInfoE10CUtlMemoryIS2_iEE20InsertMultipleBeforeEii
__ZN10CUtlVectorIN4vgui20CTreeViewListControl11CColumnInfoE10CUtlMemoryIS2_iEED2Ev
__ZN10CUtlVectorIN4vgui21OverridableColorEntryE10CUtlMemoryIS1_iEED2Ev
__ZN10CUtlVectorIN4vgui5Label10TImageInfoE10CUtlMemoryIS2_iEED2Ev
__ZN10CUtlVectorIN4vgui7DHANDLEINS0_4MenuEEE10CUtlMemoryIS3_iEED2Ev
__ZN10CUtlVectorIN4vgui7IntRectE10CUtlMemoryIS1_iEE20InsertMultipleBeforeEii
__ZN10CUtlVectorIN4vgui7IntRectE10CUtlMemoryIS1_iEED1Ev
__ZN10CUtlVectorIN4vgui7IntRectE10CUtlMemoryIS1_iEED2Ev
__ZN10CUtlVectorIN4vgui7PHandleE10CUtlMemoryIS1_iEE9AddToTailERKS1_
__ZN10CUtlVectorIN4vgui7PHandleE10CUtlMemoryIS1_iEED2Ev
__ZN10CUtlVectorIN4vgui8RichText13TFormatStreamE10CUtlMemoryIS2_iEE9AddToTailERKS2_
__ZN10CUtlVectorIN4vgui8RichText13TFormatStreamE10CUtlMemoryIS2_iEED2Ev
__ZN10CUtlVectorIN9CConPanel11CNotifyTextE10CUtlMemoryIS1_iEE10GrowVectorEi
__ZN10CUtlVectorIN9CConPanel11CNotifyTextE10CUtlMemoryIS1_iEED2Ev
__ZN10CUtlVectorIN9CEdgeList6Edge_tE10CUtlMemoryIS1_iEED2Ev
__ZN10CUtlVectorIN9CEdgeList9Surface_tE10CUtlMemoryIS1_iEED2Ev
__ZN10CUtlVectorIP10CDispGroup10CUtlMemoryIS1_iEE22PurgeAndDeleteElementsEv
__ZN10CUtlVectorIP10CDispGroup10CUtlMemoryIS1_iEED1Ev
__ZN10CUtlVectorIP10CDispGroup10CUtlMemoryIS1_iEED2Ev
__ZN10CUtlVectorIP10CEventInfo10CUtlMemoryIS1_iEED2Ev
__ZN10CUtlVectorIP10CGroupMesh10CUtlMemoryIS1_iEE22PurgeAndDeleteElementsEv
__ZN10CUtlVectorIP10CGroupMesh10CUtlMemoryIS1_iEED2Ev
__ZN10CUtlVectorIP10CSysModule10CUtlMemoryIS1_iEED2Ev
__ZN10CUtlVectorIP10IAppSystem10CUtlMemoryIS1_iEE9AddToTailERKS1_
__ZN10CUtlVectorIP10IAppSystem10CUtlMemoryIS1_iEED2Ev
__ZN10CUtlVectorIP11CBaseClient10CUtlMemoryIS1_iEED2Ev
__ZN10CUtlVectorIP11CClientInfo10CUtlMemoryIS1_iEED2Ev
__ZN10CUtlVectorIP11CDmxElement10CUtlMemoryIS1_iEED1Ev
__ZN10CUtlVectorIP11CDmxElement10CUtlMemoryIS1_iEED2Ev
__ZN10CUtlVectorIP11CHLTVServer10CUtlMemoryIS1_iEED2Ev
__ZN10CUtlVectorIP11CPhonemeTag10CUtlMemoryIS1_iEE9AddToTailERKS1_
__ZN10CUtlVectorIP11CPhonemeTag10CUtlMemoryIS1_iEED2Ev
__ZN10CUtlVectorIP11INetMessage10CUtlMemoryIS1_iEED2Ev
__ZN10CUtlVectorIP11IToolSystem10CUtlMemoryIS1_iEED2Ev
__ZN10CUtlVectorIP11msurface2_t10CUtlMemoryIS1_iEE20InsertMultipleBeforeEii
__ZN10CUtlVectorIP11msurface2_t10CUtlMemoryIS1_iEE9AddToTailERKS1_
__ZN10CUtlVectorIP11msurface2_t10CUtlMemoryIS1_iEED2Ev
__ZN10CUtlVectorIP12CPhysCollide10CUtlMemoryIS1_iEE20InsertMultipleBeforeEii
__ZN10CUtlVectorIP12CPhysCollide10CUtlMemoryIS1_iEED1Ev
__ZN10CUtlVectorIP12CPhysCollide10CUtlMemoryIS1_iEED2Ev
__ZN10CUtlVectorIP12ICollideable10CUtlMemoryIS1_iEE9AddToTailERKS1_
__ZN10CUtlVectorIP13CCoreDispInfo10CUtlMemoryIS1_iEED2Ev
__ZN10CUtlVectorIP13CDmxAttribute10CUtlMemoryIS1_iEED2Ev
__ZN10CUtlVectorIP13memhandle_t__10CUtlMemoryIS1_iEED2Ev
__ZN10CUtlVectorIP15CBaseDemoAction10CUtlMemoryIS1_iEE9AddToTailERKS1_
__ZN10CUtlVectorIP15CBaseDemoAction10CUtlMemoryIS1_iEED2Ev
__ZN10CUtlVectorIP15CBasePhonemeTag10CUtlMemoryIS1_iEED2Ev
__ZN10CUtlVectorIP15IColorOperation10CUtlMemoryIS1_iEE12InsertBeforeEiRKS1_
__ZN10CUtlVectorIP15IColorOperation10CUtlMemoryIS1_iEED2Ev
__ZN10CUtlVectorIP15IToolDictionary10CUtlMemoryIS1_iEED2Ev
__ZN10CUtlVectorIP15demosmoothing_t10CUtlMemoryIS1_iEE9AddToTailERKS1_
__ZN10CUtlVectorIP15demosmoothing_t10CUtlMemoryIS1_iEED2Ev
__ZN10CUtlVectorIP16RequestContext_t10CUtlMemoryIS1_iEE9AddToTailERKS1_
__ZN10CUtlVectorIP16RequestContext_t10CUtlMemoryIS1_iEED2Ev
__ZN10CUtlVectorIP17IClientRenderable10CUtlMemoryIS1_iEED2Ev
__ZN10CUtlVectorIP18CGameEventCallback10CUtlMemoryIS1_iEE9AddToTailERKS1_
__ZN10CUtlVectorIP18CGameEventCallback10CUtlMemoryIS1_iEED2Ev
__ZN10CUtlVectorIP18moverlayfragment_t10CUtlMemoryIS1_iEE10GrowVectorEi
__ZN10CUtlVectorIP18moverlayfragment_t10CUtlMemoryIS1_iEED2Ev
__ZN10CUtlVectorIP18surfacesortgroup_t10CUtlMemoryIS1_iEED2Ev
__ZN10CUtlVectorIP19CNetworkStringTable10CUtlMemoryIS1_iEED2Ev
__ZN10CUtlVectorIP22CAudioSourceCachedInfo10CUtlMemoryIS1_iEED2Ev
__ZN10CUtlVectorIP28CColorCorrectionUIChildPanel10CUtlMemoryIS1_iEED2Ev
__ZN10CUtlVectorIP35INetChannelPacketProcessingCallback10CUtlMemoryIS1_iEED1Ev
__ZN10CUtlVectorIP35INetChannelPacketProcessingCallback10CUtlMemoryIS1_iEED2Ev
__ZN10CUtlVectorIP5IMesh10CUtlMemoryIS1_iEE20InsertMultipleBeforeEii
__ZN10CUtlVectorIP5IMesh10CUtlMemoryIS1_iEED1Ev
__ZN10CUtlVectorIP5IMesh10CUtlMemoryIS1_iEED2Ev
__ZN10CUtlVectorIP7CPlugin10CUtlMemoryIS1_iEE22PurgeAndDeleteElementsEv
__ZN10CUtlVectorIP7CPlugin10CUtlMemoryIS1_iEED2Ev
__ZN10CUtlVectorIP7decal_t10CUtlMemoryIS1_iEE10GrowVectorEi
__ZN10CUtlVectorIP7decal_t10CUtlMemoryIS1_iEED1Ev
__ZN10CUtlVectorIP7decal_t10CUtlMemoryIS1_iEED2Ev
__ZN10CUtlVectorIP7decal_t23CUtlMemoryFixedGrowableIS1_Lm32EiEE12InsertBeforeEiRKS1_
__ZN10CUtlVectorIP7decal_t23CUtlMemoryFixedGrowableIS1_Lm32EiEED2Ev
__ZN10CUtlVectorIP7edict_t10CUtlMemoryIS1_iEE9AddToTailERKS1_
__ZN10CUtlVectorIP7edict_t10CUtlMemoryIS1_iEED2Ev
__ZN10CUtlVectorIP7model_t10CUtlMemoryIS1_iEE12InsertBeforeEiRKS1_
__ZN10CUtlVectorIP7model_t10CUtlMemoryIS1_iEE20InsertMultipleBeforeEii
__ZN10CUtlVectorIP7model_t10CUtlMemoryIS1_iEED2Ev
__ZN10CUtlVectorIP8CNetChan10CUtlMemoryIS1_iEED2Ev
__ZN10CUtlVectorIP8CWordTag10CUtlMemoryIS1_iEED2Ev
__ZN10CUtlVectorIP8cplane_t10CUtlMemoryIS1_iEED2Ev
__ZN10CUtlVectorIP9CDispInfo10CUtlMemoryIS1_iEE20InsertMultipleBeforeEii
__ZN10CUtlVectorIP9CDispInfo10CUtlMemoryIS1_iEED2Ev
__ZN10CUtlVectorIP9CSendNode10CUtlMemoryIS1_iEED2Ev
__ZN10CUtlVectorIP9CSfxTable10CUtlMemoryIS1_iEED2Ev
__ZN10CUtlVectorIP9IDispInfo10CUtlMemoryIS1_iEED2Ev
__ZN10CUtlVectorIP9IMaterial10CUtlMemoryIS1_iEED2Ev
__ZN10CUtlVectorIP9KeyValues10CUtlMemoryIS1_iEE10GrowVectorEi
__ZN10CUtlVectorIP9KeyValues10CUtlMemoryIS1_iEE9AddToTailERKS1_
__ZN10CUtlVectorIP9KeyValues10CUtlMemoryIS1_iEED2Ev
__ZN10CUtlVectorIP9SendTable10CUtlMemoryIS1_iEE20InsertMultipleBeforeEii
__ZN10CUtlVectorIP9SendTable10CUtlMemoryIS1_iEED1Ev
__ZN10CUtlVectorIP9SendTable10CUtlMemoryIS1_iEED2Ev
__ZN10CUtlVectorIPK18surfacesortgroup_t10CUtlMemoryIS2_iEE9AddToTailERKS2_
__ZN10CUtlVectorIPK18surfacesortgroup_t10CUtlMemoryIS2_iEED2Ev
__ZN10CUtlVectorIPK18surfacesortgroup_t23CUtlMemoryFixedGrowableIS2_Lm8EiEE12InsertBeforeEiRKS2_
__ZN10CUtlVectorIPK18surfacesortgroup_t23CUtlMemoryFixedGrowableIS2_Lm8EiEED2Ev
__ZN10CUtlVectorIPK8RecvProp10CUtlMemoryIS2_iEE20InsertMultipleBeforeEii
__ZN10CUtlVectorIPK8RecvProp10CUtlMemoryIS2_iEED2Ev
__ZN10CUtlVectorIPK8SendProp10CUtlMemoryIS2_iEE20InsertMultipleBeforeEii
__ZN10CUtlVectorIPK8SendProp10CUtlMemoryIS2_iEED2Ev
__ZN10CUtlVectorIPKc10CUtlMemoryIS1_iEED2Ev
__ZN10CUtlVectorIPN12CInitTracker8InitFuncE10CUtlMemoryIS2_iEED2Ev
__ZN10CUtlVectorIPN15CUtlSymbolTable12StringPool_tE10CUtlMemoryIS2_iEED2Ev
__ZN10CUtlVectorIPN17CAudioSourceCache15SearchPathCacheE10CUtlMemoryIS2_iEE9AddToTailERKS2_
__ZN10CUtlVectorIPN17CAudioSourceCache15SearchPathCacheE10CUtlMemoryIS2_iEED2Ev
__ZN10CUtlVectorIPN17CReplayDemoPlayer14PlaybackInfo_tE10CUtlMemoryIS2_iEED2Ev
__ZN10CUtlVectorIPN18CDemoSmootherPanel14DemoSmoothUndoE10CUtlMemoryIS2_iEED2Ev
__ZN10CUtlVectorIPN19CQueuedPacketSender13CQueuedPacketE10CUtlMemoryIS2_iEED2Ev
__ZN10CUtlVectorIPN4vgui10ClickPanelE10CUtlMemoryIS2_iEE9AddToTailERKS2_
__ZN10CUtlVectorIPN4vgui10ClickPanelE10CUtlMemoryIS2_iEED2Ev
__ZN10CUtlVectorIPN4vgui10MenuButtonE10CUtlMemoryIS2_iEED2Ev
__ZN10CUtlVectorIPN4vgui10ToolWindowE10CUtlMemoryIS2_iEED1Ev
__ZN10CUtlVectorIPN4vgui10ToolWindowE10CUtlMemoryIS2_iEED2Ev
__ZN10CUtlVectorIPN4vgui13MenuSeparatorE10CUtlMemoryIS2_iEE9AddToTailERKS2_
__ZN10CUtlVectorIPN4vgui13MenuSeparatorE10CUtlMemoryIS2_iEED2Ev
__ZN10CUtlVectorIPN4vgui15BuildModeDialogE10CUtlMemoryIS2_iEED2Ev
__ZN10CUtlVectorIPN4vgui5LabelE10CUtlMemoryIS2_iEE20InsertMultipleBeforeEii
__ZN10CUtlVectorIPN4vgui5LabelE10CUtlMemoryIS2_iEED2Ev
__ZN10CUtlVectorIPN4vgui5PanelE10CUtlMemoryIS2_iEE9AddToTailERKS2_
__ZN10CUtlVectorIPN4vgui5PanelE10CUtlMemoryIS2_iEED2Ev
__ZN10CUtlVectorIPN4vgui6IImageE10CUtlMemoryIS2_iEE9AddToTailERKS2_
__ZN10CUtlVectorIPN4vgui6IImageE10CUtlMemoryIS2_iEED2Ev
__ZN10CUtlVectorIPN4vgui7PageTabE10CUtlMemoryIS2_iEED2Ev
__ZN10CUtlVectorIPN4vgui8TreeNodeE10CUtlMemoryIS2_iEE12InsertBeforeEiRKS2_
__ZN10CUtlVectorIPN4vgui8TreeNodeE10CUtlMemoryIS2_iEED2Ev
__ZN10CUtlVectorIPN8CNetChan15dataFragments_sE10CUtlMemoryIS2_iEE9AddToTailERKS2_
__ZN10CUtlVectorIPN8CNetChan15dataFragments_sE10CUtlMemoryIS2_iEED2Ev
__ZN10CUtlVectorIPN8CNetChan23SocketProcessingStats_tE10CUtlMemoryIS2_iEE12InsertBeforeEiRKS2_
__ZN10CUtlVectorIPN8CNetChan23SocketProcessingStats_tE10CUtlMemoryIS2_iEED2Ev
__ZN10CUtlVectorIPZL10SpewEdictsvE12EdictCount_t10CUtlMemoryIS1_iEED1Ev
__ZN10CUtlVectorIPc10CUtlMemoryIS0_iEE9AddToTailERKS0_
__ZN10CUtlVectorIPc10CUtlMemoryIS0_iEED2Ev
__ZN10CUtlVectorIPv10CUtlMemoryIS0_iEE9AddToTailERKS0_
__ZN10CUtlVectorIPv10CUtlMemoryIS0_iEED2Ev
__ZN10CUtlVectorIPw10CUtlMemoryIS0_iEE9AddToTailERKS0_
__ZN10CUtlVectorIPw10CUtlMemoryIS0_iEED2Ev
__ZN10CUtlVectorIS_I17CSplitPacketEntry10CUtlMemoryIS0_iEES1_IS3_iEE20InsertMultipleBeforeEii
__ZN10CUtlVectorIS_I17CSplitPacketEntry10CUtlMemoryIS0_iEES1_IS3_iEED1Ev
__ZN10CUtlVectorIS_I17CSplitPacketEntry10CUtlMemoryIS0_iEES1_IS3_iEED2Ev
__ZN10CUtlVectorIS_I20DispCollPlaneIndex_t10CUtlMemoryIS0_iEES1_IS3_iEE20InsertMultipleBeforeEii
__ZN10CUtlVectorIS_I20DispCollPlaneIndex_t10CUtlMemoryIS0_iEES1_IS3_iEED2Ev
__ZN10CUtlVectorIS_IN20CGameSaveRestoreInfo12CHashElementE10CUtlMemoryIS1_iEES2_IS4_iEE20InsertMultipleBeforeEii
__ZN10CUtlVectorIS_IN20CGameSaveRestoreInfo12CHashElementE10CUtlMemoryIS1_iEES2_IS4_iEED2Ev
__ZN10CUtlVectorIS_Ih10CUtlMemoryIhiEES0_IS2_iEE10GrowVectorEi
__ZN10CUtlVectorIS_Ih10CUtlMemoryIhiEES0_IS2_iEED2Ev
__ZN10CUtlVectorIb10CUtlMemoryIbiEE20InsertMultipleBeforeEii
__ZN10CUtlVectorIb10CUtlMemoryIbiEED2Ev
__ZN10CUtlVectorIc10CUtlMemoryIciEE20InsertMultipleBeforeEii
__ZN10CUtlVectorIc10CUtlMemoryIciEE9AddToTailERKc
__ZN10CUtlVectorIc10CUtlMemoryIciEED1Ev
__ZN10CUtlVectorIc10CUtlMemoryIciEED2Ev
__ZN10CUtlVectorIf10CUtlMemoryIfiEE20InsertMultipleBeforeEii
__ZN10CUtlVectorIf10CUtlMemoryIfiEE9AddToTailERKf
__ZN10CUtlVectorIf10CUtlMemoryIfiEED1Ev
__ZN10CUtlVectorIf10CUtlMemoryIfiEED2Ev
__ZN10CUtlVectorIh10CUtlMemoryIhiEE12InsertBeforeEiRKh
__ZN10CUtlVectorIh10CUtlMemoryIhiEE20InsertMultipleBeforeEii
__ZN10CUtlVectorIh10CUtlMemoryIhiEED1Ev
__ZN10CUtlVectorIh10CUtlMemoryIhiEED2Ev
__ZN10CUtlVectorIh11CHunkMemoryIhEED1Ev
__ZN10CUtlVectorIi10CUtlMemoryIiiEE10GrowVectorEi
__ZN10CUtlVectorIi10CUtlMemoryIiiEE12InsertBeforeEiRKi
__ZN10CUtlVectorIi10CUtlMemoryIiiEE20InsertMultipleBeforeEii
__ZN10CUtlVectorIi10CUtlMemoryIiiEE9AddToTailERKi
__ZN10CUtlVectorIi10CUtlMemoryIiiEE9AddToTailEv
__ZN10CUtlVectorIi10CUtlMemoryIiiEED1Ev
__ZN10CUtlVectorIi10CUtlMemoryIiiEED2Ev
__ZN10CUtlVectorIi23CUtlMemoryFixedGrowableIiLm256EiEE12InsertBeforeEiRKi
__ZN10CUtlVectorIi23CUtlMemoryFixedGrowableIiLm256EiEED2Ev
__ZN10CUtlVectorIj10CUtlMemoryIjiEE20InsertMultipleBeforeEii
__ZN10CUtlVectorIj10CUtlMemoryIjiEE9AddToTailERKj
__ZN10CUtlVectorIj10CUtlMemoryIjiEED1Ev
__ZN10CUtlVectorIj10CUtlMemoryIjiEED2Ev
__ZN10CUtlVectorIm10CUtlMemoryImiEED2Ev
__ZN10CUtlVectorIs10CUtlMemoryIsiEE9AddToTailERKs
__ZN10CUtlVectorIs10CUtlMemoryIsiEED2Ev
__ZN10CUtlVectorIt10CUtlMemoryItiEE10GrowVectorEi
__ZN10CUtlVectorIt10CUtlMemoryItiEE20InsertMultipleBeforeEii
__ZN10CUtlVectorIt10CUtlMemoryItiEE9AddToTailERKt
__ZN10CUtlVectorIt10CUtlMemoryItiEED2Ev
__ZN10CUtlVectorIw10CUtlMemoryIwiEE10GrowVectorEi
__ZN10CUtlVectorIw10CUtlMemoryIwiEE9AddToTailERKw
__ZN10CUtlVectorIw10CUtlMemoryIwiEED2Ev
__ZN10CUtlVectorIy10CUtlMemoryIyiEED2Ev
__ZN10CVBRHeader15m_dwXINGOffsetsE
__ZN10CVBRHeader17ExtractVBRIHeaderEj
__ZN10CVBRHeader17ExtractXINGHeaderEj
__ZN10CVBRHeader20IsVBRHeaderAvailableEP8CMPAFileRNS_13VBRHeaderTypeERj
__ZN10CVBRHeaderC1EP8CMPAFileNS_13VBRHeaderTypeEj
__ZN10CVBRHeaderC2EP8CMPAFileNS_13VBRHeaderTypeEj
__ZN10CVBRHeaderD1Ev
__ZN10CVProfNode10EnterScopeEv
__ZN10CVProfNode10GetSubNodeEPKciS1_i
__ZN10CVProfNode22s_iCurrentUniqueNodeIDE
__ZN10CVProfNode5PauseEv
__ZN10CVProfNode5ResetEv
__ZN10CVProfNode6ResumeEv
__ZN10CVProfNode9ExitScopeEv
__ZN10CVProfNode9MarkFrameEv
__ZN10CVProfNode9ResetPeakEv
__ZN10CVoxelHash10RenderGridEv
__ZN10CVoxelHash14InsertIntoTreeEtRK6VectorS2_
__ZN10CVoxelHash14RemoveFromTreeEt
__ZN10CVoxelHash16LeafListRaySetupERK5Ray_tRK6VectorS5_7Voxel_tPiPfS8_
__ZN10CVoxelHash19RenderObjectInVoxelEtP17CPartitionVisitorf
__ZN10CVoxelHash22EnumerateElementsInBoxEi7Voxel_tS0_RK6VectorS3_P20IPartitionEnumerator
__ZN10CVoxelHash22RenderAllObjectsInTreeEf
__ZN10CVoxelHash24EnumerateElementsAtPointEi7Voxel_tRK6VectorP20IPartitionEnumerator
__ZN10CVoxelHash24EnumerateElementsInVoxelI13CIntersectBoxEEb7Voxel_tRKT_iP20IPartitionEnumerator
__ZN10CVoxelHash24EnumerateElementsInVoxelI13CIntersectRayEEb7Voxel_tRKT_iP20IPartitionEnumerator
__ZN10CVoxelHash24EnumerateElementsInVoxelI18CIntersectSweptBoxEEb7Voxel_tRKT_iP20IPartitionEnumerator
__ZN10CVoxelHash24LeafListExtrudedRaySetupERK5Ray_tRK6VectorS5_S5_PiS6_S6_PfS7_S7_
__ZN10CVoxelHash26RenderObjectsInPlayerLeafsERK6VectorS2_f
__ZN10CVoxelHash30EnumerateElementsInSingleVoxelI13CIntersectBoxEEb7Voxel_tRKT_iP20IPartitionEnumerator
__ZN10CVoxelHash30EnumerateElementsInSingleVoxelI13CIntersectRayEEb7Voxel_tRKT_iP20IPartitionEnumerator
__ZN10CVoxelHash42EnumerateElementsAlongRay_ExtrudedRaySliceEiP20IPartitionEnumeratorRK18CIntersectSweptBoxPiS5_iS5_
__ZN10CVoxelHash4InitEP10CVoxelTreeRK6VectorS4_i
__ZN10CVoxelHash8ShutdownEv
__ZN10CVoxelHashD2Ev
__ZN10CVoxelTree11ReportStatsEPKc
__ZN10CVoxelTree12ElementMovedEtRK6VectorS2_
__ZN10CVoxelTree14InsertIntoTreeEtRK6VectorS2_
__ZN10CVoxelTree14RemoveFromTreeEt
__ZN10CVoxelTree17DrawDebugOverlaysEv
__ZN10CVoxelTree22EnumerateElementsInBoxEiRK6VectorS2_bP20IPartitionEnumerator
__ZN10CVoxelTree22RenderAllObjectsInTreeEf
__ZN10CVoxelTree24EnumerateElementsAtPointEiRK6VectorbP20IPartitionEnumerator
__ZN10CVoxelTree25EnumerateElementsAlongRayEiRK5Ray_tbP20IPartitionEnumerator
__ZN10CVoxelTree25EnumerateElementsInSphereEiRK6VectorfbP20IPartitionEnumerator
__ZN10CVoxelTree26RenderObjectsInPlayerLeafsERK6VectorS2_f
__ZN10CVoxelTree29EnumerateElementsAlongRay_RayEiRK5Ray_tRK6VectorS5_P20IPartitionEnumerator
__ZN10CVoxelTree37EnumerateElementsAlongRay_ExtrudedRayEiRK5Ray_tRK6VectorS5_P20IPartitionEnumerator
__ZN10CVoxelTree4InitEP17CSpatialPartitioniRK6VectorS4_
__ZN10CVoxelTreeC2Ev
__ZN10CVoxelTreeD0Ev
__ZN10CVoxelTreeD1Ev
__ZN10CVoxelTreeD2Ev
__ZN10ConCommand15CanAutoCompleteEv
__ZN10ConCommand19AutoCompleteSuggestEPKcR10CUtlVectorI10CUtlString10CUtlMemoryIS3_iEE
__ZN10ConCommand8DispatchERK8CCommand
__ZN10ConCommandC1EPKcPFvRK8CCommandES1_iPFiS1_PA64_cE
__ZN10ConCommandC1EPKcPFvvES1_iPFiS1_PA64_cE
__ZN10ConCommandC2EPKcP16ICommandCallbackS1_iP26ICommandCompletionCallback
__ZN10ConCommandD0Ev
__ZN10ConCommandD1Ev
__ZN10ConCommandD2Ev
__ZN10InFileRIFFC1EPKcR15IFileReadBinary
__ZN10InFileRIFFC2EPKcR15IFileReadBinary
__ZN10InFileRIFFD1Ev
__ZN10MM_Migrate13WriteToBufferER8bf_write
__ZN10MM_Migrate14ReadFromBufferER7bf_read
__ZN10MM_Migrate7ProcessEv
__ZN10MM_MigrateD0Ev
__ZN10MM_MigrateD1Ev
__ZN10PackWork_t7ProcessERS_
__ZN10SVC_Sounds13WriteToBufferER8bf_write
__ZN10SVC_Sounds14ReadFromBufferER7bf_read
__ZN10SVC_Sounds7ProcessEv
__ZN10SVC_SoundsD0Ev
__ZN10SVC_SoundsD1Ev
__ZN10loopback_t11s_AllocatorE
__ZN11CBaseClient10DisconnectEPKcz
__ZN11CBaseClient10InactivateEv
__ZN11CBaseClient10SendNetMsgER11INetMessageb
__ZN11CBaseClient10SetSteamIDERK8CSteamID
__ZN11CBaseClient11DemoRestartEv
__ZN11CBaseClient11ProcessTickEP8NET_Tick
__ZN11CBaseClient11SetUserCVarEPKcS1_
__ZN11CBaseClient11SpawnPlayerEv
__ZN11CBaseClient12ClientPrintfEPKcz
__ZN11CBaseClient12FillUserInfoER13player_info_s
__ZN11CBaseClient12SendSnapshotEP12CClientFrame
__ZN11CBaseClient13FireGameEventEP10IGameEvent
__ZN11CBaseClient13FreeBaselinesEv
__ZN11CBaseClient13GetDeltaFrameEi
__ZN11CBaseClient13GetNetChannelEv
__ZN11CBaseClient13SetUpdateRateEib
__ZN11CBaseClient14ActivatePlayerEv
__ZN11CBaseClient14SendServerInfoEv
__ZN11CBaseClient14SendSignonDataEv
__ZN11CBaseClient14SetSignonStateEii
__ZN11CBaseClient15ConnectionStartEP11INetChannel
__ZN11CBaseClient15TraceNetworkMsgEiPKcz
__ZN11CBaseClient15UpdateSendStateEv
__ZN11CBaseClient15WriteGameSoundsER8bf_write
__ZN11CBaseClient16IgnoreTempEntityEP10CEventInfo
__ZN11CBaseClient16ProcessSetConVarEP13NET_SetConVar
__ZN11CBaseClient16ProcessStringCmdEP13NET_StringCmd
__ZN11CBaseClient16TraceNetworkDataER8bf_writePKcz
__ZN11CBaseClient17ProcessClientInfoEP14CLC_ClientInfo
__ZN11CBaseClient18ProcessBaselineAckEP15CLC_BaselineAck
__ZN11CBaseClient18ProcessSignonStateEP15NET_SignonState
__ZN11CBaseClient18ShouldSendMessagesEv
__ZN11CBaseClient18UpdateUserSettingsEv
__ZN11CBaseClient19IsNameChangeAllowedEv
__ZN11CBaseClient19OnRequestFullUpdateEv
__ZN11CBaseClient19ProcessCmdKeyValuesEP16CLC_CmdKeyValues
__ZN11CBaseClient19ProcessListenEventsEP16CLC_ListenEvents
__ZN11CBaseClient20CheckFlushNameChangeEb
__ZN11CBaseClient20ExecuteStringCommandEPKc
__ZN11CBaseClient22IsNameChangeOnCooldownEb
__ZN11CBaseClient23SetSignonState_InternalEi
__ZN11CBaseClient25SetMaxRoutablePayloadSizeEi
__ZN11CBaseClient28UpdateAcknowledgedFramecountEi
__ZN11CBaseClient5ClearEv
__ZN11CBaseClient7ConnectEPKciP11INetChannelbi
__ZN11CBaseClient7SetNameEPKc
__ZN11CBaseClient7SetRateEib
__ZN11CBaseClient8EndTraceER8bf_write
__ZN11CBaseClient9GetServerEv
__ZN11CBaseClient9ReconnectEv
__ZN11CBaseClientC2Ev
__ZN11CBaseClientD0Ev
__ZN11CBaseClientD1Ev
__ZN11CBaseClientD2Ev
__ZN11CBaseServer11GetCPUUsageEv
__ZN11CBaseServer11GetNetStatsERfS0_
__ZN11CBaseServer11SetPasswordEPKc
__ZN11CBaseServer13CheckPasswordER8netadr_sPKcS3_
__ZN11CBaseServer13CheckProtocolER8netadr_sii
__ZN11CBaseServer13CheckTimeoutsEv
__ZN11CBaseServer13ConnectClientER8netadr_siiiiPKcS3_S3_i
__ZN11CBaseServer13GetFreeClientER8netadr_s
__ZN11CBaseServer13GetNumPlayersEv
__ZN11CBaseServer13GetPlayerInfoEiP13player_info_s
__ZN11CBaseServer13SetMaxClientsEi
__ZN11CBaseServer14FillServerInfoER14SVC_ServerInfo
__ZN11CBaseServer14GetChallengeNrER8netadr_s
__ZN11CBaseServer14ReplyChallengeER8netadr_si
__ZN11CBaseServer15BroadcastPrintfEPKcz
__ZN11CBaseServer15CreateNewClientEi
__ZN11CBaseServer15RecalculateTagsEv
__ZN11CBaseServer15SetPausedForcedEbf
__ZN11CBaseServer15UserInfoChangedEi
__ZN11CBaseServer16BroadcastMessageER11INetMessageR16IRecipientFilter
__ZN11CBaseServer16BroadcastMessageER11INetMessagebb
__ZN11CBaseServer16CheckChallengeNrER8netadr_si
__ZN11CBaseServer16CreateFakeClientEPKc
__ZN11CBaseServer16DisconnectClientEP7IClientPKc
__ZN11CBaseServer16GetChallengeTypeER8netadr_s
__ZN11CBaseServer16GetClassBaselineEP11ServerClassPPKvPi
__ZN11CBaseServer16ReconnectClientsEv
__ZN11CBaseServer16RejectConnectionERK8netadr_siPKc
__ZN11CBaseServer17CalculateCPUUsageEv
__ZN11CBaseServer17InactivateClientsEv
__ZN11CBaseServer17WriteTempEntitiesEP11CBaseClientP14CFrameSnapshotS3_R8bf_writei
__ZN11CBaseServer18CheckChallengeTypeEP11CBaseClientiR8netadr_siPKcii
__ZN11CBaseServer18GetLightStyleTableEv
__ZN11CBaseServer18SendClientMessagesEb
__ZN11CBaseServer18UpdateMasterServerEv
__ZN11CBaseServer18UpdateUserSettingsEv
__ZN11CBaseServer18WriteDeltaEntitiesEP11CBaseClientP12CClientFrameS3_R8bf_write
__ZN11CBaseServer19CheckIPRestrictionsERK8netadr_si
__ZN11CBaseServer20CompressPackedEntityEP11ServerClassPKcRi
__ZN11CBaseServer20RemoveClientFromGameEP11CBaseClient
__ZN11CBaseServer20ReplyServerChallengeER8netadr_s
__ZN11CBaseServer21SendPendingServerInfoEv
__ZN11CBaseServer22FinishCertificateCheckER8netadr_siPKci
__ZN11CBaseServer22UncompressPackedEntityEP12PackedEntityRi
__ZN11CBaseServer23UpdateMasterServerRulesEv
__ZN11CBaseServer24GetInstanceBaselineTableEv
__ZN11CBaseServer24ShouldUpdateMasterServerEv
__ZN11CBaseServer25UpdateMasterServerPlayersEv
__ZN11CBaseServer27ProcessConnectionlessPacketEP11netpacket_s
__ZN11CBaseServer31CheckMasterServerRequestRestartEv
__ZN11CBaseServer37ForwardPacketsFromMasterServerUpdaterEv
__ZN11CBaseServer4InitEb
__ZN11CBaseServer5ClearEv
__ZN11CBaseServer6AddTagEPKc
__ZN11CBaseServer8RunFrameEv
__ZN11CBaseServer8ShutdownEv
__ZN11CBaseServer9GetClientEi
__ZN11CBaseServer9RemoveTagEPKc
__ZN11CBaseServer9SetPausedEb
__ZN11CBaseServerC2Ev
__ZN11CBaseServerD0Ev
__ZN11CBaseServerD1Ev
__ZN11CBaseServerD2Ev
__ZN11CBugUIPanel10GetAnimMapEv
__ZN11CBugUIPanel10OnSaveGameEv
__ZN11CBugUIPanel10SetVisibleEb
__ZN11CBugUIPanel10UploadFileEPKcS1_b
__ZN11CBugUIPanel12AddFileToZipEPKc
__ZN11CBugUIPanel12OnChooseAreaEPN4vgui5PanelE
__ZN11CBugUIPanel13AutoFillTokenEPKcb
__ZN11CBugUIPanel13GetMessageMapEv
__ZN11CBugUIPanel13OnIncludeFileEv
__ZN11CBugUIPanel13ParseCommandsERK8CCommand
__ZN11CBugUIPanel14OnFileSelectedEPKc
__ZN11CBugUIPanel14OnTakeSnapshotEv
__ZN11CBugUIPanel15GetDataFileBaseEPKcPci
__ZN11CBugUIPanel16OnKeyCodePressedE12ButtonCode_t
__ZN11CBugUIPanel16PopulateControlsEv
__ZN11CBugUIPanel17GetPanelClassNameEv
__ZN11CBugUIPanel17IsValidSubmissionEb
__ZN11CBugUIPanel17OnChooseVMFFolderEv
__ZN11CBugUIPanel17OnFinishBugReportEv
__ZN11CBugUIPanel18ParseDefaultParamsEv
__ZN11CBugUIPanel19IsValidEmailAddressEPKc
__ZN11CBugUIPanel19OnDirectorySelectedEPKc
__ZN11CBugUIPanel19UploadBugSubmissionEPKciS1_S1_S1_S1_R10CUtlVectorINS_12includedfileE10CUtlMemoryIS3_iEE
__ZN11CBugUIPanel4InitEv
__ZN11CBugUIPanel5CloseEv
__ZN11CBugUIPanel6OnTickEv
__ZN11CBugUIPanel7GetAreaEv
__ZN11CBugUIPanel8ActivateEv
__ZN11CBugUIPanel8AddToMapEPKcMN4vgui5PanelEFvvEiiS1_iS1_
__ZN11CBugUIPanel8GetKBMapEv
__ZN11CBugUIPanel8OnSubmitEv
__ZN11CBugUIPanel8WipeDataEv
__ZN11CBugUIPanel9OnCommandEPKc
__ZN11CBugUIPanel9OnSaveVMFEv
__ZN11CBugUIPanelC1EbPN4vgui5PanelE
__ZN11CBugUIPanelD0Ev
__ZN11CBugUIPanelD1Ev
__ZN11CCallQueueTI8CTSQueueIP8CFunctorLb0EEE10CallQueuedEv
__ZN11CCallQueueTI8CTSQueueIP8CFunctorLb0EEE9QueueCallIP11CBugUIPanelS6_bPKcS9_b12CUtlEnvelopeIS9_ESB_bEEvT_MT0_FT1_T2_T3_T4_ERKT5_RKT6_RKT7_
__ZN11CCallQueueTI8CTSQueueIP8CFunctorLb0EEE9QueueCallIP12CSaveRestoreS6_vPKcS9_b12CUtlEnvelopeIS9_ESB_bEEvT_MT0_FT1_T2_T3_T4_ERKT5_RKT6_RKT7_
__ZN11CCallQueueTI8CTSQueueIP8CFunctorLb0EEE9QueueCallIP12CSaveRestoreS6_vPKcib12CUtlEnvelopeIS9_EibEEvT_MT0_FT1_T2_T3_T4_ERKT5_RKT6_RKT7_
__ZN11CCallQueueTI8CTSQueueIP8CFunctorLb0EEE9QueueCallIP22ISaveRestoreFileSystemS6_15FSAsyncStatus_tPKcPKvibbPP18FSAsyncControl_t__12CUtlEnvelopeISA_EPvibbSF_EEvT_MT0_FT1_T2_T3_T4_T5_T6_T7_ERKT8_RKT9_RKT10_RKT11_RKT12_RKT13_
__ZN11CCallQueueTI8CTSQueueIP8CFunctorLb0EEE9QueueCallIP22ISaveRestoreFileSystemS6_15FSAsyncStatus_tPKcPKvibbPP18FSAsyncControl_t__12CUtlEnvelopeISA_EPvjbbSF_EEvT_MT0_FT1_T2_T3_T4_T5_T6_T7_ERKT8_RKT9_RKT10_RKT11_RKT12_RKT13_
__ZN11CCallQueueTI8CTSQueueIP8CFunctorLb0EEE9QueueCallIvPKc12CUtlEnvelopeIS7_EEEvPFT_T0_ERKT1_
__ZN11CDemoPlayer10IsSkippingEv
__ZN11CDemoPlayer10ReadPacketEv
__ZN11CDemoPlayer10SetEndTickEi
__ZN11CDemoPlayer10SkipToTickEibb
__ZN11CDemoPlayer11GetDemoFileEv
__ZN11CDemoPlayer12StopPlaybackEv
__ZN11CDemoPlayer13GetTotalTicksEv
__ZN11CDemoPlayer13IsPlayingBackEv
__ZN11CDemoPlayer13OnStopCommandEv
__ZN11CDemoPlayer13PausePlaybackEf
__ZN11CDemoPlayer13StartPlaybackEPKcb
__ZN11CDemoPlayer14ResumePlaybackEv
__ZN11CDemoPlayer15GetPlaybackTickEv
__ZN11CDemoPlayer15ShouldLoopDemosEv
__ZN11CDemoPlayer16CanSkipBackwardsEv
__ZN11CDemoPlayer16IsPlaybackPausedEv
__ZN11CDemoPlayer17IsPlayingTimeDemoEv
__ZN11CDemoPlayer18GetProtocolVersionEv
__ZN11CDemoPlayer19CheckPausedPlaybackEv
__ZN11CDemoPlayer20GetPlaybackStartTickEv
__ZN11CDemoPlayer20GetPlaybackTimeScaleEv
__ZN11CDemoPlayer20InterpolateViewpointEv
__ZN11CDemoPlayer20SetPlaybackTimeScaleEf
__ZN11CDemoPlayer20WriteTimeDemoResultsEv
__ZN11CDemoPlayer21ParseAheadForIntervalEii
__ZN11CDemoPlayer22InterpolateDemoCommandEiR16DemoCommandQueueS1_
__ZN11CDemoPlayer22OnLastDemoInLoopPlayedEv
__ZN11CDemoPlayer22ResetDemoInterpolationEv
__ZN11CDemoPlayer9IsLoadingEv
__ZN11CDemoPlayer9MarkFrameEf
__ZN11CDemoPlayerC2Ev
__ZN11CDemoPlayerD0Ev
__ZN11CDemoPlayerD1Ev
__ZN11CDemoPlayerD2Ev
__ZN11CDmxElement12AddAttributeEPKc
__ZN11CDmxElement12GetAttributeEi
__ZN11CDmxElement13s_TypeSymbolsE
__ZN11CDmxElement14LockForChangesEb
__ZN11CDmxElement19AddElementsToDeleteER10CUtlVectorIPS_10CUtlMemoryIS1_iEE
__ZN11CDmxElement26RemoveAllElementsRecursiveEv
__ZN11CDmxElementC2EPKc
__ZN11CDmxElementD2Ev
__ZN11CEngineTool10ClientTickEv
__ZN11CEngineTool10ClientTimeEv
__ZN11CEngineTool10GetGameDirEPci
__ZN11CEngineTool10IsMapValidEPKc
__ZN11CEngineTool10RenderViewER10CViewSetupii
__ZN11CEngineTool10ServerTickEv
__ZN11CEngineTool10ServerTimeEv
__ZN11CEngineTool10ShowCursorEb
__ZN11CEngineTool10StartSoundEibiiPKcf12soundlevel_tRK6VectorS5_iibfi
__ZN11CEngineTool11ChangeToMapEPKc
__ZN11CEngineTool11Con_NPrintfEiPKcz
__ZN11CEngineTool11GetRealTimeEv
__ZN11CEngineTool11IsConnectedEv
__ZN11CEngineTool11ReloadSoundEPKc
__ZN11CEngineTool11SetIsInGameEb
__ZN11CEngineTool11SetMainViewERK6VectorRK6QAngle
__ZN11CEngineTool12Con_NXPrintfEPK12con_nprint_sPKcz
__ZN11CEngineTool12ElementMovedEtRK6VectorS2_
__ZN11CEngineTool12GetTimescaleEv
__ZN11CEngineTool12IsGamePausedEv
__ZN11CEngineTool12SetTimescaleEf
__ZN11CEngineTool12SwitchToToolEi
__ZN11CEngineTool13GetCurrentMapEv
__ZN11CEngineTool13GetMaxClientsEv
__ZN11CEngineTool13GetPlayerViewER10CViewSetupiiii
__ZN11CEngineTool13GetScreenSizeERiS0_
__ZN11CEngineTool13HostFrameTimeEv
__ZN11CEngineTool13PrecacheModelEPKcb
__ZN11CEngineTool13PrecacheSoundEPKcb
__ZN11CEngineTool13SetAudioStateERK12AudioState_t
__ZN11CEngineTool13SetGamePausedEb
__ZN11CEngineTool13StopAllSoundsEv
__ZN11CEngineTool14GetStudioModelEj
__ZN11CEngineTool14GetTopmostToolEv
__ZN11CEngineTool14HostFrameCountEv
__ZN11CEngineTool14IsLoopingSoundEi
__ZN11CEngineTool14TraceRayServerERK5Ray_tjP12ITraceFilterP10CBaseTrace
__ZN11CEngineTool15ClientFrameTimeEv
__ZN11CEngineTool15ServerFrameTimeEv
__ZN11CEngineTool15StopSoundByGuidEi
__ZN11CEngineTool16CreatePickingRayERK10CViewSetupiiR6VectorS4_
__ZN11CEngineTool16GetActiveDLightsEPP8dlight_t
__ZN11CEngineTool16GetClientFactoryERPFPvPKcPiE
__ZN11CEngineTool16GetMono16SamplesEPKcR10CUtlVectorIs10CUtlMemoryIsiEE
__ZN11CEngineTool16GetPointContentsERK6Vector
__ZN11CEngineTool16GetRealFrameTimeEv
__ZN11CEngineTool16GetServerFactoryERPFPvPKcPiE
__ZN11CEngineTool16GetSoundDurationEPKc
__ZN11CEngineTool16GetSoundDurationEi
__ZN11CEngineTool16IsConsoleVisibleEv
__ZN11CEngineTool16IsRecordingMovieEv
__ZN11CEngineTool16IsVoiceRecordingEv
__ZN11CEngineTool17EndMovieRecordingEv
__ZN11CEngineTool17TakeTGAScreenShotEPKcii
__ZN11CEngineTool18InstallQuitHandlerEPvPFbS0_E
__ZN11CEngineTool18ServerTickIntervalEv
__ZN11CEngineTool18SetClientFrameTimeEf
__ZN11CEngineTool19IsSoundStillPlayingEi
__ZN11CEngineTool19StartMovieRecordingEP9KeyValues
__ZN11CEngineTool20CancelMovieRecordingEv
__ZN11CEngineTool21CreatePartitionHandleEP13IHandleEntityiRK6VectorS4_
__ZN11CEngineTool21GetLightingConditionsERK6VectorPS0_iP11LightDesc_t
__ZN11CEngineTool22DestroyPartitionHandleEt
__ZN11CEngineTool22ForceUpdateDuringPauseEv
__ZN11CEngineTool22GetActiveVideoRecorderEv
__ZN11CEngineTool24StopRecordingVoiceToFileEv
__ZN11CEngineTool25StartRecordingVoiceToFileEPKcS1_
__ZN11CEngineTool28RemovePartitionQueryCallbackEP23IPartitionQueryCallback
__ZN11CEngineTool29GetWorldToScreenMatrixForViewERK10CViewSetupP7VMatrix
__ZN11CEngineTool29InstallPartitionQueryCallbackEP23IPartitionQueryCallback
__ZN11CEngineTool4TimeEv
__ZN11CEngineTool7CommandEPKc
__ZN11CEngineTool7ExecuteEv
__ZN11CEngineTool8GetModelEj
__ZN11CEngineTool8HostTickEv
__ZN11CEngineTool8HostTimeEv
__ZN11CEngineTool8IsInGameEv
__ZN11CEngineTool8TraceRayERK5Ray_tjP12ITraceFilterP10CBaseTrace
__ZN11CEngineTool9ForceSendEv
__ZN11CEngineToolD0Ev
__ZN11CEngineToolD1Ev
__ZN11CEngineVGui10HideGameUIEv
__ZN11CEngineVGui11ConfirmQuitEv
__ZN11CEngineVGui11HideConsoleEv
__ZN11CEngineVGui11ShouldPauseEv
__ZN11CEngineVGui11ShowConsoleEv
__ZN11CEngineVGui12ClearConsoleEv
__ZN11CEngineVGui14ActivateGameUIEv
__ZN11CEngineVGui14DrawMouseFocusEv
__ZN11CEngineVGui14GetWorkshopMapEjP17WorkshopMapDesc_t
__ZN11CEngineVGui15HideDebugSystemEv
__ZN11CEngineVGui15IsGameUIVisibleEv
__ZN11CEngineVGui16GetGameUIFactoryEv
__ZN11CEngineVGui16IsConsoleVisibleEv
__ZN11CEngineVGui16ShowErrorMessageEv
__ZN11CEngineVGui16UpdatePlayerInfoEyPKcihib
__ZN11CEngineVGui17CreateVProfPanelsEPN4vgui5PanelE
__ZN11CEngineVGui17OnCreditsFinishedEv
__ZN11CEngineVGui17ShowMessageDialogEjPN4vgui5PanelE
__ZN11CEngineVGui17ShowNewGameDialogEi
__ZN11CEngineVGui17UpdateButtonStateERK12InputEvent_t
__ZN11CEngineVGui17UpdateProgressBarE22LevelLoadingProgress_e
__ZN11CEngineVGui18SetVGUIDirectoriesEv
__ZN11CEngineVGui18SystemNotificationEi
__ZN11CEngineVGui19SessionNotificationEii
__ZN11CEngineVGui19SessionSearchResultEiPvP22_XSESSION_SEARCHRESULTi
__ZN11CEngineVGui19StartCustomProgressEv
__ZN11CEngineVGui19ToggleDebugSystemUIERK8CCommand
__ZN11CEngineVGui20FinishCustomProgressEv
__ZN11CEngineVGui21NotifyOfServerConnectEPKciii
__ZN11CEngineVGui21OnLevelLoadingStartedEv
__ZN11CEngineVGui21ValidateStorageDeviceEPi
__ZN11CEngineVGui22OnLevelLoadingFinishedEv
__ZN11CEngineVGui23SetGameDLLPanelsVisibleEb
__ZN11CEngineVGui23UpdateCustomProgressBarEfPKw
__ZN11CEngineVGui24NotifyOfServerDisconnectEv
__ZN11CEngineVGui25SetNotAllowedToHideGameUIEb
__ZN11CEngineVGui25SetNotAllowedToShowGameUIEb
__ZN11CEngineVGui27BackwardCompatibility_PaintEv
__ZN11CEngineVGui29EnabledProgressBarForNextLoadEv
__ZN11CEngineVGui4InitEv
__ZN11CEngineVGui5PaintE11PaintMode_t
__ZN11CEngineVGui7ConnectEv
__ZN11CEngineVGui8GetPanelE11VGuiPanel_t
__ZN11CEngineVGui8PostInitEv
__ZN11CEngineVGui8ShutdownEv
__ZN11CEngineVGui8SimulateEv
__ZN11CEngineVGui9Key_EventERK12InputEvent_t
__ZN11CEngineVGuiD0Ev
__ZN11CEngineVGuiD1Ev
__ZN11CFogUIPanel10GetAnimMapEv
__ZN11CFogUIPanel12InstallFogUIEPN4vgui5PanelE
__ZN11CFogUIPanel13GetMessageMapEv
__ZN11CFogUIPanel13OnTextNewLineEP9KeyValues
__ZN11CFogUIPanel15OnTextKillFocusEP9KeyValues
__ZN11CFogUIPanel17GetPanelClassNameEv
__ZN11CFogUIPanel6OnTickEv
__ZN11CFogUIPanel8AddToMapEPKcMN4vgui5PanelEFvvEiiS1_iS1_
__ZN11CFogUIPanel8GetKBMapEv
__ZN11CFogUIPanel9OnCommandEPKc
__ZN11CFogUIPanel9OnMessageEPK9KeyValuesj
__ZN11CFogUIPanelC1EPN4vgui5PanelE
__ZN11CFogUIPanelD0Ev
__ZN11CFogUIPanelD1Ev
__ZN11CFrameTimer23ComputeFrameVariabilityEv
__ZN11CFrameTimer9MarkFrameEv
__ZN11CFunctorJob8DescribeEv
__ZN11CFunctorJob9DoExecuteEv
__ZN11CFunctorJobD0Ev
__ZN11CFunctorJobD1Ev
__ZN11CGameClient10DisconnectEPKcz
__ZN11CGameClient10FileDeniedEPKcj
__ZN11CGameClient10InactivateEv
__ZN11CGameClient10SendNetMsgER11INetMessageb
__ZN11CGameClient11PacketStartEii
__ZN11CGameClient11ProcessMoveEP8CLC_Move
__ZN11CGameClient11SpawnPlayerEv
__ZN11CGameClient12FileReceivedEPKcj
__ZN11CGameClient12GetSendFrameEv
__ZN11CGameClient12SendSnapshotEP12CClientFrame
__ZN11CGameClient13FileRequestedEPKcj
__ZN11CGameClient13GetDeltaFrameEi
__ZN11CGameClient13SetUpdateRateEib
__ZN11CGameClient13SetupPackInfoEP14CFrameSnapshot
__ZN11CGameClient14ActivatePlayerEv
__ZN11CGameClient14SendSignonDataEv
__ZN11CGameClient14SetSignonStateEii
__ZN11CGameClient15GetPrevPackInfoEv
__ZN11CGameClient15WriteGameSoundsER8bf_write
__ZN11CGameClient16IgnoreTempEntityEP10CEventInfo
__ZN11CGameClient16ProcessVoiceDataEP13CLC_VoiceData
__ZN11CGameClient17ConnectionClosingEPKc
__ZN11CGameClient17ConnectionCrashedEPKc
__ZN11CGameClient17FillSoundsMessageER10SVC_Sounds
__ZN11CGameClient17ProcessClientInfoEP14CLC_ClientInfo
__ZN11CGameClient17ProcessSaveReplayEP14CLC_SaveReplay
__ZN11CGameClient17SetupPrevPackInfoEv
__ZN11CGameClient18ShouldSendMessagesEv
__ZN11CGameClient18UpdateUserSettingsEv
__ZN11CGameClient19ProcessCmdKeyValuesEP16CLC_CmdKeyValues
__ZN11CGameClient19ProcessFileCRCCheckEP16CLC_FileCRCCheck
__ZN11CGameClient19ProcessFileMD5CheckEP16CLC_FileMD5Check
__ZN11CGameClient20ExecuteStringCommandEPKc
__ZN11CGameClient20WriteViewAngleUpdateEv
__ZN11CGameClient22DownloadCustomizationsEv
__ZN11CGameClient23ProcessRespondCvarValueEP20CLC_RespondCvarValue
__ZN11CGameClient28UpdateAcknowledgedFramecountEi
__ZN11CGameClient5ClearEv
__ZN11CGameClient7ConnectEPKciP11INetChannelbi
__ZN11CGameClient7SetRateEib
__ZN11CGameClient8FileSentEPKcj
__ZN11CGameClient9PacketEndEv
__ZN11CGameClient9ReconnectEv
__ZN11CGameClient9SendSoundER11SoundInfo_tb
__ZN11CGameClientC1EiP11CBaseServer
__ZN11CGameClientC2EiP11CBaseServer
__ZN11CGameClientD0Ev
__ZN11CGameClientD1Ev
__ZN11CGameServer11SpawnServerEPKcS1_S1_
__ZN11CGameServer13FinishRestoreEv
__ZN11CGameServer13PrecacheDecalEPKci
__ZN11CGameServer13PrecacheModelEPKciP7model_t
__ZN11CGameServer13PrecacheSoundEPKci
__ZN11CGameServer13SetMaxClientsEi
__ZN11CGameServer14AssignClassIdsEv
__ZN11CGameServer14BroadcastSoundER11SoundInfo_tR16IRecipientFilter
__ZN11CGameServer14SetHibernatingEb
__ZN11CGameServer15CreateNewClientEi
__ZN11CGameServer15PrecacheGenericEPKci
__ZN11CGameServer15ReloadWhitelistEPKc
__ZN11CGameServer16LookupModelIndexEPKc
__ZN11CGameServer16LookupSoundIndexEPKc
__ZN11CGameServer17DumpPrecacheStatsEP19INetworkStringTable
__ZN11CGameServer18SendClientMessagesEb
__ZN11CGameServer20RemoveClientFromGameEP11CBaseClient
__ZN11CGameServer22FinishCertificateCheckER8netadr_siPKci
__ZN11CGameServer22UpdateHibernationStateEv
__ZN11CGameServer24CreateEngineStringTablesEv
__ZN11CGameServer25UpdateMasterServerPlayersEv
__ZN11CGameServer36CopyPureServerWhitelistToStringTableEv
__ZN11CGameServer4InitEb
__ZN11CGameServer5ClearEv
__ZN11CGameServer8GetModelEi
__ZN11CGameServer8GetSoundEi
__ZN11CGameServer8ShutdownEv
__ZN11CGameServerC2Ev
__ZN11CGameServerD0Ev
__ZN11CGameServerD1Ev
__ZN11CGameServerD2Ev
__ZN11CHLTVClient10FileDeniedEPKcj
__ZN11CHLTVClient11PacketStartEii
__ZN11CHLTVClient11ProcessMoveEP8CLC_Move
__ZN11CHLTVClient11SpawnPlayerEv
__ZN11CHLTVClient12FileReceivedEPKcj
__ZN11CHLTVClient12SendSnapshotEP12CClientFrame
__ZN11CHLTVClient13FileRequestedEPKcj
__ZN11CHLTVClient13GetDeltaFrameEi
__ZN11CHLTVClient13SetUpdateRateEib
__ZN11CHLTVClient14SendSignonDataEv
__ZN11CHLTVClient16ProcessSetConVarEP13NET_SetConVar
__ZN11CHLTVClient16ProcessVoiceDataEP13CLC_VoiceData
__ZN11CHLTVClient17ConnectionClosingEPKc
__ZN11CHLTVClient17ConnectionCrashedEPKc
__ZN11CHLTVClient17ProcessClientInfoEP14CLC_ClientInfo
__ZN11CHLTVClient17ProcessSaveReplayEP14CLC_SaveReplay
__ZN11CHLTVClient18ShouldSendMessagesEv
__ZN11CHLTVClient18UpdateUserSettingsEv
__ZN11CHLTVClient19ProcessFileCRCCheckEP16CLC_FileCRCCheck
__ZN11CHLTVClient19ProcessFileMD5CheckEP16CLC_FileMD5Check
__ZN11CHLTVClient19ProcessListenEventsEP16CLC_ListenEvents
__ZN11CHLTVClient20ExecuteStringCommandEPKc
__ZN11CHLTVClient23ProcessRespondCvarValueEP20CLC_RespondCvarValue
__ZN11CHLTVClient7SetRateEib
__ZN11CHLTVClient8FileSentEPKcj
__ZN11CHLTVClient9PacketEndEv
__ZN11CHLTVClientC1EiP11CBaseServer
__ZN11CHLTVClientC2EiP11CBaseServer
__ZN11CHLTVClientD0Ev
__ZN11CHLTVClientD1Ev
__ZN11CHLTVServer10IsSkippingEv
__ZN11CHLTVServer10ReadPacketEv
__ZN11CHLTVServer10SendNetMsgER11INetMessageb
__ZN11CHLTVServer10SetEndTickEi
__ZN11CHLTVServer10SkipToTickEibb
__ZN11CHLTVServer10StartRelayEv
__ZN11CHLTVServer10UpdateTickEv
__ZN11CHLTVServer11AddNewFrameEP12CClientFrame
__ZN11CHLTVServer11ChangelevelEv
__ZN11CHLTVServer11GetDemoFileEv
__ZN11CHLTVServer11GetDirectorEv
__ZN11CHLTVServer11GetHLTVSlotEv
__ZN11CHLTVServer11GetNetStatsERfS0_
__ZN11CHLTVServer11StartMasterEP11CGameClient
__ZN11CHLTVServer11UpdateStatsEv
__ZN11CHLTVServer12StopPlaybackEv
__ZN11CHLTVServer13ConnectClientER8netadr_siiiiPKcS3_S3_i
__ZN11CHLTVServer13FireGameEventEP10IGameEvent
__ZN11CHLTVServer13GetBaseServerEv
__ZN11CHLTVServer13GetDeltaFrameEi
__ZN11CHLTVServer13GetLocalStatsERiS0_S0_
__ZN11CHLTVServer13GetOnlineTimeEv
__ZN11CHLTVServer13GetRelayStatsERiS0_S0_
__ZN11CHLTVServer13GetTotalTicksEv
__ZN11CHLTVServer13IsMasterProxyEv
__ZN11CHLTVServer13IsPlayingBackEv
__ZN11CHLTVServer13PausePlaybackEf
__ZN11CHLTVServer13SetMaxClientsEi
__ZN11CHLTVServer13StartPlaybackEPKcb
__ZN11CHLTVServer14BroadcastEventEP10IGameEvent
__ZN11CHLTVServer14EntityPVSCheckEP12CClientFrame
__ZN11CHLTVServer14FillServerInfoER14SVC_ServerInfo
__ZN11CHLTVServer14GetGlobalStatsERiS0_S0_
__ZN11CHLTVServer14IsDemoPlaybackEv
__ZN11CHLTVServer14ResumePlaybackEv
__ZN11CHLTVServer14SignonCompleteEv
__ZN11CHLTVServer15CreateNewClientEi
__ZN11CHLTVServer15DispatchToRelayEP11CHLTVClient
__ZN11CHLTVServer15GetPlaybackTickEv
__ZN11CHLTVServer15GetRelayAddressEv
__ZN11CHLTVServer15ShouldLoopDemosEv
__ZN11CHLTVServer15UserInfoChangedEi
__ZN11CHLTVServer16CanSkipBackwardsEv
__ZN11CHLTVServer16GetChallengeTypeER8netadr_s
__ZN11CHLTVServer16IsPlaybackPausedEv
__ZN11CHLTVServer17IsPlayingTimeDemoEv
__ZN11CHLTVServer18BroadcastLocalChatEPKcS1_
__ZN11CHLTVServer18GetProtocolVersionEv
__ZN11CHLTVServer18SendClientMessagesEb
__ZN11CHLTVServer19BroadcastEventLocalEP10IGameEventb
__ZN11CHLTVServer19BroadcastLocalTitleEP11CHLTVClient
__ZN11CHLTVServer19InstallStringTablesEv
__ZN11CHLTVServer20GetPlaybackStartTickEv
__ZN11CHLTVServer20GetPlaybackTimeScaleEv
__ZN11CHLTVServer20InitClientRecvTablesEv
__ZN11CHLTVServer20InterpolateViewpointEv
__ZN11CHLTVServer20ReadCompleteDemoFileEv
__ZN11CHLTVServer20SetPlaybackTimeScaleEf
__ZN11CHLTVServer21LinkInstanceBaselinesEv
__ZN11CHLTVServer22OnLastDemoInLoopPlayedEv
__ZN11CHLTVServer22ResetDemoInterpolationEv
__ZN11CHLTVServer24ShouldUpdateMasterServerEv
__ZN11CHLTVServer27ProcessConnectionlessPacketEP11netpacket_s
__ZN11CHLTVServer4InitEb
__ZN11CHLTVServer5ClearEv
__ZN11CHLTVServer8RunFrameEv
__ZN11CHLTVServer8ShutdownEv
__ZN11CHLTVServer9GetBufferEi
__ZN11CHLTVServer9IsLoadingEv
__ZN11CHLTVServer9IsTVRelayEv
__ZN11CHLTVServer9ReplyInfoERK8netadr_s
__ZN11CHLTVServerC1Ev
__ZN11CHLTVServerC2Ev
__ZN11CHLTVServerD0Ev
__ZN11CHLTVServerD1Ev
__ZN11CHLTVServerD2Ev
__ZN11CNetMessage11SetReliableEb
__ZN11CNetMessage13SetNetChannelEP11INetChannel
__ZN11CNetMessage13SetRatePolicyEv
__ZN11CNetMessage29BIncomingMessageForProcessingEdi
__ZN11CNetMessage7ProcessEv
__ZN11CNetMessageD0Ev
__ZN11CNetMessageD1Ev
__ZN11CObjectPoolI10CVarBitVecLi2ELb1EE5PurgeEv
__ZN11CObjectPoolI10CVarBitVecLi2ELb1EE9PutObjectEPS0_
__ZN11CObjectPoolI10CVarBitVecLi2ELb1EEC2Ev
__ZN11CObjectPoolI16CWorldRenderListLi0ELb1EE9PutObjectEPS0_
__ZN11CObjectPoolI16CWorldRenderListLi0ELb1EED1Ev
__ZN11CObjectPoolI16CWorldRenderListLi0ELb1EED2Ev
__ZN11COverlayMgr11Disp_DoClipEP9CDispInfoR10CUtlVectorIP18moverlayfragment_t10CUtlMemoryIS4_iEER8cplane_tfiiii
__ZN11COverlayMgr12LoadOverlaysEv
__ZN11COverlayMgr14DoClipFragmentEP18moverlayfragment_tP8cplane_tPS1_S4_
__ZN11COverlayMgr14RenderOverlaysEi
__ZN11COverlayMgr14UnloadOverlaysEv
__ZN11COverlayMgr15BuildClipPlanesEP11msurface2_tR18moverlayfragment_tRK6VectorR10CUtlVectorI8cplane_t10CUtlMemoryIS8_iEE
__ZN11COverlayMgr15CreateFragmentsEv
__ZN11COverlayMgr15ReSortMaterialsEv
__ZN11COverlayMgr16ClearRenderListsEi
__ZN11COverlayMgr16ClearRenderListsEv
__ZN11COverlayMgr17Disp_ClipFragmentEP9CDispInfoR10CUtlVectorIP18moverlayfragment_t10CUtlMemoryIS4_iEE
__ZN11COverlayMgr17GetMaterialSortIDEP9IMateriali
__ZN11COverlayMgr17Surf_ClipFragmentEP10moverlay_tR18moverlayfragment_tP11msurface2_tS3_
__ZN11COverlayMgr19SetOverlayBindProxyEiPv
__ZN11COverlayMgr20Disp_CreateFragmentsEP10moverlay_tP11msurface2_t
__ZN11COverlayMgr20Disp_PreClipFragmentEP10moverlay_tR10CUtlVectorIP18moverlayfragment_t10CUtlMemoryIS4_iEEP11msurface2_t
__ZN11COverlayMgr20Surf_CreateFragmentsEP10moverlay_tP11msurface2_t
__ZN11COverlayMgr20Surf_PreClipFragmentEP10moverlay_tR18moverlayfragment_tP11msurface2_tS3_
__ZN11COverlayMgr21Disp_PostClipFragmentEP9CDispInfoP11CMeshReaderP10moverlay_tR10CUtlVectorIP18moverlayfragment_t10CUtlMemoryIS8_iEEP11msurface2_t
__ZN11COverlayMgr21Surf_PostClipFragmentEP10moverlay_tR18moverlayfragment_tP11msurface2_t
__ZN11COverlayMgr25AddFragmentToFragmentListEi
__ZN11COverlayMgr27AddFragmentListToRenderListEitb
__ZN11COverlayMgrD1Ev
__ZN11COverlayMgrD2Ev
__ZN11CPluginMenu10GetAnimMapEv
__ZN11CPluginMenu13GetMessageMapEv
__ZN11CPluginMenu17GetPanelClassNameEv
__ZN11CPluginMenu4ShowEP9KeyValues
__ZN11CPluginMenu8GetKBMapEv
__ZN11CPluginMenu9OnCommandEPKc
__ZN11CPluginMenuC1EPN4vgui5PanelE
__ZN11CPluginMenuD0Ev
__ZN11CPluginMenuD1Ev
__ZN11CRConClient10SetAddressERK8netadr_s
__ZN11CRConClient11SetPasswordEPKc
__ZN11CRConClient12AuthenticateEv
__ZN11CRConClient12SendResponseER10CUtlBufferb
__ZN11CRConClient13BuildResponseER10CUtlBuffer23ServerDataRequestType_tPKcS4_
__ZN11CRConClient14OnSocketClosedEiRK8netadr_sPv
__ZN11CRConClient14SendQueuedDataEv
__ZN11CRConClient16OnSocketAcceptedEiRK8netadr_sPPv
__ZN11CRConClient17ParseReceivedDataEv
__ZN11CRConClient18ShouldAcceptSocketEiRK8netadr_s
__ZN11CRConClient7SendCmdEPKc
__ZN11CRConClient8RunFrameEv
__ZN11CRConClientC2Ev
__ZN11CRConClientD1Ev
__ZN11CRConClientD2Ev
__ZN11CRConServer10SetAddressEPKc
__ZN11CRConServer12CreateSocketEv
__ZN11CRConServer12SetRequestIDEji
__ZN11CRConServer14FinishRedirectEPKcRK8netadr_s
__ZN11CRConServer14OnSocketClosedEiRK8netadr_sPv
__ZN11CRConServer16OnSocketAcceptedEiRK8netadr_sPPv
__ZN11CRConServer16SendRCONResponseEiPKvib
__ZN11CRConServer18ShouldAcceptSocketEiRK8netadr_s
__ZN11CRConServer20BCloseAcceptedSocketEj
__ZN11CRConServer20HandleFailedRconAuthERK8netadr_s
__ZN11CRConServer8RunFrameEv
__ZN11CRConServerC2Ev
__ZN11CRConServerD1Ev
__ZN11CSaveMemoryD1Ev
__ZN11CStaticProp10GetFxBlendEv
__ZN11CStaticProp10SetupBonesEP11matrix3x4_tiif
__ZN11CStaticProp10ShouldDrawEv
__ZN11CStaticProp12RenderHandleEv
__ZN11CStaticProp12SetupWeightsEPK11matrix3x4_tiPfS3_
__ZN11CStaticProp12TestHitboxesERK5Ray_tjR10CGameTrace
__ZN11CStaticProp13DrawModelSlowEi
__ZN11CStaticProp13GetAttachmentEiR11matrix3x4_t
__ZN11CStaticProp13GetAttachmentEiR6VectorR6QAngle
__ZN11CStaticProp13GetBaseEntityEv
__ZN11CStaticProp13IsShadowDirtyEv
__ZN11CStaticProp13IsTransparentEv
__ZN11CStaticProp13SetRefEHandleERK11CBaseHandle
__ZN11CStaticProp13TestCollisionERK5Ray_tjR10CGameTrace
__ZN11CStaticProp14ComputeFxBlendEv
__ZN11CStaticProp14CreateVPhysicsEP19IPhysicsEnvironmentP19IVPhysicsKeyHandlerPv
__ZN11CStaticProp14GetCollideableEv
__ZN11CStaticProp14NextShadowPeerEv
__ZN11CStaticProp14ShadowCastTypeEv
__ZN11CStaticProp15GetEntityHandleEv
__ZN11CStaticProp15GetRenderAnglesEv
__ZN11CStaticProp15GetRenderBoundsER6VectorS1_
__ZN11CStaticProp15GetRenderOriginEv
__ZN11CStaticProp15GetShadowParentEv
__ZN11CStaticProp15MarkShadowDirtyEb
__ZN11CStaticProp16FirstShadowChildEv
__ZN11CStaticProp16GetIClientEntityEv
__ZN11CStaticProp16GetModelInstanceEv
__ZN11CStaticProp16LookupAttachmentEPKc
__ZN11CStaticProp17DoAnimationEventsEv
__ZN11CStaticProp17GetCollisionModelEv
__ZN11CStaticProp17GetIClientUnknownEv
__ZN11CStaticProp17RecordToolMessageEv
__ZN11CStaticProp18GetClientThinkableEv
__ZN11CStaticProp18GetColorModulationEPf
__ZN11CStaticProp18GetRenderClipPlaneEv
__ZN11CStaticProp19CreateModelInstanceEv
__ZN11CStaticProp19GetClientRenderableEv
__ZN11CStaticProp19OnThreadedDrawSetupEv
__ZN11CStaticProp20GetClientNetworkableEv
__ZN11CStaticProp20InsertPropIntoKDTreeEv
__ZN11CStaticProp21DisplayStaticPropInfoEi
__ZN11CStaticProp21GetPVSNotifyInterfaceEv
__ZN11CStaticProp21GetShadowRenderBoundsER6VectorS1_12ShadowType_t
__ZN11CStaticProp21ShouldCacheRenderInfoEv
__ZN11CStaticProp22GetCollisionModelIndexEv
__ZN11CStaticProp22UsesFlexDelayedWeightsEv
__ZN11CStaticProp25GetRenderBoundsWorldspaceER6VectorS1_
__ZN11CStaticProp26RenderableToWorldTransformEv
__ZN11CStaticProp26UsesFullFrameBufferTextureEv
__ZN11CStaticProp27WorldSpaceSurroundingBoundsEP6VectorS1_
__ZN11CStaticProp30ShouldReceiveProjectedTexturesEi
__ZN11CStaticProp32UsesPowerOfTwoFrameBufferTextureEv
__ZN11CStaticProp4InitEiR16StaticPropLump_tP7model_t
__ZN11CStaticProp7GetBodyEv
__ZN11CStaticProp7GetSkinEv
__ZN11CStaticProp7LODTestEv
__ZN11CStaticProp9DrawModelEi
__ZN11CStaticProp9IsTwoPassEv
__ZN11CStaticPropD0Ev
__ZN11CStaticPropD1Ev
__ZN11CTouchLinks11EnumElementEP13IHandleEntity
__ZN11CTouchLinksC2EP7edict_tPK6Vectorb
__ZN11CVProfLabel10GetAnimMapEv
__ZN11CVProfLabel13GetMessageMapEv
__ZN11CVProfLabel17GetPanelClassNameEv
__ZN11CVProfLabel19ApplySchemeSettingsEPN4vgui7ISchemeE
__ZN11CVProfLabel8GetKBMapEv
__ZN11CVProfLabelC1EPN4vgui5PanelEPKc
__ZN11CVProfLabelD0Ev
__ZN11CVProfLabelD1Ev
__ZN11CVProfPanel10AddColumnsERN22CProfileHierarchyPanel14ColumnPanels_tE
__ZN11CVProfPanel10GetAnimMapEv
__ZN11CVProfPanel13GetMessageMapEv
__ZN11CVProfPanel13OnTextChangedEP9KeyValues
__ZN11CVProfPanel13PerformLayoutEv
__ZN11CVProfPanel13UpdateProfileEf
__ZN11CVProfPanel17GetPanelClassNameEv
__ZN11CVProfPanel19ApplySchemeSettingsEPN4vgui7ISchemeE
__ZN11CVProfPanel20ExpandGroupRecursiveEiP10CVProfNode
__ZN11CVProfPanel20OnCheckButtonCheckedEPN4vgui5PanelE
__ZN11CVProfPanel20UpdateVProfTreeEntryEP9KeyValuesP10CVProfNodei
__ZN11CVProfPanel5CloseEv
__ZN11CVProfPanel5PaintEv
__ZN11CVProfPanel5ResetEv
__ZN11CVProfPanel6OnTickEv
__ZN11CVProfPanel8AddToMapEPKcMN4vgui5PanelEFvvEiiS1_iS1_
__ZN11CVProfPanel8FillTreeEP9KeyValuesP10CVProfNodei
__ZN11CVProfPanel8GetKBMapEv
__ZN11CVProfPanel9OnCommandEPKc
__ZN11CVProfPanelC1EPN4vgui5PanelEPKc
__ZN11CVProfPanelD0Ev
__ZN11CVProfPanelD1Ev
__ZN11CVTFTexture10ReadHeaderER10CUtlBufferR15VTFFileHeader_t
__ZN11CVTFTexture11PostProcessEb9LookDir_tb
__ZN11CVTFTexture11UnserializeER10CUtlBufferbi
__ZN11CVTFTexture12SetBumpScaleEf
__ZN11CVTFTexture13LoadImageDataER10CUtlBufferRK15VTFFileHeader_ti
__ZN11CVTFTexture13UnserializeExER10CUtlBufferbii
__ZN11CVTFTexture14GetMipmapRangeEPiS0_
__ZN11CVTFTexture15GenerateMipmapsEv
__ZN11CVTFTexture15InitLowResImageEii11ImageFormat
__ZN11CVTFTexture15LowResImageDataEv
__ZN11CVTFTexture15SetReflectivityERK6Vector
__ZN11CVTFTexture15SetResourceDataEjPKvm
__ZN11CVTFTexture17ComputeAlphaFlagsEv
__ZN11CVTFTexture17GenerateSpheremapE9LookDir_t
__ZN11CVTFTexture18ConvertImageFormatE11ImageFormatb
__ZN11CVTFTexture19ComputeReflectivityEv
__ZN11CVTFTexture19MatchCubeMapBordersEi11ImageFormatb
__ZN11CVTFTexture20ConstructLowResImageEv
__ZN11CVTFTexture20NormalizeTopMipLevelEv
__ZN11CVTFTexture21BlendCubeMapFaceEdgesEiiPK10CEdgeMatch
__ZN11CVTFTexture21ComputeSpheremapFrameEPPhS0_9LookDir_t
__ZN11CVTFTexture21GenerateHemisphereMapEPhii9LookDir_ti
__ZN11CVTFTexture21ResourceMemorySection8LoadDataER10CUtlBufferR9CByteswap
__ZN11CVTFTexture22BuildCubeMapMatchListsEP10CEdgeMatchP12CCornerMatchb
__ZN11CVTFTexture23BlendCubeMapFaceCornersEiiPK12CCornerMatch
__ZN11CVTFTexture23RemoveResourceEntryInfoEj
__ZN11CVTFTexture23SetAlphaTestThreshholdsEff
__ZN11CVTFTexture24BlendCubeMapEdgePalettesEiiPK10CEdgeMatch
__ZN11CVTFTexture24MatchCubeMapS3TCPalettesEP10CEdgeMatchP12CCornerMatch
__ZN11CVTFTexture25ComputeHemispheremapFrameEPPhS0_9LookDir_t
__ZN11CVTFTexture25FixCubemapFaceOrientationEv
__ZN11CVTFTexture25PutOneOverMipLevelInAlphaEv
__ZN11CVTFTexture25SetPostProcessingSettingsEPK20VtfProcessingOptions
__ZN11CVTFTexture26BlendCubeMapCornerPalettesEiiPK12CCornerMatch
__ZN11CVTFTexture26SetupTextureEdgeIncrementsEiiibP15CEdgeIncrements
__ZN11CVTFTexture29FindOrCreateResourceEntryInfoEj
__ZN11CVTFTexture4InitEiii11ImageFormatiii
__ZN11CVTFTexture8ShutdownEv
__ZN11CVTFTexture9ImageDataEiii
__ZN11CVTFTexture9ImageDataEiiiiii
__ZN11CVTFTexture9ImageDataEv
__ZN11CVTFTexture9SerializeER10CUtlBuffer
__ZN11CVTFTextureD0Ev
__ZN11CVTFTextureD1Ev
__ZN11CXboxSystem10SessionEndEPvbPS0_
__ZN11CXboxSystem10WriteStatsEPvyjS0_bPS0_
__ZN11CXboxSystem12SessionStartEPvjbPS0_
__ZN11CXboxSystem12ShowSigninUIEjj
__ZN11CXboxSystem13CreateSessionEjjjjPyPvPS1_bS2_
__ZN11CXboxSystem13DeleteSessionEPvbPS0_
__ZN11CXboxSystem13SessionSearchEjjjjjjP15_XUSER_PROPERTYP14_XUSER_CONTEXTPjP29_XSESSION_SEARCHRESULT_HEADERbPPv
__ZN11CXboxSystem14OpenContainersEv
__ZN11CXboxSystem14SessionMigrateEPvjS0_bPS0_
__ZN11CXboxSystem14UserSetContextEjjjbPPv
__ZN11CXboxSystem15CloseContainersEv
__ZN11CXboxSystem15UserSetPropertyEjjjPKvbPPv
__ZN11CXboxSystem16AwardAchievementEjj
__ZN11CXboxSystem16DiscoverUserDataEjPKc
__ZN11CXboxSystem16SessionJoinLocalEPvjPKjPKbbPS0_
__ZN11CXboxSystem17CreateAsyncHandleEv
__ZN11CXboxSystem17SessionJoinRemoteEPvjPKyPKbbPS0_
__ZN11CXboxSystem17SessionLeaveLocalEPvjPKjbPS0_
__ZN11CXboxSystem18ReleaseAsyncHandleEPv
__ZN11CXboxSystem18SessionLeaveRemoteEPvjPKybPS0_
__ZN11CXboxSystem18ShowDeviceSelectorEbPjPPv
__ZN11CXboxSystem19GetOverlappedResultEPvPjb
__ZN11CXboxSystem21EnumerateAchievementsEjyjjPvjbPS0_
__ZN11CXboxSystem21FinishContainerWritesEv
__ZN11CXboxSystem22DeviceCapacityAdequateEjPKc
__ZN11CXboxSystem22GetContainerOpenResultEv
__ZN11CXboxSystem23CreateSavegameContainerEj
__ZN11CXboxSystem24GetModSaveContainerNamesEPKcPPKwPS1_
__ZN11CXboxSystem25CancelOverlappedOperationEPv
__ZN11CXboxSystem26GetContainerRemainingSpaceEv
__ZN11CXboxSystem26SessionArbitrationRegisterEPvjyPjS0_bPS0_
__ZN11CXboxSystem27CreateUserSettingsContainerEj
__ZN11CXboxSystemD0Ev
__ZN11CXboxSystemD1Ev
__ZN11DemoOverlay11DrawOverlayEf
__ZN11GAME_HEADER9m_DataMapE
__ZN11IVModelInfo14ReferenceModelEi
__ZN11IVModelInfo15AddDynamicModelEPKci
__ZN11IVModelInfo16UnreferenceModelEi
__ZN11IVModelInfo17InitDynamicModelsEv
__ZN11IVModelInfo20CleanupDynamicModelsEb
__ZN11IVModelInfo21ShutdownDynamicModelsEv
__ZN11ImageLoader11CompressSTBI10BGRA8888_tEEvPh11ImageFormatPKhii
__ZN11ImageLoader11CompressSTBI10BGRX8888_tEEvPh11ImageFormatPKhii
__ZN11ImageLoader11CompressSTBI10RGBA8888_tEEvPh11ImageFormatPKhii
__ZN11ImageLoader11CompressSTBI8RGB888_tEEvPh11ImageFormatPKhii
__ZN11ImageLoader14CKernelWrapperILi0ELb0EE11ApplyKernelERKNS_12KernelInfo_tERKNS_14ResampleInfo_tEiiiPfS8_
__ZN11ImageLoader14CKernelWrapperILi0ELb0EE20ComputeAveragedColorERKNS_12KernelInfo_tERKNS_14ResampleInfo_tEiiiPfS8_
__ZN11ImageLoader14CKernelWrapperILi0ELb1EE11ApplyKernelERKNS_12KernelInfo_tERKNS_14ResampleInfo_tEiiiPfS8_
__ZN11ImageLoader14CKernelWrapperILi0ELb1EE20ComputeAveragedColorERKNS_12KernelInfo_tERKNS_14ResampleInfo_tEiiiPfS8_
__ZN11ImageLoader14CKernelWrapperILi1ELb0EE11ApplyKernelERKNS_12KernelInfo_tERKNS_14ResampleInfo_tEiiiPfS8_
__ZN11ImageLoader14CKernelWrapperILi1ELb0EE20ComputeAveragedColorERKNS_12KernelInfo_tERKNS_14ResampleInfo_tEiiiPfS8_
__ZN11ImageLoader14CKernelWrapperILi1ELb1EE11ApplyKernelERKNS_12KernelInfo_tERKNS_14ResampleInfo_tEiiiPfS8_
__ZN11ImageLoader14CKernelWrapperILi1ELb1EE20ComputeAveragedColorERKNS_12KernelInfo_tERKNS_14ResampleInfo_tEiiiPfS8_
__ZN11ImageLoader14CKernelWrapperILi2ELb0EE11ApplyKernelERKNS_12KernelInfo_tERKNS_14ResampleInfo_tEiiiPfS8_
__ZN11ImageLoader14CKernelWrapperILi2ELb0EE18AdjustAlphaChannelERKNS_12KernelInfo_tERKNS_14ResampleInfo_tEiiiPf
__ZN11ImageLoader14CKernelWrapperILi2ELb0EE20ComputeAveragedColorERKNS_12KernelInfo_tERKNS_14ResampleInfo_tEiiiPfS8_
__ZN11ImageLoader14CKernelWrapperILi2ELb0EE21AddAlphaToAlphaResultERKNS_12KernelInfo_tERKNS_14ResampleInfo_tEiiifPf
__ZN11ImageLoader14CKernelWrapperILi2ELb1EE11ApplyKernelERKNS_12KernelInfo_tERKNS_14ResampleInfo_tEiiiPfS8_
__ZN11ImageLoader14CKernelWrapperILi2ELb1EE18AdjustAlphaChannelERKNS_12KernelInfo_tERKNS_14ResampleInfo_tEiiiPf
__ZN11ImageLoader14CKernelWrapperILi2ELb1EE20ComputeAveragedColorERKNS_12KernelInfo_tERKNS_14ResampleInfo_tEiiiPfS8_
__ZN11ImageLoader14CKernelWrapperILi2ELb1EE21AddAlphaToAlphaResultERKNS_12KernelInfo_tERKNS_14ResampleInfo_tEiiifPf
__ZN11ImageLoader14GetMemRequiredEiii11ImageFormatb
__ZN11ImageLoader14RotateImage180EPKhPhi11ImageFormat
__ZN11ImageLoader15ImageFormatInfoE11ImageFormat
__ZN11ImageLoader15RotateImageLeftEPKhPhi11ImageFormat
__ZN11ImageLoader16ResampleRGBA8888ERKNS_14ResampleInfo_tE
__ZN11ImageLoader18ConvertImageFormatEPKh11ImageFormatPhS2_iiii
__ZN11ImageLoader18GetNumMipMapLevelsEiii
__ZN11ImageLoader18ResampleRGB323232FERKNS_14ResampleInfo_tE
__ZN11ImageLoader19ConvertToDXTRuntimeEPKh11ImageFormatPhS2_iiii
__ZN11ImageLoader19FlipImageVerticallyEPvS0_ii11ImageFormati
__ZN11ImageLoader20GammaCorrectRGBA8888EPhS0_iiiff
__ZN11ImageLoader20GenerateMipmapLevelsEPhS0_iii11ImageFormatffi
__ZN11ImageLoader21FlipImageHorizontallyEPvS0_ii11ImageFormati
__ZN11ImageLoader26NormalizeNormalMapRGBA8888EPhi
__ZN11ImageLoader37ConvertNormalMapRGBA8888ToDUDVMapUV88EPKhiiPh
__ZN11ImageLoader41ConvertImageFormat_RGB323232F_To_BGRA8888EPfPhii
__ZN11ImageLoader41ConvertImageFormat_RGB323232F_To_RGBA8888EPfPhii
__ZN11ImageLoader41ConvertNormalMapRGBA8888ToDUDVMapUVLX8888EPKhiiPh
__ZN11ImageLoader41ConvertNormalMapRGBA8888ToDUDVMapUVWQ8888EPKhiiPh
__ZN11ImageLoader46ConvertImageFormat_RGBA16161616F_To_RGB323232FEP7float16Pfii
__ZN11ImageLoader47ConvertImageFormat_RGBA16161616F_To_RGBA323232FEP7float16Pfiim
__ZN11ImageLoader48ConvertImageFormat_RGBA16161616F_To_RGBA16161616EP7float16Ptii
__ZN11ImageLoader48ConvertImageFormat_RGBA16161616_To_RGBA16161616FEPtPfii
__ZN11ImageLoaderL12A8ToRGBA8888EPKhPhi
__ZN11ImageLoaderL12I8ToRGBA8888EPKhPhi
__ZN11ImageLoaderL12RGBA8888ToA8EPKhPhi
__ZN11ImageLoaderL12RGBA8888ToI8EPKhPhi
__ZN11ImageLoaderL12g_KernelFuncE
__ZN11ImageLoaderL14IA88ToRGBA8888EPKhPhi
__ZN11ImageLoaderL14RGBA8888ToIA88EPKhPhi
__ZN11ImageLoaderL14RGBA8888ToUV88EPKhPhi
__ZN11ImageLoaderL14UV88ToRGBA8888EPKhPhi
__ZN11ImageLoaderL15ConvertFromDXT1I10BGRA4444_tEEvPKhPT_ii
__ZN11ImageLoaderL15ConvertFromDXT1I10BGRA5551_tEEvPKhPT_ii
__ZN11ImageLoaderL15ConvertFromDXT1I10BGRA8888_tEEvPKhPT_ii
__ZN11ImageLoaderL15ConvertFromDXT1I10RGBA8888_tEEvPKhPT_ii
__ZN11ImageLoaderL15ConvertFromDXT1I8BGR565_tEEvPKhPT_ii
__ZN11ImageLoaderL15ConvertFromDXT1I8BGR888_tEEvPKhPT_ii
__ZN11ImageLoaderL15ConvertFromDXT1I8RGB888_tEEvPKhPT_ii
__ZN11ImageLoaderL15ConvertFromDXT5I10BGRA4444_tEEvPKhPT_ii
__ZN11ImageLoaderL15ConvertFromDXT5I10BGRA5551_tEEvPKhPT_ii
__ZN11ImageLoaderL15ConvertFromDXT5I10BGRA8888_tEEvPKhPT_ii
__ZN11ImageLoaderL15ConvertFromDXT5I10RGBA8888_tEEvPKhPT_ii
__ZN11ImageLoaderL16BGR565ToRGBA8888EPKhPhi
__ZN11ImageLoaderL16BGR888ToRGBA8888EPKhPhi
__ZN11ImageLoaderL16ConvertFromATIxNI10BGRA8888_tEEvPKhPT_iib
__ZN11ImageLoaderL16RGB888ToRGBA8888EPKhPhi
__ZN11ImageLoaderL16RGBA8888ToBGR565EPKhPhi
__ZN11ImageLoaderL16RGBA8888ToBGR888EPKhPhi
__ZN11ImageLoaderL16RGBA8888ToRGB888EPKhPhi
__ZN11ImageLoaderL16g_KernelFuncNiceE
__ZN11ImageLoaderL18ABGR8888ToRGBA8888EPKhPhi
__ZN11ImageLoaderL18ARGB8888ToRGBA8888EPKhPhi
__ZN11ImageLoaderL18BGRA4444ToRGBA8888EPKhPhi
__ZN11ImageLoaderL18BGRA5551ToRGBA8888EPKhPhi
__ZN11ImageLoaderL18BGRA8888ToRGBA8888EPKhPhi
__ZN11ImageLoaderL18BGRX5551ToRGBA8888EPKhPhi
__ZN11ImageLoaderL18BGRX8888ToRGBA8888EPKhPhi
__ZN11ImageLoaderL18GenerateNiceFilterEfffiPfS0_
__ZN11ImageLoaderL18RGBA8888ToABGR8888EPKhPhi
__ZN11ImageLoaderL18RGBA8888ToARGB8888EPKhPhi
__ZN11ImageLoaderL18RGBA8888ToBGRA4444EPKhPhi
__ZN11ImageLoaderL18RGBA8888ToBGRA5551EPKhPhi
__ZN11ImageLoaderL18RGBA8888ToBGRA8888EPKhPhi
__ZN11ImageLoaderL18RGBA8888ToBGRX5551EPKhPhi
__ZN11ImageLoaderL18RGBA8888ToBGRX8888EPKhPhi
__ZN11ImageLoaderL18RGBA8888ToRGBA8888EPKhPhi
__ZN11ImageLoaderL18RGBA8888ToUVLX8888EPKhPhi
__ZN11ImageLoaderL18RGBA8888ToUVWQ8888EPKhPhi
__ZN11ImageLoaderL18UVLX8888ToRGBA8888EPKhPhi
__ZN11ImageLoaderL18UVWQ8888ToRGBA8888EPKhPhi
__ZN11ImageLoaderL21DecodeAlpha3BitLinearI10BGRA8888_tEEvPT_PNS_23DXTAlphaBlock3BitLinearEii
__ZN11ImageLoaderL22RGBA16161616ToRGBA8888EPKhPhi
__ZN11ImageLoaderL26ConvertFromDXT5IgnoreAlphaI8BGR565_tEEvPKhPT_ii
__ZN11ImageLoaderL26ConvertFromDXT5IgnoreAlphaI8BGR888_tEEvPKhPT_ii
__ZN11ImageLoaderL26ConvertFromDXT5IgnoreAlphaI8RGB888_tEEvPKhPT_ii
__ZN11ImageLoaderL27BGR888_BLUESCREENToRGBA8888EPKhPhi
__ZN11ImageLoaderL27GetColorBlockColorsBGRA8888EPNS_11DXTColBlockEP10BGRA8888_tS3_S3_S3_Rt
__ZN11ImageLoaderL27RGB888_BLUESCREENToRGBA8888EPKhPhi
__ZN11ImageLoaderL27RGBA8888ToBGR888_BLUESCREENEPKhPhi
__ZN11ImageLoaderL27RGBA8888ToRGB888_BLUESCREENEPKhPhi
__ZN11IterateRIFF12ChunkReadIntEv
__ZN11IterateRIFF14ChunkAvailableEv
__ZN11IterateRIFF16ChunkReadPartialEPvi
__ZN11IterateRIFF9ChunkNameEv
__ZN11IterateRIFF9ChunkNextEv
__ZN11IterateRIFF9ChunkReadEPv
__ZN11IterateRIFF9ChunkSizeEv
__ZN11IterateRIFFC1ER10InFileRIFFi
__ZN11IterateRIFFC2ER10InFileRIFFi
__ZN11MM_Mutelist13WriteToBufferER8bf_write
__ZN11MM_Mutelist14ReadFromBufferER7bf_read
__ZN11MM_Mutelist7ProcessEv
__ZN11MM_MutelistD0Ev
__ZN11MM_MutelistD1Ev
__ZN11SAVE_HEADER9m_DataMapE
__ZN11SVC_SetView13WriteToBufferER8bf_write
__ZN11SVC_SetView14ReadFromBufferER7bf_read
__ZN11SVC_SetView7ProcessEv
__ZN11SVC_SetViewD0Ev
__ZN11SVC_SetViewD1Ev
__ZN11SendQueue_tD1Ev
__ZN11SoundInfo_t10WriteDeltaEPS_R8bf_write
__ZN11SoundInfo_t9ReadDeltaEPS_R7bf_readi
__ZN11TxViewPanel10GetAnimMapEv
__ZN11TxViewPanel13GetMessageMapEv
__ZN11TxViewPanel14OnFileSelectedEPKc
__ZN11TxViewPanel17GetPanelClassNameEv
__ZN11TxViewPanel6OnTickEv
__ZN11TxViewPanel7InstallEPN4vgui5PanelE
__ZN11TxViewPanel8AddToMapEPKcMN4vgui5PanelEFvvEiiS1_iS1_
__ZN11TxViewPanel8GetKBMapEv
__ZN11TxViewPanel9OnCommandEPKc
__ZN11TxViewPanel9OnMessageEPK9KeyValuesj
__ZN11TxViewPanelC1EPN4vgui5PanelE
__ZN11TxViewPanelD0Ev
__ZN11TxViewPanelD1Ev
__ZN11UIConVarRef4InitEP14IVEngineClientPKcb
__ZN11UIConVarRef8SetValueEb
__ZN11UIConVarRefC1EP14IVEngineClientPKcb
__ZN11decallist_t9m_DataMapE
__ZN11levellist_t9m_DataMapE
__ZN11musicsave_t9m_DataMapE
__ZN12CClientFrame11SetSnapshotEP14CFrameSnapshot
__ZN12CClientFrame18IsMemPoolAllocatedEv
__ZN12CClientFrame4InitEP14CFrameSnapshot
__ZN12CClientFrame4InitEi
__ZN12CClientFrame9CopyFrameERS_
__ZN12CClientFrameC1EP14CFrameSnapshot
__ZN12CClientFrameC2Ev
__ZN12CClientFrameD0Ev
__ZN12CClientFrameD1Ev
__ZN12CClientFrameD2Ev
__ZN12CClientState10DisconnectEPKcb
__ZN12CClientState10FileDeniedEPKcj
__ZN12CClientState10SetGenericEi
__ZN12CClientState11ClearSoundsEv
__ZN12CClientState11FullConnectER8netadr_s
__ZN12CClientState11PacketStartEii
__ZN12CClientState11ProcessTickEP8NET_Tick
__ZN12CClientState12FileReceivedEPKcj
__ZN12CClientState12GetCDKeyHashEv
__ZN12CClientState12GetSoundNameEi
__ZN12CClientState12ReadDeltaEntER15CEntityReadInfo
__ZN12CClientState12ReadEnterPVSER15CEntityReadInfo
__ZN12CClientState12ReadLeavePVSER15CEntityReadInfo
__ZN12CClientState12SetFriendsIDEjPKc
__ZN12CClientState13AddCustomFileEiPKc
__ZN12CClientState13FileRequestedEPKcj
__ZN12CClientState13ProcessSoundsEP10SVC_Sounds
__ZN12CClientState13ReadDeletionsER15CEntityReadInfo
__ZN12CClientState14SendClientInfoEv
__ZN12CClientState14SetSignonStateEii
__ZN12CClientState15ProcessBSPDecalEP12SVC_BSPDecal
__ZN12CClientState15ProcessFixAngleEP12SVC_FixAngle
__ZN12CClientState15ProcessPrefetchEP12SVC_Prefetch
__ZN12CClientState15ProcessSetPauseEP12SVC_SetPause
__ZN12CClientState15ReadPreserveEntER15CEntityReadInfo
__ZN12CClientState16ConsistencyCheckEb
__ZN12CClientState16LookupModelIndexEPKc
__ZN12CClientState16LookupSoundIndexEPKc
__ZN12CClientState16ProcessClassInfoEP13SVC_ClassInfo
__ZN12CClientState16ProcessGameEventEP13SVC_GameEvent
__ZN12CClientState16ProcessStringCmdEP13NET_StringCmd
__ZN12CClientState16ProcessVoiceDataEP13SVC_VoiceData
__ZN12CClientState16ProcessVoiceInitEP13SVC_VoiceInit
__ZN12CClientState17ConnectionClosingEPKc
__ZN12CClientState17ConnectionCrashedEPKc
__ZN12CClientState17DumpPrecacheStatsEPKc
__ZN12CClientState17ProcessServerInfoEP14SVC_ServerInfo
__ZN12CClientState18ProcessUserMessageEP15SVC_UserMessage
__ZN12CClientState19ProcessTempEntitiesEP16SVC_TempEntities
__ZN12CClientState20ProcessEntityMessageEP17SVC_EntityMessage
__ZN12CClientState20ProcessSetPauseTimedEP17SVC_SetPauseTimed
__ZN12CClientState21CheckOthersCustomFileEj
__ZN12CClientState21FinishSignonState_NewEv
__ZN12CClientState21GetClientInterpAmountEv
__ZN12CClientState21HookClientStringTableEPKc
__ZN12CClientState21ProcessCrosshairAngleEP18SVC_CrosshairAngle
__ZN12CClientState21ProcessPacketEntitiesEP18SVC_PacketEntities
__ZN12CClientState22SendServerCmdKeyValuesEP9KeyValues
__ZN12CClientState23CheckFileCRCsWithServerEv
__ZN12CClientState26InstallStringTableCallbackEPKc
__ZN12CClientState27CheckUpdatingSteamResourcesEv
__ZN12CClientState27ProcessConnectionlessPacketEP11netpacket_s
__ZN12CClientState29ProcessSoundsWithProtoVersionEP10SVC_SoundsR10CUtlVectorI11SoundInfo_t10CUtlMemoryIS3_iEEi
__ZN12CClientState32InstallEngineStringTableCallbackEPKc
__ZN12CClientState33GetAreaBits_BackwardCompatibilityEv
__ZN12CClientState34UpdateAreaBits_BackwardsCompatibleEv
__ZN12CClientState5ClearEv
__ZN12CClientState8FileSentEPKcj
__ZN12CClientState8GetModelEi
__ZN12CClientState8GetSoundEi
__ZN12CClientState8RunFrameEv
__ZN12CClientState8SetDecalEi
__ZN12CClientState8SetModelEi
__ZN12CClientState8SetSoundEi
__ZN12CClientState9PacketEndEv
__ZN12CClientStateC1Ev
__ZN12CClientStateC2Ev
__ZN12CClientStateD0Ev
__ZN12CClientStateD1Ev
__ZN12CClientStateD2Ev
__ZN12CColorSlider10GetAnimMapEv
__ZN12CColorSlider13GetMessageMapEv
__ZN12CColorSlider13OnCursorMovedEii
__ZN12CColorSlider14OnMousePressedE12ButtonCode_t
__ZN12CColorSlider15OnMouseReleasedE12ButtonCode_t
__ZN12CColorSlider17GetPanelClassNameEv
__ZN12CColorSlider18SetNormalizedValueEif
__ZN12CColorSlider5PaintEv
__ZN12CColorSlider8GetKBMapEv
__ZN12CColorSlider9PaintKnobEfhhh
__ZN12CColorSliderC1EPN4vgui5PanelEPKci
__ZN12CColorSliderD0Ev
__ZN12CColorSliderD1Ev
__ZN12CDataManagerI13CDispCollTreePS0_b16CThreadFastMutexE11GetRealSizeEPv
__ZN12CDataManagerI13CDispCollTreePS0_b16CThreadFastMutexE22DestroyResourceStorageEPv
__ZN12CDataManagerI13CDispCollTreePS0_b16CThreadFastMutexE4LockEv
__ZN12CDataManagerI13CDispCollTreePS0_b16CThreadFastMutexE6UnlockEv
__ZN12CDataManagerI13CDispCollTreePS0_b16CThreadFastMutexE7TryLockEv
__ZN12CDataManagerI13CDispCollTreePS0_b16CThreadFastMutexED0Ev
__ZN12CDataManagerI13CDispCollTreePS0_b16CThreadFastMutexED1Ev
__ZN12CDemoUIPanel10GetAnimMapEv
__ZN12CDemoUIPanel11HandleInputEb
__ZN12CDemoUIPanel12OnVDMChangedEv
__ZN12CDemoUIPanel12OverrideViewER13democmdinfo_ti
__ZN12CDemoUIPanel13GetMessageMapEv
__ZN12CDemoUIPanel13InstallDemoUIEPN4vgui5PanelE
__ZN12CDemoUIPanel13IsInDriveModeEv
__ZN12CDemoUIPanel14OnFileSelectedEPKc
__ZN12CDemoUIPanel17DrawDebuggingInfoEv
__ZN12CDemoUIPanel17GetDriveViewPointER6VectorR6QAngle
__ZN12CDemoUIPanel17GetPanelClassNameEv
__ZN12CDemoUIPanel17SetDriveViewPointER6VectorR6QAngle
__ZN12CDemoUIPanel6OnEditEv
__ZN12CDemoUIPanel6OnLoadEv
__ZN12CDemoUIPanel6OnTickEv
__ZN12CDemoUIPanel8GetKBMapEv
__ZN12CDemoUIPanel8OnSmoothEv
__ZN12CDemoUIPanel9OnCommandEPKc
__ZN12CDemoUIPanel9OnMessageEPK9KeyValuesj
__ZN12CDemoUIPanelC1EPN4vgui5PanelE
__ZN12CDemoUIPanelD0Ev
__ZN12CDemoUIPanelD1Ev
__ZN12CDispCollTri10FindMinMaxER11CDispVectorI6VectorE
__ZN12CDispCollTri9CalcPlaneER11CDispVectorI6VectorE
__ZN12CEmptyConVar8SetValueEPKc
__ZN12CEmptyConVar8SetValueEf
__ZN12CEmptyConVar8SetValueEi
__ZN12CEmptyConVarD0Ev
__ZN12CEmptyConVarD1Ev
__ZN12CEnginePanelD0Ev
__ZN12CEnginePanelD1Ev
__ZN12CEngineStats10BeginFrameEv
__ZN12CEngineStats6EndRunEv
__ZN12CEngineStats8BeginRunEv
__ZN12CEngineStats8EndFrameEv
__ZN12CEngineStatsC1Ev
__ZN12CEngineTrace12GetBrushInfoEiP10CUtlVectorI8Vector4D10CUtlMemoryIS1_iEEPi
__ZN12CEngineTrace13ClipRayToBBoxERK5Ray_tjP12ICollideableP10CGameTrace
__ZN12CEngineTrace14GetStatByIndexEib
__ZN12CEngineTrace15ClipRayToEntityERK5Ray_tjP13IHandleEntityP10CGameTrace
__ZN12CEngineTrace16GetBrushesInAABBERK6VectorS2_P10CUtlVectorIi10CUtlMemoryIiiEEi
__ZN12CEngineTrace16GetPointContentsERK6VectorPP13IHandleEntity
__ZN12CEngineTrace16SweepCollideableEP12ICollideableRK6VectorS4_RK6QAnglejP12ITraceFilterP10CGameTrace
__ZN12CEngineTrace17ClipRayToHitboxesERK5Ray_tjP12ICollideableP10CGameTrace
__ZN12CEngineTrace17ClipRayToVPhysicsERK5Ray_tjP12ICollideableP11studiohdr_tP10CGameTrace
__ZN12CEngineTrace17EnumerateEntitiesERK5Ray_tbP17IEntityEnumerator
__ZN12CEngineTrace17EnumerateEntitiesERK6VectorS2_P17IEntityEnumerator
__ZN12CEngineTrace17PointOutsideWorldERK6Vector
__ZN12CEngineTrace20ClipRayToCollideableERK5Ray_tjP12ICollideableP10CGameTrace
__ZN12CEngineTrace22GetLeafContainingPointERK6Vector
__ZN12CEngineTrace25SetupLeafAndEntityListBoxERK6VectorS2_R14CTraceListData
__ZN12CEngineTrace25SetupLeafAndEntityListRayERK5Ray_tR14CTraceListData
__ZN12CEngineTrace28GetPointContents_CollideableEP12ICollideableRK6Vector
__ZN12CEngineTrace32TraceRayAgainstLeafAndEntityListERK5Ray_tR14CTraceListDatajP12ITraceFilterP10CGameTrace
__ZN12CEngineTrace36GetCollidableFromDisplacementsInAABBERK6VectorS2_
__ZN12CEngineTrace8TraceRayERK5Ray_tjP12ITraceFilterP10CGameTrace
__ZN12CGameUIFuncs12SetFriendsIDEjPKc
__ZN12CGameUIFuncs13GetVideoModesEPP7vmode_sPi
__ZN12CGameUIFuncs20GetButtonCodeForBindEPKc
__ZN12CGameUIFuncs20GetDesktopResolutionERiS0_
__ZN12CGameUIFuncs23GetBindingForButtonCodeE12ButtonCode_t
__ZN12CGameUIFuncs28IsConnectedToVACSecureServerEv
__ZN12CGameUIFuncs9IsKeyDownEPKcRb
__ZN12CIPRateLimit15CheckIPInternalE8netadr_s
__ZN12CIPRateLimit6LessIPERKNS_8iprate_sES2_
__ZN12CIPRateLimit7CheckIPE8netadr_s
__ZN12CIPRateLimitC1EP6ConVarS1_S1_
__ZN12CIPRateLimitD1Ev
__ZN12CInitTracker4InitEPKcS1_i
__ZN12CInitTracker8ShutdownEPKci
__ZN12CInitTrackerD1Ev
__ZN12CInitTrackerD2Ev
__ZN12CIntProperty15InitFromDefaultEPN4vgui5PanelEP22PanelAnimationMapEntry
__ZN12CIntProperty7GetDataEPN4vgui5PanelEP9KeyValuesP22PanelAnimationMapEntry
__ZN12CIntProperty7SetDataEPN4vgui5PanelEP9KeyValuesP22PanelAnimationMapEntry
__ZN12CMatchmaking10ChangeTeamEPKc
__ZN12CMatchmaking10FileDeniedEPKcj
__ZN12CMatchmaking11PacketStartEii
__ZN12CMatchmaking11ProcessMoveEP8CLC_Move
__ZN12CMatchmaking11ProcessTickEP8NET_Tick
__ZN12CMatchmaking11SendMessageEP11INetMessageP11CClientInfob
__ZN12CMatchmaking11SendMessageEP11INetMessageP8netadr_sb
__ZN12CMatchmaking11StartClientEb
__ZN12CMatchmaking12CancelSearchEv
__ZN12CMatchmaking12EndMigrationEv
__ZN12CMatchmaking12FileReceivedEPKcj
__ZN12CMatchmaking12GameIsActiveEv
__ZN12CMatchmaking13ClientDroppedEP11CClientInfo
__ZN12CMatchmaking13ConnectToHostEv
__ZN12CMatchmaking13FileRequestedEPKcj
__ZN12CMatchmaking13IsPlayerMutedEiy
__ZN12CMatchmaking13ModifySessionEv
__ZN12CMatchmaking13SelectSessionEj
__ZN12CMatchmaking13SwitchToStateEi
__ZN12CMatchmaking14GetQosWithLIVEEv
__ZN12CMatchmaking14PlayerIdToXuidEi
__ZN12CMatchmaking14ProcessMigrateEP10MM_Migrate
__ZN12CMatchmaking14StartCountdownEv
__ZN12CMatchmaking14UpdateMuteListEv
__ZN12CMatchmaking15CancelCountdownEv
__ZN12CMatchmaking15CancelQosLookupEv
__ZN12CMatchmaking15CancelStartGameEv
__ZN12CMatchmaking15ConnectionStartEP11INetChannel
__ZN12CMatchmaking15ProcessMutelistEP11MM_Mutelist
__ZN12CMatchmaking15SendJoinRequestEP8netadr_s
__ZN12CMatchmaking15ShowSessionInfoEv
__ZN12CMatchmaking15TestSendMessageEv
__ZN12CMatchmaking16AddRemoteChannelEP8netadr_s
__ZN12CMatchmaking16CreateNetChannelEP8netadr_s
__ZN12CMatchmaking16EndSessionModifyEv
__ZN12CMatchmaking16GetPlayersNeededEv
__ZN12CMatchmaking16ProcessHeartbeatEP12MM_Heartbeat
__ZN12CMatchmaking16ProcessSetConVarEP13NET_SetConVar
__ZN12CMatchmaking16ProcessStringCmdEP13NET_StringCmd
__ZN12CMatchmaking16ProcessVoiceDataEP13CLC_VoiceData
__ZN12CMatchmaking16SearchForSessionEv
__ZN12CMatchmaking17ConnectionClosingEPKc
__ZN12CMatchmaking17ConnectionCrashedEPKc
__ZN12CMatchmaking17EndStatsReportingEv
__ZN12CMatchmaking17HandleJoinRequestEP11netpacket_s
__ZN12CMatchmaking17JoinInviteSessionEP14_XSESSION_INFO
__ZN12CMatchmaking17PerformDisconnectEv
__ZN12CMatchmaking17ProcessCheckpointEP13MM_Checkpoint
__ZN12CMatchmaking17ProcessClientInfoEP13MM_ClientInfo
__ZN12CMatchmaking17ProcessClientInfoEP14CLC_ClientInfo
__ZN12CMatchmaking17ProcessSaveReplayEP14CLC_SaveReplay
__ZN12CMatchmaking17SetChannelTimeoutEP8netadr_si
__ZN12CMatchmaking18AddSessionPropertyEjPKcS1_S1_
__ZN12CMatchmaking18ClearSearchResultsEv
__ZN12CMatchmaking18CountPlayersOnTeamEi
__ZN12CMatchmaking18ProcessBaselineAckEP15CLC_BaselineAck
__ZN12CMatchmaking18ProcessSignonStateEP15NET_SignonState
__ZN12CMatchmaking19AddPlayersToSessionEP11CClientInfo
__ZN12CMatchmaking19FindOrCreateContextEj
__ZN12CMatchmaking19ProcessCmdKeyValuesEP16CLC_CmdKeyValues
__ZN12CMatchmaking19ProcessFileCRCCheckEP16CLC_FileCRCCheck
__ZN12CMatchmaking19ProcessFileMD5CheckEP16CLC_FileMD5Check
__ZN12CMatchmaking19ProcessJoinResponseEP15MM_JoinResponse
__ZN12CMatchmaking19ProcessListenEventsEP16CLC_ListenEvents
__ZN12CMatchmaking19RemoveRemoteChannelEP8netadr_sPKc
__ZN12CMatchmaking19SendToRemoteClientsEP11INetMessageby
__ZN12CMatchmaking19SessionNotificationE14SESSION_NOTIFYi
__ZN12CMatchmaking20FindOrCreatePropertyEj
__ZN12CMatchmaking20GetSessionPropertiesEv
__ZN12CMatchmaking20OnHostSessionCreatedEv
__ZN12CMatchmaking20SetSessionPropertiesEP9KeyValues
__ZN12CMatchmaking20SwitchToNextOpenTeamEP11CClientInfo
__ZN12CMatchmaking20TellClientsToConnectEv
__ZN12CMatchmaking21CleanupMarkedChannelsEv
__ZN12CMatchmaking21HandleSystemLinkReplyEP11netpacket_s
__ZN12CMatchmaking21InitializeLocalClientEb
__ZN12CMatchmaking21JoinInviteSessionByIDE5XNKID
__ZN12CMatchmaking21KickPlayerFromSessionEy
__ZN12CMatchmaking21MarkChannelForRemovalEP8netadr_s
__ZN12CMatchmaking21SendPlayerInfoToLobbyEP11CClientInfoi
__ZN12CMatchmaking22AddLocalPlayersToTeamsEv
__ZN12CMatchmaking22ApplySessionPropertiesEiiP14_XUSER_CONTEXTP15_XUSER_PROPERTY
__ZN12CMatchmaking22CancelCurrentOperationEv
__ZN12CMatchmaking22ClientInfoToNetMessageEP13MM_ClientInfoPK11CClientInfo
__ZN12CMatchmaking22HandleSystemLinkSearchEP11netpacket_s
__ZN12CMatchmaking22IsAcceptingConnectionsEv
__ZN12CMatchmaking22OnLevelLoadingFinishedEv
__ZN12CMatchmaking22UpdateSessionReplyDataEj
__ZN12CMatchmaking23ProcessRegisterResponseEP19MM_RegisterResponse
__ZN12CMatchmaking23ProcessRespondCvarValueEP20CLC_RespondCvarValue
__ZN12CMatchmaking24PreventFullServerStartupEv
__ZN12CMatchmaking24SendModifySessionMessageEv
__ZN12CMatchmaking26AddSessionPropertyInternalEP9KeyValues
__ZN12CMatchmaking26ProcessRegistrationResultsEv
__ZN12CMatchmaking27ProcessConnectionlessPacketEP11netpacket_s
__ZN12CMatchmaking27SetPreventFullServerStartupEbPKcz
__ZN12CMatchmaking7CleanupEv
__ZN12CMatchmaking7EndGameEv
__ZN12CMatchmaking7GetTimeEv
__ZN12CMatchmaking8FileSentEPKcj
__ZN12CMatchmaking8IsServerEv
__ZN12CMatchmaking9PacketEndEv
__ZN12CMatchmaking9StartGameEv
__ZN12CMatchmaking9StartHostEb
__ZN12CMatchmaking9TestStatsEv
__ZN12CMatchmakingC2Ev
__ZN12CMatchmakingD0Ev
__ZN12CMatchmakingD1Ev
__ZN12CMatchmakingD2Ev
__ZN12CMemoryStack16FreeToAllocPointEjb
__ZN12CMemoryStack4InitEjjjj
__ZN12CMemoryStack7FreeAllEb
__ZN12CMemoryStack7GetSizeEv
__ZN12CMemoryStack8CommitToEPh
__ZN12CMemoryStackC1Ev
__ZN12CMemoryStackC2Ev
__ZN12CMemoryStackD1Ev
__ZN12CMemoryStackD2Ev
__ZN12CModelLoader11Map_IsValidEPKcb
__ZN12CModelLoader11UnloadModelEP7model_t
__ZN12CModelLoader12GetExtraDataEP7model_t
__ZN12CModelLoader13Map_LoadModelEP7model_t
__ZN12CModelLoader14ReferenceModelEPKcN12IModelLoader13REFERENCETYPEE
__ZN12CModelLoader14SetupSubModelsEP7model_tR10CUtlVectorI8mmodel_t10CUtlMemoryIS3_iEE
__ZN12CModelLoader15GetDynamicModelEPKcb
__ZN12CModelLoader15GetModelForNameEPKcN12IModelLoader13REFERENCETYPEE
__ZN12CModelLoader15GetTypeFromNameEPKc
__ZN12CModelLoader15Map_UnloadModelEP7model_t
__ZN12CModelLoader15UnloadAllModelsEb
__ZN12CModelLoader16GetActiveMapNameEv
__ZN12CModelLoader16GetModelFileSizeEPKc
__ZN12CModelLoader16GetModelForIndexEi
__ZN12CModelLoader16Sprite_LoadModelEP7model_t
__ZN12CModelLoader16Studio_LoadModelEP7model_tb
__ZN12CModelLoader16UnreferenceModelEP7model_tN12IModelLoader13REFERENCETYPEE
__ZN12CModelLoader17DumpVCollideStatsEv
__ZN12CModelLoader17PurgeUnusedModelsEv
__ZN12CModelLoader17ReloadFilesInListEP9IFileList
__ZN12CModelLoader18AddRefDynamicModelEP7model_tb
__ZN12CModelLoader18FlushDynamicModelsEv
__ZN12CModelLoader18Sprite_UnloadModelEP7model_t
__ZN12CModelLoader18Studio_UnloadModelEP7model_t
__ZN12CModelLoader19ReleaseDynamicModelEP7model_tb
__ZN12CModelLoader19Studio_ReloadModelsEN12IModelLoader12ReloadType_tE
__ZN12CModelLoader19UpdateDynamicModelsEv
__ZN12CModelLoader20UnreferenceAllModelsEN12IModelLoader13REFERENCETYPEE
__ZN12CModelLoader21IsDynamicModelLoadingEP7model_tb
__ZN12CModelLoader21Map_LoadDisplacementsEP7model_tb
__ZN12CModelLoader21RecomputeSurfaceFlagsEP7model_t
__ZN12CModelLoader22ResetModelServerCountsEv
__ZN12CModelLoader23DebugPrintDynamicModelsEv
__ZN12CModelLoader24UnloadUnreferencedModelsEv
__ZN12CModelLoader25RegisterModelLoadCallbackEP7model_tbP18IModelLoadCallbackb
__ZN12CModelLoader26Map_GetRenderInfoAllocatedEv
__ZN12CModelLoader26Map_SetRenderInfoAllocatedEb
__ZN12CModelLoader27InternalUpdateDynamicModelsEb
__ZN12CModelLoader27LastLoadedMapHasHDRLightingEv
__ZN12CModelLoader27UnregisterModelLoadCallbackEP7model_tbP18IModelLoadCallback
__ZN12CModelLoader27UpdateDynamicModelLoadQueueEv
__ZN12CModelLoader29FinishDynamicModelLoadIfReadyEPNS_17CDynamicModelInfoEP7model_t
__ZN12CModelLoader32Client_OnServerModelStateChangedEP7model_tb
__ZN12CModelLoader33ForceUnloadNonClientDynamicModelsEv
__ZN12CModelLoader4InitEv
__ZN12CModelLoader5PrintEv
__ZN12CModelLoader7GetNameEPK7model_t
__ZN12CModelLoader8FindNextEiPP7model_t
__ZN12CModelLoader8GetCountEv
__ZN12CModelLoader8IsLoadedEPK7model_t
__ZN12CModelLoader8ShutdownEv
__ZN12CModelLoader9FindModelEPKc
__ZN12CModelLoader9LoadModelEP7model_tPN12IModelLoader13REFERENCETYPEE
__ZN12CModelLoaderD1Ev
__ZN12CModelRender10ComputeLODERK17ModelRenderInfo_tP14studiohwdata_t
__ZN12CModelRender11DrawModelExER17ModelRenderInfo_t
__ZN12CModelRender11GetItemNameEjPKvPcj
__ZN12CModelRender13SetViewTargetEPK10CStudioHdriRK6Vector
__ZN12CModelRender13SetupLightingERK6Vector
__ZN12CModelRender14ChangeInstanceEtP17IClientRenderable
__ZN12CModelRender14CreateInstanceEP17IClientRenderablePP20LightCacheHandle_t__
__ZN12CModelRender14DrawModelSetupER17ModelRenderInfo_tP16DrawModelState_tP11matrix3x4_tPS5_
__ZN12CModelRender15AddColoredDecalEtRK5Ray_tRK6Vectorii5Colorbi
__ZN12CModelRender15DestroyInstanceEt
__ZN12CModelRender15DrawModelShadowEP17IClientRenderableRK15DrawModelInfo_tP11matrix3x4_t
__ZN12CModelRender15RemoveAllDecalsEt
__ZN12CModelRender16AddDecalInternalEtRK5Ray_tRK6Vectoriib5Colorbi
__ZN12CModelRender16DrawModelExecuteERK16DrawModelState_tRK17ModelRenderInfo_tP11matrix3x4_t
__ZN12CModelRender16SetupColorMeshesEi
__ZN12CModelRender17GetStaticLightingEt
__ZN12CModelRender17SetStaticLightingEtPP20LightCacheHandle_t__
__ZN12CModelRender19GetMaterialOverrideEPP9IMaterialP14OverrideType_t
__ZN12CModelRender19InitColormeshParamsERNS_15ModelInstance_tEP14studiohwdata_tP17colormeshparams_t
__ZN12CModelRender19StudioSetupLightingERK16DrawModelState_tRK6VectorPP20LightCacheHandle_t__bbRbR15DrawModelInfo_tRK17ModelRenderInfo_ti
__ZN12CModelRender20DrawModelShadowSetupEP17IClientRenderableiiP15DrawModelInfo_tP11matrix3x4_t
__ZN12CModelRender21DrawModelExStaticPropER17ModelRenderInfo_t
__ZN12CModelRender22ForcedMaterialOverrideEP9IMaterial14OverrideType_t
__ZN12CModelRender22SuppressEngineLightingEb
__ZN12CModelRender23DebugDrawLightingOriginERK16DrawModelState_tRK17ModelRenderInfo_t
__ZN12CModelRender23DrawStaticPropArrayFastEP22StaticPropRenderInfo_tib
__ZN12CModelRender23LoadStaticPropColorDataEP13IHandleEntityP13memhandle_t__P14studiohwdata_t
__ZN12CModelRender23RecomputeStaticLightingEt
__ZN12CModelRender24ProtectColorDataIfQueuedEP13memhandle_t__
__ZN12CModelRender24SnapCurrentLightingStateERNS_15ModelInstance_tEP15LightingState_t
__ZN12CModelRender24TimeAverageLightingStateEtP15LightingState_tiPK6Vector
__ZN12CModelRender25UpdateStaticPropColorDataEP13IHandleEntityt
__ZN12CModelRender27StaticPropColorMeshCallbackEPvPKvi15FSAsyncStatus_t
__ZN12CModelRender27ValidateStaticPropColorDataEt
__ZN12CModelRender28RemoveAllDecalsFromAllModelsEv
__ZN12CModelRender28StaticPropColorTexelCallbackEPvPKvi15FSAsyncStatus_t
__ZN12CModelRender29ComputeModelVertexLightingOldEP14mstudiomodel_tR11matrix3x4_tRK15LightingState_tP7color24bf
__ZN12CModelRender29ReleaseAllStaticPropColorDataEv
__ZN12CModelRender29RestoreAllStaticPropColorDataEv
__ZN12CModelRender31FindOrCreateStaticPropColorDataEt
__ZN12CModelRender8AddDecalEtRK5Ray_tRK6Vectoriibi
__ZN12CModelRender9DrawModelEiP17IClientRenderabletiPK7model_tRK6VectorRK6QAngleiiiPK11matrix3x4_tSD_
__ZN12CModelRenderD1Ev
__ZN12CPerfUIPanel10GetAnimMapEv
__ZN12CPerfUIPanel13GetMessageMapEv
__ZN12CPerfUIPanel13OnTextChangedEP9KeyValues
__ZN12CPerfUIPanel14OnKeyCodeTypedE12ButtonCode_t
__ZN12CPerfUIPanel17GetPanelClassNameEv
__ZN12CPerfUIPanel6OnTickEv
__ZN12CPerfUIPanel8ActivateEv
__ZN12CPerfUIPanel8GetKBMapEv
__ZN12CPerfUIPanel9OnCommandEPKc
__ZN12CPerfUIPanelC1EPN4vgui5PanelE
__ZN12CPerfUIPanelD0Ev
__ZN12CPerfUIPanelD1Ev
__ZN12CProfileTree10GetAnimMapEv
__ZN12CProfileTree10SetBgColorE5Color
__ZN12CProfileTree13GetMessageMapEv
__ZN12CProfileTree16InvalidateLayoutEbb
__ZN12CProfileTree17GetPanelClassNameEv
__ZN12CProfileTree19ApplySchemeSettingsEPN4vgui7ISchemeE
__ZN12CProfileTree8GetKBMapEv
__ZN12CProfileTree9OnCommandEPKc
__ZN12CProfileTreeC1EP11CVProfPanelPKc
__ZN12CProfileTreeD0Ev
__ZN12CProfileTreeD1Ev
__ZN12CRecvDecoderC1Ev
__ZN12CRefCounted1I11IRefCounted20CRefCountServiceBaseILb1E6CRefMTEE6AddRefEv
__ZN12CRefCounted1I11IRefCounted20CRefCountServiceBaseILb1E6CRefMTEE7ReleaseEv
__ZN12CRefCounted1I16IWorldRenderList20CRefCountServiceBaseILb1E6CRefMTEE6AddRefEv
__ZN12CRefCounted1I16IWorldRenderList20CRefCountServiceBaseILb1E6CRefMTEE7ReleaseEv
__ZN12CRefCounted1I8CFunctor20CRefCountServiceBaseILb1E6CRefMTEE6AddRefEv
__ZN12CRefCounted1I8CFunctor20CRefCountServiceBaseILb1E6CRefMTEE7ReleaseEv
__ZN12CReplayFrame11FreeBuffersEv
__ZN12CReplayFrame12AllocBuffersEv
__ZN12CReplayFrame14CopyReplayDataERS_
__ZN12CReplayFrame18IsMemPoolAllocatedEv
__ZN12CReplayFrameC2Ev
__ZN12CReplayFrameD0Ev
__ZN12CReplayFrameD1Ev
__ZN12CSaveRestore10GetSaveDirEv
__ZN12CSaveRestore10SetIsXSaveEb
__ZN12CSaveRestore11AgeSaveFileEPKcS1_ib
__ZN12CSaveRestore11AgeSaveListEPKcib
__ZN12CSaveRestore11IsValidSaveEv
__ZN12CSaveRestore12ClearSaveDirEv
__ZN12CSaveRestore12LoadSaveDataEPKc
__ZN12CSaveRestore12ReapplyDecalEbPNS_18RestoreLookupTableEP11decallist_t
__ZN12CSaveRestore12SaveGameSlotEPKcS1_bbS1_S1_
__ZN12CSaveRestore13DirectoryCopyEPKcS1_b
__ZN12CSaveRestore13LoadGameStateEPKcb
__ZN12CSaveRestore13SaveGameStateEbPP16CSaveRestoreDatabb
__ZN12CSaveRestore14DoClearSaveDirEb
__ZN12CSaveRestore14FindRecentSaveEPci
__ZN12CSaveRestore14SaveFileExistsEPKc
__ZN12CSaveRestore14SaveReadHeaderEPvP11GAME_HEADERiPb
__ZN12CSaveRestore15EntityPatchReadEP16CSaveRestoreDataPKc
__ZN12CSaveRestore15FinishAsyncSaveEv
__ZN12CSaveRestore15GetSaveFileNameEv
__ZN12CSaveRestore15OnFrameRenderedEv
__ZN12CSaveRestore15ParseSaveTablesEP16CSaveRestoreDataP11SAVE_HEADERi
__ZN12CSaveRestore15SaveClientStateEPKc
__ZN12CSaveRestore16CalcSaveGameNameEPKcPci
__ZN12CSaveRestore16EntityPatchWriteEP16CSaveRestoreDataPKcb
__ZN12CSaveRestore16ForgetRecentSaveEv
__ZN12CSaveRestore16IsSaveInProgressEv
__ZN12CSaveRestore16LoadAdjacentEntsEPKcS1_
__ZN12CSaveRestore18AddDeferredCommandEPKc
__ZN12CSaveRestore18RestoreClientStateEPKcb
__ZN12CSaveRestore18StorageDeviceValidEv
__ZN12CSaveRestore19RequestClearSaveDirEv
__ZN12CSaveRestore20SaveGameStateGlobalsEP16CSaveRestoreData
__ZN12CSaveRestore21SetMostRecentSaveGameEPKc
__ZN12CSaveRestore22SaveReadNameAndCommentEPvPciS1_i
__ZN12CSaveRestore23AutoSaveDangerousIsSafeEv
__ZN12CSaveRestore23OnFinishedClientRestoreEv
__ZN12CSaveRestore25RestoreAdjacenClientStateEPKc
__ZN12CSaveRestore25UpdateSaveGameScreenshotsEv
__ZN12CSaveRestore27FindOrAddRestoreLookupTableEPKc
__ZN12CSaveRestore27GetMostRecentElapsedMinutesEv
__ZN12CSaveRestore27GetMostRecentElapsedSecondsEv
__ZN12CSaveRestore27GetMostRecentElapsedTimeSetEv
__ZN12CSaveRestore27SetMostRecentElapsedMinutesEi
__ZN12CSaveRestore27SetMostRecentElapsedSecondsEi
__ZN12CSaveRestore29GetMostRecentlyLoadedFileNameEv
__ZN12CSaveRestore34BuildRestoredIndexTranslationTableEPKcP16CSaveRestoreDatab
__ZN12CSaveRestore4InitEv
__ZN12CSaveRestore6FinishEP16CSaveRestoreData
__ZN12CSaveRestore7IsXSaveEv
__ZN12CSaveRestore8LoadGameEPKc
__ZN12CSaveRestore8ShutdownEv
__ZN12CSaveRestoreD1Ev
__ZN12CStaticPanelD0Ev
__ZN12CStaticPanelD1Ev
__ZN12CThreadEvent3SetEv
__ZN12CThreadEvent4WaitEj
__ZN12CThreadEventC1Eb
__ZN12CThreadMutexD1Ev
__ZN12CUtlVectorMTI10CUtlVectorI15pendingsocket_t10CUtlMemoryIS1_iEE16CThreadFastMutexED1Ev
__ZN12CUtlVectorMTI10CUtlVectorIP8CNetChan10CUtlMemoryIS2_iEE16CThreadFastMutexED1Ev
__ZN12CVProfExport11AddListenerEv
__ZN12CVProfExport12PauseProfileEv
__ZN12CVProfExport13ResumeProfileEv
__ZN12CVProfExport14RemoveListenerEv
__ZN12CVProfExport18GetNumBudgetGroupsEv
__ZN12CVProfExport19GetBudgetGroupInfosEPN12IVProfExport24CExportedBudgetGroupInfoE
__ZN12CVProfExport19GetBudgetGroupTimesEPf
__ZN12CVProfExport20SetBudgetFlagsFilterEi
__ZN12CVProfExport20SnapshotVProfHistoryEv
__ZN12CVProfExport35CalculateBudgetGroupTimes_RecursiveEP10CVProfNode
__ZN12CVProfExportD1Ev
__ZN12CVRenderView10DrawLightsEv
__ZN12CVRenderView10Push2DViewERK10CViewSetupiP8ITextureP6VPlane
__ZN12CVRenderView10Push3DViewERK10CViewSetupiP8ITextureP6VPlane
__ZN12CVRenderView10Push3DViewERK10CViewSetupiP8ITextureP6VPlaneS4_
__ZN12CVRenderView10SceneBeginEv
__ZN12CVRenderView10TouchLightEP8dlight_t
__ZN12CVRenderView10VGui_PaintEi
__ZN12CVRenderView11DrawTopViewEb
__ZN12CVRenderView11GetAreaBitsEv
__ZN12CVRenderView11SetMainViewERK6VectorRK6QAngle
__ZN12CVRenderView12DrawLineFileEv
__ZN12CVRenderView12SetAreaStateEPhS0_
__ZN12CVRenderView12ViewDrawFadeEPhP9IMaterial
__ZN12CVRenderView12ViewSetupVisEbiPK6Vector
__ZN12CVRenderView13DrawLightmapsEP16IWorldRenderListi
__ZN12CVRenderView13EnumerateLeafEii
__ZN12CVRenderView13GetViewEntityEv
__ZN12CVRenderView13TopViewBoundsERK8Vector2DS2_
__ZN12CVRenderView14DrawBrushModelEP13IClientEntityP7model_tRK6VectorRK6QAngleb
__ZN12CVRenderView14DrawWorldListsEP16IWorldRenderListmf
__ZN12CVRenderView14GetFieldOfViewEv
__ZN12CVRenderView14ViewSetupVisExEbiPK6VectorRj
__ZN12CVRenderView15BuildWorldListsEP16IWorldRenderListP15WorldListInfo_tiPK17VisOverrideData_tbPf
__ZN12CVRenderView15CreateWorldListEv
__ZN12CVRenderView15GetLightAtPointER6Vector
__ZN12CVRenderView16DrawBrushModelExEP13IClientEntityP7model_tRK6VectorRK6QAngle20DrawBrushModelMode_t
__ZN12CVRenderView16DrawMaskEntitiesEv
__ZN12CVRenderView17SetFogVolumeStateEib
__ZN12CVRenderView18EndUpdateLightmapsEv
__ZN12CVRenderView18GetColorModulationEPf
__ZN12CVRenderView18GetMatricesForViewERK10CViewSetupP7VMatrixS4_S4_S4_
__ZN12CVRenderView18SetColorModulationEPKf
__ZN12CVRenderView19AreAnyLeavesVisibleEPii
__ZN12CVRenderView19Draw3DDebugOverlaysEv
__ZN12CVRenderView19GetVisibleFogVolumeERK6VectorP22VisibleFogVolumeInfo_t
__ZN12CVRenderView19OverrideViewFrustumEP6VPlane
__ZN12CVRenderView20BeginUpdateLightmapsEv
__ZN12CVRenderView20DrawBrushModelShadowEP17IClientRenderable
__ZN12CVRenderView22DrawIdentityBrushModelEP16IWorldRenderListP7model_t
__ZN12CVRenderView23DrawTranslucentSurfacesEP16IWorldRenderListimb
__ZN12CVRenderView23OLD_SetProjectionMatrixEfff
__ZN12CVRenderView24UpdateBrushModelLightmapEP7model_tP17IClientRenderable
__ZN12CVRenderView25DrawBrushModelShadowDepthEP13IClientEntityP7model_tRK6VectorRK6QAngle16ERenderDepthMode
__ZN12CVRenderView27DoesBoxIntersectWaterVolumeERK6VectorS2_i
__ZN12CVRenderView27InstallBrushSurfaceRendererEP14IBrushRenderer
__ZN12CVRenderView28OLD_SetProjectionMatrixOrthoEffffff
__ZN12CVRenderView31LeafContainsTranslucentSurfacesEP16IWorldRenderListim
__ZN12CVRenderView32OLD_SetOffCenterProjectionMatrixEffffffff
__ZN12CVRenderView7PopViewEP6VPlane
__ZN12CVRenderView8GetBlendEv
__ZN12CVRenderView8SceneEndEv
__ZN12CVRenderView8SetBlendEf
__ZN12CVRenderView9VguiPaintEv
__ZN12CVoiceServer18GetClientListeningEii
__ZN12CVoiceServer18SetClientListeningEiib
__ZN12CVoiceServer18SetClientProximityEiib
__ZN12CVoiceServerD0Ev
__ZN12CVoiceServerD1Ev
__ZN12CVoiceWriter19AddDecompressedDataEP13CVoiceChannelPKhm
__ZN12CVoiceWriter5FlushEv
__ZN12CVoiceWriter6FinishEv
__ZN12CVoiceWriterD1Ev
__ZN12ColumnButton14OnMousePressedE12ButtonCode_t
__ZN12ColumnButton19ApplySchemeSettingsEPN4vgui7ISchemeE
__ZN12ColumnButtonD0Ev
__ZN12ColumnButtonD1Ev
__ZN12IAudioDevice14AutoDetectInitEb
__ZN12InterfaceReg16s_pInterfaceRegsE
__ZN12InterfaceRegC1EPFPvvEPKc
__ZN12MM_Heartbeat13WriteToBufferER8bf_write
__ZN12MM_Heartbeat14ReadFromBufferER7bf_read
__ZN12MM_Heartbeat7ProcessEv
__ZN12MM_HeartbeatD0Ev
__ZN12MM_HeartbeatD1Ev
__ZN12PackedEntity13SetRecipientsERK10CUtlMemoryI20CSendProxyRecipientsiE
__ZN12PackedEntity17CompareRecipientsERK10CUtlMemoryI20CSendProxyRecipientsiE
__ZN12PackedEntity18AllocAndCopyPaddedEPKvm
__ZN12PackedEntity23SetServerAndClientClassEP11ServerClassP11ClientClass
__ZN12PackedEntity24GetPropsChangedAfterTickEiPii
__ZN12PackedEntityC1Ev
__ZN12PackedEntityD1Ev
__ZN12SVC_BSPDecal13WriteToBufferER8bf_write
__ZN12SVC_BSPDecal14ReadFromBufferER7bf_read
__ZN12SVC_BSPDecal7ProcessEv
__ZN12SVC_BSPDecalD0Ev
__ZN12SVC_BSPDecalD1Ev
__ZN12SVC_FixAngle13WriteToBufferER8bf_write
__ZN12SVC_FixAngle14ReadFromBufferER7bf_read
__ZN12SVC_FixAngle7ProcessEv
__ZN12SVC_FixAngleD0Ev
__ZN12SVC_FixAngleD1Ev
__ZN12SVC_Prefetch13WriteToBufferER8bf_write
__ZN12SVC_Prefetch14ReadFromBufferER7bf_read
__ZN12SVC_Prefetch7ProcessEv
__ZN12SVC_PrefetchD0Ev
__ZN12SVC_PrefetchD1Ev
__ZN12SVC_SetPause13WriteToBufferER8bf_write
__ZN12SVC_SetPause14ReadFromBufferER7bf_read
__ZN12SVC_SetPause7ProcessEv
__ZN12SVC_SetPauseD0Ev
__ZN12SVC_SetPauseD1Ev
__ZN12_GLOBAL__N_115ScrollBarButton14OnMousePressedE12ButtonCode_t
__ZN12_GLOBAL__N_115ScrollBarButton15OnMouseReleasedE12ButtonCode_t
__ZN12_GLOBAL__N_115ScrollBarButton18OnMouseFocusTickedEv
__ZN12_GLOBAL__N_115ScrollBarButton19ApplySchemeSettingsEPN4vgui7ISchemeE
__ZN12_GLOBAL__N_115ScrollBarButtonD0Ev
__ZN12_GLOBAL__N_115ScrollBarButtonD1Ev
__ZN12_GLOBAL__N_116CaptionGripPanel5movedEii
__ZN12_GLOBAL__N_116CaptionGripPanel9tryToDockEjRiS1_
__ZN12_GLOBAL__N_116CaptionGripPanelC1EPN4vgui5FrameEPKc
__ZN12_GLOBAL__N_116CaptionGripPanelD0Ev
__ZN12_GLOBAL__N_116CaptionGripPanelD1Ev
__ZN12_GLOBAL__N_127s_chLastViewedTextureBufferE
__ZN12_GLOBAL__N_19GripPanel13OnCursorMovedEii
__ZN12_GLOBAL__N_19GripPanel14OnMousePressedE12ButtonCode_t
__ZN12_GLOBAL__N_19GripPanel15OnMouseReleasedE12ButtonCode_t
__ZN12_GLOBAL__N_19GripPanel15PaintBackgroundEv
__ZN12_GLOBAL__N_19GripPanel18OnMouseCaptureLostEv
__ZN12_GLOBAL__N_19GripPanel19ApplySchemeSettingsEPN4vgui7ISchemeE
__ZN12_GLOBAL__N_19GripPanel20OnMouseDoublePressedE12ButtonCode_t
__ZN12_GLOBAL__N_19GripPanel5PaintEv
__ZN12_GLOBAL__N_19GripPanel5movedEii
__ZN12_GLOBAL__N_19GripPanelC1EPN4vgui5FrameEPKcii
__ZN12_GLOBAL__N_19GripPanelD0Ev
__ZN12_GLOBAL__N_19GripPanelD1Ev
__ZN13CBoolProperty15InitFromDefaultEPN4vgui5PanelEP22PanelAnimationMapEntry
__ZN13CBoolProperty7GetDataEPN4vgui5PanelEP9KeyValuesP22PanelAnimationMapEntry
__ZN13CBoolProperty7SetDataEPN4vgui5PanelEP9KeyValuesP22PanelAnimationMapEntry
__ZN13CBrushSurface11GetMaterialEv
__ZN13CBrushSurface13GetVertexDataEP13BrushVertex_t
__ZN13CBrushSurface24ComputeTextureCoordinateERK6VectorR8Vector2D
__ZN13CBrushSurface25ComputeLightmapCoordinateERK6VectorR8Vector2D
__ZN13CCallbackImplILi128EE20GetCallbackSizeBytesEv
__ZN13CCallbackImplILi128EE3RunEPvby
__ZN13CCallbackImplILi128EED0Ev
__ZN13CCallbackImplILi128EED1Ev
__ZN13CCallbackImplILi12EE20GetCallbackSizeBytesEv
__ZN13CCallbackImplILi12EE3RunEPvby
__ZN13CCallbackImplILi12EED0Ev
__ZN13CCallbackImplILi12EED1Ev
__ZN13CCallbackImplILi160EE20GetCallbackSizeBytesEv
__ZN13CCallbackImplILi160EE3RunEPvby
__ZN13CCallbackImplILi160EED0Ev
__ZN13CCallbackImplILi160EED1Ev
__ZN13CCallbackImplILi16EE20GetCallbackSizeBytesEv
__ZN13CCallbackImplILi16EE3RunEPvby
__ZN13CCallbackImplILi16EED0Ev
__ZN13CCallbackImplILi16EED1Ev
__ZN13CCallbackImplILi1EE20GetCallbackSizeBytesEv
__ZN13CCallbackImplILi1EE3RunEPvby
__ZN13CCallbackImplILi1EED0Ev
__ZN13CCallbackImplILi1EED1Ev
__ZN13CCallbackImplILi20EE20GetCallbackSizeBytesEv
__ZN13CCallbackImplILi20EE3RunEPvby
__ZN13CCallbackImplILi20EED0Ev
__ZN13CCallbackImplILi20EED1Ev
__ZN13CCallbackImplILi24EE20GetCallbackSizeBytesEv
__ZN13CCallbackImplILi24EE3RunEPvby
__ZN13CCallbackImplILi24EED0Ev
__ZN13CCallbackImplILi24EED1Ev
__ZN13CCallbackImplILi4EE20GetCallbackSizeBytesEv
__ZN13CCallbackImplILi4EE3RunEPvby
__ZN13CCallbackImplILi4EED0Ev
__ZN13CCallbackImplILi4EED1Ev
__ZN13CCallbackImplILi8EE20GetCallbackSizeBytesEv
__ZN13CCallbackImplILi8EE3RunEPvby
__ZN13CCallbackImplILi8EED0Ev
__ZN13CCallbackImplILi8EED1Ev
__ZN13CCoreDispInfo11GetTriCountEv
__ZN13CCoreDispInfo12CalcNodeInfoEii
__ZN13CCoreDispInfo12InitDispInfoEiifPK9CDispVertPK8CDispTri
__ZN13CCoreDispInfo12InitDispInfoEiifPfP6VectorS0_
__ZN13CCoreDispInfo13GetTriIndicesEiRtS0_S0_
__ZN13CCoreDispInfo15GetEdgeNeighborEi
__ZN13CCoreDispInfo16GenerateDispSurfEv
__ZN13CCoreDispInfo17CalcTriSurfPlanesEiPA3_i
__ZN13CCoreDispInfo18CalcDispSurfCoordsEbi
__ZN13CCoreDispInfo18GetCornerNeighborsEi
__ZN13CCoreDispInfo19CalcErrorTermAtNodeEii
__ZN13CCoreDispInfo19CalcNormalFromEdgesEiiPbR6Vector
__ZN13CCoreDispInfo19GetDispUtilsByIndexEi
__ZN13CCoreDispInfo20CalcRayBoundingBoxesEiPA3_i
__ZN13CCoreDispInfo21CalcBoundingBoxAtNodeEi
__ZN13CCoreDispInfo21CalcTriSurfInfoAtNodeEi
__ZN13CCoreDispInfo22CalcVertIndicesAtNodesEi
__ZN13CCoreDispInfo22SetDispUtilsHelperInfoEPPS_i
__ZN13CCoreDispInfo24GenerateCollisionSurfaceEv
__ZN13CCoreDispInfo27CalcMinMaxBoundingBoxAtNodeEiR6VectorS1_
__ZN13CCoreDispInfo29GenerateDispSurfTangentSpacesEv
__ZN13CCoreDispInfo6CreateEv
__ZN13CCoreDispInfoC1Ev
__ZN13CCoreDispInfoC2Ev
__ZN13CCoreDispInfoD1Ev
__ZN13CDebugOverlay11DrawOverlayEPNS_13OverlayBase_tE
__ZN13CDebugOverlay11s_bDrawGridE
__ZN13CDebugOverlay11s_pOverlaysE
__ZN13CDebugOverlay13AddBoxOverlayERK6VectorS2_S2_RK6QAngleiiiif
__ZN13CDebugOverlay14AddBoxOverlay2ERK6VectorS2_S2_RK6QAngleRK5ColorS8_f
__ZN13CDebugOverlay14AddGridOverlayERK6Vector
__ZN13CDebugOverlay14AddLineOverlayERK6VectorS2_iiiibf
__ZN13CDebugOverlay14AddTextOverlayERK6VectorfPKc
__ZN13CDebugOverlay14AddTextOverlayERK6VectorifPKc
__ZN13CDebugOverlay14AddTextOverlayERK6VectoriffPKc
__ZN13CDebugOverlay14AddTextOverlayERK6VectorifffffPKc
__ZN13CDebugOverlay14DestroyOverlayEPNS_13OverlayBase_tE
__ZN13CDebugOverlay14Draw3DOverlaysEv
__ZN13CDebugOverlay14ScreenPositionERK6VectorRS0_
__ZN13CDebugOverlay14ScreenPositionEffR6Vector
__ZN13CDebugOverlay14s_OverlayMutexE
__ZN13CDebugOverlay14s_pOverlayTextE
__ZN13CDebugOverlay15DrawAllOverlaysEv
__ZN13CDebugOverlay15DrawGridOverlayEv
__ZN13CDebugOverlay15s_vGridPositionE
__ZN13CDebugOverlay16AddSphereOverlayERK6Vectorfiiiiiif
__ZN13CDebugOverlay16ClearAllOverlaysEv
__ZN13CDebugOverlay17ClearDeadOverlaysEv
__ZN13CDebugOverlay18AddSweptBoxOverlayERK6VectorS2_S2_S2_RK6QAngleiiiif
__ZN13CDebugOverlay18AddTriangleOverlayERK6VectorS2_S2_iiiibf
__ZN13CDebugOverlay19PurgeServerOverlaysEv
__ZN13CDebugOverlay20AddEntityTextOverlayEiifiiiiPKc
__ZN13CDebugOverlay20AddScreenTextOverlayEfffiiiiPKc
__ZN13CDebugOverlay20AddScreenTextOverlayEffifiiiiPKc
__ZN13CDemoRecorder11GetDemoFileEv
__ZN13CDemoRecorder11IsRecordingEv
__ZN13CDemoRecorder12RecordPacketEv
__ZN13CDemoRecorder13CloseDemoFileEv
__ZN13CDemoRecorder13RecordCommandEPKc
__ZN13CDemoRecorder13StopRecordingEv
__ZN13CDemoRecorder13WriteMessagesER8bf_write
__ZN13CDemoRecorder14PauseRecordingEv
__ZN13CDemoRecorder14RecordMessagesER7bf_readi
__ZN13CDemoRecorder14SetSignonStateEi
__ZN13CDemoRecorder14StartRecordingEPKcb
__ZN13CDemoRecorder14WriteBSPDecalsEv
__ZN13CDemoRecorder14WriteDemoCvarsEv
__ZN13CDemoRecorder15RecordUserInputEi
__ZN13CDemoRecorder15ResumeRecordingEv
__ZN13CDemoRecorder15StartupDemoFileEv
__ZN13CDemoRecorder16GetRecordingTickEv
__ZN13CDemoRecorder17StartupDemoHeaderEv
__ZN13CDemoRecorder18RecordStringTablesEv
__ZN13CDemoRecorder19RecordServerClassesEP11ServerClass
__ZN13CDemoRecorder22ResetDemoInterpolationEv
__ZN13CDemoRecorderD1Ev
__ZN13CDemoUIPanel210GetAnimMapEv
__ZN13CDemoUIPanel212OnVDMChangedEv
__ZN13CDemoUIPanel212OverrideViewER13democmdinfo_ti
__ZN13CDemoUIPanel213GetMessageMapEv
__ZN13CDemoUIPanel213IsInDriveModeEv
__ZN13CDemoUIPanel214OnFileSelectedEPKc
__ZN13CDemoUIPanel217DrawDebuggingInfoEv
__ZN13CDemoUIPanel217GetDriveViewPointER6VectorR6QAngle
__ZN13CDemoUIPanel217GetPanelClassNameEv
__ZN13CDemoUIPanel217SetDriveViewPointER6VectorR6QAngle
__ZN13CDemoUIPanel26OnLoadEv
__ZN13CDemoUIPanel26OnTickEv
__ZN13CDemoUIPanel27InstallEPN4vgui5PanelES2_b
__ZN13CDemoUIPanel28GetKBMapEv
__ZN13CDemoUIPanel29OnCommandEPKc
__ZN13CDemoUIPanel29OnMessageEPK9KeyValuesj
__ZN13CDemoUIPanel2C1EPN4vgui5PanelES2_b
__ZN13CDemoUIPanel2D0Ev
__ZN13CDemoUIPanel2D1Ev
__ZN13CDispCollTree12AABBTree_RayERK5Ray_tR15RayDispOutput_t
__ZN13CDispCollTree12AABBTree_RayERK5Ray_tRK6VectorP10CBaseTraceb
__ZN13CDispCollTree12AABBTree_RayERK5Ray_tRK6VectorR15RayDispOutput_t
__ZN13CDispCollTree12Cache_CreateEP12CDispCollTrii
__ZN13CDispCollTree13EdgeCrossAxisILi0EEEbRK5Ray_ttP15CDispCollHelper
__ZN13CDispCollTree13EdgeCrossAxisILi1EEEbRK5Ray_ttP15CDispCollHelper
__ZN13CDispCollTree13EdgeCrossAxisILi2EEEbRK5Ray_ttP15CDispCollHelper
__ZN13CDispCollTree13PointInBoundsERK6VectorS2_S2_b
__ZN13CDispCollTree15AABBTree_CreateEP13CCoreDispInfo
__ZN13CDispCollTree18AABBTree_SweepAABBERK5Ray_tRK6VectorP10CBaseTrace
__ZN13CDispCollTree18GetVirtualMeshListEP17virtualmeshlist_t
__ZN13CDispCollTree20AABBTree_CreateLeafsEv
__ZN13CDispCollTree20Cache_EdgeCrossAxisXERK6VectorS2_S2_P12CDispCollTriRt
__ZN13CDispCollTree20Cache_EdgeCrossAxisYERK6VectorS2_S2_P12CDispCollTriRt
__ZN13CDispCollTree20Cache_EdgeCrossAxisZERK6VectorS2_S2_P12CDispCollTriRt
__ZN13CDispCollTree21AABBTree_CopyDispDataEP13CCoreDispInfo
__ZN13CDispCollTree21SweepAABBTriIntersectERK5Ray_tRK6VectoriP12CDispCollTriP10CBaseTrace
__ZN13CDispCollTree22AABBTree_IntersectAABBERK6VectorS2_
__ZN13CDispCollTree24AABBTree_GenerateBoxes_rEiP6VectorS1_
__ZN13CDispCollTree24AABBTree_GetTrisInSphereERK6VectorfPti
__ZN13CDispCollTree24AABBTree_TreeTrisRayTestERK5Ray_tRK6VectoriP10CBaseTracebPP12CDispCollTri
__ZN13CDispCollTree32AABBTree_BuildTreeTrisInSphere_rERK6VectorfiPtt
__ZN13CDispCollTree35AABBTree_TreeTrisRayBarycentricTestERK5Ray_tRK6VectoriR15RayDispOutput_tPP12CDispCollTri
__ZN13CDispCollTree5CacheEv
__ZN13CDispCollTree6CreateEP13CCoreDispInfo
__ZN13CDispCollTree8AddPlaneERK6Vector
__ZN13CDispCollTree9LockCacheEv
__ZN13CDispCollTreeD2Ev
__ZN13CDmxAttribute14FreeDataMemoryEv
__ZN13CDmxAttribute18AllocateDataMemoryE17DmAttributeType_t
__ZN13CDmxAttribute22s_AttributeNameSymbolsE
__ZN13CDmxAttribute8SetValueEPKc
__ZN13CDmxAttributeC1EPKc
__ZN13CDmxAttributeD1Ev
__ZN13CEngineClient10ChangeTeamEPKc
__ZN13CEngineClient10CheckPointEPKc
__ZN13CEngineClient10FireEventsEv
__ZN13CEngineClient10IsOccludedERK6VectorS2_
__ZN13CEngineClient11Con_NPrintfEiPKcz
__ZN13CEngineClient11DrawPortalsEv
__ZN13CEngineClient11FlashWindowEv
__ZN13CEngineClient11GetSentenceEP12CAudioSource
__ZN13CEngineClient11IsActiveAppEv
__ZN13CEngineClient11IsConnectedEv
__ZN13CEngineClient11SupportsHDREv
__ZN13CEngineClient12Con_NXPrintfEPK12con_nprint_sPKcz
__ZN13CEngineClient12GetLevelNameEv
__ZN13CEngineClient12IsBoxVisibleERK6VectorS2_
__ZN13CEngineClient12IsInEditModeEv
__ZN13CEngineClient12LoadGameLumpEiPvi
__ZN13CEngineClient13Con_IsVisibleEv
__ZN13CEngineClient13CopyLocalFileEPKcS1_
__ZN13CEngineClient13GetLeavesAreaEPii
__ZN13CEngineClient13GetMaxClientsEv
__ZN13CEngineClient13GetMouseDeltaERiS0_b
__ZN13CEngineClient13GetPlayerInfoEiP13player_info_s
__ZN13CEngineClient13GetScreenSizeERiS0_
__ZN13CEngineClient13GetUILanguageEPci
__ZN13CEngineClient13GetVideoModesERiRP7vmode_s
__ZN13CEngineClient13GetViewAnglesER6QAngle
__ZN13CEngineClient13IsLoadingDemoEv
__ZN13CEngineClient13IsLowViolenceEv
__ZN13CEngineClient13IsPlayingDemoEv
__ZN13CEngineClient13LinearToGammaEPfS0_
__ZN13CEngineClient13MapLoadFailedEv
__ZN13CEngineClient13SetAudioStateERK12AudioState_t
__ZN13CEngineClient13SetViewAnglesER6QAngle
__ZN13CEngineClient14AddPhonemeFileEPKc
__ZN13CEngineClient14GetChapterNameEPci
__ZN13CEngineClient14GetLocalPlayerEv
__ZN13CEngineClient14IsWindowedModeEv
__ZN13CEngineClient14SaveFreeMemoryEPv
__ZN13CEngineClient14SentenceLengthEi
__ZN13CEngineClient14TakeScreenshotEPKcS1_
__ZN13CEngineClient14TextMessageGetEPKc
__ZN13CEngineClient15ComputeLightingERK6VectorPS1_bRS0_PS0_
__ZN13CEngineClient15GetBSPTreeQueryEv
__ZN13CEngineClient15GetLevelVersionEv
__ZN13CEngineClient15IsRecordingDemoEv
__ZN13CEngineClient15LightStyleValueEi
__ZN13CEngineClient15SaveAllocMemoryEmm
__ZN13CEngineClient16ActivateOccluderEib
__ZN13CEngineClient16ExecuteClientCmdEPKc
__ZN13CEngineClient16GetGameDirectoryEv
__ZN13CEngineClient16GetGamestatsDataEv
__ZN13CEngineClient16GetLastTimeStampEv
__ZN13CEngineClient16GetLightForPointERK6Vectorb
__ZN13CEngineClient16GetVoiceTweakAPIEv
__ZN13CEngineClient16IsSaveInProgressEv
__ZN13CEngineClient16SetGamestatsDataEP14CGamestatsData
__ZN13CEngineClient16SetMapLoadFailedEb
__ZN13CEngineClient16StartKeyTrapModeEv
__ZN13CEngineClient17GetAchievementMgrEv
__ZN13CEngineClient17GetDXSupportLevelEv
__ZN13CEngineClient17GetNetChannelInfoEv
__ZN13CEngineClient17GetSentenceLengthEP12CAudioSource
__ZN13CEngineClient17IsPlayingTimeDemoEv
__ZN13CEngineClient17Key_BindingForKeyE12ButtonCode_t
__ZN13CEngineClient17Key_LookupBindingEPKc
__ZN13CEngineClient17MapHasHDRLightingEv
__ZN13CEngineClient17ReadConfigurationEb
__ZN13CEngineClient17SentenceGroupPickEiPci
__ZN13CEngineClient17SetAchievementMgrEP15IAchievementMgr
__ZN13CEngineClient17Sound_ExtraUpdateEv
__ZN13CEngineClient17StopDemoRecordingEv
__ZN13CEngineClient17WorldToViewMatrixEv
__ZN13CEngineClient18DisconnectInternalEv
__ZN13CEngineClient18GetPlayerForUserIDEi
__ZN13CEngineClient18GetProtocolVersionEv
__ZN13CEngineClient18IsBoxInViewClusterERK6VectorS2_
__ZN13CEngineClient18IsInCommentaryModeEv
__ZN13CEngineClient18IsSkippingPlaybackEv
__ZN13CEngineClient18IsTakingScreenshotEv
__ZN13CEngineClient18ServerCmdKeyValuesEP9KeyValues
__ZN13CEngineClient18StartDemoRecordingEPKcS1_
__ZN13CEngineClient19GetDemoPlaybackTickEv
__ZN13CEngineClient19GetPausedExpireTimeEv
__ZN13CEngineClient19SetOverlayBindProxyEiPv
__ZN13CEngineClient19WorldToScreenMatrixEv
__ZN13CEngineClient20CheckDoneKeyTrappingER12ButtonCode_t
__ZN13CEngineClient20DebugDrawPhysCollideEPK12CPhysCollideP9IMaterialR11matrix3x4_tRK9color32_s
__ZN13CEngineClient20EngineStats_EndFrameEv
__ZN13CEngineClient20GetAmbientLightColorER6Vector
__ZN13CEngineClient20GetDemoRecordingTickEv
__ZN13CEngineClient20GetEngineBuildNumberEv
__ZN13CEngineClient20GetLightForPointFastERK6Vectorb
__ZN13CEngineClient20GetMapEntitiesStringEv
__ZN13CEngineClient20GetScreenAspectRatioEv
__ZN13CEngineClient21GetMostRecentSaveGameEv
__ZN13CEngineClient21IsDrawingLoadingImageEv
__ZN13CEngineClient21SentenceIndexFromNameEPKc
__ZN13CEngineClient21SentenceNameFromIndexEi
__ZN13CEngineClient21SetMostRecentSaveGameEPKc
__ZN13CEngineClient22ClientCmd_UnrestrictedEPKc
__ZN13CEngineClient22ComputeDynamicLightingERK6VectorPS1_RS0_
__ZN13CEngineClient22EngineStats_BeginFrameEv
__ZN13CEngineClient22Key_LookupBindingExactEPKc
__ZN13CEngineClient22ResetDemoInterpolationEv
__ZN13CEngineClient22SetOcclusionParametersERK17OcclusionParams_t
__ZN13CEngineClient23DoesBoxTouchAreaFrustumERK6VectorS2_i
__ZN13CEngineClient23GetIntersectingSurfacesEPK7model_tRK6VectorfbP8SurfInfoi
__ZN13CEngineClient23GetProductVersionStringEv
__ZN13CEngineClient23OnStorageDeviceAttachedEv
__ZN13CEngineClient23OnStorageDeviceDetachedEv
__ZN13CEngineClient23StartXboxExitingProcessEv
__ZN13CEngineClient24GetDemoPlaybackStartTickEv
__ZN13CEngineClient24GetDemoPlaybackTimeScaleEv
__ZN13CEngineClient24GetInstancesRunningCountEv
__ZN13CEngineClient24IsSkyboxVisibleFromPointERK6Vector
__ZN13CEngineClient24REMOVED_SteamProcessCallERb
__ZN13CEngineClient25CopyFrameBufferToMaterialEPKc
__ZN13CEngineClient25GetDemoPlaybackTotalTicksEv
__ZN13CEngineClient25GetMainMenuBackgroundNameEPci
__ZN13CEngineClient25IsLevelMainMenuBackgroundEv
__ZN13CEngineClient25REMOVED_SteamRefreshLoginEPKcb
__ZN13CEngineClient25SetRestrictClientCommandsEb
__ZN13CEngineClient25SetRestrictServerCommandsEb
__ZN13CEngineClient26GrabPreColorCorrectedFrameEiiii
__ZN13CEngineClient26SentenceGroupIndexFromNameEPKc
__ZN13CEngineClient26SentenceGroupNameFromIndexEi
__ZN13CEngineClient27SentenceGroupPickSequentialEiPciii
__ZN13CEngineClient28TraceLineMaterialAndLightingERK6VectorS2_RS0_S3_
__ZN13CEngineClient33IsPlayingDemoALocallyRecordedDemoEv
__ZN13CEngineClient4TimeEv
__ZN13CEngineClient6IsHLTVEv
__ZN13CEngineClient7CullBoxERK6VectorS2_
__ZN13CEngineClient8GetAppIDEv
__ZN13CEngineClient8IsInGameEv
__ZN13CEngineClient8IsPausedEv
__ZN13CEngineClient8Mat_StubEP15IMaterialSystem
__ZN13CEngineClient9ClientCmdEPKc
__ZN13CEngineClient9LoadModelEPKcb
__ZN13CEngineClient9ParseFileEPKcPci
__ZN13CEngineClient9ServerCmdEPKcb
__ZN13CEngineReplay10GetGameDirEv
__ZN13CEngineReplay11GetHostTimeEv
__ZN13CEngineReplay11IsDedicatedEv
__ZN13CEngineReplay11TicksToTimeEi
__ZN13CEngineReplay11TimeToTicksEf
__ZN13CEngineReplay12Cbuf_AddTextEPKc
__ZN13CEngineReplay12Cbuf_ExecuteEv
__ZN13CEngineReplay13GetGameServerEv
__ZN13CEngineReplay13LZSS_CompressEPcPjPKcj
__ZN13CEngineReplay14MD5_HashBufferEPhPKhiPj
__ZN13CEngineReplay14ReadDemoHeaderEPKcR12demoheader_t
__ZN13CEngineReplay15GetReplayServerEv
__ZN13CEngineReplay15Host_DisconnectEb
__ZN13CEngineReplay15LZSS_DecompressEPcPjPKcj
__ZN13CEngineReplay15RecalculateTagsEv
__ZN13CEngineReplay16GetHostTickCountEv
__ZN13CEngineReplay18HostState_ShutdownEv
__ZN13CEngineReplay19GetReplayDemoHeaderEv
__ZN13CEngineReplay19NET_GetHostnameAsIPEPKcPci
__ZN13CEngineReplay22GetSessionRecordBufferEPPhPi
__ZN13CEngineReplay23ResetReplayRecordBufferEv
__ZN13CEngineReplay24GetReplayServerAsIServerEv
__ZN13CEngineReplay25IsSupportedModAndPlatformEv
__ZN13CEngineReplay8CopyFileEPKcS1_
__ZN13CEngineReplay9GetModDirEv
__ZN13CEngineReplayD0Ev
__ZN13CEngineReplayD1Ev
__ZN13CLC_VoiceData13SetRatePolicyEv
__ZN13CLC_VoiceData13WriteToBufferER8bf_write
__ZN13CLC_VoiceData14ReadFromBufferER7bf_read
__ZN13CLC_VoiceData7ProcessEv
__ZN13CLC_VoiceDataD0Ev
__ZN13CLC_VoiceDataD1Ev
__ZN13CMPAException9ShowErrorEv
__ZN13CMPAExceptionC1ENS_8ErrorIDsEPKcS2_b
__ZN13CMPAExceptionC2ENS_8ErrorIDsEPKcS2_b
__ZN13CMPAExceptionD1Ev
__ZN13CP4File_Dummy11SetFileTypeERK10CUtlString
__ZN13CP4File_Dummy16IsFileInPerforceEv
__ZN13CP4File_Dummy3AddEv
__ZN13CP4File_Dummy4EditEv
__ZN13CP4File_DummyD0Ev
__ZN13CP4File_DummyD1Ev
__ZN13CPrecacheItem10SetGenericEPKc
__ZN13CPrecacheItem17GetFirstReferenceEv
__ZN13CPrecacheItem17GetReferenceCountEv
__ZN13CPrecacheItem22GetMostRecentReferenceEv
__ZN13CPrecacheItem7GetNameEv
__ZN13CPrecacheItem7SetNameEPKc
__ZN13CPrecacheItem8GetModelEv
__ZN13CPrecacheItem8GetSoundEv
__ZN13CPrecacheItem8SetDecalEPKc
__ZN13CPrecacheItem8SetModelEPK7model_t
__ZN13CPrecacheItem8SetSoundEPK9CSfxTable
__ZN13CPrecacheItemC1Ev
__ZN13CPropMapStack21RecurseAndCallProxiesEP9CSendNodePh
__ZN13CReplayServer10SendNetMsgER11INetMessageb
__ZN13CReplayServer10UpdateTickEv
__ZN13CReplayServer11AddNewFrameEP12CClientFrame
__ZN13CReplayServer11ChangelevelEv
__ZN13CReplayServer11GetDirectorEv
__ZN13CReplayServer11GetNetStatsERfS0_
__ZN13CReplayServer11IsRecordingEv
__ZN13CReplayServer11StartMasterEP11CGameClient
__ZN13CReplayServer13ConnectClientER8netadr_siiiiPKcS3_S3_i
__ZN13CReplayServer13FireGameEventEP10IGameEvent
__ZN13CReplayServer13GetBaseServerEv
__ZN13CReplayServer13GetOnlineTimeEv
__ZN13CReplayServer13GetReplaySlotEv
__ZN13CReplayServer13SetMaxClientsEi
__ZN13CReplayServer13StopRecordingEv
__ZN13CReplayServer14BroadcastEventEP10IGameEvent
__ZN13CReplayServer14FillServerInfoER14SVC_ServerInfo
__ZN13CReplayServer14ReplyChallengeER8netadr_si
__ZN13CReplayServer14StartRecordingEv
__ZN13CReplayServer15UserInfoChangedEi
__ZN13CReplayServer16CreateFakeClientEPKc
__ZN13CReplayServer16GetChallengeTypeER8netadr_s
__ZN13CReplayServer16RejectConnectionERK8netadr_siPKc
__ZN13CReplayServer19InstallStringTablesEv
__ZN13CReplayServer20ReplyServerChallengeER8netadr_s
__ZN13CReplayServer24ShouldUpdateMasterServerEv
__ZN13CReplayServer4InitEb
__ZN13CReplayServer5ClearEv
__ZN13CReplayServer8RunFrameEv
__ZN13CReplayServer8ShutdownEv
__ZN13CReplayServer9GetBufferEi
__ZN13CReplayServerC1Ev
__ZN13CReplayServerC2Ev
__ZN13CReplayServerD0Ev
__ZN13CReplayServerD1Ev
__ZN13CReplayServerD2Ev
__ZN13CServerPlugin10LoadPluginEPKc
__ZN13CServerPlugin11LoadPluginsEv
__ZN13CServerPlugin12ClientActiveEP7edict_tb
__ZN13CServerPlugin12OnEdictFreedEPK7edict_t
__ZN13CServerPlugin13ClientCommandEP7edict_tPKc
__ZN13CServerPlugin13ClientCommandEP7edict_tRK8CCommand
__ZN13CServerPlugin13ClientConnectEP7edict_tPKcS3_Pci
__ZN13CServerPlugin13CreateMessageEP7edict_t11DIALOG_TYPEP9KeyValuesP22IServerPluginCallbacks
__ZN13CServerPlugin13LevelShutdownEv
__ZN13CServerPlugin13UnloadPluginsEv
__ZN13CServerPlugin14ServerActivateEP7edict_tii
__ZN13CServerPlugin16ClientDisconnectEP7edict_t
__ZN13CServerPlugin16OnEdictAllocatedEP7edict_t
__ZN13CServerPlugin16SetCommandClientEi
__ZN13CServerPlugin17ClientPutInServerEP7edict_tPKc
__ZN13CServerPlugin18NetworkIDValidatedEPKcS1_
__ZN13CServerPlugin19StartQueryCvarValueEP7edict_tPKc
__ZN13CServerPlugin21ClientSettingsChangedEP7edict_t
__ZN13CServerPlugin24OnQueryCvarValueFinishedEiP7edict_t21EQueryCvarValueStatusPKcS4_
__ZN13CServerPlugin9GameFrameEb
__ZN13CServerPlugin9LevelInitEPKcS1_S1_S1_bb
__ZN13CServerPluginD1Ev
__ZN13CSteam3Client12OnLowBatteryEP17LowBatteryPower_t
__ZN13CSteam3Client16CancelAuthTicketEv
__ZN13CSteam3Client16OnPersonaUpdatedEP20PersonaStateChange_t
__ZN13CSteam3Client20GetAuthSessionTicketEPviPjjtyb
__ZN13CSteam3Client22OnClientGameServerDenyEP22ClientGameServerDeny_t
__ZN13CSteam3Client22OnGameOverlayActivatedEP22GameOverlayActivated_t
__ZN13CSteam3Client27OnGameServerChangeRequestedEP27GameServerChangeRequested_t
__ZN13CSteam3Client8ActivateEv
__ZN13CSteam3Client8RunFrameEv
__ZN13CSteam3Client8ShutdownEv
__ZN13CSteam3ClientC2Ev
__ZN13CSteam3ClientD1Ev
__ZN13CSteam3ClientD2Ev
__ZN13CSteam3Server11OnLoggedOffEP26SteamServersDisconnected_t
__ZN13CSteam3Server12GetGSSteamIDEv
__ZN13CSteam3Server13CompareUserIDERK8USERID_sS2_
__ZN13CSteam3Server14OnFakeIPResultEP29SteamNetworkingFakeIPResult_t
__ZN13CSteam3Server14OnLogonFailureEP27SteamServerConnectFailure_t
__ZN13CSteam3Server14OnLogonSuccessEP23SteamServersConnected_t
__ZN13CSteam3Server18OnGSPolicyResponseEP18GSPolicyResponse_t
__ZN13CSteam3Server19NotifyClientConnectEP11CBaseClientjR8netadr_sPKvj
__ZN13CSteam3Server19NotifyOfLevelChangeEv
__ZN13CSteam3Server21ClientFindFromSteamIDER8CSteamID
__ZN13CSteam3Server22NotifyClientDisconnectEP11CBaseClient
__ZN13CSteam3Server24CheckForDuplicateSteamIDEPK11CBaseClient
__ZN13CSteam3Server24NotifyLocalClientConnectEP11CBaseClient
__ZN13CSteam3Server24NotifyOfServerNameChangeEv
__ZN13CSteam3Server24SendUpdatedServerDetailsEv
__ZN13CSteam3Server28OnValidateAuthTicketResponseEP28ValidateAuthTicketResponse_t
__ZN13CSteam3Server34OnValidateAuthTicketResponseHelperEP11CBaseClient20EAuthSessionResponse
__ZN13CSteam3Server38IsMasterServerUpdaterSharingGameSocketEv
__ZN13CSteam3Server39OnComputeNewPlayerCompatibilityResponseEP37ComputeNewPlayerCompatibilityResult_t
__ZN13CSteam3Server8ActivateENS_11EServerTypeE
__ZN13CSteam3Server8RunFrameEv
__ZN13CSteam3Server8ShutdownEv
__ZN13CSteam3ServerC2Ev
__ZN13CSteam3ServerD1Ev
__ZN13CSteam3ServerD2Ev
__ZN13CTSSimpleListI18NetScratchBuffer_tED1Ev
__ZN13CThreadRWLock11UnlockWriteEv
__ZN13CThreadRWLock11WaitForReadEv
__ZN13CThreadRWLock12LockForWriteEv
__ZN13CTriggerMoved11EnumElementEP13IHandleEntity
__ZN13CTriggerMoved12TriggerMovedEP7edict_t
__ZN13CUtlHashtableIN19CUtlStableHashtableI19CUtlConstStringBaseIcE23CNetworkStringTableItem25CaselessStringHashFunctor40UTLConstStringCaselessStringEqualFunctorIcEtPKcE13IndirectIndexE7empty_tNS9_9HashProxyENS9_10EqualProxyES8_E21DoInsertUnconstructedEjb
__ZN13CUtlHashtableIN19CUtlStableHashtableI19CUtlConstStringBaseIcE23CNetworkStringTableItem25CaselessStringHashFunctor40UTLConstStringCaselessStringEqualFunctorIcEtPKcE13IndirectIndexE7empty_tNS9_9HashProxyENS9_10EqualProxyES8_E9BumpEntryEj
__ZN13CUtlHashtableIN19CUtlStableHashtableI19CUtlConstStringBaseIcE23CNetworkStringTableItem25CaselessStringHashFunctor40UTLConstStringCaselessStringEqualFunctorIcEtPKcE13IndirectIndexE7empty_tNS9_9HashProxyENS9_10EqualProxyES8_E9DoReallocEi
__ZN13CUtlHashtableIN19CUtlStableHashtableIP7model_t7empty_tN10CModelInfo19ModelFileHandleHashENS4_17ModelFileHandleEqEsPvE13IndirectIndexES3_NS8_9HashProxyENS8_10EqualProxyES7_E21DoInsertUnconstructedEjb
__ZN13CUtlHashtableIN19CUtlStableHashtableIP7model_t7empty_tN10CModelInfo19ModelFileHandleHashENS4_17ModelFileHandleEqEsPvE13IndirectIndexES3_NS8_9HashProxyENS8_10EqualProxyES7_E9BumpEntryEj
__ZN13CUtlHashtableIN19CUtlStableHashtableIP7model_t7empty_tN10CModelInfo19ModelFileHandleHashENS4_17ModelFileHandleEqEsPvE13IndirectIndexES3_NS8_9HashProxyENS8_10EqualProxyES7_E9DoReallocEi
__ZN13CUtlHashtableIP7model_tN12CModelLoader17CDynamicModelInfoE18DefaultHashFunctorIS1_E19DefaultEqualFunctorIS1_E11undefined_tE21DoInsertUnconstructedEjb
__ZN13CUtlHashtableIP7model_tN12CModelLoader17CDynamicModelInfoE18DefaultHashFunctorIS1_E19DefaultEqualFunctorIS1_E11undefined_tE8DoInsertIS1_EEjT_j
__ZN13CUtlHashtableIP7model_tN12CModelLoader17CDynamicModelInfoE18DefaultHashFunctorIS1_E19DefaultEqualFunctorIS1_E11undefined_tE8DoRemoveIS1_EEiT_j
__ZN13CUtlHashtableIP7model_tN12CModelLoader17CDynamicModelInfoE18DefaultHashFunctorIS1_E19DefaultEqualFunctorIS1_E11undefined_tE9BumpEntryEj
__ZN13CUtlHashtableIP7model_tN12CModelLoader17CDynamicModelInfoE18DefaultHashFunctorIS1_E19DefaultEqualFunctorIS1_E11undefined_tE9DoReallocEi
__ZN13CUtlHashtableIP7model_tN12CModelLoader17CDynamicModelInfoE18DefaultHashFunctorIS1_E19DefaultEqualFunctorIS1_E11undefined_tED2Ev
__ZN13CUtlHashtableImi18DefaultHashFunctorImE19DefaultEqualFunctorImE11undefined_tE21DoInsertUnconstructedEjb
__ZN13CUtlHashtableImi18DefaultHashFunctorImE19DefaultEqualFunctorImE11undefined_tE8DoInsertImEEjT_ijPb
__ZN13CUtlHashtableImi18DefaultHashFunctorImE19DefaultEqualFunctorImE11undefined_tE8DoRemoveImEEiT_j
__ZN13CUtlHashtableImi18DefaultHashFunctorImE19DefaultEqualFunctorImE11undefined_tE9BumpEntryEj
__ZN13CUtlHashtableImi18DefaultHashFunctorImE19DefaultEqualFunctorImE11undefined_tE9DoReallocEi
__ZN13CUtlMultiListIN16CDataManagerBase22resource_lru_element_tEtE10LinkBeforeEttt
__ZN13CUtlMultiListIN16CDataManagerBase22resource_lru_element_tEtE5AllocEv
__ZN13CUtlMultiListIN16CDataManagerBase22resource_lru_element_tEtED2Ev
__ZN13CVmtTextEntry10GetAnimMapEv
__ZN13CVmtTextEntry12OpenEditMenuEv
__ZN13CVmtTextEntry13GetMessageMapEv
__ZN13CVmtTextEntry15OpenVmtSelectedEv
__ZN13CVmtTextEntry17GetPanelClassNameEv
__ZN13CVmtTextEntry8GetKBMapEv
__ZN13CVmtTextEntryC1EPN4vgui5PanelEPKc
__ZN13CVmtTextEntryD0Ev
__ZN13CVmtTextEntryD1Ev
__ZN13ConsoleLogger7m_indexE
__ZN13DownloadCache13BuildKeyNamesEPKc
__ZN13DownloadCache13GetCachedDataEP16RequestContext_t
__ZN13DownloadCache13PersistToDiskEPK16RequestContext_t
__ZN13DownloadCache14PersistToCacheEPK16RequestContext_t
__ZN13DownloadCache21GenerateCacheFilenameEPK16RequestContext_tPc
__ZN13DownloadCache4InitEv
__ZN13FloatBitMap_t12RaiseToPowerEf
__ZN13FloatBitMap_t15CompressTo8BitsEf
__ZN13FloatBitMap_t5ClearEffff
__ZN13FloatBitMap_t8WritePFMEPKc
__ZN13FloatBitMap_tC1Eii
__ZN13FloatBitMap_tD1Ev
__ZN13MM_Checkpoint13WriteToBufferER8bf_write
__ZN13MM_Checkpoint14ReadFromBufferER7bf_read
__ZN13MM_Checkpoint7ProcessEv
__ZN13MM_CheckpointD0Ev
__ZN13MM_CheckpointD1Ev
__ZN13MM_ClientInfo13WriteToBufferER8bf_write
__ZN13MM_ClientInfo14ReadFromBufferER7bf_read
__ZN13MM_ClientInfo7ProcessEv
__ZN13MM_ClientInfoD0Ev
__ZN13MM_ClientInfoD1Ev
__ZN13MP3Duration_t8LessFuncERKS_S1_
__ZN13NET_SetConVar13WriteToBufferER8bf_write
__ZN13NET_SetConVar14ReadFromBufferER7bf_read
__ZN13NET_SetConVar7ProcessEv
__ZN13NET_SetConVarC2EPKcS1_
__ZN13NET_SetConVarD0Ev
__ZN13NET_SetConVarD1Ev
__ZN13NET_StringCmd13WriteToBufferER8bf_write
__ZN13NET_StringCmd14ReadFromBufferER7bf_read
__ZN13NET_StringCmd7ProcessEv
__ZN13NET_StringCmdD0Ev
__ZN13NET_StringCmdD1Ev
__ZN13SVC_ClassInfo13WriteToBufferER8bf_write
__ZN13SVC_ClassInfo14ReadFromBufferER7bf_read
__ZN13SVC_ClassInfo7ProcessEv
__ZN13SVC_ClassInfoD0Ev
__ZN13SVC_ClassInfoD1Ev
__ZN13SVC_GameEvent13WriteToBufferER8bf_write
__ZN13SVC_GameEvent14ReadFromBufferER7bf_read
__ZN13SVC_GameEvent7ProcessEv
__ZN13SVC_GameEventD0Ev
__ZN13SVC_GameEventD1Ev
__ZN13SVC_SendTable13WriteToBufferER8bf_write
__ZN13SVC_SendTable14ReadFromBufferER7bf_read
__ZN13SVC_SendTable7ProcessEv
__ZN13SVC_SendTableD0Ev
__ZN13SVC_SendTableD1Ev
__ZN13SVC_VoiceData13WriteToBufferER8bf_write
__ZN13SVC_VoiceData14ReadFromBufferER7bf_read
__ZN13SVC_VoiceData7ProcessEv
__ZN13SVC_VoiceDataD0Ev
__ZN13SVC_VoiceDataD1Ev
__ZN13SVC_VoiceInit13WriteToBufferER8bf_write
__ZN13SVC_VoiceInit14ReadFromBufferER7bf_read
__ZN13SVC_VoiceInit7ProcessEv
__ZN13SVC_VoiceInitD0Ev
__ZN13SVC_VoiceInitD1Ev
__ZN13player_info_s9m_DataMapE
__ZN14CAsyncWaveData13AsyncCallbackERK18FileAsyncRequest_ti15FSAsyncStatus_t
__ZN14CAsyncWaveData16BlockingCopyDataEPviii
__ZN14CAsyncWaveData16SetAsyncPriorityEi
__ZN14CAsyncWaveData17StartAsyncLoadingERK17asyncwaveparams_t
__ZN14CAsyncWaveData22BlockingGetDataPointerEPPv
__ZN14CBaseAppSystemI10ICvarQueryE10DisconnectEv
__ZN14CClockDriftMgr13SetServerTickEi
__ZN14CClockDriftMgr13ShowDebugInfoEf
__ZN14CClockDriftMgr15AdjustFrameTimeEf
__ZN14CClockDriftMgr24IsClockCorrectionEnabledEv
__ZN14CClockDriftMgr25AdjustAverageDifferenceByEf
__ZN14CClockDriftMgr5ClearEv
__ZN14CClockDriftMgrC1Ev
__ZN14CColorMeshData14CreateResourceERK17colormeshparams_t
__ZN14CColorMeshData15DestroyResourceEv
__ZN14CColorProperty15InitFromDefaultEPN4vgui5PanelEP22PanelAnimationMapEntry
__ZN14CColorProperty7GetDataEPN4vgui5PanelEP9KeyValuesP22PanelAnimationMapEntry
__ZN14CColorProperty7SetDataEPN4vgui5PanelEP9KeyValuesP22PanelAnimationMapEntry
__ZN14CCommandBuffer13InsertCommandEPKcii
__ZN14CCommandBuffer16SetWaitDelayTimeEi
__ZN14CCommandBuffer18DequeueNextCommandEv
__ZN14CCommandBuffer20GetNextCommandHandleEv
__ZN14CCommandBuffer20IsProcessingCommandsEv
__ZN14CCommandBuffer21EndProcessingCommandsEv
__ZN14CCommandBuffer23BeginProcessingCommandsEi
__ZN14CCommandBuffer7AddTextEPKci
__ZN14CCommandBufferC1Ev
__ZN14CCommandBufferC2Ev
__ZN14CCommandBufferD1Ev
__ZN14CCvarUtilities10CvarToggleERK8CCommand
__ZN14CCvarUtilities14WriteVariablesER10CUtlBufferb
__ZN14CCvarUtilities15CvarDifferencesERK8CCommand
__ZN14CCvarUtilities15CvarFindFlags_fERK8CCommand
__ZN14CCvarUtilities20IsValidToggleCommandEPKc
__ZN14CCvarUtilities8CvarListERK8CCommand
__ZN14CCvarUtilities9IsCommandERK8CCommand
__ZN14CCvarUtilities9SetDirectEP6ConVarPKc
__ZN14CDmxSerializer11SaveElementER10CUtlBufferR27CDmxSerializationDictionaryR10CUtlRBTreeIPKctPFbRKS6_S8_E10CUtlMemoryI15UtlRBTreeNode_tIS6_tEtEEP11CDmxElement
__ZN14CDmxSerializer15SaveElementDictER10CUtlBufferR10CUtlRBTreeIPKctPFbRKS4_S6_E10CUtlMemoryI15UtlRBTreeNode_tIS4_tEtEEP11CDmxElement
__ZN14CDmxSerializer21SerializeElementIndexER10CUtlBufferR27CDmxSerializationDictionaryP11CDmxElement
__ZN14CDmxSerializer30SerializeElementArrayAttributeER10CUtlBufferR27CDmxSerializationDictionaryP13CDmxAttribute
__ZN14CDmxSerializer9SerializeER10CUtlBufferP11CDmxElementPKc
__ZN14CDrawTreeFrame10GetAnimMapEv
__ZN14CDrawTreeFrame13GetMessageMapEv
__ZN14CDrawTreeFrame13PerformLayoutEv
__ZN14CDrawTreeFrame14OnItemSelectedEv
__ZN14CDrawTreeFrame17GetPanelClassNameEv
__ZN14CDrawTreeFrame28RecalculateSelectedHighlightEv
__ZN14CDrawTreeFrame7OnCloseEv
__ZN14CDrawTreeFrame7OnThinkEv
__ZN14CDrawTreeFrame8AddToMapEPKcMN4vgui5PanelEFvvEiiS1_iS1_
__ZN14CDrawTreeFrame8GetKBMapEv
__ZN14CDrawTreeFrame9OnCommandEPKc
__ZN14CDrawTreeFrameC1EPN4vgui5PanelEPKc
__ZN14CDrawTreeFrameD0Ev
__ZN14CDrawTreeFrameD1Ev
__ZN14CEngineBSPTree20EnumerateLeavesInBoxERK6VectorS2_P22ISpatialLeafEnumeratori
__ZN14CEngineBSPTree22EnumerateLeavesAtPointERK6VectorP22ISpatialLeafEnumeratori
__ZN14CEngineBSPTree23EnumerateLeavesAlongRayERK5Ray_tP22ISpatialLeafEnumeratori
__ZN14CEngineBSPTree23EnumerateLeavesInSphereERK6VectorfP22ISpatialLeafEnumeratori
__ZN14CFixEdgeButtonC1EPN4vgui5PanelEPKcS4_
__ZN14CFixEdgeButtonD0Ev
__ZN14CFixEdgeButtonD1Ev
__ZN14CFloatProperty15InitFromDefaultEPN4vgui5PanelEP22PanelAnimationMapEntry
__ZN14CFloatProperty7GetDataEPN4vgui5PanelEP9KeyValuesP22PanelAnimationMapEntry
__ZN14CFloatProperty7SetDataEPN4vgui5PanelEP9KeyValuesP22PanelAnimationMapEntry
__ZN14CFrameSnapshot11s_AllocatorE
__ZN14CFrameSnapshot12AddReferenceEv
__ZN14CFrameSnapshot16ReleaseReferenceEv
__ZN14CFrameSnapshotD2Ev
__ZN14CHFontProperty15InitFromDefaultEPN4vgui5PanelEP22PanelAnimationMapEntry
__ZN14CHFontProperty7GetDataEPN4vgui5PanelEP9KeyValuesP22PanelAnimationMapEntry
__ZN14CHFontProperty7SetDataEPN4vgui5PanelEP9KeyValuesP22PanelAnimationMapEntry
__ZN14CLC_ClientInfo13WriteToBufferER8bf_write
__ZN14CLC_ClientInfo14ReadFromBufferER7bf_read
__ZN14CLC_ClientInfo7ProcessEv
__ZN14CLC_ClientInfoD0Ev
__ZN14CLC_ClientInfoD1Ev
__ZN14CLC_SaveReplay13WriteToBufferER8bf_write
__ZN14CLC_SaveReplay14ReadFromBufferER7bf_read
__ZN14CLC_SaveReplay7ProcessEv
__ZN14CLC_SaveReplayD0Ev
__ZN14CLC_SaveReplayD1Ev
__ZN14CMapLoadHelper10GetMapNameEv
__ZN14CMapLoadHelper10LumpOffsetEv
__ZN14CMapLoadHelper11GetLoadNameEv
__ZN14CMapLoadHelper12LoadLumpDataEiiPv
__ZN14CMapLoadHelper14InitFromMemoryEP7model_tPKvi
__ZN14CMapLoadHelper15LoadLumpElementEiiPv
__ZN14CMapLoadHelper4InitEP7model_tPKc
__ZN14CMapLoadHelper6GetMapEv
__ZN14CMapLoadHelper8LumpBaseEv
__ZN14CMapLoadHelper8LumpSizeEi
__ZN14CMapLoadHelper8LumpSizeEv
__ZN14CMapLoadHelper8ShutdownEv
__ZN14CMapLoadHelperC1Ei
__ZN14CMapLoadHelperC2Ei
__ZN14CMapLoadHelperD1Ev
__ZN14CMixerControls12GetMixerNameEv
__ZN14CMixerControls14GetValue_FloatEN14IMixerControls7ControlERf
__ZN14CMixerControls14SetValue_FloatEN14IMixerControls7ControlEf
__ZN14CMixerControls28SelectMicrophoneForWaveInputEv
__ZN14CMixerControls7ReleaseEv
__ZN14CMixerControlsC2Ev
__ZN14CMixerControlsD0Ev
__ZN14CMixerControlsD1Ev
__ZN14CPropCullStack20CullPropsFromProxiesEPKiiPii
__ZN14CPropCullStack21RecurseAndCallProxiesEP9CSendNodePh
__ZN14CSaveDirectoryC2Ev
__ZN14CSaveDirectoryD2Ev
__ZN14CSentenceMixer11ModifyPitchEf
__ZN14CSentenceMixer11SkipSamplesEP9channel_tiii
__ZN14CSentenceMixer12IsReadyToMixEv
__ZN14CSentenceMixer12SetSampleEndEi
__ZN14CSentenceMixer14GetVolumeScaleEv
__ZN14CSentenceMixer14SetSampleStartEi
__ZN14CSentenceMixer15MixDataToDeviceEP12IAudioDeviceP9channel_tiii
__ZN14CSentenceMixer16GetMixSampleSizeEv
__ZN14CSentenceMixer17GetSamplePositionEv
__ZN14CSentenceMixer18GetPositionForSaveEv
__ZN14CSentenceMixer20SetPositionFromSavedEi
__ZN14CSentenceMixer20ShouldContinueMixingEv
__ZN14CSentenceMixer22SetStartupDelaySamplesEi
__ZN14CSentenceMixer9GetSourceEv
__ZN14CSentenceMixerC2EP9voxword_t
__ZN14CSentenceMixerD0Ev
__ZN14CSentenceMixerD1Ev
__ZN14CSentenceMixerD2Ev
__ZN14CSocketCreator13ConnectSocketERK8netadr_sb
__ZN14CSocketCreator13ProcessAcceptEv
__ZN14CSocketCreator15ConfigureSocketEi
__ZN14CSocketCreator18CreateListenSocketERK8netadr_s
__ZN14CSocketCreator19CloseAcceptedSocketEi
__ZN14CSocketCreator21GetAcceptedSocketDataEi
__ZN14CSocketCreator23CloseAllAcceptedSocketsEv
__ZN14CSocketCreator8RunFrameEv
__ZN14CSocketCreatorC1EP22ISocketCreatorListener
__ZN14CSocketCreatorD1Ev
__ZN14CSocketCreatorD2Ev
__ZN14CStaticPropMgr13GetStaticPropEP13IHandleEntity
__ZN14CStaticPropMgr13LevelShutdownEv
__ZN14CStaticPropMgr15DrawStaticPropsEPP17IClientRenderableibb
__ZN14CStaticPropMgr15LevelInitClientEv
__ZN14CStaticPropMgr16PrecacheLightingEv
__ZN14CStaticPropMgr17ChangeRenderGroupER11CStaticProp
__ZN14CStaticPropMgr17ComputeScreenFadeER11CStaticPropfff
__ZN14CStaticPropMgr17GetAllStaticPropsEP10CUtlVectorIP12ICollideable10CUtlMemoryIS2_iEE
__ZN14CStaticPropMgr17UnserializeModelsER10CUtlBuffer
__ZN14CStaticPropMgr18ComputePropOpacityER11CStaticProp
__ZN14CStaticPropMgr18ComputePropOpacityERK6Vectorf
__ZN14CStaticPropMgr19LevelShutdownClientEv
__ZN14CStaticPropMgr19UnserializeLeafListER10CUtlBuffer
__ZN14CStaticPropMgr20AddDecalToStaticPropERK6VectorS2_iibR10CGameTrace
__ZN14CStaticPropMgr20DrawStaticProps_FastEPP17IClientRenderableib
__ZN14CStaticPropMgr20DrawStaticProps_SlowEPP17IClientRenderableibb
__ZN14CStaticPropMgr20GetStaticPropByIndexEi
__ZN14CStaticPropMgr20UnserializeModelDictER10CUtlBuffer
__ZN14CStaticPropMgr21AddShadowToStaticPropEtP17IClientRenderable
__ZN14CStaticPropMgr22GetAllStaticPropsInOBBERK6VectorS2_S2_S2_P10CUtlVectorIP12ICollideable10CUtlMemoryIS5_iEE
__ZN14CStaticPropMgr22UnserializeStaticPropsEv
__ZN14CStaticPropMgr23GetAllStaticPropsInAABBERK6VectorS2_P10CUtlVectorIP12ICollideable10CUtlMemoryIS5_iEE
__ZN14CStaticPropMgr23RecomputeStaticLightingEv
__ZN14CStaticPropMgr25AddColorDecalToStaticPropERK6VectorS2_iibR10CGameTraceb5Color
__ZN14CStaticPropMgr25TraceRayAgainstStaticPropERK5Ray_tiR10CGameTrace
__ZN14CStaticPropMgr28DrawStaticProps_FastPipelineEPP17IClientRenderableib
__ZN14CStaticPropMgr29CreateVPhysicsRepresentationsEP19IPhysicsEnvironmentP19IVPhysicsKeyHandlerPv
__ZN14CStaticPropMgr30RemoveAllShadowsFromStaticPropEP17IClientRenderable
__ZN14CStaticPropMgr32GetLightCacheHandleForStaticPropEP13IHandleEntity
__ZN14CStaticPropMgr37GetStaticPropMaterialColorAndLightingEP10CGameTraceiR6VectorS3_
__ZN14CStaticPropMgr4InitEv
__ZN14CStaticPropMgr8ShutdownEv
__ZN14CStaticPropMgr9LevelInitEv
__ZN14CStaticPropMgrD0Ev
__ZN14CStaticPropMgrD1Ev
__ZN14CTestScriptMgr10CheckPointEPKc
__ZN14CTestScriptMgr11RunCommandsEv
__ZN14CTestScriptMgr17SetWaitCheckPointEPKcb
__ZN14CTestScriptMgrC2Ev
__ZN14CTestScriptMgrD0Ev
__ZN14CTestScriptMgrD1Ev
__ZN14CTestScriptMgrD2Ev
__ZN14CTraceInfoPoolD1Ev
__ZN14CUtlLinkedListI10CDispDecaltLb1Et10CUtlMemoryI19UtlLinkedListElem_tIS0_tEtEE10LinkBeforeEtt
__ZN14CUtlLinkedListI10CDispDecaltLb1Et10CUtlMemoryI19UtlLinkedListElem_tIS0_tEtEE13AllocInternalEb
__ZN14CUtlLinkedListI10CDispDecaltLb1Et10CUtlMemoryI19UtlLinkedListElem_tIS0_tEtEED1Ev
__ZN14CUtlLinkedListI10CDispDecaltLb1Et10CUtlMemoryI19UtlLinkedListElem_tIS0_tEtEED2Ev
__ZN14CUtlLinkedListI10CEventInfoiLb1Ei15CUtlFixedMemoryI19UtlLinkedListElem_tIS0_iEEE13AllocInternalEb
__ZN14CUtlLinkedListI10CEventInfoiLb1Ei15CUtlFixedMemoryI19UtlLinkedListElem_tIS0_iEEE6UnlinkEi
__ZN14CUtlLinkedListI10CEventInfoiLb1Ei15CUtlFixedMemoryI19UtlLinkedListElem_tIS0_iEEE9RemoveAllEv
__ZN14CUtlLinkedListI10CUtlBuffertLb0Et10CUtlMemoryI19UtlLinkedListElem_tIS0_tEtEE10LinkBeforeEtt
__ZN14CUtlLinkedListI10CUtlBuffertLb0Et10CUtlMemoryI19UtlLinkedListElem_tIS0_tEtEE13AllocInternalEb
__ZN14CUtlLinkedListI10CUtlBuffertLb0Et10CUtlMemoryI19UtlLinkedListElem_tIS0_tEtEE4FreeEt
__ZN14CUtlLinkedListI10CUtlBuffertLb0Et10CUtlMemoryI19UtlLinkedListElem_tIS0_tEtEE9LinkAfterEtt
__ZN14CUtlLinkedListI10CUtlBuffertLb0Et10CUtlMemoryI19UtlLinkedListElem_tIS0_tEtEE9RemoveAllEv
__ZN14CUtlLinkedListI10CUtlStringtLb0Et10CUtlMemoryI19UtlLinkedListElem_tIS0_tEtEE10LinkBeforeEtt
__ZN14CUtlLinkedListI10CUtlStringtLb0Et10CUtlMemoryI19UtlLinkedListElem_tIS0_tEtEE13AllocInternalEb
__ZN14CUtlLinkedListI10CUtlStringtLb0Et10CUtlMemoryI19UtlLinkedListElem_tIS0_tEtEE4FreeEt
__ZN14CUtlLinkedListI10CUtlStringtLb0Et10CUtlMemoryI19UtlLinkedListElem_tIS0_tEtEED1Ev
__ZN14CUtlLinkedListI10CUtlStringtLb0Et10CUtlMemoryI19UtlLinkedListElem_tIS0_tEtEED2Ev
__ZN14CUtlLinkedListI12EntityInfo_ttLb0Et15CUtlMemoryStackI19UtlLinkedListElem_tIS0_tEtLm65535ELm1024ELm0EEE10LinkBeforeEtt
__ZN14CUtlLinkedListI12EntityInfo_ttLb0Et15CUtlMemoryStackI19UtlLinkedListElem_tIS0_tEtLm65535ELm1024ELm0EEE13AllocInternalEb
__ZN14CUtlLinkedListI13VisCacheEntrytLb0Et10CUtlMemoryI19UtlLinkedListElem_tIS0_tEtEE13AllocInternalEb
__ZN14CUtlLinkedListI13VisCacheEntrytLb0Et10CUtlMemoryI19UtlLinkedListElem_tIS0_tEtEE9LinkAfterEtt
__ZN14CUtlLinkedListI13VisCacheEntrytLb0Et10CUtlMemoryI19UtlLinkedListElem_tIS0_tEtEED1Ev
__ZN14CUtlLinkedListI13VisCacheEntrytLb0Et10CUtlMemoryI19UtlLinkedListElem_tIS0_tEtEED2Ev
__ZN14CUtlLinkedListI14LeafListData_tiLb1Ei15CUtlFixedMemoryI19UtlLinkedListElem_tIS0_iEEE13AllocInternalEb
__ZN14CUtlLinkedListI14LeafListData_tiLb1Ei15CUtlFixedMemoryI19UtlLinkedListElem_tIS0_iEEE6UnlinkEi
__ZN14CUtlLinkedListI14LeafListData_tiLb1Ei15CUtlFixedMemoryI19UtlLinkedListElem_tIS0_iEEE9RemoveAllEv
__ZN14CUtlLinkedListI15SendQueueItem_ttLb0Et10CUtlMemoryI19UtlLinkedListElem_tIS0_tEtEE10LinkBeforeEtt
__ZN14CUtlLinkedListI15SendQueueItem_ttLb0Et10CUtlMemoryI19UtlLinkedListElem_tIS0_tEtEE13AllocInternalEb
__ZN14CUtlLinkedListI15SendQueueItem_ttLb0Et10CUtlMemoryI19UtlLinkedListElem_tIS0_tEtEE4FreeEt
__ZN14CUtlLinkedListI15SendQueueItem_ttLb0Et10CUtlMemoryI19UtlLinkedListElem_tIS0_tEtEE9RemoveAllEv
__ZN14CUtlLinkedListI16CDispShadowDecaltLb1Et10CUtlMemoryI19UtlLinkedListElem_tIS0_tEtEE10LinkBeforeEtt
__ZN14CUtlLinkedListI16CDispShadowDecaltLb1Et10CUtlMemoryI19UtlLinkedListElem_tIS0_tEtEE13AllocInternalEb
__ZN14CUtlLinkedListI16CDispShadowDecaltLb1Et10CUtlMemoryI19UtlLinkedListElem_tIS0_tEtEED1Ev
__ZN14CUtlLinkedListI16CDispShadowDecaltLb1Et10CUtlMemoryI19UtlLinkedListElem_tIS0_tEtEED2Ev
__ZN14CUtlLinkedListI16CUtlKeyValuePairI19CUtlConstStringBaseIcE23CNetworkStringTableItemEtLb0Et10CUtlMemoryI19UtlLinkedListElem_tIS4_tEtEE10LinkBeforeEtt
__ZN14CUtlLinkedListI16CUtlKeyValuePairI19CUtlConstStringBaseIcE23CNetworkStringTableItemEtLb0Et10CUtlMemoryI19UtlLinkedListElem_tIS4_tEtEE13AllocInternalEb
__ZN14CUtlLinkedListI16CUtlKeyValuePairI19CUtlConstStringBaseIcE23CNetworkStringTableItemEtLb0Et10CUtlMemoryI19UtlLinkedListElem_tIS4_tEtEE9RemoveAllEv
__ZN14CUtlLinkedListI16CUtlKeyValuePairIP7model_t7empty_tEtLb0Et10CUtlMemoryI19UtlLinkedListElem_tIS4_tEtEE10LinkBeforeEtt
__ZN14CUtlLinkedListI16CUtlKeyValuePairIP7model_t7empty_tEtLb0Et10CUtlMemoryI19UtlLinkedListElem_tIS4_tEtEE13AllocInternalEb
__ZN14CUtlLinkedListI16CUtlKeyValuePairIP7model_t7empty_tEtLb0Et10CUtlMemoryI19UtlLinkedListElem_tIS4_tEtEED2Ev
__ZN14CUtlLinkedListI18CDispDecalFragmenttLb1Et10CUtlMemoryI19UtlLinkedListElem_tIS0_tEtEE10LinkBeforeEtt
__ZN14CUtlLinkedListI18CDispDecalFragmenttLb1Et10CUtlMemoryI19UtlLinkedListElem_tIS0_tEtEE13AllocInternalEb
__ZN14CUtlLinkedListI18CDispDecalFragmenttLb1Et10CUtlMemoryI19UtlLinkedListElem_tIS0_tEtEE4FreeEt
__ZN14CUtlLinkedListI18CDispDecalFragmenttLb1Et10CUtlMemoryI19UtlLinkedListElem_tIS0_tEtEE9RemoveAllEv
__ZN14CUtlLinkedListI18CDispDecalFragmenttLb1Et10CUtlMemoryI19UtlLinkedListElem_tIS0_tEtEED1Ev
__ZN14CUtlLinkedListI18moverlayfragment_ttLb1Et10CUtlMemoryI19UtlLinkedListElem_tIS0_tEtEE10LinkBeforeEtt
__ZN14CUtlLinkedListI18moverlayfragment_ttLb1Et10CUtlMemoryI19UtlLinkedListElem_tIS0_tEtEE13AllocInternalEb
__ZN14CUtlLinkedListI18moverlayfragment_ttLb1Et10CUtlMemoryI19UtlLinkedListElem_tIS0_tEtEED2Ev
__ZN14CUtlLinkedListI19CDispShadowFragmenttLb1Et10CUtlMemoryI19UtlLinkedListElem_tIS0_tEtEE10LinkBeforeEtt
__ZN14CUtlLinkedListI19CDispShadowFragmenttLb1Et10CUtlMemoryI19UtlLinkedListElem_tIS0_tEtEE13AllocInternalEb
__ZN14CUtlLinkedListI19CDispShadowFragmenttLb1Et10CUtlMemoryI19UtlLinkedListElem_tIS0_tEtEE4FreeEt
__ZN14CUtlLinkedListI19CDispShadowFragmenttLb1Et10CUtlMemoryI19UtlLinkedListElem_tIS0_tEtEE9RemoveAllEv
__ZN14CUtlLinkedListI19CDispShadowFragmenttLb1Et10CUtlMemoryI19UtlLinkedListElem_tIS0_tEtEED1Ev
__ZN14CUtlLinkedListIN10CShadowMgr13ShadowDecal_tEtLb1Ei10CUtlMemoryI19UtlLinkedListElem_tIS1_tEiEE10LinkBeforeEii
__ZN14CUtlLinkedListIN10CShadowMgr13ShadowDecal_tEtLb1Ei10CUtlMemoryI19UtlLinkedListElem_tIS1_tEiEE11SetGrowSizeEi
__ZN14CUtlLinkedListIN10CShadowMgr13ShadowDecal_tEtLb1Ei10CUtlMemoryI19UtlLinkedListElem_tIS1_tEiEE13AllocInternalEb
__ZN14CUtlLinkedListIN10CShadowMgr13ShadowDecal_tEtLb1Ei10CUtlMemoryI19UtlLinkedListElem_tIS1_tEiEED2Ev
__ZN14CUtlLinkedListIN10CShadowMgr15SortOrderInfo_tEtLb0Et10CUtlMemoryI19UtlLinkedListElem_tIS1_tEtEE10LinkBeforeEtt
__ZN14CUtlLinkedListIN10CShadowMgr15SortOrderInfo_tEtLb0Et10CUtlMemoryI19UtlLinkedListElem_tIS1_tEtEE13AllocInternalEb
__ZN14CUtlLinkedListIN10CShadowMgr15SortOrderInfo_tEtLb0Et10CUtlMemoryI19UtlLinkedListElem_tIS1_tEtEED2Ev
__ZN14CUtlLinkedListIN10CShadowMgr15SurfaceBounds_tEtLb0Ei15CUtlMemoryFixedI19UtlLinkedListElem_tIS1_tELm1024ELi16EEE13AllocInternalEb
__ZN14CUtlLinkedListIN10CShadowMgr15SurfaceBounds_tEtLb0Ei15CUtlMemoryFixedI19UtlLinkedListElem_tIS1_tELm1024ELi16EEE9LinkAfterEii
__ZN14CUtlLinkedListIN10CShadowMgr16FlashlightInfo_tEtLb0Et10CUtlMemoryI19UtlLinkedListElem_tIS1_tEtEE10LinkBeforeEtt
__ZN14CUtlLinkedListIN10CShadowMgr16FlashlightInfo_tEtLb0Et10CUtlMemoryI19UtlLinkedListElem_tIS1_tEtEE13AllocInternalEb
__ZN14CUtlLinkedListIN10CShadowMgr16FlashlightInfo_tEtLb0Et10CUtlMemoryI19UtlLinkedListElem_tIS1_tEtEE4FreeEt
__ZN14CUtlLinkedListIN10CShadowMgr16FlashlightInfo_tEtLb0Et10CUtlMemoryI19UtlLinkedListElem_tIS1_tEtEE9RemoveAllEv
__ZN14CUtlLinkedListIN10CShadowMgr19ShadowVertexCache_tEtLb0Et10CUtlMemoryI19UtlLinkedListElem_tIS1_tEtEE10LinkBeforeEtt
__ZN14CUtlLinkedListIN10CShadowMgr19ShadowVertexCache_tEtLb0Et10CUtlMemoryI19UtlLinkedListElem_tIS1_tEtEE13AllocInternalEb
__ZN14CUtlLinkedListIN10CShadowMgr19ShadowVertexCache_tEtLb0Et10CUtlMemoryI19UtlLinkedListElem_tIS1_tEtEED2Ev
__ZN14CUtlLinkedListIN10CShadowMgr23ShadowVertexLargeList_tEtLb0Et10CUtlMemoryI19UtlLinkedListElem_tIS1_tEtEE10LinkBeforeEtt
__ZN14CUtlLinkedListIN10CShadowMgr23ShadowVertexLargeList_tEtLb0Et10CUtlMemoryI19UtlLinkedListElem_tIS1_tEtEE13AllocInternalEb
__ZN14CUtlLinkedListIN10CShadowMgr23ShadowVertexLargeList_tEtLb0Et10CUtlMemoryI19UtlLinkedListElem_tIS1_tEtEED2Ev
__ZN14CUtlLinkedListIN10CShadowMgr23ShadowVertexSmallList_tEtLb0Et10CUtlMemoryI19UtlLinkedListElem_tIS1_tEtEE10LinkBeforeEtt
__ZN14CUtlLinkedListIN10CShadowMgr23ShadowVertexSmallList_tEtLb0Et10CUtlMemoryI19UtlLinkedListElem_tIS1_tEtEE13AllocInternalEb
__ZN14CUtlLinkedListIN10CShadowMgr23ShadowVertexSmallList_tEtLb0Et10CUtlMemoryI19UtlLinkedListElem_tIS1_tEtEED2Ev
__ZN14CUtlLinkedListIN10CShadowMgr8Shadow_tEtLb0Ei17CUtlMemoryAlignedI19UtlLinkedListElem_tIS1_tELi16EEE10LinkBeforeEii
__ZN14CUtlLinkedListIN10CShadowMgr8Shadow_tEtLb0Ei17CUtlMemoryAlignedI19UtlLinkedListElem_tIS1_tELi16EEE13AllocInternalEb
__ZN14CUtlLinkedListIN11COverlayMgr17RenderQueueHead_tEtLb0Et10CUtlMemoryI19UtlLinkedListElem_tIS1_tEtEE10LinkBeforeEtt
__ZN14CUtlLinkedListIN11COverlayMgr17RenderQueueHead_tEtLb0Et10CUtlMemoryI19UtlLinkedListElem_tIS1_tEtEE13AllocInternalEb
__ZN14CUtlLinkedListIN11COverlayMgr17RenderQueueHead_tEtLb0Et10CUtlMemoryI19UtlLinkedListElem_tIS1_tEtEE5PurgeEv
__ZN14CUtlLinkedListIN11COverlayMgr17RenderQueueHead_tEtLb0Et10CUtlMemoryI19UtlLinkedListElem_tIS1_tEtEED2Ev
__ZN14CUtlLinkedListIN12CModelRender15ModelInstance_tEtLb0Et10CUtlMemoryI19UtlLinkedListElem_tIS1_tEtEE10LinkBeforeEtt
__ZN14CUtlLinkedListIN12CModelRender15ModelInstance_tEtLb0Et10CUtlMemoryI19UtlLinkedListElem_tIS1_tEtEE13AllocInternalEb
__ZN14CUtlLinkedListIN12CModelRender15ModelInstance_tEtLb0Et10CUtlMemoryI19UtlLinkedListElem_tIS1_tEtEED2Ev
__ZN14CUtlLinkedListIN13CUtlMultiListIN16CDataManagerBase22resource_lru_element_tEtE6List_tEtLb0Et10CUtlMemoryI19UtlLinkedListElem_tIS4_tEtEE10LinkBeforeEtt
__ZN14CUtlLinkedListIN13CUtlMultiListIN16CDataManagerBase22resource_lru_element_tEtE6List_tEtLb0Et10CUtlMemoryI19UtlLinkedListElem_tIS4_tEtEE13AllocInternalEb
__ZN14CUtlLinkedListIN13CUtlMultiListIN16CDataManagerBase22resource_lru_element_tEtE6List_tEtLb0Et10CUtlMemoryI19UtlLinkedListElem_tIS4_tEtEED2Ev
__ZN14CUtlLinkedListIN14CCommandBuffer9Command_tEiLb1Ei15CUtlFixedMemoryI19UtlLinkedListElem_tIS1_iEEE13AllocInternalEb
__ZN14CUtlLinkedListIN14CCommandBuffer9Command_tEiLb1Ei15CUtlFixedMemoryI19UtlLinkedListElem_tIS1_iEEE6UnlinkEi
__ZN14CUtlLinkedListIN14CCommandBuffer9Command_tEiLb1Ei15CUtlFixedMemoryI19UtlLinkedListElem_tIS1_iEEE9RemoveAllEv
__ZN14CUtlLinkedListIN17CBidirectionalSetIttttE16BucketListInfo_tEtLb1Et10CUtlMemoryI19UtlLinkedListElem_tIS2_tEtEE10LinkBeforeEtt
__ZN14CUtlLinkedListIN17CBidirectionalSetIttttE16BucketListInfo_tEtLb1Et10CUtlMemoryI19UtlLinkedListElem_tIS2_tEtEE13AllocInternalEb
__ZN14CUtlLinkedListIN17CBidirectionalSetIttttE16BucketListInfo_tEtLb1Et10CUtlMemoryI19UtlLinkedListElem_tIS2_tEtEED2Ev
__ZN14CUtlLinkedListIN17CBidirectionalSetIttttE17ElementListInfo_tEtLb1Et10CUtlMemoryI19UtlLinkedListElem_tIS2_tEtEE10LinkBeforeEtt
__ZN14CUtlLinkedListIN17CBidirectionalSetIttttE17ElementListInfo_tEtLb1Et10CUtlMemoryI19UtlLinkedListElem_tIS2_tEtEE13AllocInternalEb
__ZN14CUtlLinkedListIN17CBidirectionalSetIttttE17ElementListInfo_tEtLb1Et10CUtlMemoryI19UtlLinkedListElem_tIS2_tEtEED2Ev
__ZN14CUtlLinkedListIN17CBrushBatchRender13brushrender_tEtLb0Et10CUtlMemoryI19UtlLinkedListElem_tIS1_tEtEE10LinkBeforeEtt
__ZN14CUtlLinkedListIN17CBrushBatchRender13brushrender_tEtLb0Et10CUtlMemoryI19UtlLinkedListElem_tIS1_tEtEE13AllocInternalEb
__ZN14CUtlLinkedListIN17CBrushBatchRender13brushrender_tEtLb0Et10CUtlMemoryI19UtlLinkedListElem_tIS1_tEtEE5PurgeEv
__ZN14CUtlLinkedListIN17CBrushBatchRender13brushrender_tEtLb0Et10CUtlMemoryI19UtlLinkedListElem_tIS1_tEtEED2Ev
__ZN14CUtlLinkedListIN18CAsyncWavDataCache15StreamedEntry_tEiLb0Ei10CUtlMemoryI19UtlLinkedListElem_tIS1_iEiEE13AllocInternalEb
__ZN14CUtlLinkedListIN18CAsyncWavDataCache15StreamedEntry_tEiLb0Ei10CUtlMemoryI19UtlLinkedListElem_tIS1_iEiEED2Ev
__ZN14CUtlLinkedListIN19CServerRemoteAccess14DataResponse_tEiLb0Ei10CUtlMemoryI19UtlLinkedListElem_tIS1_iEiEE13AllocInternalEb
__ZN14CUtlLinkedListIN19CServerRemoteAccess14DataResponse_tEiLb0Ei10CUtlMemoryI19UtlLinkedListElem_tIS1_iEiEE4FreeEi
__ZN14CUtlLinkedListIN19CServerRemoteAccess14DataResponse_tEiLb0Ei10CUtlMemoryI19UtlLinkedListElem_tIS1_iEiEE9AddToTailEv
__ZN14CUtlLinkedListIN19CServerRemoteAccess14DataResponse_tEiLb0Ei10CUtlMemoryI19UtlLinkedListElem_tIS1_iEiEE9RemoveAllEv
__ZN14CUtlLinkedListIN19CServerRemoteAccess15ListenerStore_tEiLb0Ei10CUtlMemoryI19UtlLinkedListElem_tIS1_iEiEE13AllocInternalEb
__ZN14CUtlLinkedListIN19CServerRemoteAccess15ListenerStore_tEiLb0Ei10CUtlMemoryI19UtlLinkedListElem_tIS1_iEiEE9AddToTailEv
__ZN14CUtlLinkedListIN19CServerRemoteAccess15ListenerStore_tEiLb0Ei10CUtlMemoryI19UtlLinkedListElem_tIS1_iEiEED2Ev
__ZN14CUtlLinkedListIN4vgui10GraphPanel8Sample_tEiLb0Ei10CUtlMemoryI19UtlLinkedListElem_tIS2_iEiEED2Ev
__ZN14CUtlLinkedListIN4vgui14PanelListPanel10dataitem_sEiLb0Ei10CUtlMemoryI19UtlLinkedListElem_tIS2_iEiEE13AllocInternalEb
__ZN14CUtlLinkedListIN4vgui14PanelListPanel10dataitem_sEiLb0Ei10CUtlMemoryI19UtlLinkedListElem_tIS2_iEiEED2Ev
__ZN14CUtlLinkedListIN4vgui9ListPanel8column_tEhLb0Eh10CUtlMemoryI19UtlLinkedListElem_tIS2_hEhEE10LinkBeforeEhh
__ZN14CUtlLinkedListIN4vgui9ListPanel8column_tEhLb0Eh10CUtlMemoryI19UtlLinkedListElem_tIS2_hEhEE13AllocInternalEb
__ZN14CUtlLinkedListIN4vgui9ListPanel8column_tEhLb0Eh10CUtlMemoryI19UtlLinkedListElem_tIS2_hEhEED2Ev
__ZN14CUtlLinkedListIP11msurface2_ttLb1Et10CUtlMemoryI19UtlLinkedListElem_tIS1_tEtEE10LinkBeforeEtt
__ZN14CUtlLinkedListIP11msurface2_ttLb1Et10CUtlMemoryI19UtlLinkedListElem_tIS1_tEtEE13AllocInternalEb
__ZN14CUtlLinkedListIP11msurface2_ttLb1Et10CUtlMemoryI19UtlLinkedListElem_tIS1_tEtEE5PurgeEv
__ZN14CUtlLinkedListIP11msurface2_ttLb1Et10CUtlMemoryI19UtlLinkedListElem_tIS1_tEtEED2Ev
__ZN14CUtlLinkedListIP12CChangeTrackiLb0Ei10CUtlMemoryI19UtlLinkedListElem_tIS1_iEiEED1Ev
__ZN14CUtlLinkedListIP12CChangeTrackiLb0Ei10CUtlMemoryI19UtlLinkedListElem_tIS1_iEiEED2Ev
__ZN14CUtlLinkedListIP12CRecvDecodertLb0Et10CUtlMemoryI19UtlLinkedListElem_tIS1_tEtEE10LinkBeforeEtt
__ZN14CUtlLinkedListIP12CRecvDecodertLb0Et10CUtlMemoryI19UtlLinkedListElem_tIS1_tEtEE13AllocInternalEb
__ZN14CUtlLinkedListIP12CRecvDecodertLb0Et10CUtlMemoryI19UtlLinkedListElem_tIS1_tEtEE22PurgeAndDeleteElementsEv
__ZN14CUtlLinkedListIP12CRecvDecodertLb0Et10CUtlMemoryI19UtlLinkedListElem_tIS1_tEtEE5PurgeEv
__ZN14CUtlLinkedListIP12CRecvDecodertLb0Et10CUtlMemoryI19UtlLinkedListElem_tIS1_tEtEED1Ev
__ZN14CUtlLinkedListIP12CRecvDecodertLb0Et10CUtlMemoryI19UtlLinkedListElem_tIS1_tEtEED2Ev
__ZN14CUtlLinkedListIP13CDTIRecvTableiLb0Ei10CUtlMemoryI19UtlLinkedListElem_tIS1_iEiEE13AllocInternalEb
__ZN14CUtlLinkedListIP13CDTIRecvTableiLb0Ei10CUtlMemoryI19UtlLinkedListElem_tIS1_iEiEE22PurgeAndDeleteElementsEv
__ZN14CUtlLinkedListIP13CDTIRecvTableiLb0Ei10CUtlMemoryI19UtlLinkedListElem_tIS1_iEiEED1Ev
__ZN14CUtlLinkedListIP13CDTIRecvTableiLb0Ei10CUtlMemoryI19UtlLinkedListElem_tIS1_iEiEED2Ev
__ZN14CUtlLinkedListIP13CDTISendTabletLb0Et10CUtlMemoryI19UtlLinkedListElem_tIS1_tEtEE10LinkBeforeEtt
__ZN14CUtlLinkedListIP13CDTISendTabletLb0Et10CUtlMemoryI19UtlLinkedListElem_tIS1_tEtEE13AllocInternalEb
__ZN14CUtlLinkedListIP13CDTISendTabletLb0Et10CUtlMemoryI19UtlLinkedListElem_tIS1_tEtEE5PurgeEv
__ZN14CUtlLinkedListIP13CDTISendTabletLb0Et10CUtlMemoryI19UtlLinkedListElem_tIS1_tEtEED1Ev
__ZN14CUtlLinkedListIP13CDTISendTabletLb0Et10CUtlMemoryI19UtlLinkedListElem_tIS1_tEtEED2Ev
__ZN14CUtlLinkedListIP14CFrameSnapshottLb0Et10CUtlMemoryI19UtlLinkedListElem_tIS1_tEtEE10LinkBeforeEtt
__ZN14CUtlLinkedListIP14CFrameSnapshottLb0Et10CUtlMemoryI19UtlLinkedListElem_tIS1_tEtEE13AllocInternalEb
__ZN14CUtlLinkedListIP14CFrameSnapshottLb0Et10CUtlMemoryI19UtlLinkedListElem_tIS1_tEtEED2Ev
__ZN14CUtlLinkedListIP16CClientSendTabletLb0Et10CUtlMemoryI19UtlLinkedListElem_tIS1_tEtEE10LinkBeforeEtt
__ZN14CUtlLinkedListIP16CClientSendTabletLb0Et10CUtlMemoryI19UtlLinkedListElem_tIS1_tEtEE13AllocInternalEb
__ZN14CUtlLinkedListIP16CClientSendTabletLb0Et10CUtlMemoryI19UtlLinkedListElem_tIS1_tEtEE5PurgeEv
__ZN14CUtlLinkedListIP16CClientSendTabletLb0Et10CUtlMemoryI19UtlLinkedListElem_tIS1_tEtEED1Ev
__ZN14CUtlLinkedListIP16CClientSendTabletLb0Et10CUtlMemoryI19UtlLinkedListElem_tIS1_tEtEED2Ev
__ZN14CUtlLinkedListIP7decal_tiLb1Ei15CUtlFixedMemoryI19UtlLinkedListElem_tIS1_iEEE13AllocInternalEb
__ZN14CUtlLinkedListIP7decal_tiLb1Ei15CUtlFixedMemoryI19UtlLinkedListElem_tIS1_iEEE6UnlinkEi
__ZN14CUtlLinkedListIP7decal_tiLb1Ei15CUtlFixedMemoryI19UtlLinkedListElem_tIS1_iEEE9RemoveAllEv
__ZN14CUtlLinkedListIP9CLoopInfoiLb0Ei10CUtlMemoryI19UtlLinkedListElem_tIS1_iEiEED2Ev
__ZN14CUtlLinkedListIP9RecvTabletLb0Et10CUtlMemoryI19UtlLinkedListElem_tIS1_tEtEE10LinkBeforeEtt
__ZN14CUtlLinkedListIP9RecvTabletLb0Et10CUtlMemoryI19UtlLinkedListElem_tIS1_tEtEE13AllocInternalEb
__ZN14CUtlLinkedListIP9RecvTabletLb0Et10CUtlMemoryI19UtlLinkedListElem_tIS1_tEtEE5PurgeEv
__ZN14CUtlLinkedListIP9RecvTabletLb0Et10CUtlMemoryI19UtlLinkedListElem_tIS1_tEtEED1Ev
__ZN14CUtlLinkedListIP9RecvTabletLb0Et10CUtlMemoryI19UtlLinkedListElem_tIS1_tEtEED2Ev
__ZN14CUtlLinkedListIPN4vgui12ListViewItemEiLb0Ei10CUtlMemoryI19UtlLinkedListElem_tIS2_iEiEE13AllocInternalEb
__ZN14CUtlLinkedListIPN4vgui12ListViewItemEiLb0Ei10CUtlMemoryI19UtlLinkedListElem_tIS2_iEiEED2Ev
__ZN14CUtlLinkedListIPN4vgui21FastSortListPanelItemEiLb0Ei10CUtlMemoryI19UtlLinkedListElem_tIS2_iEiEE13AllocInternalEb
__ZN14CUtlLinkedListIPN4vgui21FastSortListPanelItemEiLb0Ei10CUtlMemoryI19UtlLinkedListElem_tIS2_iEiEED2Ev
__ZN14CUtlLinkedListIPN4vgui8MenuItemEiLb0Ei10CUtlMemoryI19UtlLinkedListElem_tIS2_iEiEE13AllocInternalEb
__ZN14CUtlLinkedListIPN4vgui8MenuItemEiLb0Ei10CUtlMemoryI19UtlLinkedListElem_tIS2_iEiEED2Ev
__ZN14CUtlLinkedListIPN4vgui8TreeNodeEiLb0Ei10CUtlMemoryI19UtlLinkedListElem_tIS2_iEiEE13AllocInternalEb
__ZN14CUtlLinkedListIPN4vgui8TreeNodeEiLb0Ei10CUtlMemoryI19UtlLinkedListElem_tIS2_iEiEED2Ev
__ZN14CUtlLinkedListIftLb0Et10CUtlMemoryI19UtlLinkedListElem_tIftEtEE10LinkBeforeEtt
__ZN14CUtlLinkedListIftLb0Et10CUtlMemoryI19UtlLinkedListElem_tIftEtEE13AllocInternalEb
__ZN14CUtlLinkedListIftLb0Et10CUtlMemoryI19UtlLinkedListElem_tIftEtEED2Ev
__ZN14CUtlLinkedListIiiLb0Ei10CUtlMemoryI19UtlLinkedListElem_tIiiEiEE13AllocInternalEb
__ZN14CUtlLinkedListItiLb1Ei15CUtlFixedMemoryI19UtlLinkedListElem_tItiEEE13AllocInternalEb
__ZN14CUtlLinkedListItiLb1Ei15CUtlFixedMemoryI19UtlLinkedListElem_tItiEEE6UnlinkEi
__ZN14CUtlLinkedListItiLb1Ei15CUtlFixedMemoryI19UtlLinkedListElem_tItiEEE9RemoveAllEv
__ZN14CUtlLinkedListIttLb0Et10CUtlMemoryI19UtlLinkedListElem_tIttEtEE10LinkBeforeEtt
__ZN14CUtlLinkedListIttLb0Et10CUtlMemoryI19UtlLinkedListElem_tIttEtEE13AllocInternalEb
__ZN14CUtlLinkedListIttLb0Et10CUtlMemoryI19UtlLinkedListElem_tIttEtEE5PurgeEv
__ZN14CUtlLinkedListIttLb0Et10CUtlMemoryI19UtlLinkedListElem_tIttEtEED2Ev
__ZN14CUtlLinkedListIttLb1Et10CUtlMemoryI19UtlLinkedListElem_tIttEtEE10LinkBeforeEtt
__ZN14CUtlLinkedListIttLb1Et10CUtlMemoryI19UtlLinkedListElem_tIttEtEE13AllocInternalEb
__ZN14CUtlLinkedListIttLb1Et10CUtlMemoryI19UtlLinkedListElem_tIttEtEE5PurgeEv
__ZN14CUtlLinkedListIttLb1Et10CUtlMemoryI19UtlLinkedListElem_tIttEtEED2Ev
__ZN14CUtlMemoryPool10AddNewBlobEv
__ZN14CUtlMemoryPool12g_ReportFuncE
__ZN14CUtlMemoryPool4FreeEPv
__ZN14CUtlMemoryPool5AllocEm
__ZN14CUtlMemoryPool5AllocEv
__ZN14CUtlMemoryPool5ClearEv
__ZN14CUtlMemoryPoolC1EiiiPKci
__ZN14CUtlMemoryPoolC2EiiiPKci
__ZN14CUtlMemoryPoolD1Ev
__ZN14CUtlMemoryPoolD2Ev
__ZN14CUtlSortVectorI11modelsize_t15CModelsize_Less10CUtlVectorIS0_10CUtlMemoryIS0_iEEE6InsertERKS0_
__ZN14CUtlSortVectorI16CSortedCacheFileS0_10CUtlVectorIS0_10CUtlMemoryIS0_iEEE12InsertNoSortERKS0_
__ZN14CUtlSortVectorI16CSortedCacheFileS0_10CUtlVectorIS0_10CUtlMemoryIS0_iEEE13CompareHelperEPKS0_S7_
__ZN14CUtlSortVectorI6VectorN21CCurvesColorOperation14CurvesLessFuncE10CUtlVectorIS0_10CUtlMemoryIS0_iEEE6InsertERKS0_
__ZN14CUtlSortVectorI9robject_t12CRobjectLess10CUtlVectorIS0_10CUtlMemoryIS0_iEEE12InsertNoSortERKS0_
__ZN14CUtlSortVectorI9robject_t12CRobjectLess10CUtlVectorIS0_10CUtlMemoryIS0_iEEE13CompareHelperEPKS0_S8_
__ZN14CUtlSortVectorIP13CDmxAttribute17CDmxAttributeLess10CUtlVectorIS1_10CUtlMemoryIS1_iEEE12InsertNoSortERKS1_
__ZN14CUtlSortVectorIP13CDmxAttribute17CDmxAttributeLess10CUtlVectorIS1_10CUtlMemoryIS1_iEEE13CompareHelperEPKS1_S9_
__ZN14CUtlSortVectorIP9KeyValues29CUtlSortVectorKeyValuesByName10CUtlVectorIS1_10CUtlMemoryIS1_iEEE13CompareHelperEPKS1_S9_
__ZN14CUtlSortVectorIi18WingedEdgeLessFunc10CUtlVectorIi10CUtlMemoryIiiEEE6InsertERKi
__ZN14CUtlSortVectorItN9CEdgeList8EdgeLessE10CUtlVectorIt10CUtlMemoryItiEEE6InsertERKt
__ZN14CUtlStringList16CopyAndAddToTailEPKc
__ZN14CVEngineServer10ChangeTeamEPKc
__ZN14CVEngineServer10GetGameDirEPci
__ZN14CVEngineServer10GetIServerEv
__ZN14CVEngineServer10IsMapValidEPKc
__ZN14CVEngineServer10LightStyleEiPKc
__ZN14CVEngineServer10MessageEndEv
__ZN14CVEngineServer10SolidMovedEP7edict_tP12ICollideablePK6Vectorb
__ZN14CVEngineServer11ChangeLevelEPKcS1_
__ZN14CVEngineServer11Con_NPrintfEiPKcz
__ZN14CVEngineServer11CreateEdictEi
__ZN14CVEngineServer11GetAreaBitsEiPhi
__ZN14CVEngineServer11RemoveEdictEP7edict_t
__ZN14CVEngineServer11StaticDecalERK6Vectoriiib
__ZN14CVEngineServer12ClearSaveDirEv
__ZN14CVEngineServer12ClientPrintfEP7edict_tPKc
__ZN14CVEngineServer12Con_NXPrintfEPK12con_nprint_sPKcz
__ZN14CVEngineServer12IndexOfEdictEPK7edict_t
__ZN14CVEngineServer12IsInEditModeEv
__ZN14CVEngineServer12TriggerMovedEP7edict_tb
__ZN14CVEngineServer13CheckBoxInPVSERK6VectorS2_PKhi
__ZN14CVEngineServer13ClientCommandEP7edict_tPKcz
__ZN14CVEngineServer13GetPlayerInfoEiP13player_info_s
__ZN14CVEngineServer13IsLowViolenceEv
__ZN14CVEngineServer13LoadGameStateEPKcb
__ZN14CVEngineServer13PrecacheDecalEPKcb
__ZN14CVEngineServer13PrecacheModelEPKcb
__ZN14CVEngineServer13ServerCommandEPKc
__ZN14CVEngineServer13ServerExecuteEv
__ZN14CVEngineServer14AddOriginToPVSERK6Vector
__ZN14CVEngineServer14CrosshairAngleEPK7edict_tff
__ZN14CVEngineServer14ForceExactFileEPKc
__ZN14CVEngineServer14GetEntityCountEv
__ZN14CVEngineServer14SaveFreeMemoryEPv
__ZN14CVEngineServer14SentenceLengthEi
__ZN14CVEngineServer14TextMessageGetEPKc
__ZN14CVEngineServer15CompareFileTimeEPKcS1_Pi
__ZN14CVEngineServer15GetClusterCountEv
__ZN14CVEngineServer15GetPlayerUserIdEPK7edict_t
__ZN14CVEngineServer15GetSaveFileNameEv
__ZN14CVEngineServer15PrecacheGenericEPKcb
__ZN14CVEngineServer15SaveAllocMemoryEmm
__ZN14CVEngineServer15SetPausedForcedEbf
__ZN14CVEngineServer16CheckOriginInPVSERK6VectorPKhi
__ZN14CVEngineServer16CreateFakeClientEPKc
__ZN14CVEngineServer16EmitAmbientSoundEiRK6VectorPKcf12soundlevel_tiif
__ZN14CVEngineServer16FadeClientVolumeEPK7edict_tffff
__ZN14CVEngineServer16ForceModelBoundsEPKcRK6VectorS4_
__ZN14CVEngineServer16GetClientSteamIDEP7edict_t
__ZN14CVEngineServer16GetGamestatsDataEv
__ZN14CVEngineServer16GetPVSForClusterEiiPh
__ZN14CVEngineServer16GetPlayerNetInfoEi
__ZN14CVEngineServer16LoadAdjacentEntsEPKcS1_
__ZN14CVEngineServer16SetGamestatsDataEP14CGamestatsData
__ZN14CVEngineServer16UserMessageBeginEP16IRecipientFilteri
__ZN14CVEngineServer17GetAchievementMgrEv
__ZN14CVEngineServer17GetChangeAccessorEPK7edict_t
__ZN14CVEngineServer17IsDedicatedServerEv
__ZN14CVEngineServer17PEntityOfEntIndexEi
__ZN14CVEngineServer17SentenceGroupPickEiPci
__ZN14CVEngineServer17SetAchievementMgrEP15IAchievementMgr
__ZN14CVEngineServer18CreateFakeClientExEPKcb
__ZN14CVEngineServer18EntityMessageBeginEiP11ServerClassb
__ZN14CVEngineServer18FreeEntPrivateDataEPv
__ZN14CVEngineServer18GetAreaPortalPlaneERK6VectoriP6VPlane
__ZN14CVEngineServer18IsInCommentaryModeEv
__ZN14CVEngineServer18IsPlayerNameLockedEPK7edict_t
__ZN14CVEngineServer18MultiplayerEndGameEv
__ZN14CVEngineServer18PlaybackTempEntityER16IRecipientFilterfPKvPK9SendTablei
__ZN14CVEngineServer18SetAreaPortalStateEii
__ZN14CVEngineServer19CanPlayerChangeNameEPK7edict_t
__ZN14CVEngineServer19CheckAreasConnectedEii
__ZN14CVEngineServer19DrawMapToScratchPadEP13IScratchPad3Dm
__ZN14CVEngineServer19ForceSimpleMaterialEPKc
__ZN14CVEngineServer19GetAllClusterBoundsEP6bbox_ti
__ZN14CVEngineServer19GetClusterForOriginERK6Vector
__ZN14CVEngineServer19InsertServerCommandEPKc
__ZN14CVEngineServer19SetAreaPortalStatesEPKiS1_i
__ZN14CVEngineServer19StartQueryCvarValueEP7edict_tPKc
__ZN14CVEngineServer20CheckHeadnodeVisibleEiPKhi
__ZN14CVEngineServer20GetClientConVarValueEiPKc
__ZN14CVEngineServer20GetGameServerSteamIDEv
__ZN14CVEngineServer20GetMapEntitiesStringEv
__ZN14CVEngineServer20PrecacheSentenceFileEPKcb
__ZN14CVEngineServer21PvAllocEntPrivateDataEl
__ZN14CVEngineServer21SentenceIndexFromNameEPKc
__ZN14CVEngineServer21SentenceNameFromIndexEi
__ZN14CVEngineServer22BuildEntityClusterListEP7edict_tP9PVSInfo_t
__ZN14CVEngineServer22ClientCommandKeyValuesEP7edict_tP9KeyValues
__ZN14CVEngineServer22CreateSpatialPartitionERK6VectorS2_
__ZN14CVEngineServer22NotifyEdictFlagsChangeEi
__ZN14CVEngineServer23DestroySpatialPartitionEP17ISpatialPartition
__ZN14CVEngineServer23LockNetworkStringTablesEb
__ZN14CVEngineServer24AllowImmediateEdictReuseEv
__ZN14CVEngineServer24CleanUpEntityClusterListEP9PVSInfo_t
__ZN14CVEngineServer24GetPlayerNetworkIDStringEPK7edict_t
__ZN14CVEngineServer24GetPrevCheckTransmitInfoEP7edict_t
__ZN14CVEngineServer24GetSharedEdictChangeInfoEv
__ZN14CVEngineServer24SetFakeClientConVarValueEP7edict_tPKcS3_
__ZN14CVEngineServer26IsClientFullyAuthenticatedEP7edict_t
__ZN14CVEngineServer26Message_CheckMessageLengthEv
__ZN14CVEngineServer26SentenceGroupIndexFromNameEPKc
__ZN14CVEngineServer26SentenceGroupNameFromIndexEi
__ZN14CVEngineServer27ClearSaveDirAfterClientLoadEv
__ZN14CVEngineServer27SentenceGroupPickSequentialEiPciii
__ZN14CVEngineServer29GetClientSteamIDByPlayerIndexEi
__ZN14CVEngineServer29GetMostRecentlyLoadedFileNameEv
__ZN14CVEngineServer30GetEntityTransmitBitsForClientEi
__ZN14CVEngineServer31SetDedicatedServerBenchmarkModeEb
__ZN14CVEngineServer36Message_DetermineMulticastRecipientsEbRK6VectorR7CBitVecILi255EE
__ZN14CVEngineServer4TimeEv
__ZN14CVEngineServer7FindMapEPci
__ZN14CVEngineServer7GetAreaERK6Vector
__ZN14CVEngineServer7SetViewEPK7edict_tS2_
__ZN14CVEngineServer8CopyFileEPKcS1_
__ZN14CVEngineServer8GetAppIDEv
__ZN14CVEngineServer8IsPausedEv
__ZN14CVEngineServer8LogPrintEPKc
__ZN14CVEngineServer8ResetPVSEPhi
__ZN14CVEngineServer9GetReplayEv
__ZN14CVEngineServer9ParseFileEPKcPci
__ZN14CVProfRecorder10PoolStringEPKc
__ZN14CVProfRecorder12Record_StartEPKc
__ZN14CVProfRecorder14DumpAverages_RER10CUtlVectorINS_12CNodeAverageE10CUtlMemoryIS1_iEEP10CVProfNode
__ZN14CVProfRecorder14Playback_StartEPKc
__ZN14CVProfRecorder15Record_SnapshotEv
__ZN14CVProfRecorder16Playback_AverageEi
__ZN14CVProfRecorder16UpdateAverages_RER10CUtlVectorINS_12CNodeAverageE10CUtlMemoryIS1_iEEP10CVProfNode
__ZN14CVProfRecorder17Playback_ReadTickEiPb
__ZN14CVProfRecorder18Record_MatchTree_REP10CVProfNodePKS0_P9CVProfile
__ZN14CVProfRecorder19FindVProfNodeByID_REP10CVProfNodei
__ZN14CVProfRecorder19Playback_ReadStringEPci
__ZN14CVProfRecorder20Playback_ReadAddNodeEv
__ZN14CVProfRecorder21Record_WriteTimings_REPK10CVProfNode
__ZN14CVProfRecorder22Playback_ReadTimings_REP10CVProfNode
__ZN14CVProfRecorder22Playback_SeekToPercentEf
__ZN14CVProfRecorder24Playback_SetPlaybackTickEi
__ZN14CVProfRecorder24Record_MatchBudgetGroupsEP9CVProfile
__ZN14CVProfRecorderD1Ev
__ZN14CVarBitVecBaseItE11ReallocIntsEi
__ZN14CVarBitVecBaseItE6ResizeEib
__ZN14ConCommandBase10CreateBaseEPKcS1_i
__ZN14ConCommandBase11s_pAccessorE
__ZN14ConCommandBase18s_pConCommandBasesE
__ZN14ConCommandBase4InitEv
__ZN14ConCommandBase7GetNextEv
__ZN14ConCommandBase8AddFlagsEi
__ZN14ConCommandBase8ShutdownEv
__ZN14FloatCubeMap_t9WritePFMsEPKc
__ZN14FloatCubeMap_tC2Eii
__ZN14MatchingProp_t8LessFuncERKS_S1_
__ZN14SAVELIGHTSTYLE9m_DataMapE
__ZN14SVC_ServerInfo13WriteToBufferER8bf_write
__ZN14SVC_ServerInfo14ReadFromBufferER7bf_read
__ZN14SVC_ServerInfo7ProcessEv
__ZN14SVC_ServerInfoD0Ev
__ZN14SVC_ServerInfoD1Ev
__ZN14decalcontext_t11InitSurfaceEP11msurface2_t
__ZN15CActiveChannels17GetActiveChannelsER12CChannelList
__ZN15CActiveChannels6RemoveEP9channel_t
__ZN15CAppSystemGroup10AddSystemsEP15AppSystemInfo_t
__ZN15CAppSystemGroup10FindSystemEPKc
__ZN15CAppSystemGroup10GetFactoryEv
__ZN15CAppSystemGroup10LoadModuleEPKc
__ZN15CAppSystemGroup10OnShutdownEv
__ZN15CAppSystemGroup11InitSystemsEv
__ZN15CAppSystemGroup13LoadModuleDLLEPKc
__ZN15CAppSystemGroup14ConnectSystemsEv
__ZN15CAppSystemGroup3RunEv
__ZN15CAppSystemGroup7StartupEv
__ZN15CAppSystemGroup8ShutdownEv
__ZN15CAppSystemGroup9AddSystemEiPKc
__ZN15CAppSystemGroupC2EPS_
__ZN15CAudioMixerWave11ModifyPitchEf
__ZN15CAudioMixerWave11SkipSamplesEP9channel_tiii
__ZN15CAudioMixerWave12IsReadyToMixEv
__ZN15CAudioMixerWave12SetSampleEndEi
__ZN15CAudioMixerWave13GetOutputDataEPPviPc
__ZN15CAudioMixerWave13LoadMixBufferEP9channel_tiPiPc
__ZN15CAudioMixerWave14GetVolumeScaleEv
__ZN15CAudioMixerWave14SetSampleStartEi
__ZN15CAudioMixerWave15MixDataToDeviceEP12IAudioDeviceP9channel_tiii
__ZN15CAudioMixerWave16MixDataToDevice_EP12IAudioDeviceP9channel_tiiib
__ZN15CAudioMixerWave17GetSamplePositionEv
__ZN15CAudioMixerWave18GetPositionForSaveEv
__ZN15CAudioMixerWave20SetPositionFromSavedEi
__ZN15CAudioMixerWave20ShouldContinueMixingEv
__ZN15CAudioMixerWave22SetStartupDelaySamplesEi
__ZN15CAudioMixerWave9GetSourceEv
__ZN15CAudioMixerWaveC2EP9IWaveData
__ZN15CAudioMixerWaveD0Ev
__ZN15CAudioMixerWaveD1Ev
__ZN15CAudioMixerWaveD2Ev
__ZN15CAudioSourceMP310IsPlayOnceEv
__ZN15CAudioSourceMP310SampleRateEv
__ZN15CAudioSourceMP310SampleSizeEv
__ZN15CAudioSourceMP311CacheUnloadEv
__ZN15CAudioSourceMP311GetFileNameEv
__ZN15CAudioSourceMP311GetSentenceEv
__ZN15CAudioSourceMP311IsAsyncLoadEv
__ZN15CAudioSourceMP311IsStereoWavEv
__ZN15CAudioSourceMP311IsStreamingEv
__ZN15CAudioSourceMP311SampleCountEv
__ZN15CAudioSourceMP311SetPlayOnceEb
__ZN15CAudioSourceMP311SetSentenceEP9CSentence
__ZN15CAudioSourceMP312GetCacheDataEP22CAudioSourceCachedInfo
__ZN15CAudioSourceMP312ReferenceAddEP11CAudioMixer
__ZN15CAudioSourceMP313IsVoiceSourceEv
__ZN15CAudioSourceMP314GetCacheStatusEv
__ZN15CAudioSourceMP314IsSentenceWordEv
__ZN15CAudioSourceMP315ReferenceRemoveEP11CAudioMixer
__ZN15CAudioSourceMP315SetSentenceWordEb
__ZN15CAudioSourceMP317ZeroCrossingAfterEi
__ZN15CAudioSourceMP318ZeroCrossingBeforeEi
__ZN15CAudioSourceMP320GetCachedDataPointerEv
__ZN15CAudioSourceMP321CheckAudioSourceCacheEv
__ZN15CAudioSourceMP322SampleToStreamPositionEi
__ZN15CAudioSourceMP322StreamToSamplePositionEi
__ZN15CAudioSourceMP36FormatEv
__ZN15CAudioSourceMP37GetTypeEv
__ZN15CAudioSourceMP38DataSizeEv
__ZN15CAudioSourceMP38IsLoopedEv
__ZN15CAudioSourceMP39CacheLoadEv
__ZN15CAudioSourceMP39CanDeleteEv
__ZN15CAudioSourceMP3C2EP9CSfxTable
__ZN15CAudioSourceMP3C2EP9CSfxTableP22CAudioSourceCachedInfo
__ZN15CAudioSourceMP3D0Ev
__ZN15CAudioSourceMP3D1Ev
__ZN15CBaseDemoAction10AddFactoryE10DEMOACTIONPFPS_vE
__ZN15CBaseDemoAction11NameForTypeE10DEMOACTION
__ZN15CBaseDemoAction11TypeForNameEPKc
__ZN15CBaseDemoAction12SaveToBufferEiiR10CUtlBuffer
__ZN15CBaseDemoAction12SetStartTickEi
__ZN15CBaseDemoAction12SetStartTimeEf
__ZN15CBaseDemoAction13SetActionNameEPKc
__ZN15CBaseDemoAction13SetTimingTypeE20DEMOACTIONTIMINGTYPE
__ZN15CBaseDemoAction14SetActionFiredEb
__ZN15CBaseDemoAction16AddEditorFactoryE10DEMOACTIONPFP21CBaseActionEditDialogP16CDemoEditorPanelPS_bE
__ZN15CBaseDemoAction16CreateDemoActionE10DEMOACTION
__ZN15CBaseDemoAction16HasEditorFactoryE10DEMOACTION
__ZN15CBaseDemoAction16OnActionFinishedEv
__ZN15CBaseDemoAction16SaveKeysToBufferEiR10CUtlBuffer
__ZN15CBaseDemoAction17NameForTimingTypeE20DEMOACTIONTIMINGTYPE
__ZN15CBaseDemoAction17SetFinishedActionEb
__ZN15CBaseDemoAction17TimingTypeForNameEPKc
__ZN15CBaseDemoAction18CreateActionEditorE10DEMOACTIONP16CDemoEditorPanelPS_b
__ZN15CBaseDemoAction4InitEP9KeyValues
__ZN15CBaseDemoAction5ResetEv
__ZN15CBaseDemoAction6UpdateERK23DemoActionTimingContext
__ZN15CBaseDemoAction7SetTypeE10DEMOACTION
__ZN15CBaseDemoAction9BufPrintfEiR10CUtlBufferPKcz
__ZN15CBaseDemoActionC2Ev
__ZN15CBaseDemoActionD0Ev
__ZN15CBaseDemoActionD1Ev
__ZN15CBaseDemoActionD2Ev
__ZN15CBaseDemoActiondlEPv
__ZN15CBaseDemoActionnwEm
__ZN15CCircularBuffer16GetReadAvailableEv
__ZN15CCircularBuffer4ReadEPvi
__ZN15CCircularBuffer5FlushEv
__ZN15CCircularBuffer5WriteEPvi
__ZN15CCircularBufferC2Ei
__ZN15CClientSendPropC1Ev
__ZN15CClientSendPropD1Ev
__ZN15CClockSpeedInit4InitEv
__ZN15CDatatableStack4InitEb
__ZN15CDatatableStackC2EP17CSendTablePrecalcPhi
__ZN15CDecalVertCache14FindFreeBlocksEi
__ZN15CDecalVertCache17StoreVertsInCacheEP7decal_tP10CDecalVert
__ZN15CDemoActionZoom10FireActionEv
__ZN15CDemoActionZoom16SaveKeysToBufferEiR10CUtlBuffer
__ZN15CDemoActionZoom4InitEP9KeyValues
__ZN15CDemoActionZoom6UpdateERK23DemoActionTimingContext
__ZN15CDemoActionZoomD0Ev
__ZN15CDemoActionZoomD1Ev
__ZN15CDownloadSystem20CreateDownloadThreadEP16RequestContext_t
__ZN15CDownloadSystemD0Ev
__ZN15CDownloadSystemD1Ev
__ZN15CEntityReadInfoD0Ev
__ZN15CEntityReadInfoD1Ev
__ZN15CHLTVTestSystem8RunFrameEv
__ZN15CHLTVTestSystem9StopsTestEv
__ZN15CHLTVTestSystemD1Ev
__ZN15CIVDebugOverlay13AddBoxOverlayERK6VectorS2_S2_RK6QAngleiiiif
__ZN15CIVDebugOverlay14AddBoxOverlay2ERK6VectorS2_S2_RK6QAngleRK5ColorS8_f
__ZN15CIVDebugOverlay14AddGridOverlayERK6Vector
__ZN15CIVDebugOverlay14AddLineOverlayERK6VectorS2_iiibf
__ZN15CIVDebugOverlay14AddTextOverlayERK6VectorfPKcz
__ZN15CIVDebugOverlay14AddTextOverlayERK6VectorifPKcz
__ZN15CIVDebugOverlay14ScreenPositionERK6VectorRS0_
__ZN15CIVDebugOverlay14ScreenPositionEffR6Vector
__ZN15CIVDebugOverlay16ClearAllOverlaysEv
__ZN15CIVDebugOverlay17AddTextOverlayRGBERK6VectorifffffPKcz
__ZN15CIVDebugOverlay17AddTextOverlayRGBERK6VectorifiiiiPKcz
__ZN15CIVDebugOverlay17ClearDeadOverlaysEv
__ZN15CIVDebugOverlay18AddSweptBoxOverlayERK6VectorS2_S2_S2_RK6QAngleiiiif
__ZN15CIVDebugOverlay18AddTriangleOverlayERK6VectorS2_S2_iiiibf
__ZN15CIVDebugOverlay19AddLineOverlayAlphaERK6VectorS2_iiiibf
__ZN15CIVDebugOverlay20AddEntityTextOverlayEiifiiiiPKcz
__ZN15CIVDebugOverlay20AddScreenTextOverlayEfffiiiiPKc
__ZN15CIVDebugOverlay20AddScreenTextOverlayEffifiiiiPKc
__ZN15CIVDebugOverlay7GetNextEP13OverlayText_t
__ZN15CIVDebugOverlay8GetFirstEv
__ZN15CKeyBindingsMgr17AddPanelToContextEN4vgui25KeyBindingContextHandle_tEPNS0_5PanelE
__ZN15CKeyBindingsMgr18GetKeyBindingsFileEN4vgui25KeyBindingContextHandle_tE
__ZN15CKeyBindingsMgr24GetKeyBindingsFilePathIDEN4vgui25KeyBindingContextHandle_tE
__ZN15CKeyBindingsMgr31KeyBindingContextHandleLessFuncERKNS_11KBContext_tES2_
__ZN15CKeyBindingsMgrD1Ev
__ZN15CLC_BaselineAck13WriteToBufferER8bf_write
__ZN15CLC_BaselineAck14ReadFromBufferER7bf_read
__ZN15CLC_BaselineAck7ProcessEv
__ZN15CLC_BaselineAckD0Ev
__ZN15CLC_BaselineAckD1Ev
__ZN15CLoaderProgress11EndProgressEv
__ZN15CLoaderProgress13BeginProgressEv
__ZN15CLoaderProgress14UpdateProgressEf
__ZN15CMDLCacheNotify12OnDataLoadedE18MDLCacheDataType_tt
__ZN15CMDLCacheNotify14OnDataUnloadedE18MDLCacheDataType_tt
__ZN15CMDLCacheNotify17ComputeModelFlagsEP7model_tt
__ZN15CMapListManager11RefreshListEv
__ZN15CMapListManager9BuildListEv
__ZN15CMapListManagerD1Ev
__ZN15CMapListManagerD2Ev
__ZN15CMemberFunctor0IP10CCallQueueM11CCallQueueTI8CTSQueueIP8CFunctorLb0EEEFvvE12CRefCounted1IS4_20CRefCountServiceBaseILb1E6CRefMTEE18CFuncMemPolicyNoneED0Ev
__ZN15CMemberFunctor0IP10CCallQueueM11CCallQueueTI8CTSQueueIP8CFunctorLb0EEEFvvE12CRefCounted1IS4_20CRefCountServiceBaseILb1E6CRefMTEE18CFuncMemPolicyNoneED1Ev
__ZN15CMemberFunctor0IP10CCallQueueM11CCallQueueTI8CTSQueueIP8CFunctorLb0EEEFvvE12CRefCounted1IS4_20CRefCountServiceBaseILb1E6CRefMTEE18CFuncMemPolicyNoneEclEv
__ZN15CMemberFunctor0IP11IFileSystemMS0_FvvE12CRefCounted1I8CFunctor20CRefCountServiceBaseILb1E6CRefMTEE18CFuncMemPolicyNoneED0Ev
__ZN15CMemberFunctor0IP11IFileSystemMS0_FvvE12CRefCounted1I8CFunctor20CRefCountServiceBaseILb1E6CRefMTEE18CFuncMemPolicyNoneED1Ev
__ZN15CMemberFunctor0IP11IFileSystemMS0_FvvE12CRefCounted1I8CFunctor20CRefCountServiceBaseILb1E6CRefMTEE18CFuncMemPolicyNoneEclEv
__ZN15CMemberFunctor0IP11IXboxSystemMS0_FvvE12CRefCounted1I8CFunctor20CRefCountServiceBaseILb1E6CRefMTEE18CFuncMemPolicyNoneED0Ev
__ZN15CMemberFunctor0IP11IXboxSystemMS0_FvvE12CRefCounted1I8CFunctor20CRefCountServiceBaseILb1E6CRefMTEE18CFuncMemPolicyNoneED1Ev
__ZN15CMemberFunctor0IP11IXboxSystemMS0_FvvE12CRefCounted1I8CFunctor20CRefCountServiceBaseILb1E6CRefMTEE18CFuncMemPolicyNoneEclEv
__ZN15CMemberFunctor0IP12CSaveRestoreMS0_FvvE12CRefCounted1I8CFunctor20CRefCountServiceBaseILb1E6CRefMTEE18CFuncMemPolicyNoneED0Ev
__ZN15CMemberFunctor0IP12CSaveRestoreMS0_FvvE12CRefCounted1I8CFunctor20CRefCountServiceBaseILb1E6CRefMTEE18CFuncMemPolicyNoneED1Ev
__ZN15CMemberFunctor0IP12CSaveRestoreMS0_FvvE12CRefCounted1I8CFunctor20CRefCountServiceBaseILb1E6CRefMTEE18CFuncMemPolicyNoneEclEv
__ZN15CMemberFunctor0IP15IMaterialSystemMS0_FvvE12CRefCounted1I8CFunctor20CRefCountServiceBaseILb1E6CRefMTEE18CFuncMemPolicyNoneED0Ev
__ZN15CMemberFunctor0IP15IMaterialSystemMS0_FvvE12CRefCounted1I8CFunctor20CRefCountServiceBaseILb1E6CRefMTEE18CFuncMemPolicyNoneED1Ev
__ZN15CMemberFunctor0IP15IMaterialSystemMS0_FvvE12CRefCounted1I8CFunctor20CRefCountServiceBaseILb1E6CRefMTEE18CFuncMemPolicyNoneEclEv
__ZN15CMemberFunctor0IP18CParallelProcessorI10PackWork_t21CFuncJobItemProcessorIS1_EEMS4_FvvE12CRefCounted1I8CFunctor20CRefCountServiceBaseILb1E6CRefMTEE18CFuncMemPolicyNoneED0Ev
__ZN15CMemberFunctor0IP18CParallelProcessorI10PackWork_t21CFuncJobItemProcessorIS1_EEMS4_FvvE12CRefCounted1I8CFunctor20CRefCountServiceBaseILb1E6CRefMTEE18CFuncMemPolicyNoneED1Ev
__ZN15CMemberFunctor0IP18CParallelProcessorI10PackWork_t21CFuncJobItemProcessorIS1_EEMS4_FvvE12CRefCounted1I8CFunctor20CRefCountServiceBaseILb1E6CRefMTEE18CFuncMemPolicyNoneEclEv
__ZN15CMemberFunctor0IP18CParallelProcessorIP11CGameClient21CFuncJobItemProcessorIS2_EEMS5_FvvE12CRefCounted1I8CFunctor20CRefCountServiceBaseILb1E6CRefMTEE18CFuncMemPolicyNoneED0Ev
__ZN15CMemberFunctor0IP18CParallelProcessorIP11CGameClient21CFuncJobItemProcessorIS2_EEMS5_FvvE12CRefCounted1I8CFunctor20CRefCountServiceBaseILb1E6CRefMTEE18CFuncMemPolicyNoneED1Ev
__ZN15CMemberFunctor0IP18CParallelProcessorIP11CGameClient21CFuncJobItemProcessorIS2_EEMS5_FvvE12CRefCounted1I8CFunctor20CRefCountServiceBaseILb1E6CRefMTEE18CFuncMemPolicyNoneEclEv
__ZN15CMemberFunctor1IP12CModelRenderM23CManagedDataCacheClientI14CColorMeshData17colormeshparams_tPS3_EFiP13memhandle_t__ES8_12CRefCounted1I8CFunctor20CRefCountServiceBaseILb1E6CRefMTEE18CFuncMemPolicyNoneED0Ev
__ZN15CMemberFunctor1IP12CModelRenderM23CManagedDataCacheClientI14CColorMeshData17colormeshparams_tPS3_EFiP13memhandle_t__ES8_12CRefCounted1I8CFunctor20CRefCountServiceBaseILb1E6CRefMTEE18CFuncMemPolicyNoneED1Ev
__ZN15CMemberFunctor1IP12CModelRenderM23CManagedDataCacheClientI14CColorMeshData17colormeshparams_tPS3_EFiP13memhandle_t__ES8_12CRefCounted1I8CFunctor20CRefCountServiceBaseILb1E6CRefMTEE18CFuncMemPolicyNoneEclEv
__ZN15CMemberFunctor1IP12CSaveRestoreMS0_FvbEb12CRefCounted1I8CFunctor20CRefCountServiceBaseILb1E6CRefMTEE18CFuncMemPolicyNoneED0Ev
__ZN15CMemberFunctor1IP12CSaveRestoreMS0_FvbEb12CRefCounted1I8CFunctor20CRefCountServiceBaseILb1E6CRefMTEE18CFuncMemPolicyNoneED1Ev
__ZN15CMemberFunctor1IP12CSaveRestoreMS0_FvbEb12CRefCounted1I8CFunctor20CRefCountServiceBaseILb1E6CRefMTEE18CFuncMemPolicyNoneEclEv
__ZN15CMemberFunctor3IP11CBugUIPanelMS0_FbPKcS3_bE12CUtlEnvelopeIS3_ES7_b12CRefCounted1I8CFunctor20CRefCountServiceBaseILb1E6CRefMTEE18CFuncMemPolicyNoneEC2ES1_S5_RKS7_SH_RKb
__ZN15CMemberFunctor3IP11CBugUIPanelMS0_FbPKcS3_bE12CUtlEnvelopeIS3_ES7_b12CRefCounted1I8CFunctor20CRefCountServiceBaseILb1E6CRefMTEE18CFuncMemPolicyNoneED0Ev
__ZN15CMemberFunctor3IP11CBugUIPanelMS0_FbPKcS3_bE12CUtlEnvelopeIS3_ES7_b12CRefCounted1I8CFunctor20CRefCountServiceBaseILb1E6CRefMTEE18CFuncMemPolicyNoneED1Ev
__ZN15CMemberFunctor3IP11CBugUIPanelMS0_FbPKcS3_bE12CUtlEnvelopeIS3_ES7_b12CRefCounted1I8CFunctor20CRefCountServiceBaseILb1E6CRefMTEE18CFuncMemPolicyNoneEclEv
__ZN15CMemberFunctor3IP12CSaveRestoreMS0_FvPKcS3_bE12CUtlEnvelopeIS3_ES7_b12CRefCounted1I8CFunctor20CRefCountServiceBaseILb1E6CRefMTEE18CFuncMemPolicyNoneEC2ES1_S5_RKS7_SH_RKb
__ZN15CMemberFunctor3IP12CSaveRestoreMS0_FvPKcS3_bE12CUtlEnvelopeIS3_ES7_b12CRefCounted1I8CFunctor20CRefCountServiceBaseILb1E6CRefMTEE18CFuncMemPolicyNoneED0Ev
__ZN15CMemberFunctor3IP12CSaveRestoreMS0_FvPKcS3_bE12CUtlEnvelopeIS3_ES7_b12CRefCounted1I8CFunctor20CRefCountServiceBaseILb1E6CRefMTEE18CFuncMemPolicyNoneED1Ev
__ZN15CMemberFunctor3IP12CSaveRestoreMS0_FvPKcS3_bE12CUtlEnvelopeIS3_ES7_b12CRefCounted1I8CFunctor20CRefCountServiceBaseILb1E6CRefMTEE18CFuncMemPolicyNoneEclEv
__ZN15CMemberFunctor3IP12CSaveRestoreMS0_FvPKcibE12CUtlEnvelopeIS3_Eib12CRefCounted1I8CFunctor20CRefCountServiceBaseILb1E6CRefMTEE18CFuncMemPolicyNoneED0Ev
__ZN15CMemberFunctor3IP12CSaveRestoreMS0_FvPKcibE12CUtlEnvelopeIS3_Eib12CRefCounted1I8CFunctor20CRefCountServiceBaseILb1E6CRefMTEE18CFuncMemPolicyNoneED1Ev
__ZN15CMemberFunctor3IP12CSaveRestoreMS0_FvPKcibE12CUtlEnvelopeIS3_Eib12CRefCounted1I8CFunctor20CRefCountServiceBaseILb1E6CRefMTEE18CFuncMemPolicyNoneEclEv
__ZN15CMemberFunctor6IP22ISaveRestoreFileSystemMS0_F15FSAsyncStatus_tPKcPKvibbPP18FSAsyncControl_t__E12CUtlEnvelopeIS4_EPvibbS9_12CRefCounted1I8CFunctor20CRefCountServiceBaseILb1E6CRefMTEE18CFuncMemPolicyNoneED0Ev
__ZN15CMemberFunctor6IP22ISaveRestoreFileSystemMS0_F15FSAsyncStatus_tPKcPKvibbPP18FSAsyncControl_t__E12CUtlEnvelopeIS4_EPvibbS9_12CRefCounted1I8CFunctor20CRefCountServiceBaseILb1E6CRefMTEE18CFuncMemPolicyNoneED1Ev
__ZN15CMemberFunctor6IP22ISaveRestoreFileSystemMS0_F15FSAsyncStatus_tPKcPKvibbPP18FSAsyncControl_t__E12CUtlEnvelopeIS4_EPvibbS9_12CRefCounted1I8CFunctor20CRefCountServiceBaseILb1E6CRefMTEE18CFuncMemPolicyNoneEclEv
__ZN15CMemberFunctor6IP22ISaveRestoreFileSystemMS0_F15FSAsyncStatus_tPKcPKvibbPP18FSAsyncControl_t__E12CUtlEnvelopeIS4_EPvjbbS9_12CRefCounted1I8CFunctor20CRefCountServiceBaseILb1E6CRefMTEE18CFuncMemPolicyNoneED0Ev
__ZN15CMemberFunctor6IP22ISaveRestoreFileSystemMS0_F15FSAsyncStatus_tPKcPKvibbPP18FSAsyncControl_t__E12CUtlEnvelopeIS4_EPvjbbS9_12CRefCounted1I8CFunctor20CRefCountServiceBaseILb1E6CRefMTEE18CFuncMemPolicyNoneED1Ev
__ZN15CMemberFunctor6IP22ISaveRestoreFileSystemMS0_F15FSAsyncStatus_tPKcPKvibbPP18FSAsyncControl_t__E12CUtlEnvelopeIS4_EPvjbbS9_12CRefCounted1I8CFunctor20CRefCountServiceBaseILb1E6CRefMTEE18CFuncMemPolicyNoneEclEv
__ZN15CSmallTextEntry10GetAnimMapEv
__ZN15CSmallTextEntry13GetMessageMapEv
__ZN15CSmallTextEntry17GetPanelClassNameEv
__ZN15CSmallTextEntry19ApplySchemeSettingsEPN4vgui7ISchemeE
__ZN15CSmallTextEntry8GetKBMapEv
__ZN15CSmallTextEntryC1EPN4vgui5PanelEPKc
__ZN15CSmallTextEntryD0Ev
__ZN15CSmallTextEntryD1Ev
__ZN15CStringProperty15InitFromDefaultEPN4vgui5PanelEP22PanelAnimationMapEntry
__ZN15CStringProperty7GetDataEPN4vgui5PanelEP9KeyValuesP22PanelAnimationMapEntry
__ZN15CStringProperty7SetDataEPN4vgui5PanelEP9KeyValuesP22PanelAnimationMapEntry
__ZN15CThreadLocalIntIiED1Ev
__ZN15CThreadLocalIntIjED1Ev
__ZN15CTier2AppSystemI19IDedicatedServerAPILi0EE4InitEv
__ZN15CTier2AppSystemI19IDedicatedServerAPILi0EE8ShutdownEv
__ZN15CTraceFilterDAS15ShouldHitEntityEP13IHandleEntityi
__ZN15CUtlBinaryBlock3SetEPKvi
__ZN15CUtlBinaryBlock9SetLengthEi
__ZN15CUtlBinaryBlockC1Eii
__ZN15CUtlHandleTableIN4vgui10BuildGroupELi20EE9AddHandleEv
__ZN15CUtlHandleTableIN4vgui10BuildGroupELi20EED1Ev
__ZN15CUtlSymbolTable9AddStringEPKc
__ZN15CUtlSymbolTable9RemoveAllEv
__ZN15CUtlSymbolTableC1Eiib
__ZN15CUtlSymbolTableC2Eiib
__ZN15CUtlSymbolTableD1Ev
__ZN15CUtlSymbolTableD2Ev
__ZN15CVirtualTerrain14GetVirtualMeshEPvP17virtualmeshlist_t
__ZN15CVirtualTerrain19GetWorldspaceBoundsEPvP6VectorS2_
__ZN15CVirtualTerrain20GetTrianglesInSphereEPvRK6VectorfP25virtualmeshtrianglelist_t
__ZN15CVirtualTerrain9LevelInitEP11dphysdisp_ti
__ZN15CVirtualTerrainD1Ev
__ZN15CWingedEdgeList10AddSurfaceERK8cplane_t
__ZN15CWingedEdgeList18QueueVisualizationEPh
__ZN15CWingedEdgeList19IsOccludingEdgeListERS_
__ZN15CWingedEdgeList21AdvanceActiveEdgeListEf
__ZN15CWingedEdgeList25IsOccludingActiveEdgeListERS_f
__ZN15CWingedEdgeListD1Ev
__ZN15LightingState_t16HasAmbientColorsEv
__ZN15MM_JoinResponse13WriteToBufferER8bf_write
__ZN15MM_JoinResponse14ReadFromBufferER7bf_read
__ZN15MM_JoinResponse7ProcessEv
__ZN15MM_JoinResponseD0Ev
__ZN15MM_JoinResponseD1Ev
__ZN15MatViewOverride13ViewParamsReqD1Ev
__ZN15MatViewOverride14ViewParamsLastD1Ev
__ZN15MatViewOverride15s_viewParamsReqE
__ZN15MatViewOverride16s_viewParamsLastE
__ZN15MatViewOverride23DisplaySelectedTexturesEv
__ZN15NET_SignonState13WriteToBufferER8bf_write
__ZN15NET_SignonState14ReadFromBufferER7bf_read
__ZN15NET_SignonState7ProcessEv
__ZN15NET_SignonStateD0Ev
__ZN15NET_SignonStateD1Ev
__ZN15SVC_UserMessage13WriteToBufferER8bf_write
__ZN15SVC_UserMessage14ReadFromBufferER7bf_read
__ZN15SVC_UserMessage7ProcessEv
__ZN15SVC_UserMessageD0Ev
__ZN15SVC_UserMessageD1Ev
__ZN15SendQueueItem_tC2Ev
__ZN15VTFFileHeader_t9m_DataMapE
__ZN15demosmoothing_taSERKS_
__ZN15sentencegroup_t13s_SymbolTableE
__ZN16CAskConnectPanel10GetAnimMapEv
__ZN16CAskConnectPanel11SetHostNameEPKc
__ZN16CAskConnectPanel13ApplySettingsEP9KeyValues
__ZN16CAskConnectPanel13GetMessageMapEv
__ZN16CAskConnectPanel17GetPanelClassNameEv
__ZN16CAskConnectPanel18s_pAskConnectPanelE
__ZN16CAskConnectPanel19ApplySchemeSettingsEPN4vgui7ISchemeE
__ZN16CAskConnectPanel19StartSlideAnimationEf
__ZN16CAskConnectPanel6OnTickEv
__ZN16CAskConnectPanel8GetKBMapEv
__ZN16CAskConnectPanelC1Ej
__ZN16CAskConnectPanelD0Ev
__ZN16CAskConnectPanelD1Ev
__ZN16CAudioDeviceBase10IsSurroundEv
__ZN16CAudioDeviceBase11IsHeadphoneEv
__ZN16CAudioDeviceBase16IsSurroundCenterEv
__ZN16CAudioDeviceNull10DeviceNameEv
__ZN16CAudioDeviceNull10IsSurroundEv
__ZN16CAudioDeviceNull10Mix8StereoEP9channel_tPciijii
__ZN16CAudioDeviceNull10PaintBeginEfii
__ZN16CAudioDeviceNull11ClearBufferEv
__ZN16CAudioDeviceNull11IsHeadphoneEv
__ZN16CAudioDeviceNull11Mix16StereoEP9channel_tPsiijii
__ZN16CAudioDeviceNull11MixUpsampleEii
__ZN16CAudioDeviceNull11Should3DMixEv
__ZN16CAudioDeviceNull12ChannelResetEiif
__ZN16CAudioDeviceNull12MixDryVolumeEv
__ZN16CAudioDeviceNull13StopAllSoundsEv
__ZN16CAudioDeviceNull14DeviceChannelsEv
__ZN16CAudioDeviceNull14DeviceDmaSpeedEv
__ZN16CAudioDeviceNull14UpdateListenerERK6VectorS2_S2_S2_
__ZN16CAudioDeviceNull15ApplyDSPEffectsEiP21portable_samplepair_tS1_S1_i
__ZN16CAudioDeviceNull15TransferSamplesEi
__ZN16CAudioDeviceNull16DeviceSampleBitsEv
__ZN16CAudioDeviceNull16IsSurroundCenterEv
__ZN16CAudioDeviceNull17DeviceSampleBytesEv
__ZN16CAudioDeviceNull17DeviceSampleCountEv
__ZN16CAudioDeviceNull17GetOutputPositionEv
__ZN16CAudioDeviceNull17SpatializeChannelEPiiRK6Vectorff
__ZN16CAudioDeviceNull4InitEv
__ZN16CAudioDeviceNull5PauseEv
__ZN16CAudioDeviceNull7UnPauseEv
__ZN16CAudioDeviceNull8IsActiveEv
__ZN16CAudioDeviceNull8Mix8MonoEP9channel_tPciijii
__ZN16CAudioDeviceNull8MixBeginEi
__ZN16CAudioDeviceNull8PaintEndEv
__ZN16CAudioDeviceNull8ShutdownEv
__ZN16CAudioDeviceNull9Mix16MonoEP9channel_tPsiijii
__ZN16CAudioDeviceNullD0Ev
__ZN16CAudioDeviceNullD1Ev
__ZN16CAudioSourceWave10IsPlayOnceEv
__ZN16CAudioSourceWave10ParseChunkER11IterateRIFFi
__ZN16CAudioSourceWave10SampleRateEv
__ZN16CAudioSourceWave10SampleSizeEv
__ZN16CAudioSourceWave11CacheUnloadEv
__ZN16CAudioSourceWave11GetFileNameEv
__ZN16CAudioSourceWave11GetSentenceEv
__ZN16CAudioSourceWave11IsAsyncLoadEv
__ZN16CAudioSourceWave11IsStereoWavEv
__ZN16CAudioSourceWave11IsStreamingEv
__ZN16CAudioSourceWave11SampleCountEv
__ZN16CAudioSourceWave11SetPlayOnceEb
__ZN16CAudioSourceWave12GetCacheDataEP22CAudioSourceCachedInfo
__ZN16CAudioSourceWave12ReferenceAddEP11CAudioMixer
__ZN16CAudioSourceWave13IsVoiceSourceEv
__ZN16CAudioSourceWave13ParseSentenceER11IterateRIFF
__ZN16CAudioSourceWave14GetCacheStatusEv
__ZN16CAudioSourceWave14GetStartupDataEPviRi
__ZN16CAudioSourceWave14IsSentenceWordEv
__ZN16CAudioSourceWave15ReferenceRemoveEP11CAudioMixer
__ZN16CAudioSourceWave15SetSentenceWordEb
__ZN16CAudioSourceWave17ZeroCrossingAfterEi
__ZN16CAudioSourceWave18ZeroCrossingBeforeEi
__ZN16CAudioSourceWave20GetCachedDataPointerEv
__ZN16CAudioSourceWave21CheckAudioSourceCacheEv
__ZN16CAudioSourceWave21ConvertLoopedPositionEi
__ZN16CAudioSourceWave22SampleToStreamPositionEi
__ZN16CAudioSourceWave22StreamToSamplePositionEi
__ZN16CAudioSourceWave4InitEPKci
__ZN16CAudioSourceWave5SetupEPKciR11IterateRIFF
__ZN16CAudioSourceWave6FormatEv
__ZN16CAudioSourceWave7GetTypeEv
__ZN16CAudioSourceWave8DataSizeEv
__ZN16CAudioSourceWave8IsLoopedEv
__ZN16CAudioSourceWave9CacheLoadEv
__ZN16CAudioSourceWave9CanDeleteEv
__ZN16CAudioSourceWave9GetHeaderEv
__ZN16CAudioSourceWaveC2EP9CSfxTable
__ZN16CAudioSourceWaveC2EP9CSfxTableP22CAudioSourceCachedInfo
__ZN16CAudioSourceWaveD0Ev
__ZN16CAudioSourceWaveD1Ev
__ZN16CAudioSourceWaveD2Ev
__ZN16CBaseBudgetPanel13PerformLayoutEv
__ZN16CBaseBudgetPanel15PaintBackgroundEv
__ZN16CBaseBudgetPanel16SetTimeLabelTextEv
__ZN16CBaseBudgetPanel19ApplySchemeSettingsEPN4vgui7ISchemeE
__ZN16CBaseBudgetPanel19OnConfigDataChangedERK22CBudgetPanelConfigData
__ZN16CBaseBudgetPanel19SetHistoryLabelTextEv
__ZN16CBaseBudgetPanel21GetBudgetGroupPercentEf
__ZN16CBaseBudgetPanel34ClearTimesForAllGroupsForThisFrameEv
__ZN16CBaseBudgetPanel36GetGraphLabelScreenSpaceTopAndBottomEiRiS0_
__ZN16CBaseBudgetPanel5PaintEv
__ZN16CBaseBudgetPanel7RebuildERK22CBudgetPanelConfigData
__ZN16CBaseBudgetPanel8ResetAllEv
__ZN16CBaseBudgetPanelC2EPN4vgui5PanelEPKc
__ZN16CBaseBudgetPanelD0Ev
__ZN16CBaseBudgetPanelD1Ev
__ZN16CBaseBudgetPanelD2Ev
__ZN16CBaseClientState10DisconnectEPKcb
__ZN16CBaseClientState10FileDeniedEPKcj
__ZN16CBaseClientState11FullConnectER8netadr_s
__ZN16CBaseClientState11LinkClassesEv
__ZN16CBaseClientState11PacketStartEii
__ZN16CBaseClientState11ProcessMenuEP8SVC_Menu
__ZN16CBaseClientState11ProcessTickEP8NET_Tick
__ZN16CBaseClientState12FileReceivedEPKcj
__ZN16CBaseClientState12GetCDKeyHashEv
__ZN16CBaseClientState12ProcessPrintEP9SVC_Print
__ZN16CBaseClientState13FileRequestedEPKcj
__ZN16CBaseClientState13GetClientNameEv
__ZN16CBaseClientState13SendStringCmdEPKc
__ZN16CBaseClientState14CheckForResendEv
__ZN16CBaseClientState14GetClientClassEi
__ZN16CBaseClientState14ProcessSetViewEP11SVC_SetView
__ZN16CBaseClientState14SetSignonStateEii
__ZN16CBaseClientState15ConnectionStartEP11INetChannel
__ZN16CBaseClientState15FindClientClassEPKc
__ZN16CBaseClientState15ForceFullUpdateEv
__ZN16CBaseClientState15ProcessSetPauseEP12SVC_SetPause
__ZN16CBaseClientState16GetClassBaselineEiPPKvPi
__ZN16CBaseClientState16ProcessClassInfoEP13SVC_ClassInfo
__ZN16CBaseClientState16ProcessSendTableEP13SVC_SendTable
__ZN16CBaseClientState16ProcessSetConVarEP13NET_SetConVar
__ZN16CBaseClientState16ProcessStringCmdEP13NET_StringCmd
__ZN16CBaseClientState17ConnectionClosingEPKc
__ZN16CBaseClientState17ConnectionCrashedEPKc
__ZN16CBaseClientState17GetEntityBaselineEii
__ZN16CBaseClientState17ProcessServerInfoEP14SVC_ServerInfo
__ZN16CBaseClientState17SendConnectPacketEiiyb
__ZN16CBaseClientState17SetEntityBaselineEiP11ClientClassiPci
__ZN16CBaseClientState18CopyEntityBaselineEii
__ZN16CBaseClientState18ProcessSignonStateEP15NET_SignonState
__ZN16CBaseClientState18ReadPacketEntitiesER15CEntityReadInfo
__ZN16CBaseClientState19ProcessCmdKeyValuesEP16SVC_CmdKeyValues
__ZN16CBaseClientState19ProcessGetCvarValueEP16SVC_GetCvarValue
__ZN16CBaseClientState20ProcessGameEventListEP17SVC_GameEventList
__ZN16CBaseClientState20ProcessSetPauseTimedEP17SVC_SetPauseTimed
__ZN16CBaseClientState21HookClientStringTableEPKc
__ZN16CBaseClientState21ProcessPacketEntitiesEP18SVC_PacketEntities
__ZN16CBaseClientState24ProcessCreateStringTableEP21SVC_CreateStringTable
__ZN16CBaseClientState24ProcessUpdateStringTableEP21SVC_UpdateStringTable
__ZN16CBaseClientState26InstallStringTableCallbackEPKc
__ZN16CBaseClientState27PrepareSteamConnectResponseEybRK8netadr_sR8bf_write
__ZN16CBaseClientState27ProcessConnectionlessPacketEP11netpacket_s
__ZN16CBaseClientState28ConnectMethodAllowsRedirectsEv
__ZN16CBaseClientState32IsClientConnectionViaMatchMakingEv
__ZN16CBaseClientState5ClearEv
__ZN16CBaseClientState7ConnectEPKcS1_
__ZN16CBaseClientState8FileSentEPKcj
__ZN16CBaseClientState8RunFrameEv
__ZN16CBaseClientState9PacketEndEv
__ZN16CBaseClientStateC2Ev
__ZN16CBaseClientStateD0Ev
__ZN16CBaseClientStateD1Ev
__ZN16CBaseClientStateD2Ev
__ZN16CBrushConvexInfo11GetContentsEi
__ZN16CChangeFrameList11GetNumPropsEv
__ZN16CChangeFrameList13SetChangeTickEPKiii
__ZN16CChangeFrameList24GetPropsChangedAfterTickEiPii
__ZN16CChangeFrameList4CopyEv
__ZN16CChangeFrameList7ReleaseEv
__ZN16CChangeFrameListD0Ev
__ZN16CChangeFrameListD1Ev
__ZN16CChannelCullList10InitializeER12CChannelList
__ZN16CClassMemoryPoolI16PropLightcache_tE5ClearEv
__ZN16CClassMemoryPoolI16PropLightcache_tED1Ev
__ZN16CClassMemoryPoolI17PanelAnimationMapE5ClearEv
__ZN16CClassMemoryPoolI7decal_tED1Ev
__ZN16CClassMemoryPoolI9CSfxTableE5ClearEv
__ZN16CClassMemoryPoolI9CSfxTableED1Ev
__ZN16CClientSendTableC1Ev
__ZN16CClientSendTableD1Ev
__ZN16CClientSendTableD2Ev
__ZN16CCommonHostState13SetWorldModelEP7model_t
__ZN16CCoreDispSurface15SetNeighborDataEPK13CDispNeighborPK20CDispCornerNeighbors
__ZN16CCoreDispSurface19AdjustSurfPointDataEv
__ZN16CCoreDispSurface23FindSurfPointStartIndexEv
__ZN16CDataManagerBase12CreateHandleEb
__ZN16CDataManagerBase12LockResourceEP13memhandle_t__
__ZN16CDataManagerBase14EnsureCapacityEj
__ZN16CDataManagerBase14UnlockResourceEP13memhandle_t__
__ZN16CDataManagerBase15DestroyResourceEP13memhandle_t__
__ZN16CDataManagerBase17GetForFreeByIndexEt
__ZN16CDataManagerBase21StoreResourceInHandleEtPvj
__ZN16CDataManagerBase4LockEv
__ZN16CDataManagerBase6UnlockEv
__ZN16CDataManagerBase7TryLockEv
__ZN16CDataManagerBase8FlushAllEv
__ZN16CDataManagerBase9BreakLockEP13memhandle_t__
__ZN16CDataManagerBaseC2Ej
__ZN16CDataManagerBaseD0Ev
__ZN16CDataManagerBaseD1Ev
__ZN16CDataManagerBaseD2Ev
__ZN16CDebugMenuButtonC1EPN4vgui5PanelEPKcS4_
__ZN16CDebugMenuButtonD0Ev
__ZN16CDebugMenuButtonD1Ev
__ZN16CDefaultAccessor22RegisterConCommandBaseEP14ConCommandBase
__ZN16CDemoEditorPanel10GetAnimMapEv
__ZN16CDemoEditorPanel12OnVDMChangedEv
__ZN16CDemoEditorPanel13GetMessageMapEv
__ZN16CDemoEditorPanel15CreateNewActionEPKc
__ZN16CDemoEditorPanel17GetPanelClassNameEv
__ZN16CDemoEditorPanel18PopulateActionListEv
__ZN16CDemoEditorPanel6OnEditEv
__ZN16CDemoEditorPanel6OnTickEv
__ZN16CDemoEditorPanel8GetKBMapEv
__ZN16CDemoEditorPanel8OnDeleteEv
__ZN16CDemoEditorPanel9OnCommandEPKc
__ZN16CDemoEditorPanel9OnRefreshEv
__ZN16CDemoEditorPanelC1EPN4vgui5PanelE
__ZN16CDemoEditorPanelD0Ev
__ZN16CDemoEditorPanelD1Ev
__ZN16CDispLeafBuilder13WriteLeafListEPt
__ZN16CDispLeafBuilder28BuildLeafListForDisplacementEi
__ZN16CDispLeafBuilderC2EP17CCollisionBSPData
__ZN16CDownloadManager10OnHttpDoneEP16RequestContext_t
__ZN16CDownloadManager11OnHttpErrorEP16RequestContext_t
__ZN16CDownloadManager11OnHttpFetchEP16RequestContext_t
__ZN16CDownloadManager12SetupURLPathEP16RequestContext_tPKc
__ZN16CDownloadManager13QueueInternalEPKcS1_S1_bb
__ZN16CDownloadManager14SetupServerURLEP16RequestContext_t
__ZN16CDownloadManager16OnHttpConnectingEP16RequestContext_t
__ZN16CDownloadManager16StartNewDownloadEv
__ZN16CDownloadManager17NewRequestContextEv
__ZN16CDownloadManager17UpdateProgressBarEv
__ZN16CDownloadManager19CheckActiveDownloadEv
__ZN16CDownloadManager22PruneCompletedRequestsEv
__ZN16CDownloadManager35ShouldAttemptCompressedFileDownloadEv
__ZN16CDownloadManager5QueueEPKcS1_S1_
__ZN16CDownloadManager5ResetEv
__ZN16CDownloadManager6UpdateEv
__ZN16CDownloadManagerD1Ev
__ZN16CDownloadManagerD2Ev
__ZN16CEnginePerfTools25InstallPerformanceToolsUIEPN4vgui5PanelE
__ZN16CEnginePerfTools4InitEv
__ZN16CEnginePerfTools8ShutdownEv
__ZN16CEntityWriteInfoD0Ev
__ZN16CEntityWriteInfoD1Ev
__ZN16CHLTVClientState10SendPacketEv
__ZN16CHLTVClientState11ProcessMenuEP8SVC_Menu
__ZN16CHLTVClientState11UpdateStatsEv
__ZN16CHLTVClientState12GetCDKeyHashEv
__ZN16CHLTVClientState12ReadDeltaEntER15CEntityReadInfo
__ZN16CHLTVClientState12ReadEnterPVSER15CEntityReadInfo
__ZN16CHLTVClientState12ReadLeavePVSER15CEntityReadInfo
__ZN16CHLTVClientState13CopyNewEntityER15CEntityReadInfoii
__ZN16CHLTVClientState13GetClientNameEv
__ZN16CHLTVClientState13ProcessSoundsEP10SVC_Sounds
__ZN16CHLTVClientState13ReadDeletionsER15CEntityReadInfo
__ZN16CHLTVClientState14ProcessSetViewEP11SVC_SetView
__ZN16CHLTVClientState14SendClientInfoEv
__ZN16CHLTVClientState14SetSignonStateEii
__ZN16CHLTVClientState15ProcessBSPDecalEP12SVC_BSPDecal
__ZN16CHLTVClientState15ProcessFixAngleEP12SVC_FixAngle
__ZN16CHLTVClientState15ProcessPrefetchEP12SVC_Prefetch
__ZN16CHLTVClientState15ReadPreserveEntER15CEntityReadInfo
__ZN16CHLTVClientState16ProcessClassInfoEP13SVC_ClassInfo
__ZN16CHLTVClientState16ProcessGameEventEP13SVC_GameEvent
__ZN16CHLTVClientState16ProcessSetConVarEP13NET_SetConVar
__ZN16CHLTVClientState16ProcessStringCmdEP13NET_StringCmd
__ZN16CHLTVClientState16ProcessVoiceDataEP13SVC_VoiceData
__ZN16CHLTVClientState16ProcessVoiceInitEP13SVC_VoiceInit
__ZN16CHLTVClientState17ConnectionClosingEPKc
__ZN16CHLTVClientState17ConnectionCrashedEPKc
__ZN16CHLTVClientState17ProcessServerInfoEP14SVC_ServerInfo
__ZN16CHLTVClientState18ProcessUserMessageEP15SVC_UserMessage
__ZN16CHLTVClientState19ProcessTempEntitiesEP16SVC_TempEntities
__ZN16CHLTVClientState20ProcessEntityMessageEP17SVC_EntityMessage
__ZN16CHLTVClientState20ProcessGameEventListEP17SVC_GameEventList
__ZN16CHLTVClientState21HookClientStringTableEPKc
__ZN16CHLTVClientState21ProcessCrosshairAngleEP18SVC_CrosshairAngle
__ZN16CHLTVClientState21ProcessPacketEntitiesEP18SVC_PacketEntities
__ZN16CHLTVClientState26InstallStringTableCallbackEPKc
__ZN16CHLTVClientState5ClearEv
__ZN16CHLTVClientState8RunFrameEv
__ZN16CHLTVClientState9PacketEndEv
__ZN16CHLTVClientStateC1Ev
__ZN16CHLTVClientStateD0Ev
__ZN16CHLTVClientStateD1Ev
__ZN16CLC_CmdKeyValues13SetRatePolicyEv
__ZN16CLC_CmdKeyValues13WriteToBufferER8bf_write
__ZN16CLC_CmdKeyValues14ReadFromBufferER7bf_read
__ZN16CLC_CmdKeyValues7ProcessEv
__ZN16CLC_CmdKeyValuesC1EP9KeyValues
__ZN16CLC_CmdKeyValuesD0Ev
__ZN16CLC_CmdKeyValuesD1Ev
__ZN16CLC_FileCRCCheck13WriteToBufferER8bf_write
__ZN16CLC_FileCRCCheck14ReadFromBufferER7bf_read
__ZN16CLC_FileCRCCheck7ProcessEv
__ZN16CLC_FileCRCCheckD0Ev
__ZN16CLC_FileCRCCheckD1Ev
__ZN16CLC_FileMD5Check13WriteToBufferER8bf_write
__ZN16CLC_FileMD5Check14ReadFromBufferER7bf_read
__ZN16CLC_FileMD5Check7ProcessEv
__ZN16CLC_FileMD5CheckD0Ev
__ZN16CLC_FileMD5CheckD1Ev
__ZN16CLC_ListenEvents13SetRatePolicyEv
__ZN16CLC_ListenEvents13WriteToBufferER8bf_write
__ZN16CLC_ListenEvents14ReadFromBufferER7bf_read
__ZN16CLC_ListenEvents7ProcessEv
__ZN16CLC_ListenEventsD0Ev
__ZN16CLC_ListenEventsD1Ev
__ZN16CLookupViewPanel10GetAnimMapEv
__ZN16CLookupViewPanel13GetMessageMapEv
__ZN16CLookupViewPanel17GetPanelClassNameEv
__ZN16CLookupViewPanel21RegenerateTextureBitsEP8ITextureP11IVTFTextureP6Rect_t
__ZN16CLookupViewPanel8GetKBMapEv
__ZN16CLookupViewPanelC1EPN4vgui5PanelEj
__ZN16CLookupViewPanelD0Ev
__ZN16CLookupViewPanelD1Ev
__ZN16CModelInfoClient15FindOrLoadModelEPKc
__ZN16CModelInfoClient20RegisterDynamicModelEPKcb
__ZN16CModelInfoClient22SetViewScreenFadeRangeEff
__ZN16CModelInfoClient23SetLevelScreenFadeRangeEff
__ZN16CModelInfoClient32GetModelMaterialColorAndLightingEPK7model_tRK6VectorRK6QAngleP10CGameTraceRS3_SB_
__ZN16CModelInfoClient32OnDynamicModelsStringTableChangeEiPKcPKv
__ZN16CModelInfoClient8GetModelEi
__ZN16CModelInfoClientD0Ev
__ZN16CModelInfoClientD1Ev
__ZN16CModelInfoServer15FindOrLoadModelEPKc
__ZN16CModelInfoServer20RegisterDynamicModelEPKcb
__ZN16CModelInfoServer32GetModelMaterialColorAndLightingEPK7model_tRK6VectorRK6QAngleP10CGameTraceRS3_SB_
__ZN16CModelInfoServer32OnDynamicModelsStringTableChangeEiPKcPKv
__ZN16CModelInfoServer8GetModelEi
__ZN16CModelInfoServerD0Ev
__ZN16CModelInfoServerD1Ev
__ZN16CNewActionButtonC1EPN4vgui5PanelEPKcS4_
__ZN16CNewActionButtonD0Ev
__ZN16CNewActionButtonD1Ev
__ZN16COM_IOReadBinary4openEPKc
__ZN16COM_IOReadBinary4readEPvii
__ZN16COM_IOReadBinary4seekEii
__ZN16COM_IOReadBinary4sizeEi
__ZN16COM_IOReadBinary4tellEi
__ZN16COM_IOReadBinary5closeEi
__ZN16COcclusionSystem10IsOccludedERK6VectorS2_
__ZN16COcclusionSystem16ActivateOccluderEib
__ZN16COcclusionSystem17DrawDebugOverlaysEv
__ZN16COcclusionSystem20AddPolygonToEdgeListER9CEdgeListPP6Vectoriib
__ZN16COcclusionSystem21StitchClippedVerticesEP6Vectori
__ZN16COcclusionSystem22SetOcclusionParametersEff
__ZN16COcclusionSystem25RecomputeOccluderEdgeListEv
__ZN16COcclusionSystem7SetViewERK6VectorfRK7VMatrixS5_RK6VPlane
__ZN16COcclusionSystemC2Ev
__ZN16COcclusionSystemD1Ev
__ZN16CPluginUIManager10GetAnimMapEv
__ZN16CPluginUIManager13GetMessageMapEv
__ZN16CPluginUIManager17GetPanelClassNameEv
__ZN16CPluginUIManager21GetHudMessagePositionERiS0_S0_S0_
__ZN16CPluginUIManager4ShowE11DIALOG_TYPEP9KeyValues
__ZN16CPluginUIManager6OnTickEv
__ZN16CPluginUIManager8GetKBMapEv
__ZN16CPluginUIManager8ShutdownEv
__ZN16CPluginUIManagerC1Ev
__ZN16CPluginUIManagerD0Ev
__ZN16CPluginUIManagerD1Ev
__ZN16CPrecisionSlider10GetAnimMapEv
__ZN16CPrecisionSlider10SetEnabledEb
__ZN16CPrecisionSlider12GetTrackRectERiS0_S0_S0_
__ZN16CPrecisionSlider13GetMessageMapEv
__ZN16CPrecisionSlider13OnSizeChangedEii
__ZN16CPrecisionSlider13OnTextNewLineEP9KeyValues
__ZN16CPrecisionSlider14OnMouseWheeledEi
__ZN16CPrecisionSlider17GetPanelClassNameEv
__ZN16CPrecisionSlider8GetKBMapEv
__ZN16CPrecisionSlider8SetValueEib
__ZN16CPrecisionSliderC1EPN4vgui5PanelEPKc
__ZN16CPrecisionSliderD0Ev
__ZN16CPrecisionSliderD1Ev
__ZN16CPropFadeUIPanel10DeactivateEv
__ZN16CPropFadeUIPanel10GetAnimMapEv
__ZN16CPropFadeUIPanel13GetMessageMapEv
__ZN16CPropFadeUIPanel13OnTextChangedEP9KeyValues
__ZN16CPropFadeUIPanel17GetPanelClassNameEv
__ZN16CPropFadeUIPanel21s_pFadeVisualizeLabelE
__ZN16CPropFadeUIPanel8ActivateEv
__ZN16CPropFadeUIPanel8GetKBMapEv
__ZN16CPropFadeUIPanelC1EPN4vgui5PanelE
__ZN16CPropFadeUIPanelD0Ev
__ZN16CPropFadeUIPanelD1Ev
__ZN16CPureFileTracker13DoesFileMatchEPKcS1_iP10FileHash_t8USERID_s
__ZN16CPureFileTrackerD1Ev
__ZN16CRConVProfExport11AddListenerEv
__ZN16CRConVProfExport12OnRemoteDataEPKvi
__ZN16CRConVProfExport12PauseProfileEv
__ZN16CRConVProfExport13ResumeProfileEv
__ZN16CRConVProfExport14RemoveListenerEv
__ZN16CRConVProfExport17OnRemoteGroupDataEPKvi
__ZN16CRConVProfExport18GetNumBudgetGroupsEv
__ZN16CRConVProfExport19GetBudgetGroupInfosEPN12IVProfExport24CExportedBudgetGroupInfoE
__ZN16CRConVProfExport19GetBudgetGroupTimesEPf
__ZN16CRConVProfExport20SetBudgetFlagsFilterEi
__ZN16CResourcePreload15OnEndMapLoadingEb
__ZN16CSteamAPIContext4InitEv
__ZN16CThreadLocalBase3SetEPv
__ZN16CThreadLocalBaseC2Ev
__ZN16CThreadLocalBaseD2Ev
__ZN16CUploadGameStats12IsHDREnabledEv
__ZN16CUploadGameStats14InitConnectionEv
__ZN16CUploadGameStats15IsCyberCafeUserEv
__ZN16CUploadGameStats15UploadGameStatsEPKcjjPKv
__ZN16CUploadGameStats16UpdateConnectionEv
__ZN16CUploadGameStats17GetPseudoUniqueIdEPcm
__ZN16CUploadGameStats25IsGameStatsLoggingEnabledEv
__ZN16CUtlKeyValuePairI19CUtlConstStringBaseIcE23CNetworkStringTableItemEC2IPKcEERKT_
__ZN16CUtlStreamBuffer17GrowAllocatedSizeEi
__ZN16CUtlStreamBuffer17ReadBytesFromFileEii
__ZN16CUtlStreamBuffer17StreamGetOverflowEi
__ZN16CUtlStreamBuffer17StreamPutOverflowEi
__ZN16CUtlStreamBuffer5CloseEv
__ZN16CUtlStreamBufferC1EPKcS1_ib
__ZN16CUtlStreamBufferC2EPKcS1_ib
__ZN16CUtlStreamBufferD1Ev
__ZN16CUtlStreamBufferD2Ev
__ZN16CVEngineServer2210IsMapValidEPKc
__ZN16CVProfGraphPanel10ShouldDrawEv
__ZN16CVProfGraphPanel12PaintLineArtEiii
__ZN16CVProfGraphPanel13m_CurrentNodeE
__ZN16CVProfGraphPanel19ApplySchemeSettingsEPN4vgui7ISchemeE
__ZN16CVProfGraphPanel5PaintEv
__ZN16CVProfGraphPanel6OnTickEv
__ZN16CVProfGraphPanelC1Ej
__ZN16CVProfGraphPanelD0Ev
__ZN16CVProfGraphPanelD1Ev
__ZN16CVoiceWriterData4LessERKS_S1_
__ZN16CVoiceWriterDataC2ERKS_
__ZN16CWorldRenderList14OnFinalReleaseEv
__ZN16CWorldRenderList5PurgeEv
__ZN16CWorldRenderList5ResetEv
__ZN16CWorldRenderList6g_PoolE
__ZN16CWorldRenderListD0Ev
__ZN16CWorldRenderListD1Ev
__ZN16CWorldRenderListD2Ev
__ZN16DecalSortTrees_tC2Ev
__ZN16DecalSortTrees_tD2Ev
__ZN16MasterFileHash_t4LessERKS_S1_
__ZN16SVC_CmdKeyValues13WriteToBufferER8bf_write
__ZN16SVC_CmdKeyValues14ReadFromBufferER7bf_read
__ZN16SVC_CmdKeyValues7ProcessEv
__ZN16SVC_CmdKeyValuesC1EP9KeyValues
__ZN16SVC_CmdKeyValuesD0Ev
__ZN16SVC_CmdKeyValuesD1Ev
__ZN16SVC_GetCvarValue13WriteToBufferER8bf_write
__ZN16SVC_GetCvarValue14ReadFromBufferER7bf_read
__ZN16SVC_GetCvarValue7ProcessEv
__ZN16SVC_GetCvarValueD0Ev
__ZN16SVC_GetCvarValueD1Ev
__ZN16SVC_TempEntities13WriteToBufferER8bf_write
__ZN16SVC_TempEntities14ReadFromBufferER7bf_read
__ZN16SVC_TempEntities7ProcessEv
__ZN16SVC_TempEntitiesD0Ev
__ZN16SVC_TempEntitiesD1Ev
__ZN17Base_CmdKeyValues13WriteToBufferER8bf_write
__ZN17Base_CmdKeyValues14ReadFromBufferER7bf_read
__ZN17Base_CmdKeyValuesD0Ev
__ZN17Base_CmdKeyValuesD1Ev
__ZN17Base_CmdKeyValuesD2Ev
__ZN17CAudioSourceCache10BuildCacheEPKc
__ZN17CAudioSourceCache13LevelShutdownEv
__ZN17CAudioSourceCache15SearchPathCacheC2EPKcS2_23UtlCachedFileDataType_t
__ZN17CAudioSourceCache15SearchPathCacheD0Ev
__ZN17CAudioSourceCache15SearchPathCacheD1Ev
__ZN17CAudioSourceCache16LookUpCacheEntryEPKcibP9CSfxTable
__ZN17CAudioSourceCache17RebuildCacheEntryEibP9CSfxTable
__ZN17CAudioSourceCache20ForceRecheckDiskInfoEv
__ZN17CAudioSourceCache24CreateCacheForSearchPathEPKc
__ZN17CAudioSourceCache26AsyncLookaheadMetaChecksumEv
__ZN17CAudioSourceCache4InitEj
__ZN17CAudioSourceCache7GetInfoEibP9CSfxTable
__ZN17CAudioSourceCache8ShutdownEv
__ZN17CAudioSourceCache9LevelInitEPKc
__ZN17CAudioSourceCacheD1Ev
__ZN17CAudioSourceVoice10SampleRateEv
__ZN17CAudioSourceVoice10SampleSizeEv
__ZN17CAudioSourceVoice11CacheUnloadEv
__ZN17CAudioSourceVoice11CreateMixerEi
__ZN17CAudioSourceVoice11GetSentenceEv
__ZN17CAudioSourceVoice11IsStereoWavEv
__ZN17CAudioSourceVoice11IsStreamingEv
__ZN17CAudioSourceVoice11SampleCountEv
__ZN17CAudioSourceVoice12GetCacheDataEP22CAudioSourceCachedInfo
__ZN17CAudioSourceVoice12ReferenceAddEP11CAudioMixer
__ZN17CAudioSourceVoice13GetOutputDataEPPviiPc
__ZN17CAudioSourceVoice13IsVoiceSourceEv
__ZN17CAudioSourceVoice14CWaveDataVoice12IsReadyToMixEv
__ZN17CAudioSourceVoice14CWaveDataVoice14ReadSourceDataEPPviiPc
__ZN17CAudioSourceVoice14CWaveDataVoice6SourceEv
__ZN17CAudioSourceVoice14CWaveDataVoiceD0Ev
__ZN17CAudioSourceVoice14CWaveDataVoiceD1Ev
__ZN17CAudioSourceVoice14GetCacheStatusEv
__ZN17CAudioSourceVoice15ReferenceRemoveEP11CAudioMixer
__ZN17CAudioSourceVoice17ZeroCrossingAfterEi
__ZN17CAudioSourceVoice18ZeroCrossingBeforeEi
__ZN17CAudioSourceVoice21CheckAudioSourceCacheEv
__ZN17CAudioSourceVoice7GetTypeEv
__ZN17CAudioSourceVoice8IsLoopedEv
__ZN17CAudioSourceVoice8PrefetchEv
__ZN17CAudioSourceVoice9CacheLoadEv
__ZN17CAudioSourceVoice9CanDeleteEv
__ZN17CAudioSourceVoiceD0Ev
__ZN17CAudioSourceVoiceD1Ev
__ZN17CBenchmarkResults13StopBenchmarkEv
__ZN17CBenchmarkResults14StartBenchmarkERK8CCommand
__ZN17CBidirectionalSetIttttE12RemoveBucketEt
__ZN17CBidirectionalSetIttttE13RemoveElementEt
__ZN17CBidirectionalSetIttttE18AddElementToBucketEtt
__ZN17CBoundedCvar_RateD0Ev
__ZN17CBoundedCvar_RateD1Ev
__ZN17CBrushBSPIterator13EnumerateLeafEii
__ZN17CBrushBatchRender10SurfaceCmpEPKNS_13surfacelist_tES2_
__ZN17CBrushBatchRender13AddTransBatchERNS_13transrender_tEP11msurface2_t
__ZN17CBrushBatchRender14DrawTransListsERNS_13transrender_tEPv
__ZN17CBrushBatchRender17BuildTransLists_rERNS_13transrender_tEP7model_tP7mnode_t
__ZN17CBrushBatchRender20DrawBrushModelShadowEP7model_tP17IClientRenderable
__ZN17CBrushBatchRender20DrawOpaqueBrushModelEP13IClientEntityP7model_tRK6Vector16ERenderDepthMode
__ZN17CBrushBatchRender23FindOrCreateRenderBatchEP7model_t
__ZN17CBrushBatchRender9LevelInitEv
__ZN17CBrushBatchRenderD1Ev
__ZN17CCollisionBSPData11nullsurfaceE
__ZN17CCollisionBSPDataD1Ev
__ZN17CCurveEditorPanel10GetAnimMapEv
__ZN17CCurveEditorPanel13GetMessageMapEv
__ZN17CCurveEditorPanel13OnCursorMovedEii
__ZN17CCurveEditorPanel14OnMousePressedE12ButtonCode_t
__ZN17CCurveEditorPanel15OnMouseReleasedE12ButtonCode_t
__ZN17CCurveEditorPanel15PaintBackgroundEv
__ZN17CCurveEditorPanel16OnKeyCodePressedE12ButtonCode_t
__ZN17CCurveEditorPanel17GetPanelClassNameEv
__ZN17CCurveEditorPanel5PaintEv
__ZN17CCurveEditorPanel8GetKBMapEv
__ZN17CCurveEditorPanelC2EPN4vgui5PanelEPKc
__ZN17CCurveEditorPanelD0Ev
__ZN17CCurveEditorPanelD1Ev
__ZN17CCurveEditorPanelD2Ev
__ZN17CDebugOptionsPage13PerformLayoutEv
__ZN17CDebugOptionsPage4InitEP9KeyValues
__ZN17CDebugOptionsPage6OnTickEv
__ZN17CDebugOptionsPageD0Ev
__ZN17CDebugOptionsPageD1Ev
__ZN17CDebugSystemPanel10SetVisibleEb
__ZN17CDebugSystemPanel9OnCommandEPKc
__ZN17CDebugSystemPanelC1EPN4vgui5PanelEPKc
__ZN17CDebugSystemPanelD0Ev
__ZN17CDebugSystemPanelD1Ev
__ZN17CDeltaEntityCache12AddDeltaBitsEiiiP8bf_write
__ZN17CDeltaEntityCache13FindDeltaBitsEiiRi
__ZN17CDevShotGenerator12BuildMapListEv
__ZN17CDevShotGenerator22StartDevShotGenerationEv
__ZN17CDevShotGeneratorD1Ev
__ZN17CFastPointLeafNum7GetLeafERK6Vector
__ZN17CFastPointLeafNumC1Ev
__ZN17CGameEventManager11AddListenerEP19IGameEventListener2PKcb
__ZN17CGameEventManager11AddListenerEPvP20CGameEventDescriptori
__ZN17CGameEventManager11CreateEventEP20CGameEventDescriptor
__ZN17CGameEventManager11CreateEventEPKcb
__ZN17CGameEventManager12FindListenerEP19IGameEventListener2PKc
__ZN17CGameEventManager13ConPrintEventEP10IGameEvent
__ZN17CGameEventManager13RegisterEventEP9KeyValues
__ZN17CGameEventManager14AddListenerAllEPvi
__ZN17CGameEventManager14DuplicateEventEP10IGameEvent
__ZN17CGameEventManager14ParseEventListEP17SVC_GameEventList
__ZN17CGameEventManager14RemoveListenerEP19IGameEventListener2
__ZN17CGameEventManager14SerializeEventEP10IGameEventP8bf_write
__ZN17CGameEventManager14WriteEventListEP17SVC_GameEventList
__ZN17CGameEventManager15FireEventInternEP10IGameEventbb
__ZN17CGameEventManager16UnserializeEventEP7bf_read
__ZN17CGameEventManager17RemoveListenerOldEPv
__ZN17CGameEventManager18GetEventDescriptorEPKc
__ZN17CGameEventManager18GetEventDescriptorEi
__ZN17CGameEventManager18LoadEventsFromFileEPKc
__ZN17CGameEventManager19FireEventClientSideEP10IGameEvent
__ZN17CGameEventManager20WriteListenEventListEP16CLC_ListenEvents
__ZN17CGameEventManager22ReloadEventDefinitionsEv
__ZN17CGameEventManager25HasClientListenersChangedEb
__ZN17CGameEventManager4InitEv
__ZN17CGameEventManager5ResetEv
__ZN17CGameEventManager8ShutdownEv
__ZN17CGameEventManager9FireEventEP10IGameEventb
__ZN17CGameEventManager9FreeEventEP10IGameEvent
__ZN17CGameEventManagerC2Ev
__ZN17CGameEventManagerD0Ev
__ZN17CGameEventManagerD1Ev
__ZN17CGameEventManagerD2Ev
__ZN17CHLTVDemoRecorder10WriteFrameEP10CHLTVFrame
__ZN17CHLTVDemoRecorder11GetDemoFileEv
__ZN17CHLTVDemoRecorder11IsRecordingEv
__ZN17CHLTVDemoRecorder12RecordPacketEv
__ZN17CHLTVDemoRecorder13RecordCommandEPKc
__ZN17CHLTVDemoRecorder13StopRecordingEv
__ZN17CHLTVDemoRecorder13WriteMessagesEhR8bf_write
__ZN17CHLTVDemoRecorder14PauseRecordingEv
__ZN17CHLTVDemoRecorder14RecordMessagesER7bf_readi
__ZN17CHLTVDemoRecorder14SetSignonStateEi
__ZN17CHLTVDemoRecorder14StartRecordingEPKcb
__ZN17CHLTVDemoRecorder15RecordUserInputEi
__ZN17CHLTVDemoRecorder15ResumeRecordingEv
__ZN17CHLTVDemoRecorder15WriteServerInfoEv
__ZN17CHLTVDemoRecorder15WriteSignonDataEv
__ZN17CHLTVDemoRecorder16GetRecordingTickEv
__ZN17CHLTVDemoRecorder18RecordStringTablesEv
__ZN17CHLTVDemoRecorder18StartAutoRecordingEv
__ZN17CHLTVDemoRecorder19RecordServerClassesEP11ServerClass
__ZN17CHLTVDemoRecorder22ResetDemoInterpolationEv
__ZN17CHLTVDemoRecorderC1Ev
__ZN17CHLTVDemoRecorderD0Ev
__ZN17CHLTVDemoRecorderD1Ev
__ZN17CLookupViewWindow10GetAnimMapEv
__ZN17CLookupViewWindow13GetMessageMapEv
__ZN17CLookupViewWindow17GetPanelClassNameEv
__ZN17CLookupViewWindow4InitEv
__ZN17CLookupViewWindow8GetKBMapEv
__ZN17CLookupViewWindow8ShutdownEv
__ZN17CLookupViewWindowC1EPN4vgui5PanelEj
__ZN17CLookupViewWindowD0Ev
__ZN17CLookupViewWindowD1Ev
__ZN17CMSurfaceSortList16AddSurfaceToTailEP11msurface2_tii
__ZN17CMSurfaceSortList16EnsureMaxSortIDsEi
__ZN17CMSurfaceSortList4InitEii
__ZN17CMSurfaceSortList5ResetEv
__ZN17CMSurfaceSortList8ShutdownEv
__ZN17CMaterialsBucketsIP11msurface2_tE10AddElementEiS1_
__ZN17CMaterialsBucketsIP11msurface2_tE5FlushEv
__ZN17COcclusionUIPanel10DeactivateEv
__ZN17COcclusionUIPanel10GetAnimMapEv
__ZN17COcclusionUIPanel13GetMessageMapEv
__ZN17COcclusionUIPanel13OnTextChangedEP9KeyValues
__ZN17COcclusionUIPanel17GetPanelClassNameEv
__ZN17COcclusionUIPanel20OnCheckButtonCheckedEPN4vgui5PanelE
__ZN17COcclusionUIPanel20s_pOccVisualizeLabelE
__ZN17COcclusionUIPanel8ActivateEv
__ZN17COcclusionUIPanel8GetKBMapEv
__ZN17COcclusionUIPanelC1EPN4vgui5PanelE
__ZN17COcclusionUIPanelD0Ev
__ZN17COcclusionUIPanelD1Ev
__ZN17CPerfUIChildPanel10DeactivateEv
__ZN17CPerfUIChildPanel10GetAnimMapEv
__ZN17CPerfUIChildPanel13GetMessageMapEv
__ZN17CPerfUIChildPanel17GetPanelClassNameEv
__ZN17CPerfUIChildPanel8ActivateEv
__ZN17CPerfUIChildPanel8GetKBMapEv
__ZN17CPerfUIChildPanelC1EPN4vgui5PanelEPKc
__ZN17CPerfUIChildPanelC2EPN4vgui5PanelEPKc
__ZN17CPerfUIChildPanelD0Ev
__ZN17CPerfUIChildPanelD1Ev
__ZN17CPluginHudMessage10GetAnimMapEv
__ZN17CPluginHudMessage11ShowMessageEPKwi5Colorb
__ZN17CPluginHudMessage13GetMessageMapEv
__ZN17CPluginHudMessage13OnSizeChangedEii
__ZN17CPluginHudMessage17GetPanelClassNameEv
__ZN17CPluginHudMessage19ApplySchemeSettingsEPN4vgui7ISchemeE
__ZN17CPluginHudMessage6OnTickEv
__ZN17CPluginHudMessage8GetKBMapEv
__ZN17CPluginHudMessageC1Ej
__ZN17CPluginHudMessageD0Ev
__ZN17CPluginHudMessageD1Ev
__ZN17CReplayDemoPlayer10PlayReplayEji
__ZN17CReplayDemoPlayer10ReadPacketEv
__ZN17CReplayDemoPlayer11PauseReplayEv
__ZN17CReplayDemoPlayer12ResumeReplayEv
__ZN17CReplayDemoPlayer12StopPlaybackEv
__ZN17CReplayDemoPlayer13OnStopCommandEv
__ZN17CReplayDemoPlayer13StartPlaybackEPKcb
__ZN17CReplayDemoPlayer14IsReplayPausedEv
__ZN17CReplayDemoPlayer14PlayNextReplayEv
__ZN17CReplayDemoPlayer15AddReplayToListEji
__ZN17CReplayDemoPlayer15ClearReplayListEv
__ZN17CReplayDemoPlayer15ShouldLoopDemosEv
__ZN17CReplayDemoPlayer16GetCurrentReplayEv
__ZN17CReplayDemoPlayer17OnSignonStateFullEv
__ZN17CReplayDemoPlayer20GetPlaybackTimeScaleEv
__ZN17CReplayDemoPlayer21GetCurrentPerformanceEv
__ZN17CReplayDemoPlayer22OnLastDemoInLoopPlayedEv
__ZN17CReplayDemoPlayerD0Ev
__ZN17CReplayDemoPlayerD1Ev
__ZN17CSendTablePrecalc22SetupFlatPropertyArrayEv
__ZN17CSendTablePrecalcC1Ev
__ZN17CSendTablePrecalcD0Ev
__ZN17CSendTablePrecalcD1Ev
__ZN17CSendTablePrecalcD2Ev
__ZN17CSpatialPartition11HideElementEt
__ZN17CSpatialPartition11ReportStatsEPKc
__ZN17CSpatialPartition12CreateHandleEP13IHandleEntity
__ZN17CSpatialPartition12CreateHandleEP13IHandleEntityiRK6VectorS4_
__ZN17CSpatialPartition12ElementMovedEtRK6VectorS2_
__ZN17CSpatialPartition13DestroyHandleEt
__ZN17CSpatialPartition13SuppressListsEib
__ZN17CSpatialPartition13UnhideElementEti
__ZN17CSpatialPartition14InsertIntoTreeEtRK6VectorS2_
__ZN17CSpatialPartition14RemoveFromTreeEt
__ZN17CSpatialPartition15RemoveAndInsertEiit
__ZN17CSpatialPartition17DrawDebugOverlaysEv
__ZN17CSpatialPartition18GetSuppressedListsEv
__ZN17CSpatialPartition18RenderObjectsInBoxERK6VectorS2_f
__ZN17CSpatialPartition19RemoveQueryCallbackEP23IPartitionQueryCallback
__ZN17CSpatialPartition20InstallQueryCallbackEP23IPartitionQueryCallback
__ZN17CSpatialPartition20RenderLeafsForBoxEndEv
__ZN17CSpatialPartition21RenderObjectsAlongRayERK5Ray_tf
__ZN17CSpatialPartition21RenderObjectsInSphereERK6Vectorff
__ZN17CSpatialPartition22EnumerateElementsInBoxEiRK6VectorS2_bP20IPartitionEnumerator
__ZN17CSpatialPartition22RenderAllObjectsInTreeEf
__ZN17CSpatialPartition22RenderLeafsForBoxStartEf
__ZN17CSpatialPartition23InstallQueryCallback_V1EP23IPartitionQueryCallback
__ZN17CSpatialPartition23RenderLeafsForSphereEndEv
__ZN17CSpatialPartition24EnumerateElementsAtPointEiRK6VectorbP20IPartitionEnumerator
__ZN17CSpatialPartition25EnumerateElementsAlongRayEiRK5Ray_tbP20IPartitionEnumerator
__ZN17CSpatialPartition25EnumerateElementsInSphereEiRK6VectorfbP20IPartitionEnumerator
__ZN17CSpatialPartition25RenderLeafsForRayTraceEndEv
__ZN17CSpatialPartition25RenderLeafsForSphereStartEf
__ZN17CSpatialPartition26RenderLeafsForHullTraceEndEv
__ZN17CSpatialPartition26RenderObjectsInPlayerLeafsERK6VectorS2_f
__ZN17CSpatialPartition27RenderLeafsForRayTraceStartEf
__ZN17CSpatialPartition28RenderLeafsForHullTraceStartEf
__ZN17CSpatialPartition4InitERK6VectorS2_
__ZN17CSpatialPartition6InsertEit
__ZN17CSpatialPartition6RemoveEit
__ZN17CSpatialPartition6RemoveEt
__ZN17CSpatialPartition8ShutdownEv
__ZN17CSpatialPartitionC2Ev
__ZN17CSpatialPartitionD0Ev
__ZN17CSpatialPartitionD1Ev
__ZN17CSpatialPartitionD2Ev
__ZN17CStudioConvexInfo11GetContentsEi
__ZN17CTextureListPanel10GetAnimMapEv
__ZN17CTextureListPanel10ShouldDrawEv
__ZN17CTextureListPanel11AddListItemEP9KeyValues
__ZN17CTextureListPanel13GetMessageMapEv
__ZN17CTextureListPanel13OnTextChangedEv
__ZN17CTextureListPanel13PerformLayoutEv
__ZN17CTextureListPanel17GetPanelClassNameEv
__ZN17CTextureListPanel19ApplySchemeSettingsEPN4vgui7ISchemeE
__ZN17CTextureListPanel19UpdateDisplayedItemEP9KeyValuesS1_
__ZN17CTextureListPanel21UpdateTotalUsageLabelEv
__ZN17CTextureListPanel5CloseEv
__ZN17CTextureListPanel5PaintEv
__ZN17CTextureListPanel8GetKBMapEv
__ZN17CTextureListPanel9OnCommandEPKc
__ZN17CTextureListPanelC1EPN4vgui5PanelE
__ZN17CTextureListPanelD0Ev
__ZN17CTextureListPanelD1Ev
__ZN17CTextureReference4InitEP8ITexture
__ZN17CTextureReference8ShutdownEb
__ZN17CTextureReferenceC1Ev
__ZN17CTextureReferenceD1Ev
__ZN17CThreadSpinRWLock10UnlockReadEv
__ZN17CThreadSpinRWLock11LockForReadEv
__ZN17CThreadSpinRWLock11UnlockWriteEv
__ZN17CThreadSpinRWLock16SpinLockForWriteEj
__ZN17CThreadSyncObjectD2Ev
__ZN17CUtlMemoryAlignedI19UtlLinkedListElem_tIN10CShadowMgr8Shadow_tEtELi16EED2Ev
__ZN17CUtlPriorityQueueIPN19CQueuedPacketSender13CQueuedPacketEE12RemoveAtHeadEv
__ZN17CUtlPriorityQueueIPN19CQueuedPacketSender13CQueuedPacketEE6InsertERKS2_
__ZN17CUtlPriorityQueueIPN19CQueuedPacketSender13CQueuedPacketEE8RemoveAtEi
__ZN17CUtlSymbolTableMTD1Ev
__ZN17CVideoMode_Common12AdjustWindowEiiib
__ZN17CVideoMode_Common12GetModeCountEv
__ZN17CVideoMode_Common15TakeSnapshotTGAEPKc
__ZN17CVideoMode_Common15WriteMovieFrameERK11MovieInfo_t
__ZN17CVideoMode_Common16CreateGameWindowEiib
__ZN17CVideoMode_Common16InvalidateWindowEv
__ZN17CVideoMode_Common16TakeSnapshotJPEGEPKci
__ZN17CVideoMode_Common17SetClientViewRectERK7vrect_t
__ZN17CVideoMode_Common18CenterEngineWindowEPvii
__ZN17CVideoMode_Common18DrawNullBackgroundEPvii
__ZN17CVideoMode_Common18DrawStartupGraphicEv
__ZN17CVideoMode_Common19SetupStartupGraphicEv
__ZN17CVideoMode_Common19TakeSnapshotPFMRectEPKciiiiii18CubeMapFaceIndex_t
__ZN17CVideoMode_Common19TakeSnapshotTGARectEPKciiiiiib18CubeMapFaceIndex_t
__ZN17CVideoMode_Common20AddScreenshotToSteamEPKcii
__ZN17CVideoMode_Common20UpdateWindowPositionEv
__ZN17CVideoMode_Common23MarkClientViewRectDirtyEv
__ZN17CVideoMode_Common23RecomputeClientViewRectEv
__ZN17CVideoMode_Common24ApplySteamScreenshotTagsEj
__ZN17CVideoMode_Common24TakeSnapshotJPEGToBufferER10CUtlBufferi
__ZN17CVideoMode_Common25ComputeStartupGraphicNameEPci
__ZN17CVideoMode_Common32ResetCurrentModeForNewResolutionEiib
__ZN17CVideoMode_Common7GetModeEi
__ZN17C_ServerClassInfoC1Ev
__ZN17C_ServerClassInfoD1Ev
__ZN17SVC_EntityMessage13WriteToBufferER8bf_write
__ZN17SVC_EntityMessage14ReadFromBufferER7bf_read
__ZN17SVC_EntityMessage7ProcessEv
__ZN17SVC_EntityMessageD0Ev
__ZN17SVC_EntityMessageD1Ev
__ZN17SVC_GameEventList13WriteToBufferER8bf_write
__ZN17SVC_GameEventList14ReadFromBufferER7bf_read
__ZN17SVC_GameEventList7ProcessEv
__ZN17SVC_GameEventListD0Ev
__ZN17SVC_GameEventListD1Ev
__ZN17SVC_SetPauseTimed13WriteToBufferER8bf_write
__ZN17SVC_SetPauseTimed14ReadFromBufferER7bf_read
__ZN17SVC_SetPauseTimed7ProcessEv
__ZN17SVC_SetPauseTimedD0Ev
__ZN17SVC_SetPauseTimedD1Ev
__ZN18CAsyncWavDataCache10OnMixBeginEv
__ZN18CAsyncWavDataCache11GetItemNameEjPKvPcj
__ZN18CAsyncWavDataCache11QueueUnlockERKP13memhandle_t__
__ZN18CAsyncWavDataCache13PrefetchCacheEPKcii
__ZN18CAsyncWavDataCache14AsyncLoadCacheEPKciib
__ZN18CAsyncWavDataCache14GetDataPointerERP13memhandle_t__PKciiPPviPb
__ZN18CAsyncWavDataCache15RestartDataLoadEPP13memhandle_t__PKcii
__ZN18CAsyncWavDataCache15SpewMemoryUsageEi
__ZN18CAsyncWavDataCache16OpenStreamedLoadEPKciiiiiij
__ZN18CAsyncWavDataCache16SetPostProcessedEP13memhandle_t__b
__ZN18CAsyncWavDataCache17CloseStreamedLoadEi
__ZN18CAsyncWavDataCache18CopyDataIntoMemoryEPKciiPviiiPb
__ZN18CAsyncWavDataCache18CopyDataIntoMemoryERP13memhandle_t__PKciiPviiiPb
__ZN18CAsyncWavDataCache18FindOrCreateBufferER17asyncwaveparams_tb
__ZN18CAsyncWavDataCache19CacheHandleLessFuncERKNS_12CacheEntry_tES2_
__ZN18CAsyncWavDataCache19IsDataLoadCompletedEP13memhandle_t__Pb
__ZN18CAsyncWavDataCache19IsStreamedDataReadyEi
__ZN18CAsyncWavDataCache19MarkBufferDiscardedEi
__ZN18CAsyncWavDataCache20BufferHandleLessFuncERKNS_13BufferEntry_tES2_
__ZN18CAsyncWavDataCache20IsDataLoadInProgressEP13memhandle_t__
__ZN18CAsyncWavDataCache22GetStreamedDataPointerEib
__ZN18CAsyncWavDataCache26CopyStreamedDataIntoMemoryEiPviii
__ZN18CAsyncWavDataCache4InitEj
__ZN18CAsyncWavDataCache5ClearEv
__ZN18CAsyncWavDataCache5FlushEv
__ZN18CAsyncWavDataCache6UnloadEP13memhandle_t__
__ZN18CAsyncWavDataCache8OnMixEndEv
__ZN18CAsyncWavDataCache8ShutdownEv
__ZN18CAsyncWavDataCacheD1Ev
__ZN18CAsyncWavDataCacheD2Ev
__ZN18CAudioDeviceOpenAL10DeviceNameEv
__ZN18CAudioDeviceOpenAL10Mix8StereoEP9channel_tPciijii
__ZN18CAudioDeviceOpenAL10PaintBeginEfii
__ZN18CAudioDeviceOpenAL11ClearBufferEv
__ZN18CAudioDeviceOpenAL11Mix16StereoEP9channel_tPsiijii
__ZN18CAudioDeviceOpenAL11MixUpsampleEii
__ZN18CAudioDeviceOpenAL11OpenWaveOutEv
__ZN18CAudioDeviceOpenAL11Should3DMixEv
__ZN18CAudioDeviceOpenAL12ChannelResetEiif
__ZN18CAudioDeviceOpenAL12CloseWaveOutEv
__ZN18CAudioDeviceOpenAL12MixDryVolumeEv
__ZN18CAudioDeviceOpenAL13StopAllSoundsEv
__ZN18CAudioDeviceOpenAL14DeviceChannelsEv
__ZN18CAudioDeviceOpenAL14DeviceDmaSpeedEv
__ZN18CAudioDeviceOpenAL14UpdateListenerERK6VectorS2_S2_S2_
__ZN18CAudioDeviceOpenAL15ApplyDSPEffectsEiP21portable_samplepair_tS1_S1_i
__ZN18CAudioDeviceOpenAL15TransferSamplesEi
__ZN18CAudioDeviceOpenAL16DeviceSampleBitsEv
__ZN18CAudioDeviceOpenAL17DeviceSampleBytesEv
__ZN18CAudioDeviceOpenAL17DeviceSampleCountEv
__ZN18CAudioDeviceOpenAL17GetOutputPositionEv
__ZN18CAudioDeviceOpenAL17SpatializeChannelEPiiRK6Vectorff
__ZN18CAudioDeviceOpenAL4InitEv
__ZN18CAudioDeviceOpenAL5PauseEv
__ZN18CAudioDeviceOpenAL7UnPauseEv
__ZN18CAudioDeviceOpenAL8IsActiveEv
__ZN18CAudioDeviceOpenAL8Mix8MonoEP9channel_tPciijii
__ZN18CAudioDeviceOpenAL8MixBeginEi
__ZN18CAudioDeviceOpenAL8PaintEndEv
__ZN18CAudioDeviceOpenAL8ShutdownEv
__ZN18CAudioDeviceOpenAL9Mix16MonoEP9channel_tPsiijii
__ZN18CAudioDeviceOpenALD0Ev
__ZN18CAudioDeviceOpenALD1Ev
__ZN18CAudioMixerWaveMP313GetOutputDataEPPviPc
__ZN18CAudioMixerWaveMP314SetSampleStartEi
__ZN18CAudioMixerWaveMP316GetMixSampleSizeEv
__ZN18CAudioMixerWaveMP317StreamRequestDataEPvii
__ZN18CAudioMixerWaveMP318GetID3HeaderOffsetEv
__ZN18CAudioMixerWaveMP318GetPositionForSaveEv
__ZN18CAudioMixerWaveMP319GetStreamOutputRateEv
__ZN18CAudioMixerWaveMP320SetPositionFromSavedEi
__ZN18CAudioMixerWaveMP322SetStartupDelaySamplesEi
__ZN18CAudioMixerWaveMP33MixEP12IAudioDeviceP9channel_tPviijii
__ZN18CAudioMixerWaveMP39GetStreamEv
__ZN18CAudioMixerWaveMP3C1EP9IWaveData
__ZN18CAudioMixerWaveMP3D0Ev
__ZN18CAudioMixerWaveMP3D1Ev
__ZN18CBitWriteMasksInitC2Ev
__ZN18CBudgetPanelEngine14PostChildPaintEv
__ZN18CBudgetPanelEngine16SetTimeLabelTextEv
__ZN18CBudgetPanelEngine19SetHistoryLabelTextEv
__ZN18CBudgetPanelEngine6OnTickEv
__ZN18CBudgetPanelEngineC1EPN4vgui5PanelEPKc
__ZN18CBudgetPanelEngineD0Ev
__ZN18CBudgetPanelEngineD1Ev
__ZN18CBudgetPanelShared12g_fFrameRateE
__ZN18CBudgetPanelShared14PostChildPaintEv
__ZN18CBudgetPanelShared15PaintBackgroundEv
__ZN18CBudgetPanelShared16SetTimeLabelTextEv
__ZN18CBudgetPanelShared19SetHistoryLabelTextEv
__ZN18CBudgetPanelShared20SendConfigDataToBaseEv
__ZN18CBudgetPanelShared20SnapshotVProfHistoryEf
__ZN18CBudgetPanelShared21SetupCustomConfigDataER22CBudgetPanelConfigData
__ZN18CBudgetPanelShared22g_fFrameTimeLessBudgetE
__ZN18CBudgetPanelShared5PaintEv
__ZN18CBudgetPanelSharedC2EPN4vgui5PanelEPKci
__ZN18CBudgetPanelSharedD0Ev
__ZN18CBudgetPanelSharedD1Ev
__ZN18CBudgetPanelSharedD2Ev
__ZN18CBuildModeNavCombo10GetAnimMapEv
__ZN18CBuildModeNavCombo10OnShowMenuEPN4vgui4MenuE
__ZN18CBuildModeNavCombo13GetMessageMapEv
__ZN18CBuildModeNavCombo17GetPanelClassNameEv
__ZN18CBuildModeNavCombo8GetKBMapEv
__ZN18CBuildModeNavComboC1EPN4vgui5PanelEPKcibbS2_
__ZN18CBuildModeNavComboD0Ev
__ZN18CBuildModeNavComboD1Ev
__ZN18CClientEngineTools10InToolModeEv
__ZN18CClientEngineTools15PostToolMessageEjP9KeyValues
__ZN18CClientEngineTools15SetupAudioStateER12AudioState_t
__ZN18CClientEngineTools15SetupEngineViewER6VectorR6QAngleRf
__ZN18CClientEngineTools17PreRenderAllToolsEv
__ZN18CClientEngineTools18PostRenderAllToolsEv
__ZN18CClientEngineTools19IsThirdPersonCameraEv
__ZN18CClientEngineTools20AdjustEngineViewportERiS0_S0_S0_
__ZN18CClientEngineTools22VGui_PreRenderAllToolsEi
__ZN18CClientEngineTools23VGui_PostRenderAllToolsEi
__ZN18CClientEngineTools26LevelInitPreEntityAllToolsEv
__ZN18CClientEngineTools27LevelInitPostEntityAllToolsEv
__ZN18CClientEngineTools30LevelShutdownPreEntityAllToolsEv
__ZN18CClientEngineTools31LevelShutdownPostEntityAllToolsEv
__ZN18CClientEngineToolsD0Ev
__ZN18CClientEngineToolsD1Ev
__ZN18CConVarCheckButton11SetSelectedEb
__ZN18CConVarCheckButton9SetConVarEP6ConVar
__ZN18CConVarCheckButtonC1EPN4vgui5PanelEPKcS4_
__ZN18CConVarCheckButtonD0Ev
__ZN18CConVarCheckButtonD1Ev
__ZN18CCopyableUtlVectorIN9CConPanel11CNotifyTextEED0Ev
__ZN18CCopyableUtlVectorIN9CConPanel11CNotifyTextEED1Ev
__ZN18CDebugOptionsPanelC1EPN4vgui5PanelEPKc
__ZN18CDebugOptionsPanelD0Ev
__ZN18CDebugOptionsPanelD1Ev
__ZN18CDemoActionManager10SaveToFileEv
__ZN18CDemoActionManager11StopPlayingEv
__ZN18CDemoActionManager12OverrideViewER13democmdinfo_ti
__ZN18CDemoActionManager12RemoveActionEP15CBaseDemoAction
__ZN18CDemoActionManager12SaveToBufferER10CUtlBuffer
__ZN18CDemoActionManager12StartPlayingEPKc
__ZN18CDemoActionManager14DispatchEventsEv
__ZN18CDemoActionManager14GetActionCountEv
__ZN18CDemoActionManager14ReloadFromDiskEv
__ZN18CDemoActionManager15InsertFireEventEP15CBaseDemoAction
__ZN18CDemoActionManager18GetCurrentDemoFileEv
__ZN18CDemoActionManager4InitEv
__ZN18CDemoActionManager6UpdateEbif
__ZN18CDemoActionManager8SetDirtyEb
__ZN18CDemoActionManager8ShutdownEv
__ZN18CDemoActionManager9AddActionEP15CBaseDemoAction
__ZN18CDemoActionManager9GetActionEi
__ZN18CDemoActionManagerD0Ev
__ZN18CDemoActionManagerD1Ev
__ZN18CDemoSmootherPanel10DrawLegendEii
__ZN18CDemoSmootherPanel10GetAnimMapEv
__ZN18CDemoSmootherPanel11OnGotoFrameEv
__ZN18CDemoSmootherPanel12OnVDMChangedEv
__ZN18CDemoSmootherPanel12OverrideViewER13democmdinfo_ti
__ZN18CDemoSmootherPanel13DrawKeySplineEv
__ZN18CDemoSmootherPanel13GetMessageMapEv
__ZN18CDemoSmootherPanel13OnRevertPointEv
__ZN18CDemoSmootherPanel13OnSmoothEdgesEbb
__ZN18CDemoSmootherPanel14OnLookAtPointsEb
__ZN18CDemoSmootherPanel16DrawTargetSplineEv
__ZN18CDemoSmootherPanel16OnToggleKeyFrameEv
__ZN18CDemoSmootherPanel17DrawDebuggingInfoEif
__ZN18CDemoSmootherPanel17GetPanelClassNameEv
__ZN18CDemoSmootherPanel17LoadSmoothingInfoEPKcR17CSmoothingContext
__ZN18CDemoSmootherPanel17OnOriginEaseCurveEPFffE
__ZN18CDemoSmootherPanel17SaveSmoothingInfoEPKcR17CSmoothingContext
__ZN18CDemoSmootherPanel18ClearSmoothingInfoER17CSmoothingContext
__ZN18CDemoSmootherPanel18OnToggleLookTargetEv
__ZN18CDemoSmootherPanel18ParseSmoothingInfoER9CDemoFileR17CSmoothingContext
__ZN18CDemoSmootherPanel19ApplySchemeSettingsEPN4vgui7ISchemeE
__ZN18CDemoSmootherPanel19DrawSmoothingSampleEbbiP15demosmoothing_tS1_
__ZN18CDemoSmootherPanel20OnSplineSampleAnglesEv
__ZN18CDemoSmootherPanel20OnSplineSampleOriginEv
__ZN18CDemoSmootherPanel23OnSmoothSelectionAnglesEv
__ZN18CDemoSmootherPanel23OnSmoothSelectionOriginEv
__ZN18CDemoSmootherPanel30GetInterpolatedOriginAndAnglesEbR6VectorR6QAngle
__ZN18CDemoSmootherPanel39PerformLinearInterpolatedAngleSmoothingEii
__ZN18CDemoSmootherPanel41OnLinearInterpolateOriginBasedOnEndpointsEv
__ZN18CDemoSmootherPanel4RedoEv
__ZN18CDemoSmootherPanel4UndoEv
__ZN18CDemoSmootherPanel6OnStepEb
__ZN18CDemoSmootherPanel6OnTickEv
__ZN18CDemoSmootherPanel8GetKBMapEv
__ZN18CDemoSmootherPanel8OnRevertEv
__ZN18CDemoSmootherPanel8OnSelectEv
__ZN18CDemoSmootherPanel8PushRedoEPKc
__ZN18CDemoSmootherPanel8PushUndoEPKc
__ZN18CDemoSmootherPanel8WipeRedoEv
__ZN18CDemoSmootherPanel8WipeUndoEv
__ZN18CDemoSmootherPanel9OnCommandEPKc
__ZN18CDemoSmootherPanel9OnPreviewEb
__ZN18CDemoSmootherPanel9OnSaveKeyEv
__ZN18CDemoSmootherPanel9OnSetKeysEf
__ZN18CDemoSmootherPanel9OnSetViewEv
__ZN18CDemoSmootherPanelC1EPN4vgui5PanelE
__ZN18CDemoSmootherPanelD0Ev
__ZN18CDemoSmootherPanelD1Ev
__ZN18CEngineBugReporter21InstallBugReportingUIEPN4vgui5PanelEN18IEngineBugReporter7BR_TYPEE
__ZN18CEngineBugReporter4InitEv
__ZN18CEngineBugReporter8ShutdownEv
__ZN18CEngineSoundClient11SetRoomTypeER16IRecipientFilteri
__ZN18CEngineSoundClient12SetPlayerDSPER16IRecipientFilterib
__ZN18CEngineSoundClient13PrecacheSoundEPKcbb
__ZN18CEngineSoundClient13PrefetchSoundEPKc
__ZN18CEngineSoundClient13StopAllSoundsEb
__ZN18CEngineSoundClient15GetActiveSoundsER10CUtlVectorI9SndInfo_t10CUtlMemoryIS1_iEE
__ZN18CEngineSoundClient15SetVolumeByGuidEif
__ZN18CEngineSoundClient15StopSoundByGuidEi
__ZN18CEngineSoundClient16EmitAmbientSoundEPKcfiif
__ZN18CEngineSoundClient16GetSoundDurationEPKc
__ZN18CEngineSoundClient16IsSoundPrecachedEPKc
__ZN18CEngineSoundClient17EmitSoundInternalER16IRecipientFilteriiPKcf12soundlevel_tiiiPK6VectorS7_P10CUtlVectorIS5_10CUtlMemoryIS5_iEEbfi
__ZN18CEngineSoundClient19EmitSentenceByIndexER16IRecipientFilteriiif12soundlevel_tiiiPK6VectorS5_P10CUtlVectorIS3_10CUtlMemoryIS3_iEEbfi
__ZN18CEngineSoundClient19IsSoundStillPlayingEi
__ZN18CEngineSoundClient21PrecacheSentenceGroupEPKc
__ZN18CEngineSoundClient22NotifyEndMoviePlaybackEv
__ZN18CEngineSoundClient24NotifyBeginMoviePlaybackEv
__ZN18CEngineSoundClient25GetDistGainFromSoundLevelE12soundlevel_tf
__ZN18CEngineSoundClient26GetGuidForLastSoundEmittedEv
__ZN18CEngineSoundClient9EmitSoundER16IRecipientFilteriiPKcf12soundlevel_tiiiPK6VectorS7_P10CUtlVectorIS5_10CUtlMemoryIS5_iEEbfi
__ZN18CEngineSoundClient9EmitSoundER16IRecipientFilteriiPKcffiiiPK6VectorS6_P10CUtlVectorIS4_10CUtlMemoryIS4_iEEbfi
__ZN18CEngineSoundClient9StopSoundEiiPKc
__ZN18CEngineSoundClientD0Ev
__ZN18CEngineSoundClientD1Ev
__ZN18CEngineSoundServer11SetRoomTypeER16IRecipientFilteri
__ZN18CEngineSoundServer12SetPlayerDSPER16IRecipientFilterib
__ZN18CEngineSoundServer13PrecacheSoundEPKcbb
__ZN18CEngineSoundServer13PrefetchSoundEPKc
__ZN18CEngineSoundServer13StopAllSoundsEb
__ZN18CEngineSoundServer15GetActiveSoundsER10CUtlVectorI9SndInfo_t10CUtlMemoryIS1_iEE
__ZN18CEngineSoundServer15SetVolumeByGuidEif
__ZN18CEngineSoundServer15StopSoundByGuidEi
__ZN18CEngineSoundServer16EmitAmbientSoundEPKcfiif
__ZN18CEngineSoundServer16GetSoundDurationEPKc
__ZN18CEngineSoundServer16IsSoundPrecachedEPKc
__ZN18CEngineSoundServer19EmitSentenceByIndexER16IRecipientFilteriiif12soundlevel_tiiiPK6VectorS5_P10CUtlVectorIS3_10CUtlMemoryIS3_iEEbfi
__ZN18CEngineSoundServer19IsSoundStillPlayingEi
__ZN18CEngineSoundServer21PrecacheSentenceGroupEPKc
__ZN18CEngineSoundServer22NotifyEndMoviePlaybackEv
__ZN18CEngineSoundServer24NotifyBeginMoviePlaybackEv
__ZN18CEngineSoundServer25GetDistGainFromSoundLevelE12soundlevel_tf
__ZN18CEngineSoundServer26GetGuidForLastSoundEmittedEv
__ZN18CEngineSoundServer9EmitSoundER16IRecipientFilteriiPKcf12soundlevel_tiiiPK6VectorS7_P10CUtlVectorIS5_10CUtlMemoryIS5_iEEbfi
__ZN18CEngineSoundServer9EmitSoundER16IRecipientFilteriiPKcffiiiPK6VectorS6_P10CUtlVectorIS4_10CUtlMemoryIS4_iEEbfi
__ZN18CEngineSoundServer9StopSoundEiiPKc
__ZN18CEngineSoundServerD0Ev
__ZN18CEngineSoundServerD1Ev
__ZN18CEngineTraceClient14GetCollideableEP13IHandleEntity
__ZN18CEngineTraceClient14SetTraceEntityEP12ICollideableP10CGameTrace
__ZN18CEngineTraceClient19GetWorldCollideableEv
__ZN18CEngineTraceClient25HandleEntityToCollideableEP13IHandleEntityPP12ICollideablePPKc
__ZN18CEngineTraceServer14GetCollideableEP13IHandleEntity
__ZN18CEngineTraceServer14SetTraceEntityEP12ICollideableP10CGameTrace
__ZN18CEngineTraceServer19GetWorldCollideableEv
__ZN18CEngineTraceServer25HandleEntityToCollideableEP13IHandleEntityPP12ICollideablePPKc
__ZN18CEntityReportPanel10ShouldDrawEv
__ZN18CEntityReportPanel11ApplyEffectEP10ENTITYBITSRiS2_S2_
__ZN18CEntityReportPanel19ApplySchemeSettingsEPN4vgui7ISchemeE
__ZN18CEntityReportPanel5PaintEv
__ZN18CEntityReportPanel9DrawEntryEiiiii
__ZN18CEntityReportPanelC1EPN4vgui5PanelE
__ZN18CEntityReportPanelD0Ev
__ZN18CEntityReportPanelD1Ev
__ZN18CEnumerationFilter11EnumElementEP13IHandleEntity
__ZN18CFSSearchPathsInitC1Ev
__ZN18CFocusOverlayPanel14PostChildPaintEv
__ZN18CFocusOverlayPanel18DrawFocusPanelListEv
__ZN18CFocusOverlayPanel20DrawTitleSafeOverlayEv
__ZN18CFocusOverlayPanelC1EPN4vgui5PanelEPKc
__ZN18CFocusOverlayPanelD0Ev
__ZN18CFocusOverlayPanelD1Ev
__ZN18CMaterialReference4InitEP9IMaterial
__ZN18CMaterialReference4InitEPKcS1_b
__ZN18CMaterialReference8ShutdownEv
__ZN18CMaterialReferenceC1EPKcS1_b
__ZN18CMaterialReferenceD1Ev
__ZN18CModAppSystemGroup12PostShutdownEv
__ZN18CModAppSystemGroup4MainEv
__ZN18CModAppSystemGroup6CreateEv
__ZN18CModAppSystemGroup7DestroyEv
__ZN18CModAppSystemGroup7PreInitEv
__ZN18CNetworkStringDict12IsValidIndexEi
__ZN18CNetworkStringDict4FindEPKc
__ZN18CNetworkStringDict5CountEv
__ZN18CNetworkStringDict5PurgeEv
__ZN18CNetworkStringDict6InsertEPKc
__ZN18CNetworkStringDict6StringEi
__ZN18CNetworkStringDict7ElementEi
__ZN18CNetworkStringDictD0Ev
__ZN18CNetworkStringDictD1Ev
__ZN18CP4AutoEditAddFileD2Ev
__ZN18CParallelProcessorI10PackWork_t21CFuncJobItemProcessorIS0_EE3RunEPS0_jiP11IThreadPool
__ZN18CParallelProcessorI10PackWork_t21CFuncJobItemProcessorIS0_EE9DoExecuteEv
__ZN18CParallelProcessorIP11CGameClient21CFuncJobItemProcessorIS1_EE3RunEPS1_jiP11IThreadPool
__ZN18CParallelProcessorIP11CGameClient21CFuncJobItemProcessorIS1_EE9DoExecuteEv
__ZN18CPointContentsEnum11EnumElementEP13IHandleEntity
__ZN18CServerEngineTools10InToolModeEv
__ZN18CServerEngineTools13GetEntityDataEPKc
__ZN18CServerEngineTools23PreClientUpdateAllToolsEv
__ZN18CServerEngineTools26LevelInitPreEntityAllToolsEv
__ZN18CServerEngineTools26PreSetupVisibilityAllToolsEv
__ZN18CServerEngineTools27LevelInitPostEntityAllToolsEv
__ZN18CServerEngineTools30LevelShutdownPreEntityAllToolsEv
__ZN18CServerEngineTools31LevelShutdownPostEntityAllToolsEv
__ZN18CServerEngineTools33FrameUpdatePreEntityThinkAllToolsEv
__ZN18CServerEngineTools34FrameUpdatePostEntityThinkAllToolsEv
__ZN18CServerEngineToolsD0Ev
__ZN18CServerEngineToolsD1Ev
__ZN18CTextureIdProperty15InitFromDefaultEPN4vgui5PanelEP22PanelAnimationMapEntry
__ZN18CTextureIdProperty7GetDataEPN4vgui5PanelEP9KeyValuesP22PanelAnimationMapEntry
__ZN18CTextureIdProperty7SetDataEPN4vgui5PanelEP9KeyValuesP22PanelAnimationMapEntry
__ZN18CTraceFilterHitAll15ShouldHitEntityEP13IHandleEntityi
__ZN18CUtlCachedFileDataI22CAudioSourceCachedInfoE10IsUpToDateEv
__ZN18CUtlCachedFileDataI22CAudioSourceCachedInfoE11RebuildItemEPKc
__ZN18CUtlCachedFileDataI22CAudioSourceCachedInfoE12SaveManifestEv
__ZN18CUtlCachedFileDataI22CAudioSourceCachedInfoE13CheckDiskInfoEbl
__ZN18CUtlCachedFileDataI22CAudioSourceCachedInfoE15InitLargeBufferERPvRb
__ZN18CUtlCachedFileDataI22CAudioSourceCachedInfoE15InitSmallBufferERPviRb
__ZN18CUtlCachedFileDataI22CAudioSourceCachedInfoE22FileNameHandleLessFuncERKNS1_13ElementType_tES4_
__ZN18CUtlCachedFileDataI22CAudioSourceCachedInfoE3GetEPKc
__ZN18CUtlCachedFileDataI22CAudioSourceCachedInfoE4InitEv
__ZN18CUtlCachedFileDataI22CAudioSourceCachedInfoE4SaveEv
__ZN18CUtlCachedFileDataI22CAudioSourceCachedInfoE8GetIndexEPKc
__ZN18CUtlCachedFileDataI22CAudioSourceCachedInfoE8ShutdownEv
__ZN18CUtlCachedFileDataI22CAudioSourceCachedInfoED0Ev
__ZN18CUtlCachedFileDataI22CAudioSourceCachedInfoED1Ev
__ZN18CUtlCachedFileDataI22CAudioSourceCachedInfoED2Ev
__ZN18CUtlCharConversion14FindConversionEPKcPi
__ZN18MenuItemCheckImage5PaintEv
__ZN18MenuItemCheckImageD0Ev
__ZN18MenuItemCheckImageD1Ev
__ZN18SVC_CrosshairAngle13WriteToBufferER8bf_write
__ZN18SVC_CrosshairAngle14ReadFromBufferER7bf_read
__ZN18SVC_CrosshairAngle7ProcessEv
__ZN18SVC_CrosshairAngleD0Ev
__ZN18SVC_CrosshairAngleD1Ev
__ZN18SVC_PacketEntities13WriteToBufferER8bf_write
__ZN18SVC_PacketEntities14ReadFromBufferER7bf_read
__ZN18SVC_PacketEntities7ProcessEv
__ZN18SVC_PacketEntitiesD0Ev
__ZN18SVC_PacketEntitiesD1Ev
__ZN18UserReportedFile_t4LessERKS_S1_
__ZN18VoiceRecord_OpenAL10RecordStopEv
__ZN18VoiceRecord_OpenAL11RecordStartEv
__ZN18VoiceRecord_OpenAL15GetRecordedDataEPsi
__ZN18VoiceRecord_OpenAL4IdleEv
__ZN18VoiceRecord_OpenAL4InitEi
__ZN18VoiceRecord_OpenAL7ReleaseEv
__ZN18VoiceRecord_OpenALD0Ev
__ZN18VoiceRecord_OpenALD1Ev
__ZN18WingedEdgeLessFunc4LessERKiS1_Pv
__ZN19CAreaPortalsUIPanel10DeactivateEv
__ZN19CAreaPortalsUIPanel10GetAnimMapEv
__ZN19CAreaPortalsUIPanel13GetMessageMapEv
__ZN19CAreaPortalsUIPanel17GetPanelClassNameEv
__ZN19CAreaPortalsUIPanel8ActivateEv
__ZN19CAreaPortalsUIPanel8GetKBMapEv
__ZN19CAreaPortalsUIPanelC1EPN4vgui5PanelE
__ZN19CAreaPortalsUIPanelD0Ev
__ZN19CAreaPortalsUIPanelD1Ev
__ZN19CAudioSourceMemWave10ParseChunkER11IterateRIFFi
__ZN19CAudioSourceMemWave11CacheUnloadEv
__ZN19CAudioSourceMemWave11CreateMixerEi
__ZN19CAudioSourceMemWave13GetOutputDataEPPviiPc
__ZN19CAudioSourceMemWave14GetCacheStatusEv
__ZN19CAudioSourceMemWave14GetDataPointerEv
__ZN19CAudioSourceMemWave14ParseDataChunkER11IterateRIFF
__ZN19CAudioSourceMemWave17ZeroCrossingAfterEi
__ZN19CAudioSourceMemWave18ZeroCrossingBeforeEi
__ZN19CAudioSourceMemWave8PrefetchEv
__ZN19CAudioSourceMemWave9CacheLoadEv
__ZN19CAudioSourceMemWaveD0Ev
__ZN19CAudioSourceMemWaveD1Ev
__ZN19CBudgetHistoryPanel5PaintEv
__ZN19CBudgetHistoryPanel7SetDataEPdiii
__ZN19CBudgetHistoryPanel8SetRangeEff
__ZN19CBudgetHistoryPanelC1EP16CBaseBudgetPanelPKc
__ZN19CBudgetHistoryPanelD0Ev
__ZN19CBudgetHistoryPanelD1Ev
__ZN19CBuildModeDialogMgr3AddEPN4vgui15BuildModeDialogE
__ZN19CBuildModeDialogMgrD1Ev
__ZN19CClientFrameManager13AllocateFrameEv
__ZN19CClientFrameManager14AddClientFrameEP12CClientFrame
__ZN19CClientFrameManager14GetClientFrameEib
__ZN19CClientFrameManager17RemoveOldestFrameEv
__ZN19CClientFrameManager18DeleteClientFramesEi
