GCC_except_table0
GCC_except_table0
GCC_except_table0
GCC_except_table0
GCC_except_table0
GCC_except_table0
GCC_except_table0
GCC_except_table0
GCC_except_table0
GCC_except_table1
GCC_except_table1
GCC_except_table1
GCC_except_table1
GCC_except_table1
GCC_except_table1
GCC_except_table1
GCC_except_table10
GCC_except_table10
GCC_except_table10
GCC_except_table10
GCC_except_table10
GCC_except_table10
GCC_except_table102
GCC_except_table102
GCC_except_table104
GCC_except_table104
GCC_except_table107
GCC_except_table11
GCC_except_table11
GCC_except_table11
GCC_except_table11
GCC_except_table11
GCC_except_table11
GCC_except_table112
GCC_except_table112
GCC_except_table117
GCC_except_table117
GCC_except_table118
GCC_except_table119
GCC_except_table12
GCC_except_table12
GCC_except_table12
GCC_except_table12
GCC_except_table12
GCC_except_table12
GCC_except_table12
GCC_except_table12
GCC_except_table120
GCC_except_table121
GCC_except_table121
GCC_except_table122
GCC_except_table123
GCC_except_table125
GCC_except_table126
GCC_except_table126
GCC_except_table127
GCC_except_table128
GCC_except_table129
GCC_except_table1295
GCC_except_table1296
GCC_except_table13
GCC_except_table13
GCC_except_table13
GCC_except_table130
GCC_except_table130
GCC_except_table132
GCC_except_table133
GCC_except_table134
GCC_except_table134
GCC_except_table136
GCC_except_table136
GCC_except_table138
GCC_except_table14
GCC_except_table14
GCC_except_table14
GCC_except_table140
GCC_except_table143
GCC_except_table144
GCC_except_table145
GCC_except_table146
GCC_except_table147
GCC_except_table148
GCC_except_table148
GCC_except_table149
GCC_except_table15
GCC_except_table15
GCC_except_table15
GCC_except_table154
GCC_except_table1575
GCC_except_table158
GCC_except_table158
GCC_except_table16
GCC_except_table16
GCC_except_table16
GCC_except_table16
GCC_except_table160
GCC_except_table163
GCC_except_table167
GCC_except_table168
GCC_except_table1682
GCC_except_table1683
GCC_except_table1684
GCC_except_table1685
GCC_except_table1686
GCC_except_table1687
GCC_except_table169
GCC_except_table17
GCC_except_table17
GCC_except_table17
GCC_except_table17
GCC_except_table171
GCC_except_table1748
GCC_except_table1750
GCC_except_table176
GCC_except_table178
GCC_except_table18
GCC_except_table18
GCC_except_table18
GCC_except_table18
GCC_except_table18
GCC_except_table180
GCC_except_table185
GCC_except_table1872
GCC_except_table1873
GCC_except_table1880
GCC_except_table19
GCC_except_table19
GCC_except_table19
GCC_except_table192
GCC_except_table193
GCC_except_table194
GCC_except_table197
GCC_except_table197
GCC_except_table197
GCC_except_table198
GCC_except_table198
GCC_except_table198
GCC_except_table199
GCC_except_table199
GCC_except_table2
GCC_except_table2
GCC_except_table20
GCC_except_table20
GCC_except_table20
GCC_except_table20
GCC_except_table200
GCC_except_table201
GCC_except_table202
GCC_except_table203
GCC_except_table204
GCC_except_table205
GCC_except_table206
GCC_except_table206
GCC_except_table207
GCC_except_table207
GCC_except_table208
GCC_except_table208
GCC_except_table209
GCC_except_table21
GCC_except_table21
GCC_except_table21
GCC_except_table21
GCC_except_table210
GCC_except_table212
GCC_except_table213
GCC_except_table213
GCC_except_table214
GCC_except_table215
GCC_except_table215
GCC_except_table216
GCC_except_table218
GCC_except_table218
GCC_except_table219
GCC_except_table22
GCC_except_table22
GCC_except_table22
GCC_except_table22
GCC_except_table22
GCC_except_table223
GCC_except_table224
GCC_except_table224
GCC_except_table225
GCC_except_table225
GCC_except_table229
GCC_except_table23
GCC_except_table230
GCC_except_table233
GCC_except_table234
GCC_except_table235
GCC_except_table236
GCC_except_table236
GCC_except_table237
GCC_except_table238
GCC_except_table238
GCC_except_table239
GCC_except_table24
GCC_except_table24
GCC_except_table24
GCC_except_table24
GCC_except_table24
GCC_except_table240
GCC_except_table240
GCC_except_table240
GCC_except_table241
GCC_except_table242
GCC_except_table243
GCC_except_table245
GCC_except_table246
GCC_except_table247
GCC_except_table247
GCC_except_table248
GCC_except_table249
GCC_except_table25
GCC_except_table25
GCC_except_table25
GCC_except_table25
GCC_except_table25
GCC_except_table250
GCC_except_table26
GCC_except_table262
GCC_except_table27
GCC_except_table27
GCC_except_table27
GCC_except_table27
GCC_except_table27
GCC_except_table274
GCC_except_table274
GCC_except_table275
GCC_except_table276
GCC_except_table277
GCC_except_table277
GCC_except_table279
GCC_except_table28
GCC_except_table28
GCC_except_table283
GCC_except_table285
GCC_except_table29
GCC_except_table29
GCC_except_table29
GCC_except_table298
GCC_except_table3
GCC_except_table3
GCC_except_table3
GCC_except_table3
GCC_except_table3
GCC_except_table3
GCC_except_table30
GCC_except_table30
GCC_except_table30
GCC_except_table30
GCC_except_table31
GCC_except_table31
GCC_except_table31
GCC_except_table315
GCC_except_table32
GCC_except_table32
GCC_except_table32
GCC_except_table32
GCC_except_table32
GCC_except_table33
GCC_except_table33
GCC_except_table33
GCC_except_table33
GCC_except_table33
GCC_except_table34
GCC_except_table34
GCC_except_table34
GCC_except_table34
GCC_except_table34
GCC_except_table34
GCC_except_table342
GCC_except_table346
GCC_except_table347
GCC_except_table348
GCC_except_table349
GCC_except_table35
GCC_except_table35
GCC_except_table35
GCC_except_table35
GCC_except_table350
GCC_except_table36
GCC_except_table36
GCC_except_table36
GCC_except_table361
GCC_except_table362
GCC_except_table37
GCC_except_table37
GCC_except_table37
GCC_except_table37
GCC_except_table38
GCC_except_table38
GCC_except_table38
GCC_except_table38
GCC_except_table38
GCC_except_table38
GCC_except_table384
GCC_except_table386
GCC_except_table387
GCC_except_table39
GCC_except_table39
GCC_except_table397
GCC_except_table4
GCC_except_table4
GCC_except_table4
GCC_except_table4
GCC_except_table40
GCC_except_table40
GCC_except_table41
GCC_except_table41
GCC_except_table42
GCC_except_table43
GCC_except_table43
GCC_except_table43
GCC_except_table44
GCC_except_table44
GCC_except_table45
GCC_except_table45
GCC_except_table45
GCC_except_table45
GCC_except_table457
GCC_except_table46
GCC_except_table461
GCC_except_table47
GCC_except_table47
GCC_except_table47
GCC_except_table47
GCC_except_table472
GCC_except_table48
GCC_except_table48
GCC_except_table48
GCC_except_table49
GCC_except_table492
GCC_except_table493
GCC_except_table5
GCC_except_table5
GCC_except_table5
GCC_except_table50
GCC_except_table50
GCC_except_table50
GCC_except_table509
GCC_except_table51
GCC_except_table51
GCC_except_table51
GCC_except_table513
GCC_except_table514
GCC_except_table52
GCC_except_table52
GCC_except_table52
GCC_except_table52
GCC_except_table52
GCC_except_table52
GCC_except_table52
GCC_except_table53
GCC_except_table54
GCC_except_table54
GCC_except_table54
GCC_except_table57
GCC_except_table58
GCC_except_table58
GCC_except_table59
GCC_except_table59
GCC_except_table59
GCC_except_table6
GCC_except_table6
GCC_except_table6
GCC_except_table6
GCC_except_table60
GCC_except_table60
GCC_except_table61
GCC_except_table61
GCC_except_table62
GCC_except_table63
GCC_except_table63
GCC_except_table64
GCC_except_table64
GCC_except_table65
GCC_except_table66
GCC_except_table66
GCC_except_table67
GCC_except_table67
GCC_except_table68
GCC_except_table68
GCC_except_table68
GCC_except_table69
GCC_except_table69
GCC_except_table69
GCC_except_table7
GCC_except_table7
GCC_except_table7
GCC_except_table7
GCC_except_table7
GCC_except_table7
GCC_except_table70
GCC_except_table70
GCC_except_table70
GCC_except_table709
GCC_except_table71
GCC_except_table71
GCC_except_table712
GCC_except_table72
GCC_except_table72
GCC_except_table72
GCC_except_table72
GCC_except_table73
GCC_except_table73
GCC_except_table73
GCC_except_table74
GCC_except_table75
GCC_except_table75
GCC_except_table757
GCC_except_table758
GCC_except_table76
GCC_except_table76
GCC_except_table77
GCC_except_table77
GCC_except_table78
GCC_except_table78
GCC_except_table79
GCC_except_table8
GCC_except_table8
GCC_except_table80
GCC_except_table80
GCC_except_table80
GCC_except_table81
GCC_except_table81
GCC_except_table82
GCC_except_table82
GCC_except_table83
GCC_except_table84
GCC_except_table85
GCC_except_table87
GCC_except_table87
GCC_except_table87
GCC_except_table87
GCC_except_table87
GCC_except_table88
GCC_except_table88
GCC_except_table88
GCC_except_table88
GCC_except_table88
GCC_except_table89
GCC_except_table89
GCC_except_table9
GCC_except_table9
GCC_except_table9
GCC_except_table9
GCC_except_table90
GCC_except_table90
GCC_except_table91
GCC_except_table91
GCC_except_table910
GCC_except_table911
GCC_except_table92
GCC_except_table92
GCC_except_table93
GCC_except_table936
GCC_except_table937
GCC_except_table938
GCC_except_table94
GCC_except_table940
GCC_except_table941
GCC_except_table942
GCC_except_table95
GCC_except_table96
GCC_except_table97
GCC_except_table97
GCC_except_table99
_.memset_pattern
_COM_TimestampedLog
_CallAssertFailedNotifyFunc
_CommandLine_Tier0
_CreateInterface
_CreateSimpleThread
_CreateThreadPool
_DMsg
_DoNewAssertDialog
_Error
_KeyValuesSystem
_LzmaDec_Allocate
_LzmaDec_AllocateProbs
_LzmaDec_DecodeToBuf
_LzmaDec_DecodeToDic
_LzmaDec_Free
_LzmaDec_Init
_LzmaDecode
_Msg
_Plat_ExitProcess
_Plat_FloatTime
_Plat_GetCommandLine
_Plat_IsInDebugSession
_Plat_MSTime
_RandomInt
_ReleaseThreadHandle
_ShouldUseNewAssertDialog
_ThreadGetCurrentId
_ThreadGetPriority
_ThreadInMainThread
_ThreadInterlockedAssignIf
_ThreadInterlockedAssignIf64
_ThreadInterlockedCompareExchangePointer
_ThreadInterlockedDecrement
_ThreadInterlockedExchange
_ThreadInterlockedExchangeAdd
_ThreadInterlockedIncrement
_ThreadJoin
_ThreadSetDebugName
_ThreadSetPriority
_ThreadSleep
_Warning
__DefaultRuneLocale
__ExitOnFatalAssert
__GLOBAL__sub_I_KeyValues.stdout.rel_tf_osx_builder.55432.qZWQhg.ii
__GLOBAL__sub_I_QueuedLoad.stdout.rel_tf_osx_builder.58679.zqjDp9.ii
__GLOBAL__sub_I_basefilesy.stdout.rel_tf_osx_builder.17830.WEkgPa.ii
__GLOBAL__sub_I_convar.stdout.rel_tf_osx_builder.55430.mXKsKU.ii
__GLOBAL__sub_I_cryptlib.cpp
__GLOBAL__sub_I_crypto.stdout.rel_tf_osx_builder.13867.ry8O4a.ii
__GLOBAL__sub_I_filesystem.stdout.rel_tf_osx_builder.58676.w0B84J.ii
__GLOBAL__sub_I_filesystem.stdout.rel_tf_osx_builder.58677.l7G3sc.ii
__GLOBAL__sub_I_filetracke.stdout.rel_tf_osx_builder.58678.3bAIvV.ii
__GLOBAL__sub_I_lzmaDecode.stdout.rel_tf_osx_builder.55433.LctBPo.ii
__GLOBAL__sub_I_packfile.stdout.rel_tf_osx_builder.58680.7Djq2G.ii
__GLOBAL__sub_I_utlbuffer.stdout.rel_tf_osx_builder.8986.vt30zT.ii
__GLOBAL__sub_I_utlsymbol.stdout.rel_tf_osx_builder.55484.zcRfnN.ii
__GLOBAL__sub_I_zip_utils.stdout.rel_tf_osx_builder.58674.8tw6U9.ii
__SpewInfo
__SpewMessage
__Unwind_Resume
__Z10CRC32_InitPj
__Z10DevWarningPKcz
__Z10FileSelectPK6dirent
__Z10HashStringPKc
__Z10V_FileBasePKcPci
__Z10V_snprintfPciPKcz
__Z10V_strlowerPc
__Z10V_strnicmpPKcS0_i
__Z11CRC32_FinalPj
__Z11V_vsnprintfPciPKcS_
__Z12FindNextFilePvP9FIND_DATA
__Z12V_FixSlashesPcc
__Z13FindFirstFilePKcP9FIND_DATA
__Z13Q_UTF32ToUTF8PKwPci25EStringConvertErrorPolicy
__Z13V_AppendSlashPci
__Z13V_GetFileNamePKc
__Z13V_binarytohexPKhiPci
__Z14BaseFileSystemv
__Z14FillDataStructP9FIND_DATA
__Z14Sys_LoadModulePKc9Sys_Flags
__Z14V_SetExtensionPcPKci
__Z14V_sprintf_safeILm512EEiRAT__cPKcz
__Z15ConVar_RegisteriP23IConCommandBaseAccessor
__Z15IOAsyncCallbackRK18FileAsyncRequest_ti15FSAsyncStatus_t
__Z15Sys_LoadLibraryPKc9Sys_Flags
__Z15V_StripFilenamePc
__Z16IOComputationJobP9FileJob_tPvi13LoaderError_t
__Z16Sys_UnloadModuleP10CSysModule
__Z16V_IsAbsolutePathPKc
__Z17ConVar_Unregisterv
__Z17StringAfterPrefixPKcS0_
__Z17V_ComposeFileNamePKcS0_Pci
__Z17V_ExtractFilePathPKcPci
__Z18AdjustAsyncIOSpeedv
__Z18FinishAnonymousJobP9FileJob_tPFvPvS1_PKvi13LoaderError_tES1_S1_
__Z18V_FixDoubleSlashesPc
__Z18V_GetFileExtensionPKc
__Z18V_MakeAbsolutePathPciPKcS1_
__Z18V_RemoveDotSlashesPccb
__Z19CRC32_ProcessBufferPjPKvi
__Z19EvaluateConditionalPKc
__Z19SplitFileComponentsPKcPcS1_S1_
__Z20V_StripTrailingSlashPc
__Z21ConnectTier1LibrariesPPFPvPKcPiEi
__Z21ConnectTier2LibrariesPPFPvPKcPiEi
__Z21DefaultCompletionFuncPKcPA64_c
__Z21V_UnqualifiedFileNamePKc
__Z22CaselessStringLessThanRKPKcS2_
__Z22GetNoEscCharConversionv
__Z22V_ExtractFileExtensionPKcPci
__Z24DisconnectTier1Librariesv
__Z24DisconnectTier2Librariesv
__Z24GetCStringCharConversionv
__Z26UseOptimalBufferAllocationv
__Z28ThreadStubProcessMD5RequestsPv
__Z30HashStringCaselessConventionalPKc
__Z6DevMsgPKcz
__Z6V_atofPKc
__Z7MD5InitP12MD5Context_t
__Z7StrLessRKPKcS2_
__Z8MD5FinalPhP12MD5Context_t
__Z8V_struprPc
__Z9FindClosePv
__Z9MD5UpdateP12MD5Context_tPKhj
__Z9V_stricmpPKcS0_
__Z9V_stristrPKcS0_
__Z9V_stristrPcPKc
__Z9V_strncatPcPKcmi
__Z9V_strncmpPKcS0_i
__Z9V_strncpyPcPKci
__ZGVZ11DataMapInitI14ZIP_FileHeaderEP9datamap_tPT_E10nameHolder
__ZGVZ11DataMapInitI17ZIP_PreloadHeaderEP9datamap_tPT_E10nameHolder
__ZGVZ11DataMapInitI19ZIP_LocalFileHeaderEP9datamap_tPT_E10nameHolder
__ZGVZ11DataMapInitI25ZIP_EndOfCentralDirRecordEP9datamap_tPT_E10nameHolder
__ZGVZ11DataMapInitI25ZIP_PreloadDirectoryEntryEP9datamap_tPT_E10nameHolder
__ZGVZ26UseOptimalBufferAllocationvE27bUseOptimalBufferAllocation
__ZGVZN12CPackedStore13GetFileHandleEiE7invalid
__ZGVZN15CBaseFileSystem15LogAccessToFileEPKcS1_S1_E11autoMutex__
__ZGVZN8CryptoPP12TheBitBucketEvE9bitBucket
__ZGVZN8CryptoPP7NullRNGEvE9s_nullRNG
__ZGVZNK8CryptoPP9SingletonINS_39PKCS1v15_SignatureMessageEncodingMethodENS_9NewObjectIS1_EELi0EE3RefEvE9s_pObject
__ZGVZNK8CryptoPP9SingletonINS_7IntegerENS_10NewIntegerILl1EEELi0EE3RefEvE9s_pObject
__ZGVZNK8CryptoPP9SingletonINS_7IntegerENS_9NewObjectIS1_EELi0EE3RefEvE9s_pObject
__ZL10g_ZipUtils
__ZL11LogFileOpenPKcS0_S0_
__ZL11g_SuspendIO
__ZL11g_nIOMemory
__ZL11pulCRCTable
__ZL11s_nCVarFlag
__ZL11s_pTokenBuf
__ZL11vec2_origin
__ZL11vec2_origin
__ZL11vec2_origin
__ZL11vec2_origin
__ZL11vec2_origin
__ZL11vec2_origin
__ZL11vec2_origin
__ZL11vec2_origin
__ZL11vec2_origin
__ZL11vec2_origin
__ZL11vec2_origin
__ZL11vec2_origin
__ZL11vec2_origin
__ZL12MD5TransformPjPKj
__ZL12async_resumeRK8CCommand
__ZL12s_bConnected
__ZL12vec2_invalid
__ZL12vec2_invalid
__ZL12vec2_invalid
__ZL12vec2_invalid
__ZL12vec2_invalid
__ZL12vec2_invalid
__ZL12vec2_invalid
__ZL12vec2_invalid
__ZL12vec2_invalid
__ZL12vec2_invalid
__ZL12vec2_invalid
__ZL12vec2_invalid
__ZL12vec2_invalid
__ZL13async_suspendRK8CCommand
__ZL13g_nActiveJobs
__ZL13g_nQueuedJobs
__ZL13s_EmptyConVar
__ZL13s_bRegistered
__ZL14g_QueuedLoader
__ZL15g_nIOMemoryPeak
__ZL15g_nRandomValues
__ZL15s_DummyProgress
__ZL16LzmaDec_TryDummyPK8CLzmaDecPKhm
__ZL16g_pStaticLZMABuf
__ZL16s_nDLLIdentifier
__ZL17g_nAsyncWriteJobs
__ZL17g_pBaseFileSystem
__ZL17loader_dump_tableRK8CCommand
__ZL17s_DefaultAccessor
__ZL19AsyncWriteJobFilterP4CJob
__ZL19LzmaDec_DecodeReal2P8CLzmaDecmPKh
__ZL19g_nHighPriorityJobs
__ZL19trackerlistallfiles
__ZL19trackerlistvpkfiles
__ZL20async_resume_command
__ZL20g_CleanupSymbolTable
__ZL20g_nAnonymousIOMemory
__ZL20g_unStaticLZMABufRef
__ZL21async_suspend_command
__ZL21g_unStaticLZMABufSize
__ZL21s_LastFileLoadingFrom
__ZL22CC_TrackerListAllFilesRK8CCommand
__ZL22CC_TrackerListVPKFilesRK8CCommand
__ZL24g_nAnonymousIOMemoryPeak
__ZL25g_nJobsToFinishBeforePlay
__ZL25loader_dump_table_command
__ZL25s_StaticCryptoConstructor
__ZL26s_ResourcePreloadAnonymous
__ZL26s_bRunningWithDebugModules
__ZL35s_pConversionArrays_NoEscConversion
__ZL40__g_CreateCQueuedLoaderIQueuedLoader_reg
__ZL40s_pConversionArrays_StringCharConversion
__ZL42__g_CreateCFileSystem_StdioIFileSystem_reg
__ZL44__CreateCQueuedLoaderIQueuedLoader_interfacev
__ZL46__CreateCFileSystem_StdioIFileSystem_interfacev
__ZL46__g_CreateCFileSystem_StdioIBaseFileSystem_reg
__ZL50__CreateCFileSystem_StdioIBaseFileSystem_interfacev
__ZL6SzFreePvS_
__ZL7SzAllocPvm
__ZL7g_Alloc
__ZL9g_KVMutex
__ZN10CStdioFile10FS_setmodeE10FileMode_t
__ZN10CStdioFile11FS_vfprintfEPKcPc
__ZN10CStdioFile13FS_setbufsizeEj
__ZN10CStdioFile13m_LockedFDMapE
__ZN10CStdioFile15m_MutexLockedFDE
__ZN10CStdioFile7FS_feofEv
__ZN10CStdioFile8FS_fgetsEPci
__ZN10CStdioFile8FS_fopenEPKcS1_Px
__ZN10CStdioFile8FS_freadEPvmm
__ZN10CStdioFile8FS_fseekExi
__ZN10CStdioFile8FS_ftellEv
__ZN10CStdioFile9FS_fcloseEv
__ZN10CStdioFile9FS_ferrorEv
__ZN10CStdioFile9FS_fflushEv
__ZN10CStdioFile9FS_fwriteEPKvm
__ZN10CStdioFileD0Ev
__ZN10CStdioFileD1Ev
__ZN10CUtlBuffer11GetOverflowEi
__ZN10CUtlBuffer11PutOverflowEi
__ZN10CUtlBuffer12AssumeMemoryEPviii
__ZN10CUtlBuffer13EatCPPCommentEv
__ZN10CUtlBuffer13EatWhiteSpaceEv
__ZN10CUtlBuffer13SetBufferTypeEbb
__ZN10CUtlBuffer14EnsureCapacityEi
__ZN10CUtlBuffer14PeekWhiteSpaceEi
__ZN10CUtlBuffer15PeekStringMatchEiPKci
__ZN10CUtlBuffer16PeekStringLengthEv
__ZN10CUtlBuffer17GetStringInternalEPcm
__ZN10CUtlBuffer17SetExternalBufferEPviii
__ZN10CUtlBuffer18AddNullTerminationEv
__ZN10CUtlBuffer18GetDelimitedStringEP18CUtlCharConversionPci
__ZN10CUtlBuffer20ActivateByteSwappingEb
__ZN10CUtlBuffer21CheckArbitraryPeekGetEiRi
__ZN10CUtlBuffer24GetDelimitedCharInternalEP18CUtlCharConversion
__ZN10CUtlBuffer3GetEPvi
__ZN10CUtlBuffer3PutEPKvi
__ZN10CUtlBuffer5ScanfEPKcz
__ZN10CUtlBuffer7PeekGetEii
__ZN10CUtlBuffer7SeekGetENS_10SeekType_tEi
__ZN10CUtlBuffer7SeekPutENS_10SeekType_tEi
__ZN10CUtlBuffer7VaScanfEPKcPc
__ZN10CUtlBuffer8CheckGetEi
__ZN10CUtlBuffer8CheckPutEi
__ZN10CUtlBufferC1EPKvii
__ZN10CUtlBufferC1Eiii
__ZN10CUtlBufferC2EPKvii
__ZN10CUtlBufferC2Eiii
__ZN10CUtlMemoryI15UtlRBTreeNode_tI15CachedVPKRead_ttEtE4GrowEi
__ZN10CUtlMemoryI15UtlRBTreeNode_tIN15CUtlSymbolTable16CStringPoolIndexEtEtE4GrowEi
__ZN10CUtlMemoryI15UtlRBTreeNode_tIN24CCompiledKeyValuesReader10FileInfo_tEtEtE4GrowEi
__ZN10CUtlMemoryI15UtlRBTreeNode_tIN7CUtlMapIPKcP17AsyncOpenedFile_ttPFbRKS3_S7_EE6Node_tEtEtE4GrowEi
__ZN10CUtlMemoryI15UtlRBTreeNode_tIN7CUtlMapIiP14CUtlStringListtPFbRKiS5_EE6Node_tEtEtE4GrowEi
__ZN10CUtlMemoryI15UtlRBTreeNode_tIN7CUtlMapIyP12CThreadMutextPFbRKyS5_EE6Node_tEtEtE4GrowEi
__ZN10CUtlMemoryI19UtlLinkedListElem_tI16CUtlKeyValuePairI19CUtlConstStringBaseIcE7empty_tEtEtE4GrowEi
__ZN10CUtlMemoryI19UtlLinkedListElem_tI17SubmittedMd5Job_ttEtE4GrowEi
__ZN10CUtlMemoryI19UtlLinkedListElem_tIN15CBaseFileSystem10FindData_tEtEtE4GrowEi
__ZN10CUtlMemoryI19UtlLinkedListElem_tIP4CZiptEtE4GrowEi
__ZN10CUtlMemoryI19UtlLinkedListElem_tIP9FileJob_ttEtE4GrowEi
__ZN10CUtlRBTreeI13TrackedFile_tiPFbRKS0_S2_E10CUtlMemoryI15UtlRBTreeNode_tIS0_iEiEE15InsertRebalanceEi
__ZN10CUtlRBTreeI13TrackedFile_tiPFbRKS0_S2_E10CUtlMemoryI15UtlRBTreeNode_tIS0_iEiEE15RemoveRebalanceEi
__ZN10CUtlRBTreeI13TrackedFile_tiPFbRKS0_S2_E10CUtlMemoryI15UtlRBTreeNode_tIS0_iEiEE6InsertES2_
__ZN10CUtlRBTreeI13TrackedFile_tiPFbRKS0_S2_E10CUtlMemoryI15UtlRBTreeNode_tIS0_iEiEE6UnlinkEi
__ZN10CUtlRBTreeI13TrackedFile_tiPFbRKS0_S2_E10CUtlMemoryI15UtlRBTreeNode_tIS0_iEiEE7NewNodeEv
__ZN10CUtlRBTreeI13TrackedFile_tiPFbRKS0_S2_E10CUtlMemoryI15UtlRBTreeNode_tIS0_iEiEE8ReinsertEi
__ZN10CUtlRBTreeI13TrackedFile_tiPFbRKS0_S2_E10CUtlMemoryI15UtlRBTreeNode_tIS0_iEiEED2Ev
__ZN10CUtlRBTreeI14CreateHelper_tiPFbRKS0_S2_E10CUtlMemoryI15UtlRBTreeNode_tIS0_iEiEE15InsertRebalanceEi
__ZN10CUtlRBTreeI14CreateHelper_tiPFbRKS0_S2_E10CUtlMemoryI15UtlRBTreeNode_tIS0_iEiEE6InsertES2_
__ZN10CUtlRBTreeI14CreateHelper_tiPFbRKS0_S2_E10CUtlMemoryI15UtlRBTreeNode_tIS0_iEiEE7NewNodeEv
__ZN10CUtlRBTreeI14CreateHelper_tiPFbRKS0_S2_E10CUtlMemoryI15UtlRBTreeNode_tIS0_iEiEED2Ev
__ZN10CUtlRBTreeI15CachedVPKRead_ttPFbRKS0_S2_E10CUtlMemoryI15UtlRBTreeNode_tIS0_tEtEE10RotateLeftEt
__ZN10CUtlRBTreeI15CachedVPKRead_ttPFbRKS0_S2_E10CUtlMemoryI15UtlRBTreeNode_tIS0_tEtEE11RotateRightEt
__ZN10CUtlRBTreeI15CachedVPKRead_ttPFbRKS0_S2_E10CUtlMemoryI15UtlRBTreeNode_tIS0_tEtEE15InsertRebalanceEt
__ZN10CUtlRBTreeI15CachedVPKRead_ttPFbRKS0_S2_E10CUtlMemoryI15UtlRBTreeNode_tIS0_tEtEE5PurgeEv
__ZN10CUtlRBTreeI15CachedVPKRead_ttPFbRKS0_S2_E10CUtlMemoryI15UtlRBTreeNode_tIS0_tEtEE6InsertES2_
__ZN10CUtlRBTreeI15CachedVPKRead_ttPFbRKS0_S2_E10CUtlMemoryI15UtlRBTreeNode_tIS0_tEtEE7NewNodeEv
__ZN10CUtlRBTreeI15CachedVPKRead_ttPFbRKS0_S2_E10CUtlMemoryI15UtlRBTreeNode_tIS0_tEtEED2Ev
__ZN10CUtlRBTreeI16TrackedVPKFile_tiPFbRKS0_S2_E10CUtlMemoryI15UtlRBTreeNode_tIS0_iEiEE15InsertRebalanceEi
__ZN10CUtlRBTreeI16TrackedVPKFile_tiPFbRKS0_S2_E10CUtlMemoryI15UtlRBTreeNode_tIS0_iEiEE6InsertES2_
__ZN10CUtlRBTreeI16TrackedVPKFile_tiPFbRKS0_S2_E10CUtlMemoryI15UtlRBTreeNode_tIS0_iEiEE7NewNodeEv
__ZN10CUtlRBTreeI16TrackedVPKFile_tiPFbRKS0_S2_E10CUtlMemoryI15UtlRBTreeNode_tIS0_iEiEED2Ev
__ZN10CUtlRBTreeIN15CUtlSymbolTable16CStringPoolIndexEtNS0_5CLessE10CUtlMemoryI15UtlRBTreeNode_tIS1_tEtEE10RotateLeftEt
__ZN10CUtlRBTreeIN15CUtlSymbolTable16CStringPoolIndexEtNS0_5CLessE10CUtlMemoryI15UtlRBTreeNode_tIS1_tEtEE11RotateRightEt
__ZN10CUtlRBTreeIN15CUtlSymbolTable16CStringPoolIndexEtNS0_5CLessE10CUtlMemoryI15UtlRBTreeNode_tIS1_tEtEE15InsertRebalanceEt
__ZN10CUtlRBTreeIN15CUtlSymbolTable16CStringPoolIndexEtNS0_5CLessE10CUtlMemoryI15UtlRBTreeNode_tIS1_tEtEE5PurgeEv
__ZN10CUtlRBTreeIN15CUtlSymbolTable16CStringPoolIndexEtNS0_5CLessE10CUtlMemoryI15UtlRBTreeNode_tIS1_tEtEE6InsertERKS1_
__ZN10CUtlRBTreeIN15CUtlSymbolTable16CStringPoolIndexEtNS0_5CLessE10CUtlMemoryI15UtlRBTreeNode_tIS1_tEtEE7NewNodeEv
__ZN10CUtlRBTreeIN15CUtlSymbolTable16CStringPoolIndexEtNS0_5CLessE10CUtlMemoryI15UtlRBTreeNode_tIS1_tEtEED2Ev
__ZN10CUtlRBTreeIN24CCompiledKeyValuesReader10FileInfo_tEtPFbRKS1_S3_E10CUtlMemoryI15UtlRBTreeNode_tIS1_tEtEE10RotateLeftEt
__ZN10CUtlRBTreeIN24CCompiledKeyValuesReader10FileInfo_tEtPFbRKS1_S3_E10CUtlMemoryI15UtlRBTreeNode_tIS1_tEtEE11RotateRightEt
__ZN10CUtlRBTreeIN24CCompiledKeyValuesReader10FileInfo_tEtPFbRKS1_S3_E10CUtlMemoryI15UtlRBTreeNode_tIS1_tEtEE15InsertRebalanceEt
__ZN10CUtlRBTreeIN24CCompiledKeyValuesReader10FileInfo_tEtPFbRKS1_S3_E10CUtlMemoryI15UtlRBTreeNode_tIS1_tEtEE5PurgeEv
__ZN10CUtlRBTreeIN24CCompiledKeyValuesReader10FileInfo_tEtPFbRKS1_S3_E10CUtlMemoryI15UtlRBTreeNode_tIS1_tEtEE6InsertES3_
__ZN10CUtlRBTreeIN24CCompiledKeyValuesReader10FileInfo_tEtPFbRKS1_S3_E10CUtlMemoryI15UtlRBTreeNode_tIS1_tEtEE7NewNodeEv
__ZN10CUtlRBTreeIN24CCompiledKeyValuesReader10FileInfo_tEtPFbRKS1_S3_E10CUtlMemoryI15UtlRBTreeNode_tIS1_tEtEED2Ev
__ZN10CUtlRBTreeIN7CUtlMapIPKcP17AsyncOpenedFile_ttPFbRKS2_S6_EE6Node_tEtNS9_8CKeyLessE10CUtlMemoryI15UtlRBTreeNode_tISA_tEtEE10RotateLeftEt
__ZN10CUtlRBTreeIN7CUtlMapIPKcP17AsyncOpenedFile_ttPFbRKS2_S6_EE6Node_tEtNS9_8CKeyLessE10CUtlMemoryI15UtlRBTreeNode_tISA_tEtEE11RotateRightEt
__ZN10CUtlRBTreeIN7CUtlMapIPKcP17AsyncOpenedFile_ttPFbRKS2_S6_EE6Node_tEtNS9_8CKeyLessE10CUtlMemoryI15UtlRBTreeNode_tISA_tEtEE15InsertRebalanceEt
__ZN10CUtlRBTreeIN7CUtlMapIPKcP17AsyncOpenedFile_ttPFbRKS2_S6_EE6Node_tEtNS9_8CKeyLessE10CUtlMemoryI15UtlRBTreeNode_tISA_tEtEE15RemoveRebalanceEt
__ZN10CUtlRBTreeIN7CUtlMapIPKcP17AsyncOpenedFile_ttPFbRKS2_S6_EE6Node_tEtNS9_8CKeyLessE10CUtlMemoryI15UtlRBTreeNode_tISA_tEtEE5PurgeEv
__ZN10CUtlRBTreeIN7CUtlMapIPKcP17AsyncOpenedFile_ttPFbRKS2_S6_EE6Node_tEtNS9_8CKeyLessE10CUtlMemoryI15UtlRBTreeNode_tISA_tEtEE6InsertERKSA_
__ZN10CUtlRBTreeIN7CUtlMapIPKcP17AsyncOpenedFile_ttPFbRKS2_S6_EE6Node_tEtNS9_8CKeyLessE10CUtlMemoryI15UtlRBTreeNode_tISA_tEtEE6UnlinkEt
__ZN10CUtlRBTreeIN7CUtlMapIPKcP17AsyncOpenedFile_ttPFbRKS2_S6_EE6Node_tEtNS9_8CKeyLessE10CUtlMemoryI15UtlRBTreeNode_tISA_tEtEE7NewNodeEv
__ZN10CUtlRBTreeIN7CUtlMapIPKcP17AsyncOpenedFile_ttPFbRKS2_S6_EE6Node_tEtNS9_8CKeyLessE10CUtlMemoryI15UtlRBTreeNode_tISA_tEtEED2Ev
__ZN10CUtlRBTreeIN7CUtlMapIPKcP9FileJob_tiPFbRKS2_S6_EE6Node_tEiNS9_8CKeyLessE10CUtlMemoryI15UtlRBTreeNode_tISA_iEiEE15InsertRebalanceEi
__ZN10CUtlRBTreeIN7CUtlMapIPKcP9FileJob_tiPFbRKS2_S6_EE6Node_tEiNS9_8CKeyLessE10CUtlMemoryI15UtlRBTreeNode_tISA_iEiEE15RemoveRebalanceEi
__ZN10CUtlRBTreeIN7CUtlMapIPKcP9FileJob_tiPFbRKS2_S6_EE6Node_tEiNS9_8CKeyLessE10CUtlMemoryI15UtlRBTreeNode_tISA_iEiEE6InsertERKSA_
__ZN10CUtlRBTreeIN7CUtlMapIPKcP9FileJob_tiPFbRKS2_S6_EE6Node_tEiNS9_8CKeyLessE10CUtlMemoryI15UtlRBTreeNode_tISA_iEiEE6UnlinkEi
__ZN10CUtlRBTreeIN7CUtlMapIPKcP9FileJob_tiPFbRKS2_S6_EE6Node_tEiNS9_8CKeyLessE10CUtlMemoryI15UtlRBTreeNode_tISA_iEiEE7NewNodeEv
__ZN10CUtlRBTreeIN7CUtlMapIPKcP9FileJob_tiPFbRKS2_S6_EE6Node_tEiNS9_8CKeyLessE10CUtlMemoryI15UtlRBTreeNode_tISA_iEiEED2Ev
__ZN10CUtlRBTreeIN7CUtlMapIPKciiPFbRKS2_S4_EE6Node_tEiNS7_8CKeyLessE10CUtlMemoryI15UtlRBTreeNode_tIS8_iEiEE15InsertRebalanceEi
__ZN10CUtlRBTreeIN7CUtlMapIPKciiPFbRKS2_S4_EE6Node_tEiNS7_8CKeyLessE10CUtlMemoryI15UtlRBTreeNode_tIS8_iEiEE6InsertERKS8_
__ZN10CUtlRBTreeIN7CUtlMapIPKciiPFbRKS2_S4_EE6Node_tEiNS7_8CKeyLessE10CUtlMemoryI15UtlRBTreeNode_tIS8_iEiEE7NewNodeEv
__ZN10CUtlRBTreeIN7CUtlMapIPKciiPFbRKS2_S4_EE6Node_tEiNS7_8CKeyLessE10CUtlMemoryI15UtlRBTreeNode_tIS8_iEiEED2Ev
__ZN10CUtlRBTreeIN7CUtlMapIiP14CUtlStringListtPFbRKiS4_EE6Node_tEtNS7_8CKeyLessE10CUtlMemoryI15UtlRBTreeNode_tIS8_tEtEE10RotateLeftEt
__ZN10CUtlRBTreeIN7CUtlMapIiP14CUtlStringListtPFbRKiS4_EE6Node_tEtNS7_8CKeyLessE10CUtlMemoryI15UtlRBTreeNode_tIS8_tEtEE11RotateRightEt
__ZN10CUtlRBTreeIN7CUtlMapIiP14CUtlStringListtPFbRKiS4_EE6Node_tEtNS7_8CKeyLessE10CUtlMemoryI15UtlRBTreeNode_tIS8_tEtEE15InsertRebalanceEt
__ZN10CUtlRBTreeIN7CUtlMapIiP14CUtlStringListtPFbRKiS4_EE6Node_tEtNS7_8CKeyLessE10CUtlMemoryI15UtlRBTreeNode_tIS8_tEtEE5PurgeEv
__ZN10CUtlRBTreeIN7CUtlMapIiP14CUtlStringListtPFbRKiS4_EE6Node_tEtNS7_8CKeyLessE10CUtlMemoryI15UtlRBTreeNode_tIS8_tEtEE6InsertERKS8_
__ZN10CUtlRBTreeIN7CUtlMapIiP14CUtlStringListtPFbRKiS4_EE6Node_tEtNS7_8CKeyLessE10CUtlMemoryI15UtlRBTreeNode_tIS8_tEtEE7NewNodeEv
__ZN10CUtlRBTreeIN7CUtlMapIiP14CUtlStringListtPFbRKiS4_EE6Node_tEtNS7_8CKeyLessE10CUtlMemoryI15UtlRBTreeNode_tIS8_tEtEED2Ev
__ZN10CUtlRBTreeIN7CUtlMapIyP12CThreadMutextPFbRKyS4_EE6Node_tEtNS7_8CKeyLessE10CUtlMemoryI15UtlRBTreeNode_tIS8_tEtEE10RotateLeftEt
__ZN10CUtlRBTreeIN7CUtlMapIyP12CThreadMutextPFbRKyS4_EE6Node_tEtNS7_8CKeyLessE10CUtlMemoryI15UtlRBTreeNode_tIS8_tEtEE11RotateRightEt
__ZN10CUtlRBTreeIN7CUtlMapIyP12CThreadMutextPFbRKyS4_EE6Node_tEtNS7_8CKeyLessE10CUtlMemoryI15UtlRBTreeNode_tIS8_tEtEE15InsertRebalanceEt
__ZN10CUtlRBTreeIN7CUtlMapIyP12CThreadMutextPFbRKyS4_EE6Node_tEtNS7_8CKeyLessE10CUtlMemoryI15UtlRBTreeNode_tIS8_tEtEE5PurgeEv
__ZN10CUtlRBTreeIN7CUtlMapIyP12CThreadMutextPFbRKyS4_EE6Node_tEtNS7_8CKeyLessE10CUtlMemoryI15UtlRBTreeNode_tIS8_tEtEE6InsertERKS8_
__ZN10CUtlRBTreeIN7CUtlMapIyP12CThreadMutextPFbRKyS4_EE6Node_tEtNS7_8CKeyLessE10CUtlMemoryI15UtlRBTreeNode_tIS8_tEtEE7NewNodeEv
__ZN10CUtlRBTreeIN7CUtlMapIyP12CThreadMutextPFbRKyS4_EE6Node_tEtNS7_8CKeyLessE10CUtlMemoryI15UtlRBTreeNode_tIS8_tEtEED2Ev
__ZN10CUtlRBTreeIN8CZipFile9CZipEntryEiPFbRKS1_S3_E10CUtlMemoryI15UtlRBTreeNode_tIS1_iEiEE15InsertRebalanceEi
__ZN10CUtlRBTreeIN8CZipFile9CZipEntryEiPFbRKS1_S3_E10CUtlMemoryI15UtlRBTreeNode_tIS1_iEiEE15RemoveRebalanceEi
__ZN10CUtlRBTreeIN8CZipFile9CZipEntryEiPFbRKS1_S3_E10CUtlMemoryI15UtlRBTreeNode_tIS1_iEiEE6InsertES3_
__ZN10CUtlRBTreeIN8CZipFile9CZipEntryEiPFbRKS1_S3_E10CUtlMemoryI15UtlRBTreeNode_tIS1_iEiEE6UnlinkEi
__ZN10CUtlRBTreeIN8CZipFile9CZipEntryEiPFbRKS1_S3_E10CUtlMemoryI15UtlRBTreeNode_tIS1_iEiEE7NewNodeEv
__ZN10CUtlRBTreeIN8CZipFile9CZipEntryEiPFbRKS1_S3_E10CUtlMemoryI15UtlRBTreeNode_tIS1_iEiEE9RemoveAllEv
__ZN10CUtlRBTreeIN8CZipFile9CZipEntryEiPFbRKS1_S3_E10CUtlMemoryI15UtlRBTreeNode_tIS1_iEiEED2Ev
__ZN10CUtlRBTreeIPKcjPFbRKS1_S3_E10CUtlMemoryI15UtlRBTreeNode_tIS1_jEjEE15InsertRebalanceEj
__ZN10CUtlRBTreeIPKcjPFbRKS1_S3_E10CUtlMemoryI15UtlRBTreeNode_tIS1_jEjEE5PurgeEv
__ZN10CUtlRBTreeIPKcjPFbRKS1_S3_E10CUtlMemoryI15UtlRBTreeNode_tIS1_jEjEE6InsertES3_
__ZN10CUtlRBTreeIPKcjPFbRKS1_S3_E10CUtlMemoryI15UtlRBTreeNode_tIS1_jEjEE7NewNodeEv
__ZN10CUtlRBTreeIPKcjPFbRKS1_S3_E10CUtlMemoryI15UtlRBTreeNode_tIS1_jEjEED2Ev
__ZN10CUtlString3SetEPKc
__ZN10CUtlString5ClearEv
__ZN10CUtlString5PurgeEv
__ZN10CUtlString6FormatEPKcz
__ZN10CUtlString7FormatVEPKcPc
__ZN10CUtlStringaSEPKc
__ZN10CUtlStringpLEPKc
__ZN10CUtlStringpLERKS_
__ZN10CUtlSymbol10InitializeEv
__ZN10CUtlSymbol14s_pSymbolTableE
__ZN10CUtlSymbolC1EPKc
__ZN10CUtlVectorI10CUtlString10CUtlMemoryIS0_iEE12InsertBeforeEiRKS0_
__ZN10CUtlVectorI19ChunkHashFraction_t10CUtlMemoryIS0_iEE10GrowVectorEi
__ZN10CUtlVectorI19ChunkHashFraction_t10CUtlMemoryIS0_iEED2Ev
__ZN10CUtlVectorI8KVInfo_t10CUtlMemoryIS0_iEE9AddToTailERKS0_
__ZN10CUtlVectorI8KVInfo_t10CUtlMemoryIS0_iEED2Ev
__ZN10CUtlVectorIN12CZipPackFile14CPackFileEntryE10CUtlMemoryIS1_iEED2Ev
__ZN10CUtlVectorIN15CBaseFileSystem11COpenedFileE10CUtlMemoryIS1_iEE12InsertBeforeEiRKS1_
__ZN10CUtlVectorIN15CBaseFileSystem11COpenedFileE10CUtlMemoryIS1_iEED2Ev
__ZN10CUtlVectorIN15CBaseFileSystem11CSearchPathE10CUtlMemoryIS1_iEE10GrowVectorEi
__ZN10CUtlVectorIN15CBaseFileSystem11CSearchPathE10CUtlMemoryIS1_iEE12InsertBeforeEi
__ZN10CUtlVectorIN15CBaseFileSystem11CSearchPathE10CUtlMemoryIS1_iEE20InsertMultipleBeforeEii
__ZN10CUtlVectorIN15CBaseFileSystem11CSearchPathE10CUtlMemoryIS1_iEED2Ev
__ZN10CUtlVectorIP15IAsyncFileFetch10CUtlMemoryIS1_iEED2Ev
__ZN10CUtlVectorIP17CFileAsyncReadJob10CUtlMemoryIS1_iEED2Ev
__ZN10CUtlVectorIP8CFunctor10CUtlMemoryIS1_iEE9AddToTailERKS1_
__ZN10CUtlVectorIP8CFunctor10CUtlMemoryIS1_iEED2Ev
__ZN10CUtlVectorIP9CPackFile10CUtlMemoryIS1_iEED2Ev
__ZN10CUtlVectorIP9FileJob_t10CUtlMemoryIS1_iEED2Ev
__ZN10CUtlVectorIP9KeyValues10CUtlMemoryIS1_iEE10GrowVectorEi
__ZN10CUtlVectorIP9KeyValues10CUtlMemoryIS1_iEED2Ev
__ZN10CUtlVectorIPFvPKcS1_E10CUtlMemoryIS3_iEED2Ev
__ZN10CUtlVectorIPKc10CUtlMemoryIS1_iEED2Ev
__ZN10CUtlVectorIPN15CBaseFileSystem11CPathIDInfoE10CUtlMemoryIS2_iEED2Ev
__ZN10CUtlVectorIPN15CBaseFileSystem16CFileCacheObject6Info_tE10CUtlMemoryIS3_iEE10GrowVectorEi
__ZN10CUtlVectorIPN15CBaseFileSystem16CFileCacheObject6Info_tE10CUtlMemoryIS3_iEED2Ev
__ZN10CUtlVectorIPN15CUtlSymbolTable12StringPool_tE10CUtlMemoryIS2_iEED2Ev
__ZN10CUtlVectorIPc10CUtlMemoryIS0_iEE9AddToTailERKS0_
__ZN10CUtlVectorIPc10CUtlMemoryIS0_iEED2Ev
__ZN10CUtlVectorIPv10CUtlMemoryIS0_iEED1Ev
__ZN10CUtlVectorIPv10CUtlMemoryIS0_iEED2Ev
__ZN10CUtlVectorIc10CUtlMemoryIciEE20InsertMultipleBeforeEii
__ZN10CUtlVectorIc10CUtlMemoryIciEED2Ev
__ZN10CUtlVectorIh10CUtlMemoryIhiEE10GrowVectorEi
__ZN10CUtlVectorIh10CUtlMemoryIhiEED2Ev
__ZN10CUtlVectorIh15CUtlBlockMemoryIhiEE12InsertBeforeEiRKh
__ZN10CUtlVectorIi10CUtlMemoryIiiEE10GrowVectorEi
__ZN10CUtlVectorIi10CUtlMemoryIiiEED2Ev
__ZN10CVProfNode10EnterScopeEv
__ZN10CVProfNode10GetSubNodeEPKciS1_i
__ZN10CVProfNode9ExitScopeEv
__ZN10CWin32File14CreateTempFileER10CUtlStringS1_
__ZN10ConCommand15CanAutoCompleteEv
__ZN10ConCommand19AutoCompleteSuggestEPKcR10CUtlVectorI10CUtlString10CUtlMemoryIS3_iEE
__ZN10ConCommand8DispatchERK8CCommand
__ZN10ConCommandC1EPKcPFvRK8CCommandES1_iPFiS1_PA64_cE
__ZN10ConCommandD0Ev
__ZN10ConCommandD1Ev
__ZN11CFileHandle13GetSectorSizeEv
__ZN11CFileHandle4ReadEPvii
__ZN11CFileHandle4SeekExi
__ZN11CFileHandle4SizeEv
__ZN11CFileHandle9EndOfFileEv
__ZN11CFileHandleC1EP15CBaseFileSystem
__ZN11CFileHandleD0Ev
__ZN11CFileHandleD1Ev
__ZN11CFileStream3PutEPKvi
__ZN11CFileStream4TellEv
__ZN11CLZMAStream13InitZIPHeaderEjj
__ZN11CLZMAStream14TryParseHeaderEPhjRj
__ZN11CLZMAStream18CreateDecoderStateEPKh
__ZN11CLZMAStream4ReadEPhjS0_jRjS1_
__ZN11CLZMAStreamC1Ev
__ZN11CLZMAStreamD1Ev
__ZN12CEmptyConVar8SetValueEPKc
__ZN12CEmptyConVar8SetValueEf
__ZN12CEmptyConVar8SetValueEi
__ZN12CEmptyConVarD0Ev
__ZN12CEmptyConVarD1Ev
__ZN12CPackedStore11GetFileListEPKcR14CUtlStringListbb
__ZN12CPackedStore13FindFileEntryEPKcS1_S1_PPhS3_
__ZN12CPackedStore13GetFileHandleEi
__ZN12CPackedStore13HashChunkFileEi
__ZN12CPackedStore15BuildHashTablesEv
__ZN12CPackedStore17HashAllChunkFilesEv
__ZN12CPackedStore18BTestDirectoryHashEv
__ZN12CPackedStore18GetFileAndDirListsEPKcR14CUtlStringListS3_b
__ZN12CPackedStore18GetFileAndDirListsER14CUtlStringListS1_b
__ZN12CPackedStore18HashEntirePackFileER22CPackedStoreFileHandleRxiiR10FileHash_t
__ZN12CPackedStore19BuildFindFirstCacheEv
__ZN12CPackedStore20BTestMasterChunkHashEv
__ZN12CPackedStore20FindFileHashFractionEiiR19ChunkHashFraction_t
__ZN12CPackedStore24GetHandleForHashingFilesEv
__ZN12CPackedStore27GetPackFileLoadErrorSummaryER10CUtlString
__ZN12CPackedStore4InitEv
__ZN12CPackedStore8OpenFileEPKc
__ZN12CPackedStore8ReadDataER22CPackedStoreFileHandlePvi
__ZN12CPackedStoreC2EPKcPcP15IBaseFileSystemb
__ZN12CPackedStoreD2Ev
__ZN12CRefCounted1I11IRefCounted20CRefCountServiceBaseILb1E6CRefMTEE6AddRefEv
__ZN12CRefCounted1I11IRefCounted20CRefCountServiceBaseILb1E6CRefMTEE7ReleaseEv
__ZN12CRefCounted1I8CFunctor20CRefCountServiceBaseILb1E6CRefMTEE6AddRefEv
__ZN12CRefCounted1I8CFunctor20CRefCountServiceBaseILb1E6CRefMTEE7ReleaseEv
__ZN12CThreadEvent3SetEv
__ZN12CThreadEvent4WaitEj
__ZN12CThreadEventC1Eb
__ZN12CThreadLocalIPcED1Ev
__ZN12CThreadMutexD1Ev
__ZN12CZipPackFile11GetFileInfoEPKcRiRxS2_S2_Rt
__ZN12CZipPackFile12ContainsFileEPKc
__ZN12CZipPackFile12ReadFromPackEiPviix
__ZN12CZipPackFile15IndexToFilenameEiPci
__ZN12CZipPackFile16SetupPreloadDataEv
__ZN12CZipPackFile18DiscardPreloadDataEv
__ZN12CZipPackFile18GetFileAndDirListsEPKcR14CUtlStringListS3_b
__ZN12CZipPackFile21GetPackFileBaseOffsetEv
__ZN12CZipPackFile7PrepareExx
__ZN12CZipPackFile8OpenFileEPKcS1_
__ZN12CZipPackFileC1EP15CBaseFileSystemPv
__ZN12CZipPackFileD0Ev
__ZN12CZipPackFileD1Ev
__ZN12InterfaceReg16s_pInterfaceRegsE
__ZN12InterfaceRegC1EPFPvvEPKc
__ZN13CBufferStream3PutEPKvi
__ZN13CBufferStream4TellEv
__ZN13CFileAsyncJob9GetResultEPPvPi
__ZN13CFileAsyncJobD0Ev
__ZN13CFileAsyncJobD1Ev
__ZN13CFileOpenInfo15SetAbsolutePathEPKcz
__ZN13CFileOpenInfo21HandleFileCRCTrackingEPKc
__ZN13CFileTracker213ShutdownAsyncEv
__ZN13CFileTracker215IdxFileFromNameEPKcS1_ib
__ZN13CFileTracker215ListOpenedFilesEbPKc
__ZN13CFileTracker216NoteFileUnloadedEPKcS1_
__ZN13CFileTracker218NotePackFileAccessEPKcS1_iR22CPackedStoreFileHandle
__ZN13CFileTracker218NotePackFileOpenedEPKcS1_x
__ZN13CFileTracker219CheckCachedFileHashEPKcS1_iP10FileHash_t
__ZN13CFileTracker220IsMD5RequestCompleteEiP10MD5Value_t
__ZN13CFileTracker221AddFileHashForVPKFileEiiiR10MD5Value_tR22CPackedStoreFileHandle
__ZN13CFileTracker221MarkAllCRCsUnverifiedEv
__ZN13CFileTracker222NoteFileLoadedFromDiskEPKcS1_iP7__sFILEx
__ZN13CFileTracker223GetUnverifiedFileHashesEP19CUnverifiedFileHashi
__ZN13CFileTracker224SubmitThreadedMD5RequestEPhiiii
__ZN13CFileTracker226ThreadedProcessMD5RequestsEv
__ZN13CFileTracker228BlockUntilMD5RequestCompleteEiP10MD5Value_t
__ZN13CFileTracker228NoteFileIgnoredForPureServerEPKcS1_i
__ZN13CFileTracker234GetFilesToUnloadForWhitelistChangeEP20IPureServerWhitelist
__ZN13CFileTracker2C1EP15CBaseFileSystem
__ZN13CFileTracker2C2EP15CBaseFileSystem
__ZN13CFileTracker2D1Ev
__ZN13CFileTracker2D2Ev
__ZN13CQueuedLoader10CleanQueueEv
__ZN13CQueuedLoader13EndMapLoadingEb
__ZN13CQueuedLoader13InstallLoaderE17ResourcePreload_tP16IResourcePreload
__ZN13CQueuedLoader14AddMapResourceEPKc
__ZN13CQueuedLoader14BuildResourcesEP16IResourcePreloadP14CUtlSortVectorIPvNS_21CResourceNameLessFuncE10CUtlVectorIS3_10CUtlMemoryIS3_iEEEPf
__ZN13CQueuedLoader14GetJobRequestsEv
__ZN13CQueuedLoader15BeginMapLoadingEPKcbb
__ZN13CQueuedLoader15InstallProgressEP15ILoaderProgress
__ZN13CQueuedLoader17CFileJobsLessFunc25GetLayoutOrderForFilenameEPKc
__ZN13CQueuedLoader17CFileJobsLessFunc4LessERKP9FileJob_tS4_Pv
__ZN13CQueuedLoader17ClaimAnonymousJobEPKcPFvPvS2_PKvi13LoaderError_tES2_S2_
__ZN13CQueuedLoader17ClaimAnonymousJobEPKcPPvPiP13LoaderError_t
__ZN13CQueuedLoader17SubmitBatchedJobsEv
__ZN13CQueuedLoader17SubmitPendingJobsEv
__ZN13CQueuedLoader18AddResourceToTableEPKc
__ZN13CQueuedLoader18CleanupDynamicLoadEv
__ZN13CQueuedLoader19CompleteDynamicLoadEv
__ZN13CQueuedLoader21CResourceNameLessFunc4LessERKPvS3_S1_
__ZN13CQueuedLoader22BuildMaterialResourcesEP16IResourcePreloadP14CUtlSortVectorIPvNS_21CResourceNameLessFuncE10CUtlVectorIS3_10CUtlMemoryIS3_iEEEPf
__ZN13CQueuedLoader22DynamicLoadMapResourceEPKcPFvS1_PvS2_ES2_S2_
__ZN13CQueuedLoader23QueueDynamicLoadFunctorEP8CFunctor
__ZN13CQueuedLoader30QueueCleanupDynamicLoadFunctorEP8CFunctor
__ZN13CQueuedLoader4InitEv
__ZN13CQueuedLoader6AddJobEPK11LoaderJob_t
__ZN13CQueuedLoader8PurgeAllEv
__ZN13CQueuedLoader8ShutdownEv
__ZN13CQueuedLoader8SpewInfoEv
__ZN13CQueuedLoaderC2Ev
__ZN13CQueuedLoaderD0Ev
__ZN13CQueuedLoaderD1Ev
__ZN13CQueuedLoaderD2Ev
__ZN13CThreadRWLock11UnlockWriteEv
__ZN13CThreadRWLock11WaitForReadEv
__ZN13CThreadRWLock12LockForWriteEv
__ZN13CUtlHashtableIN19CUtlStableHashtableI19CUtlConstStringBaseIcE7empty_t18DefaultHashFunctorIS2_E19DefaultEqualFunctorIS2_EtPKcE13IndirectIndexES3_NSA_9HashProxyENSA_10EqualProxyES9_E21DoInsertUnconstructedEjb
__ZN13CUtlHashtableIN19CUtlStableHashtableI19CUtlConstStringBaseIcE7empty_t18DefaultHashFunctorIS2_E19DefaultEqualFunctorIS2_EtPKcE13IndirectIndexES3_NSA_9HashProxyENSA_10EqualProxyES9_E9BumpEntryEj
__ZN13CUtlHashtableIN19CUtlStableHashtableI19CUtlConstStringBaseIcE7empty_t18DefaultHashFunctorIS2_E19DefaultEqualFunctorIS2_EtPKcE13IndirectIndexES3_NSA_9HashProxyENSA_10EqualProxyES9_E9DoReallocEi
__ZN13CUtlHashtableIPKcP18CMemoryFileBacking18DefaultHashFunctorIS1_E19DefaultEqualFunctorIS1_E11undefined_tE21DoInsertUnconstructedEjb
__ZN13CUtlHashtableIPKcP18CMemoryFileBacking18DefaultHashFunctorIS1_E19DefaultEqualFunctorIS1_E11undefined_tE8DoInsertIS1_EEjT_S3_jPb
__ZN13CUtlHashtableIPKcP18CMemoryFileBacking18DefaultHashFunctorIS1_E19DefaultEqualFunctorIS1_E11undefined_tE8DoRemoveIS1_EEiT_j
__ZN13CUtlHashtableIPKcP18CMemoryFileBacking18DefaultHashFunctorIS1_E19DefaultEqualFunctorIS1_E11undefined_tE9BumpEntryEj
__ZN13CUtlHashtableIPKcP18CMemoryFileBacking18DefaultHashFunctorIS1_E19DefaultEqualFunctorIS1_E11undefined_tE9DoReallocEi
__ZN13TrackedFile_t4LessERKS_S1_
__ZN14CBaseAppSystemI13IQueuedLoaderE14QueryInterfaceEPKc
__ZN14CDummyProgress11EndProgressEv
__ZN14CDummyProgress13BeginProgressEv
__ZN14CDummyProgress14UpdateProgressEf
__ZN14CUtlLinkedListI15CachedVPKRead_ttLb0Et10CUtlMemoryI19UtlLinkedListElem_tIS0_tEtEED2Ev
__ZN14CUtlLinkedListI16CUtlKeyValuePairI19CUtlConstStringBaseIcE7empty_tEtLb0Et10CUtlMemoryI19UtlLinkedListElem_tIS4_tEtEE10LinkBeforeEtt
__ZN14CUtlLinkedListI16CUtlKeyValuePairI19CUtlConstStringBaseIcE7empty_tEtLb0Et10CUtlMemoryI19UtlLinkedListElem_tIS4_tEtEE13AllocInternalEb
__ZN14CUtlLinkedListI16CUtlKeyValuePairI19CUtlConstStringBaseIcE7empty_tEtLb0Et10CUtlMemoryI19UtlLinkedListElem_tIS4_tEtEED2Ev
__ZN14CUtlLinkedListI17SubmittedMd5Job_ttLb0Et10CUtlMemoryI19UtlLinkedListElem_tIS0_tEtEE10LinkBeforeEtt
__ZN14CUtlLinkedListI17SubmittedMd5Job_ttLb0Et10CUtlMemoryI19UtlLinkedListElem_tIS0_tEtEE13AllocInternalEb
__ZN14CUtlLinkedListI17SubmittedMd5Job_ttLb0Et10CUtlMemoryI19UtlLinkedListElem_tIS0_tEtEED2Ev
__ZN14CUtlLinkedListIN15CBaseFileSystem10FindData_tEtLb0Et10CUtlMemoryI19UtlLinkedListElem_tIS1_tEtEE10LinkBeforeEtt
__ZN14CUtlLinkedListIN15CBaseFileSystem10FindData_tEtLb0Et10CUtlMemoryI19UtlLinkedListElem_tIS1_tEtEE13AllocInternalEb
__ZN14CUtlLinkedListIN15CBaseFileSystem10FindData_tEtLb0Et10CUtlMemoryI19UtlLinkedListElem_tIS1_tEtEED2Ev
__ZN14CUtlLinkedListIP4CZiptLb0Et10CUtlMemoryI19UtlLinkedListElem_tIS1_tEtEE10LinkBeforeEtt
__ZN14CUtlLinkedListIP4CZiptLb0Et10CUtlMemoryI19UtlLinkedListElem_tIS1_tEtEE13AllocInternalEb
__ZN14CUtlLinkedListIP4CZiptLb0Et10CUtlMemoryI19UtlLinkedListElem_tIS1_tEtEED1Ev
__ZN14CUtlLinkedListIP4CZiptLb0Et10CUtlMemoryI19UtlLinkedListElem_tIS1_tEtEED2Ev
__ZN14CUtlLinkedListIP9FileJob_ttLb0Et10CUtlMemoryI19UtlLinkedListElem_tIS1_tEtEE10LinkBeforeEtt
__ZN14CUtlLinkedListIP9FileJob_ttLb0Et10CUtlMemoryI19UtlLinkedListElem_tIS1_tEtEE13AllocInternalEb
__ZN14CUtlLinkedListIP9FileJob_ttLb0Et10CUtlMemoryI19UtlLinkedListElem_tIS1_tEtEED2Ev
__ZN14CUtlSortVectorI19ChunkHashFraction_t23ChunkHashFractionLess_t10CUtlVectorIS0_10CUtlMemoryIS0_iEEE6InsertERKS0_
__ZN14CUtlSortVectorIN12CZipPackFile14CPackFileEntryENS0_17CPackFileLessFuncE10CUtlVectorIS1_10CUtlMemoryIS1_iEEE12InsertNoSortERKS1_
__ZN14CUtlSortVectorIN12CZipPackFile14CPackFileEntryENS0_17CPackFileLessFuncE10CUtlVectorIS1_10CUtlMemoryIS1_iEEE13CompareHelperEPKS1_S9_
__ZN14CUtlSortVectorIP9FileJob_tN13CQueuedLoader17CFileJobsLessFuncE10CUtlVectorIS1_10CUtlMemoryIS1_iEEE12InsertNoSortERKS1_
__ZN14CUtlSortVectorIP9FileJob_tN13CQueuedLoader17CFileJobsLessFuncE10CUtlVectorIS1_10CUtlMemoryIS1_iEEE13CompareHelperEPKS1_SA_
__ZN14CUtlSortVectorIPvN13CQueuedLoader21CResourceNameLessFuncE10CUtlVectorIS0_10CUtlMemoryIS0_iEEE12InsertNoSortERKS0_
__ZN14CUtlSortVectorIPvN13CQueuedLoader21CResourceNameLessFuncE10CUtlVectorIS0_10CUtlMemoryIS0_iEEE13CompareHelperEPKS0_S9_
__ZN14CUtlSortVectorIPvN13CQueuedLoader21CResourceNameLessFuncE10CUtlVectorIS0_10CUtlMemoryIS0_iEEE6RemoveERKS0_
__ZN14CUtlStringList8SortFuncEPKPcS2_
__ZN14ConCommandBase10CreateBaseEPKcS1_i
__ZN14ConCommandBase11s_pAccessorE
__ZN14ConCommandBase18s_pConCommandBasesE
__ZN14ConCommandBase4InitEv
__ZN14ConCommandBase8AddFlagsEi
__ZN14CreateHelper_t4LessERKS_S1_
__ZN14ZIP_FileHeader9m_DataMapE
__ZN15CBaseFileSystem10AddVPKFileEPKcS1_15SearchPathAdd_t
__ZN15CBaseFileSystem10AsyncAbortEP18FSAsyncControl_t__
__ZN15CBaseFileSystem10AsyncFlushEv
__ZN15CBaseFileSystem10AsyncWriteEPKcPKvibbPP18FSAsyncControl_t__
__ZN15CBaseFileSystem10FS_setmodeEP7__sFILE10FileMode_t
__ZN15CBaseFileSystem10FileExistsEPKcS1_
__ZN15CBaseFileSystem10FindData_tD2Ev
__ZN15CBaseFileSystem10GetDVDModeEv
__ZN15CBaseFileSystem10LoadModuleEPKcS1_b
__ZN15CBaseFileSystem10ReadFileExEPKcS1_PPvbbiiPFS2_S1_jE
__ZN15CBaseFileSystem10RemoveFileEPKcS1_
__ZN15CBaseFileSystem10RenameFileEPKcS1_S1_
__ZN15CBaseFileSystem11AddPackFileEPKcS1_
__ZN15CBaseFileSystem11AsyncAddRefEP18FSAsyncControl_t__
__ZN15CBaseFileSystem11AsyncAppendEPKcPKvibPP18FSAsyncControl_t__
__ZN15CBaseFileSystem11AsyncFinishEP18FSAsyncControl_t__b
__ZN15CBaseFileSystem11AsyncResumeEv
__ZN15CBaseFileSystem11AsyncStatusEP18FSAsyncControl_t__
__ZN15CBaseFileSystem11CSearchPathD2Ev
__ZN15CBaseFileSystem11FindFirstExEPKcS1_Pi
__ZN15CBaseFileSystem11GetFileTimeEPKcS1_
__ZN15CBaseFileSystem11GetPathTimeEPKcS1_
__ZN15CBaseFileSystem11IsDirectoryEPKcS1_
__ZN15CBaseFileSystem11OpenForReadEPKcS1_jS1_PPc
__ZN15CBaseFileSystem11Trace_FOpenEPKcS1_jPx
__ZN15CBaseFileSystem11Trace_FReadEiP7__sFILE
__ZN15CBaseFileSystem11m_BSPPathIDE
__ZN15CBaseFileSystem12AsyncEndReadEP15FSAsyncFile_t__
__ZN15CBaseFileSystem12AsyncReleaseEP18FSAsyncControl_t__
__ZN15CBaseFileSystem12AsyncSuspendEv
__ZN15CBaseFileSystem12EndMapAccessEv
__ZN15CBaseFileSystem12FastFileTimeEPKNS_11CSearchPathEPKc
__ZN15CBaseFileSystem12FindFileNameEPKc
__ZN15CBaseFileSystem12GetLocalCopyEPKc
__ZN15CBaseFileSystem12GetLocalPathEPKcPci
__ZN15CBaseFileSystem12GetPathIndexERKPv
__ZN15CBaseFileSystem12GetWritePathEPKcS1_
__ZN15CBaseFileSystem12OpenForWriteEPKcS1_S1_
__ZN15CBaseFileSystem12ReadToBufferEPvR10CUtlBufferiPFS0_PKcjE
__ZN15CBaseFileSystem12Trace_FCloseEP7__sFILE
__ZN15CBaseFileSystem12Trace_FWriteEiP7__sFILE
__ZN15CBaseFileSystem12UnloadModuleEP10CSysModule
__ZN15CBaseFileSystem12m_GamePathIDE
__ZN15CBaseFileSystem13AddSearchPathEPKcS1_15SearchPathAdd_t
__ZN15CBaseFileSystem13CacheFileCRCsEPKc13ECacheCRCTypeP9IFileList
__ZN15CBaseFileSystem13FindWritePathEPKcS1_
__ZN15CBaseFileSystem13GetSearchPathEPKcbPci
__ZN15CBaseFileSystem13LoadKeyValuesEN11IFileSystem22KeyValuesPreloadType_tEPKcS3_
__ZN15CBaseFileSystem13LoadKeyValuesER9KeyValuesN11IFileSystem22KeyValuesPreloadType_tEPKcS5_
__ZN15CBaseFileSystem13LogFileAccessEPKc
__ZN15CBaseFileSystem13RemoveVPKFileEPKcS1_
__ZN15CBaseFileSystem13SetBufferSizeEPvj
__ZN15CBaseFileSystem13ShutdownAsyncEv
__ZN15CBaseFileSystem14AddLoggingFuncEPFvPKcS1_E
__ZN15CBaseFileSystem14AddMapPackFileEPKcS1_15SearchPathAdd_t
__ZN15CBaseFileSystem14AsyncBeginReadEPKcPP15FSAsyncFile_t__
__ZN15CBaseFileSystem14AsyncFinishAllEi
__ZN15CBaseFileSystem14AsyncGetResultEP18FSAsyncControl_t__PPvPi
__ZN15CBaseFileSystem14AsyncWriteFileEPKcPK10CUtlBufferibbPP18FSAsyncControl_t__
__ZN15CBaseFileSystem14BeginMapAccessEv
__ZN15CBaseFileSystem14IsFileWritableEPKcS1_
__ZN15CBaseFileSystem14QueryInterfaceEPKc
__ZN15CBaseFileSystem14SetWarningFuncEPFvPKczE
__ZN15CBaseFileSystem14SyncAppendFileEPKcS1_
__ZN15CBaseFileSystem14m_ExcludePathsE
__ZN15CBaseFileSystem15AsyncAddFetcherEP15IAsyncFileFetch
__ZN15CBaseFileSystem15AsyncAppendFileEPKcS1_PP18FSAsyncControl_t__
__ZN15CBaseFileSystem15CreateFileCacheEv
__ZN15CBaseFileSystem15DoAsyncCallbackERK18FileAsyncRequest_tPvi15FSAsyncStatus_t
__ZN15CBaseFileSystem15FindFirstHelperEPKcS1_PiS2_
__ZN15CBaseFileSystem15FindIsDirectoryEi
__ZN15CBaseFileSystem15LogAccessToFileEPKcS1_S1_
__ZN15CBaseFileSystem15SetFileWritableEPKcbS1_
__ZN15CBaseFileSystem15SetWarningLevelE18FileWarningLevel_t
__ZN15CBaseFileSystem16AsyncSetPriorityEP18FSAsyncControl_t__i
__ZN15CBaseFileSystem16CFileCacheObject10IOCallbackERK18FileAsyncRequest_ti15FSAsyncStatus_t
__ZN15CBaseFileSystem16CFileCacheObject8AddFilesEPPKci
__ZN15CBaseFileSystem16CFileCacheObjectD2Ev
__ZN15CBaseFileSystem16CheckVPKFileHashEiiiR10MD5Value_t
__ZN15CBaseFileSystem16DestroyFileCacheEPv
__ZN15CBaseFileSystem16FS_GetSectorSizeEP7__sFILE
__ZN15CBaseFileSystem16FileTimeToStringEPcil
__ZN15CBaseFileSystem16PrintOpenedFilesEv
__ZN15CBaseFileSystem16PrintSearchPathsEv
__ZN15CBaseFileSystem16RemoveSearchPathEPKcS1_
__ZN15CBaseFileSystem16SetupPreloadDataEv
__ZN15CBaseFileSystem17AsyncReadMultipleEPK18FileAsyncRequest_tiPP18FSAsyncControl_t__
__ZN15CBaseFileSystem17FindOrAddFileNameEPKc
__ZN15CBaseFileSystem17IsFileCacheLoadedEPv
__ZN15CBaseFileSystem17RemoveLoggingFuncEPFvPKcS1_E
__ZN15CBaseFileSystem17RemoveSearchPathsEPKc
__ZN15CBaseFileSystem18AsyncRemoveFetcherEP15IAsyncFileFetch
__ZN15CBaseFileSystem18CSearchPathsVisits9MarkVisitERKNS_11CSearchPathE
__ZN15CBaseFileSystem18CreateDirHierarchyEPKcS1_
__ZN15CBaseFileSystem18DiscardPreloadDataEv
__ZN15CBaseFileSystem18ExtractRootKeyNameEN11IFileSystem22KeyValuesPreloadType_tEPcmPKcS4_
__ZN15CBaseFileSystem18FindNextFileHelperEPNS_10FindData_tEPi
__ZN15CBaseFileSystem18NotifyFileUnloadedEPKcS1_
__ZN15CBaseFileSystem18RegisterMemoryFileEP18CMemoryFileBackingPS1_
__ZN15CBaseFileSystem19AddFilesToFileCacheEPvPPKciS2_
__ZN15CBaseFileSystem19AddPackFileFromPathEPKcS1_bS1_
__ZN15CBaseFileSystem19CheckCachedFileHashEPKcS1_iP10FileHash_t
__ZN15CBaseFileSystem19FindOrAddPathIDInfoERK10CUtlSymboli
__ZN15CBaseFileSystem19GetCurrentDirectoryEPci
__ZN15CBaseFileSystem20AsyncFinishAllWritesEv
__ZN15CBaseFileSystem20CSearchPathsIterator15CopySearchPathsERK10CUtlVectorINS_11CSearchPathE10CUtlMemoryIS2_iEE
__ZN15CBaseFileSystem20CSearchPathsIterator7GetNextEv
__ZN15CBaseFileSystem20CSearchPathsIteratorC2EPS_PKc16PathTypeFilter_t
__ZN15CBaseFileSystem20CSearchPathsIteratorC2EPS_PPKcS3_16PathTypeFilter_t
__ZN15CBaseFileSystem20FindFileInSearchPathER13CFileOpenInfo
__ZN15CBaseFileSystem20RemoveAllSearchPathsEv
__ZN15CBaseFileSystem20UnregisterMemoryFileEP18CMemoryFileBacking
__ZN15CBaseFileSystem21AddSearchPathInternalEPKcS1_15SearchPathAdd_tb
__ZN15CBaseFileSystem21CacheAllVPKFileHashesEbb
__ZN15CBaseFileSystem21FreeOptimalReadBufferEPv
__ZN15CBaseFileSystem21GetWhitelistSpewFlagsEv
__ZN15CBaseFileSystem21HandleOpenRegularFileER13CFileOpenInfob
__ZN15CBaseFileSystem21IsFileCacheFileLoadedEPvPKc
__ZN15CBaseFileSystem21LoadCompiledKeyValuesEN11IFileSystem22KeyValuesPreloadType_tEPKc
__ZN15CBaseFileSystem21MarkAllCRCsUnverifiedEv
__ZN15CBaseFileSystem21RegisterFileWhitelistEP20IPureServerWhitelistPP9IFileList
__ZN15CBaseFileSystem21SetWhitelistSpewFlagsEi
__ZN15CBaseFileSystem22AllocOptimalReadBufferEPvjj
__ZN15CBaseFileSystem22FullPathToRelativePathEPKcPci
__ZN15CBaseFileSystem22GetFileTypeForFullPathEPKcPwm
__ZN15CBaseFileSystem22RelativePathToFullPathEPKcS1_Pci16PathTypeFilter_tPj
__ZN15CBaseFileSystem23FindSearchPathByStoreIdEi
__ZN15CBaseFileSystem23GetFilesystemStatisticsEv
__ZN15CBaseFileSystem23GetOptimalIOConstraintsEPvPjS1_S1_
__ZN15CBaseFileSystem23GetUnverifiedFileHashesEP19CUnverifiedFileHashi
__ZN15CBaseFileSystem23MarkPathIDByRequestOnlyEPKcb
__ZN15CBaseFileSystem23UnloadCompiledKeyValuesEv
__ZN15CBaseFileSystem24FullPathToRelativePathExEPKcS1_Pci
__ZN15CBaseFileSystem24SetWriteProtectionEnableEb
__ZN15CBaseFileSystem26GetCaseCorrectFullPath_PtrEPKcPci
__ZN15CBaseFileSystem26InstallDirtyDiskReportFuncEPFvvE
__ZN15CBaseFileSystem26LookupKeyValuesRootKeyNameEPKcS1_Pcm
__ZN15CBaseFileSystem27EnableWhitelistFileTrackingEbbb
__ZN15CBaseFileSystem28AsyncReadMultipleCreditAllocEPK18FileAsyncRequest_tiPKciPP18FSAsyncControl_t__
__ZN15CBaseFileSystem28FindNextFileInVPKOrPakHelperEPNS_10FindData_tE
__ZN15CBaseFileSystem28SetSearchPathIsTrustedSourceEPNS_11CSearchPathE
__ZN15CBaseFileSystem4InitEv
__ZN15CBaseFileSystem4IsOkEPv
__ZN15CBaseFileSystem4OpenEPKcS1_S1_
__ZN15CBaseFileSystem4ReadEPviS0_
__ZN15CBaseFileSystem4SeekEPvi16FileSystemSeek_t
__ZN15CBaseFileSystem4SizeEPKcS1_
__ZN15CBaseFileSystem4SizeEPv
__ZN15CBaseFileSystem4TellEPv
__ZN15CBaseFileSystem5CloseEPv
__ZN15CBaseFileSystem5FlushEPv
__ZN15CBaseFileSystem5WriteEPKviPv
__ZN15CBaseFileSystem6OpenExEPKcS1_jS1_PPc
__ZN15CBaseFileSystem6ReadExEPviiS0_
__ZN15CBaseFileSystem6StringERKPvPci
__ZN15CBaseFileSystem7FPrintfEPvPKcz
__ZN15CBaseFileSystem8FindNextEi
__ZN15CBaseFileSystem8PrecacheEPKcS1_
__ZN15CBaseFileSystem8ReadFileEPKcS1_R10CUtlBufferiiPFPvS1_jE
__ZN15CBaseFileSystem8ReadLineEPciPv
__ZN15CBaseFileSystem8ShutdownEv
__ZN15CBaseFileSystem8SyncReadERK18FileAsyncRequest_t
__ZN15CBaseFileSystem9EndOfFileEPv
__ZN15CBaseFileSystem9FindCloseEi
__ZN15CBaseFileSystem9FindFirstEPKcPi
__ZN15CBaseFileSystem9FixUpPathEPKcPci
__ZN15CBaseFileSystem9InitAsyncEv
__ZN15CBaseFileSystem9UnzipFileEPKcS1_S1_
__ZN15CBaseFileSystem9WriteFileEPKcS1_R10CUtlBuffer
__ZN15CBaseFileSystem9m_DVDModeE
__ZN15CBaseFileSystemC2Ev
__ZN15CBaseFileSystemD2Ev
__ZN15CStringPoolBaseIjE7FreeAllEv
__ZN15CStringPoolBaseIjE8AllocateEPKc
__ZN15CStringPoolBaseIjEC1Ev
__ZN15CStringPoolBaseIjED1Ev
__ZN15CTier1AppSystemI11IFileSystemLi0EE10DisconnectEv
__ZN15CTier1AppSystemI11IFileSystemLi0EE7ConnectEPFPvPKcPiE
__ZN15CTier2AppSystemI13IQueuedLoaderLi0EE10DisconnectEv
__ZN15CTier2AppSystemI13IQueuedLoaderLi0EE7ConnectEPFPvPKcPiE
__ZN15CUtlBlockMemoryIhiE10ChangeSizeEi
__ZN15CUtlBlockMemoryIhiE4InitEii
__ZN15CUtlSymbolTable9AddStringEPKc
__ZN15CUtlSymbolTable9RemoveAllEv
__ZN15CUtlSymbolTableC1Eiib
__ZN15CUtlSymbolTableC2Eiib
__ZN15CUtlSymbolTableD1Ev
__ZN15CUtlSymbolTableD2Ev
__ZN15CachedVPKRead_t4LessERKS_S1_
__ZN16CDefaultAccessor22RegisterConCommandBaseEP14ConCommandBase
__ZN16CThreadLocalBase3SetEPv
__ZN16CThreadLocalBaseC2Ev
__ZN16CThreadLocalBaseD2Ev
__ZN16TrackedVPKFile_t4LessERKS_S1_
__ZN17AsyncOpenedFile_tD0Ev
__ZN17AsyncOpenedFile_tD1Ev
__ZN17CAsyncOpenedFiles3GetEP15FSAsyncFile_t__
__ZN17CAsyncOpenedFiles6AddRefEP15FSAsyncFile_t__
__ZN17CAsyncOpenedFiles7ReleaseEP15FSAsyncFile_t__
__ZN17CAsyncOpenedFiles9FindOrAddEPKc
__ZN17CAsyncOpenedFilesD1Ev
__ZN17CFileAsyncReadJob17InterceptCallbackERK18FileAsyncRequest_ti15FSAsyncStatus_t
__ZN17CFileAsyncReadJob8DescribeEv
__ZN17CFileAsyncReadJob9DoExecuteEv
__ZN17CFileAsyncReadJob9GetResultEPPvPi
__ZN17CFileAsyncReadJobC2ERK18FileAsyncRequest_tP15CBaseFileSystem
__ZN17CFileAsyncReadJobD0Ev
__ZN17CFileAsyncReadJobD1Ev
__ZN17CFileAsyncReadJobD2Ev
__ZN17CFileSystem_Stdio10FS_setmodeEP7__sFILE10FileMode_t
__ZN17CFileSystem_Stdio11FS_vfprintfEP7__sFILEPKcPc
__ZN17CFileSystem_Stdio12FS_FindCloseEPv
__ZN17CFileSystem_Stdio12GetLocalCopyEPKc
__ZN17CFileSystem_Stdio13FS_setbufsizeEP7__sFILEj
__ZN17CFileSystem_Stdio14QueryInterfaceEPKc
__ZN17CFileSystem_Stdio15FS_FindNextFileEPvP9FIND_DATA
__ZN17CFileSystem_Stdio16FS_FindFirstFileEPKcP9FIND_DATA
__ZN17CFileSystem_Stdio16FS_GetSectorSizeEP7__sFILE
__ZN17CFileSystem_Stdio16HintResourceNeedEPKci
__ZN17CFileSystem_Stdio16WaitForResourcesEPKc
__ZN17CFileSystem_Stdio17MountSteamContentEi
__ZN17CFileSystem_Stdio21FreeOptimalReadBufferEPv
__ZN17CFileSystem_Stdio22AllocOptimalReadBufferEPvjj
__ZN17CFileSystem_Stdio22CancelWaitForResourcesEi
__ZN17CFileSystem_Stdio23GetOptimalIOConstraintsEPvPjS1_S1_
__ZN17CFileSystem_Stdio26IsFileImmediatelyAvailableEPKc
__ZN17CFileSystem_Stdio27GetWaitForResourcesProgressEiPfPb
__ZN17CFileSystem_Stdio7FS_feofEP7__sFILE
__ZN17CFileSystem_Stdio7FS_statEPKcP4statPb
__ZN17CFileSystem_Stdio8FS_chmodEPKci
__ZN17CFileSystem_Stdio8FS_fgetsEPciP7__sFILE
__ZN17CFileSystem_Stdio8FS_fopenEPKcS1_jPx
__ZN17CFileSystem_Stdio8FS_freadEPvmmP7__sFILE
__ZN17CFileSystem_Stdio8FS_fseekEP7__sFILExi
__ZN17CFileSystem_Stdio8FS_ftellEP7__sFILE
__ZN17CFileSystem_Stdio9FS_fcloseEP7__sFILE
__ZN17CFileSystem_Stdio9FS_ferrorEP7__sFILE
__ZN17CFileSystem_Stdio9FS_fflushEP7__sFILE
__ZN17CFileSystem_Stdio9FS_fwriteEPKvmP7__sFILE
__ZN17CFileSystem_StdioD1Ev
__ZN17CFileSystem_StdioD2Ev
__ZN17CMemoryFileHandleD0Ev
__ZN17CMemoryFileHandleD1Ev
__ZN17CMemoryFileHandleD2Ev
__ZN17CThreadSpinRWLock10UnlockReadEv
__ZN17CThreadSpinRWLock11LockForReadEv
__ZN17CThreadSpinRWLock11UnlockWriteEv
__ZN17CThreadSpinRWLock16SpinLockForWriteEj
__ZN17CThreadSyncObjectD2Ev
__ZN17CUtlSymbolTableMTD1Ev
__ZN17ZIP_PreloadHeader9m_DataMapE
__ZN18CFileAsyncWriteJob8DescribeEv
__ZN18CFileAsyncWriteJob9DoCleanupEv
__ZN18CFileAsyncWriteJob9DoExecuteEv
__ZN18CFileAsyncWriteJobC2EPKcPKvjbb
__ZN18CFileAsyncWriteJobD0Ev
__ZN18CFileAsyncWriteJobD1Ev
__ZN18CFileAsyncWriteJobD2Ev
__ZN18CMemoryFileBackingD0Ev
__ZN18CMemoryFileBackingD1Ev
__ZN18CStdFilesystemFile16FS_GetSectorSizeEv
__ZN18CUtlCharConversion14FindConversionEPKcPi
__ZN18CZipPackFileHandle13GetSectorSizeEv
__ZN18CZipPackFileHandle13SetBufferSizeEi
__ZN18CZipPackFileHandle18AbsoluteBaseOffsetEv
__ZN18CZipPackFileHandle4ReadEPvii
__ZN18CZipPackFileHandle4SeekEii
__ZN18CZipPackFileHandle4SizeEv
__ZN18CZipPackFileHandle4TellEv
__ZN18CZipPackFileHandleD0Ev
__ZN18CZipPackFileHandleD1Ev
__ZN18CZipPackFileHandleD2Ev
__ZN19CUtlNoEscConversion14FindConversionEPKcPi
__ZN19CUtlStableHashtableI19CUtlConstStringBaseIcE7empty_t18DefaultHashFunctorIS1_E19DefaultEqualFunctorIS1_EtPKcE5PurgeEv
__ZN19CUtlStableHashtableI19CUtlConstStringBaseIcE7empty_t18DefaultHashFunctorIS1_E19DefaultEqualFunctorIS1_EtPKcE8DoInsertIS8_EEjT_
__ZN19ZIP_LocalFileHeader9m_DataMapE
__ZN20CKeyValuesErrorStack11ReportErrorEPKc
__ZN20CPackedStoreRefCountD0Ev
__ZN20CPackedStoreRefCountD1Ev
__ZN20CRefCountServiceBaseILb0E6CRefMTE14OnFinalReleaseEv
__ZN20CRefCountServiceBaseILb1E6CRefMTE14OnFinalReleaseEv
__ZN21CFileAsyncFileSizeJob9DoExecuteEv
__ZN21CFileAsyncFileSizeJobD0Ev
__ZN21CFileAsyncFileSizeJobD1Ev
__ZN21CPackedStoreReadCache13ReadCacheLineER19FileHandleTracker_tR15CachedVPKRead_t
__ZN21CPackedStoreReadCache14CheckMd5ResultER15CachedVPKRead_t
__ZN21CPackedStoreReadCache15FindBufferToUseEv
__ZN21CPackedStoreReadCache32BCanSatisfyFromReadCacheInternalEPhR22CPackedStoreFileHandleR19FileHandleTracker_tiiRi
__ZN21CPackedStoreReadCacheC2EP15IBaseFileSystem
__ZN21CUtlCStringConversion14FindConversionEPKcPi
__ZN21CUtlCStringConversionC2EcPKciPN18CUtlCharConversion17ConversionArray_tE
__ZN22CCleanupUtlSymbolTableD1Ev
__ZN22CFileAsyncWriteFileJob9DoCleanupEv
__ZN22CFileAsyncWriteFileJobD0Ev
__ZN22CFileAsyncWriteFileJobD1Ev
__ZN22CGlobalInitConstructorC2Ev
__ZN22CLZMAZipPackFileHandle14FillReadBufferEv
__ZN22CLZMAZipPackFileHandle4ReadEPvii
__ZN22CLZMAZipPackFileHandle4SeekEii
__ZN22CLZMAZipPackFileHandle4SizeEv
__ZN22CLZMAZipPackFileHandle4TellEv
__ZN22CLZMAZipPackFileHandle5ResetEv
__ZN22CLZMAZipPackFileHandleC2EP12CZipPackFilexjjjj
__ZN22CLZMAZipPackFileHandleD0Ev
__ZN22CLZMAZipPackFileHandleD1Ev
__ZN22CLZMAZipPackFileHandleD2Ev
__ZN23CFileAsyncAppendFileJob8DescribeEv
__ZN23CFileAsyncAppendFileJob9DoExecuteEv
__ZN23CFileAsyncAppendFileJobC2EPKcS1_
__ZN23CFileAsyncAppendFileJobD0Ev
__ZN23CFileAsyncAppendFileJobD1Ev
__ZN23CUtlFilenameSymbolTable12FindFileNameEPKc
__ZN23CUtlFilenameSymbolTable17FindOrAddFileNameEPKc
__ZN23CUtlFilenameSymbolTable6StringERKPvPci
__ZN23CUtlFilenameSymbolTable9RemoveAllEv
__ZN23CUtlFilenameSymbolTableC1Ev
__ZN23CUtlFilenameSymbolTableD1Ev
__ZN23CUtlFilenameSymbolTableD2Ev
__ZN24CCompiledKeyValuesReader10FileInfo_t4LessERKS0_S2_
__ZN24CCompiledKeyValuesReader15InstanceInPlaceER9KeyValuesPKc
__ZN24CCompiledKeyValuesReader21CreateInPlaceFromDataER9KeyValuesRKNS_10FileInfo_tE
__ZN24CCompiledKeyValuesReader26LookupKeyValuesRootKeyNameEPKcPcm
__ZN24CCompiledKeyValuesReader8InstanceEPKc
__ZN24CCompiledKeyValuesReader8LoadFileEPKc
__ZN24CCompiledKeyValuesReaderC1Ev
__ZN25CResourcePreloadAnonymous14CreateResourceEPKc
__ZN25CResourcePreloadAnonymous15OnEndMapLoadingEb
__ZN25CResourcePreloadAnonymous26PurgeUnreferencedResourcesEv
__ZN25CResourcePreloadAnonymous8PurgeAllEv
__ZN25ZIP_EndOfCentralDirRecord9m_DataMapE
__ZN25ZIP_PreloadDirectoryEntry9m_DataMapE
__ZN27ZIP_FileHeader_DataDescInit15g_DataMapHolderE
__ZN28CDatadescGeneratedNameHolderD1Ev
__ZN28CRunTimeKeyValuesStringTable15ReadStringTableEiR10CUtlBuffer
__ZN30ZIP_PreloadHeader_DataDescInit15g_DataMapHolderE
__ZN32ZIP_LocalFileHeader_DataDescInit15g_DataMapHolderE
__ZN34FileListToUnloadForWhitelistChange12IsFileInListEPKc
__ZN34FileListToUnloadForWhitelistChange7AddFileEPKc
__ZN34FileListToUnloadForWhitelistChange7ReleaseEv
__ZN38ZIP_EndOfCentralDirRecord_DataDescInit15g_DataMapHolderE
__ZN38ZIP_PreloadDirectoryEntry_DataDescInit15g_DataMapHolderE
__ZN4CJob14SetDescriptionEPKc
__ZN4CJob7DoAbortEb
__ZN4CJob8DescribeEv
__ZN4CJob9DoCleanupEv
__ZN4CJobC2E13JobPriority_t
__ZN4CJobD0Ev
__ZN4CJobD1Ev
__ZN4CZip10SaveToDiskEP7__sFILE
__ZN4CZip10SaveToDiskEPv
__ZN4CZip12AddFileToZipEPKcS1_N4IZip16eCompressionTypeE
__ZN4CZip12EstimateSizeEv
__ZN4CZip12GetAlignmentEv
__ZN4CZip12SaveToBufferER10CUtlBuffer
__ZN4CZip12SetBigEndianEb
__ZN4CZip13ParseFromDiskEPKc
__ZN4CZip14AddBufferToZipEPKcPvibN4IZip16eCompressionTypeE
__ZN4CZip14ForceAlignmentEbbj
__ZN4CZip14PrintDirectoryEv
__ZN4CZip15FileExistsInZipEPKc
__ZN4CZip15GetNextFilenameEiPciRi
__ZN4CZip15ParseFromBufferEPvi
__ZN4CZip15ReadFileFromZipEPKcbR10CUtlBuffer
__ZN4CZip15ReadFileFromZipEPvPKcbR10CUtlBuffer
__ZN4CZip17RemoveFileFromZipEPKc
__ZN4CZip20ActivateByteSwappingEb
__ZN4CZip5ResetEv
__ZN4CZipC2EPKcb
__ZN4CZipD0Ev
__ZN4CZipD1Ev
__ZN4IZip10ReleaseZipEPS_
__ZN4IZip9CreateZipEPKcb
__ZN5CLZMA10UncompressEPhS0_
__ZN5CLZMA12IsCompressedEPh
__ZN5CLZMA13GetActualSizeEPh
__ZN6ConVar10ClampValueERf
__ZN6ConVar16InternalSetValueEPKc
__ZN6ConVar17ChangeStringValueEPKcf
__ZN6ConVar19InternalSetIntValueEi
__ZN6ConVar21InternalSetFloatValueEfb
__ZN6ConVar4InitEv
__ZN6ConVar6CreateEPKcS1_iS1_bfbfbfbfPFvP7IConVarS1_fE
__ZN6ConVar8AddFlagsEi
__ZN6ConVar8SetValueEPKc
__ZN6ConVar8SetValueEf
__ZN6ConVar8SetValueEi
__ZN6ConVarC1EPKcS1_i
__ZN6ConVarC1EPKcS1_iS1_
__ZN6ConVarD0Ev
__ZN6ConVarD1Ev
__ZN7CCrypto24RSAVerifySignatureSHA256EPKhjS1_jS1_j
__ZN7CDefOpsIiE8LessFuncERKiS2_
__ZN7CDefOpsIyE8LessFuncERKyS2_
__ZN7CTSListIN8CryptoPP17AutoSeededX917RNGINS0_8RijndaelEEEE5PurgeEv
__ZN7CTSListIN8CryptoPP17AutoSeededX917RNGINS0_8RijndaelEEEED1Ev
__ZN7CTSListIP9FileJob_tE8PushItemERKS1_
__ZN7CTSListIP9FileJob_tED1Ev
__ZN7CUtlMapIyP12CThreadMutextPFbRKyS3_EED1Ev
__ZN7vpkhelp13GetStringImplERNS_19CVPKDirectoryHelperEib
__ZN8CTSQueueI12StuffToMD5_tLb0EE3PopEv
__ZN8CTSQueueI12StuffToMD5_tLb0EE4PushEPNS1_6Node_tE
__ZN8CTSQueueI12StuffToMD5_tLb0EE5PurgeEv
__ZN8CTSQueueI12StuffToMD5_tLb0EE7PopItemEPS0_
__ZN8CTSQueueI12StuffToMD5_tLb0EE8PushItemERKS0_
__ZN8CTSQueueI12StuffToMD5_tLb0EEC2Ev
__ZN8CTSQueueI12StuffToMD5_tLb0EED2Ev
__ZN8CTSQueueI15CachedVPKRead_tLb0EE3PopEv
__ZN8CTSQueueI15CachedVPKRead_tLb0EE5PurgeEv
__ZN8CTSQueueI15CachedVPKRead_tLb0EEC2Ev
__ZN8CTSQueueI15CachedVPKRead_tLb0EED2Ev
__ZN8CUtlDictIP9FileJob_tiE9RemoveAllEv
__ZN8CUtlDictIiiE9RemoveAllEv
__ZN8CZipFile12AddFileToZipEPKcS1_N4IZip16eCompressionTypeE
__ZN8CZipFile12SaveToBufferER10CUtlBuffer
__ZN8CZipFile13CalculateSizeEv
__ZN8CZipFile13ParseFromDiskEPKc
__ZN8CZipFile13SaveDirectoryER12IWriteStream
__ZN8CZipFile14AddBufferToZipEPKcPvibN4IZip16eCompressionTypeE
__ZN8CZipFile14PrintDirectoryEv
__ZN8CZipFile15FileExistsInZipEPKc
__ZN8CZipFile15GetNextFilenameEiPciRi
__ZN8CZipFile15ParseFromBufferEPvi
__ZN8CZipFile15ReadFileFromZipEPvPKcbR10CUtlBuffer
__ZN8CZipFile17RemoveFileFromZipEPKc
__ZN8CZipFile9CZipEntry15ZipFileLessFuncERKS0_S2_
__ZN8CZipFile9CZipEntry28ZipFileLessFunc_CaselessSortERKS0_S2_
__ZN8CZipFileC2EPKcb
__ZN8CZipFileD2Ev
__ZN8CryptoPP10ASN1ObjectD0Ev
__ZN8CryptoPP10ASN1ObjectD1Ev
__ZN8CryptoPP10BufferlessINS_22BufferedTransformationEE13IsolatedFlushEbb
__ZN8CryptoPP10BufferlessINS_4SinkEE13IsolatedFlushEbb
__ZN8CryptoPP10GetUserKeyIjEEvNS_9ByteOrderEPT_mPKhm
__ZN8CryptoPP10OS_RNG_ErrC2ERKNSt3__112basic_stringIcNS1_11char_traitsIcEENS1_9allocatorIcEEEE
__ZN8CryptoPP10OS_RNG_ErrD0Ev
__ZN8CryptoPP10OS_RNG_ErrD1Ev
__ZN8CryptoPP10g_hasAESNIE
__ZN8CryptoPP10g_hasCLMULE
__ZN8CryptoPP10g_hasSSSE3E
__ZN8CryptoPP10simple_ptrINS_39PKCS1v15_SignatureMessageEncodingMethodEED1Ev
__ZN8CryptoPP10simple_ptrINS_7IntegerEED1Ev
__ZN8CryptoPP11AAD_CHANNELE
__ZN8CryptoPP11BlockingRng13GenerateBlockEPhm
__ZN8CryptoPP11BlockingRngC2Ev
__ZN8CryptoPP11BlockingRngD0Ev
__ZN8CryptoPP11BlockingRngD1Ev
__ZN8CryptoPP11IntToStringIiEENSt3__112basic_stringIcNS1_11char_traitsIcEENS1_9allocatorIcEEEET_j
__ZN8CryptoPP11IntToStringIjEENSt3__112basic_stringIcNS1_11char_traitsIcEENS1_9allocatorIcEEEET_j
__ZN8CryptoPP11IntToStringImEENSt3__112basic_stringIcNS1_11char_traitsIcEENS1_9allocatorIcEEEET_j
__ZN8CryptoPP11MultiplyTopEPjS0_PKjS2_S2_m
__ZN8CryptoPP11PositiveAddERNS_7IntegerERKS0_S3_
__ZN8CryptoPP11RSAFunction10AssignFromERKNS_14NameValuePairsE
__ZN8CryptoPP11RSAFunction10SetModulusERKNS_7IntegerE
__ZN8CryptoPP11RSAFunction17SetPublicExponentERKNS_7IntegerE
__ZN8CryptoPP11RSAFunction18BERDecodePublicKeyERNS_22BufferedTransformationEbm
__ZN8CryptoPP11RSAFunctionD0Ev
__ZN8CryptoPP11RSAFunctionD1Ev
__ZN8CryptoPP11StringStore11TransferTo2ERNS_22BufferedTransformationERyRKNSt3__112basic_stringIcNS4_11char_traitsIcEENS4_9allocatorIcEEEEb
__ZN8CryptoPP11StringStore15StoreInitializeERKNS_14NameValuePairsE
__ZN8CryptoPP11StringStoreC2EPKc
__ZN8CryptoPP11StringStoreC2EPKhm
__ZN8CryptoPP11StringStoreD0Ev
__ZN8CryptoPP11StringStoreD1Ev
__ZN8CryptoPP11g_hasRDRANDE
__ZN8CryptoPP11g_hasRDSEEDE
__ZN8CryptoPP12AbstractRingINS_7IntegerEE20MultiplicativeGroupTD0Ev
__ZN8CryptoPP12AbstractRingINS_7IntegerEE20MultiplicativeGroupTD1Ev
__ZN8CryptoPP12BERDecodeErrD0Ev
__ZN8CryptoPP12BERDecodeErrD1Ev
__ZN8CryptoPP12ClassNullRNG13GenerateBlockEPhm
__ZN8CryptoPP12ClassNullRNGD0Ev
__ZN8CryptoPP12ClassNullRNGD1Ev
__ZN8CryptoPP12IteratedHashIjNS_10EnumToTypeINS_9ByteOrderELi1EEELj64ENS_18HashTransformationEE7DataBufEv
__ZN8CryptoPP12IteratedHashIjNS_10EnumToTypeINS_9ByteOrderELi1EEELj64ENS_18HashTransformationEED0Ev
__ZN8CryptoPP12IteratedHashIjNS_10EnumToTypeINS_9ByteOrderELi1EEELj64ENS_18HashTransformationEED1Ev
__ZN8CryptoPP12MessageQueue11TransferTo2ERNS_22BufferedTransformationERyRKNSt3__112basic_stringIcNS4_11char_traitsIcEENS4_9allocatorIcEEEEb
__ZN8CryptoPP12MessageQueue13IsolatedFlushEbb
__ZN8CryptoPP12MessageQueue14GetNextMessageEv
__ZN8CryptoPP12MessageQueue18IsolatedInitializeERKNS_14NameValuePairsE
__ZN8CryptoPP12MessageQueue24IsolatedMessageSeriesEndEb
__ZN8CryptoPP12MessageQueue4Put2EPKhmib
__ZN8CryptoPP12MessageQueueC1Ej
__ZN8CryptoPP12MessageQueueC2Ej
__ZN8CryptoPP12MessageQueueD0Ev
__ZN8CryptoPP12MessageQueueD1Ev
__ZN8CryptoPP12StringSourceC2EPKhmbPNS_22BufferedTransformationE
__ZN8CryptoPP12StringSourceD0Ev
__ZN8CryptoPP12StringSourceD1Ev
__ZN8CryptoPP12WindowSlider14FindNextWindowEv
__ZN8CryptoPP12WindowSliderC2ERKNS_7IntegerEbj
__ZN8CryptoPP13AllocatorBaseIjE9CheckSizeEm
__ZN8CryptoPP13AlmostInverseEPjS0_PKjmS2_m
__ZN8CryptoPP13AutoSignalingINS_14InputRejectingINS_22BufferedTransformationEEEE24SetAutoSignalPropagationEi
__ZN8CryptoPP13AutoSignalingINS_22BufferedTransformationEE24SetAutoSignalPropagationEi
__ZN8CryptoPP13BERDecodeNullERNS_22BufferedTransformationE
__ZN8CryptoPP13DEREncodeNullERNS_22BufferedTransformationE
__ZN8CryptoPP13TF_ObjectImplINS_15TF_VerifierBaseENS_25TF_SignatureSchemeOptionsINS_5TF_SSINS_8PKCS1v15ENS_6SHA256ENS_3RSAEiEES6_NS_39PKCS1v15_SignatureMessageEncodingMethodES5_EENS_11RSAFunctionEE9AccessKeyEv
__ZN8CryptoPP13TF_ObjectImplINS_15TF_VerifierBaseENS_25TF_SignatureSchemeOptionsINS_5TF_SSINS_8PKCS1v15ENS_6SHA256ENS_3RSAEiEES6_NS_39PKCS1v15_SignatureMessageEncodingMethodES5_EENS_11RSAFunctionEED0Ev
__ZN8CryptoPP13TF_ObjectImplINS_15TF_VerifierBaseENS_25TF_SignatureSchemeOptionsINS_5TF_SSINS_8PKCS1v15ENS_6SHA256ENS_3RSAEiEES6_NS_39PKCS1v15_SignatureMessageEncodingMethodES5_EENS_11RSAFunctionEED1Ev
__ZN8CryptoPP13X509PublicKey28BERDecodeAlgorithmParametersERNS_22BufferedTransformationE
__ZN8CryptoPP13X509PublicKey9BERDecodeERNS_22BufferedTransformationE
__ZN8CryptoPP13X509PublicKeyD0Ev
__ZN8CryptoPP13X509PublicKeyD1Ev
__ZN8CryptoPP13a_exp_b_mod_cERKNS_7IntegerES2_S2_
__ZN8CryptoPP14BERDecodeErrorEv
__ZN8CryptoPP14CryptoMaterial10PrecomputeEj
__ZN8CryptoPP14CryptoMaterial15InvalidMaterialD0Ev
__ZN8CryptoPP14CryptoMaterial15InvalidMaterialD1Ev
__ZN8CryptoPP14CryptoMaterial18LoadPrecomputationERNS_22BufferedTransformationE
__ZN8CryptoPP14CryptoMaterial4LoadERNS_22BufferedTransformationE
__ZN8CryptoPP14InputRejectingINS_22BufferedTransformationEE11ChannelPut2ERKNSt3__112basic_stringIcNS3_11char_traitsIcEENS3_9allocatorIcEEEEPKhmib
__ZN8CryptoPP14InputRejectingINS_22BufferedTransformationEE13InputRejectedD0Ev
__ZN8CryptoPP14InputRejectingINS_22BufferedTransformationEE13InputRejectedD1Ev
__ZN8CryptoPP14InputRejectingINS_22BufferedTransformationEE13IsolatedFlushEbb
__ZN8CryptoPP14InputRejectingINS_22BufferedTransformationEE23ChannelMessageSeriesEndERKNSt3__112basic_stringIcNS3_11char_traitsIcEENS3_9allocatorIcEEEEib
__ZN8CryptoPP14InputRejectingINS_22BufferedTransformationEE24IsolatedMessageSeriesEndEb
__ZN8CryptoPP14InputRejectingINS_22BufferedTransformationEE4Put2EPKhmib
__ZN8CryptoPP14InputRejectingINS_6FilterEE11ChannelPut2ERKNSt3__112basic_stringIcNS3_11char_traitsIcEENS3_9allocatorIcEEEEPKhmib
__ZN8CryptoPP14InputRejectingINS_6FilterEE13InputRejectedD0Ev
__ZN8CryptoPP14InputRejectingINS_6FilterEE13InputRejectedD1Ev
__ZN8CryptoPP14InputRejectingINS_6FilterEE13IsolatedFlushEbb
__ZN8CryptoPP14InputRejectingINS_6FilterEE23ChannelMessageSeriesEndERKNSt3__112basic_stringIcNS3_11char_traitsIcEENS3_9allocatorIcEEEEib
__ZN8CryptoPP14InputRejectingINS_6FilterEE24IsolatedMessageSeriesEndEb
__ZN8CryptoPP14InputRejectingINS_6FilterEE4Put2EPKhmib
__ZN8CryptoPP14MakeParametersINS_23ConstByteArrayParameterEEENS_19AlgorithmParametersEPKcRKT_b
__ZN8CryptoPP14NameValuePairs17ValueTypeMismatchC2ERKNSt3__112basic_stringIcNS2_11char_traitsIcEENS2_9allocatorIcEEEERKSt9type_infoSD_
__ZN8CryptoPP14NameValuePairs17ValueTypeMismatchD0Ev
__ZN8CryptoPP14NameValuePairs17ValueTypeMismatchD1Ev
__ZN8CryptoPP14NameValuePairs19ThrowIfTypeMismatchEPKcRKSt9type_infoS5_
__ZN8CryptoPP14NonblockingRng13GenerateBlockEPhm
__ZN8CryptoPP14NonblockingRngC2Ev
__ZN8CryptoPP14NonblockingRngD0Ev
__ZN8CryptoPP14NonblockingRngD1Ev
__ZN8CryptoPP14NotImplementedD0Ev
__ZN8CryptoPP14NotImplementedD1Ev
__ZN8CryptoPP14PositiveDivideERNS_7IntegerES1_RKS0_S3_
__ZN8CryptoPP14SourceTemplateINS_11StringStoreEE13PumpMessages2ERjb
__ZN8CryptoPP14SourceTemplateINS_11StringStoreEE18IsolatedInitializeERKNS_14NameValuePairsE
__ZN8CryptoPP14SourceTemplateINS_11StringStoreEE24SetAutoSignalPropagationEi
__ZN8CryptoPP14SourceTemplateINS_11StringStoreEE5Pump2ERyb
__ZN8CryptoPP14SourceTemplateINS_11StringStoreEE8PumpAll2Eb
__ZN8CryptoPP14SourceTemplateINS_11StringStoreEEC2EPNS_22BufferedTransformationE
__ZN8CryptoPP14SourceTemplateINS_11StringStoreEED0Ev
__ZN8CryptoPP14SourceTemplateINS_11StringStoreEED1Ev
__ZN8CryptoPP15BERLengthDecodeERNS_22BufferedTransformationERm
__ZN8CryptoPP15DEFAULT_CHANNELE
__ZN8CryptoPP15DERLengthEncodeERNS_22BufferedTransformationEy
__ZN8CryptoPP15InvalidArgumentD0Ev
__ZN8CryptoPP15InvalidArgumentD1Ev
__ZN8CryptoPP15RecursiveSquareEPjS0_PKjm
__ZN8CryptoPP15SelfTestFailureD0Ev
__ZN8CryptoPP15SelfTestFailureD1Ev
__ZN8CryptoPP15VerifyBufsEqualEPKhS1_m
__ZN8CryptoPP15g_cacheLineSizeE
__ZN8CryptoPP16Baseline_Square2EPjPKj
__ZN8CryptoPP16Baseline_Square4EPjPKj
__ZN8CryptoPP16Baseline_Square8EPjPKj
__ZN8CryptoPP16BlockCipherFinalILNS_9CipherDirE0ENS_8Rijndael3EncEEC1ERKS4_
__ZN8CryptoPP16BlockCipherFinalILNS_9CipherDirE0ENS_8Rijndael3EncEED0Ev
__ZN8CryptoPP16BlockCipherFinalILNS_9CipherDirE0ENS_8Rijndael3EncEED1Ev
__ZN8CryptoPP16HashInputTooLongD0Ev
__ZN8CryptoPP16HashInputTooLongD1Ev
__ZN8CryptoPP16InvalidKeyLengthC2ERKNSt3__112basic_stringIcNS1_11char_traitsIcEENS1_9allocatorIcEEEEm
__ZN8CryptoPP16InvalidKeyLengthD0Ev
__ZN8CryptoPP16InvalidKeyLengthD1Ev
__ZN8CryptoPP16IteratedHashBaseIjNS_18HashTransformationEE14TruncatedFinalEPhm
__ZN8CryptoPP16IteratedHashBaseIjNS_18HashTransformationEE17CreateUpdateSpaceERm
__ZN8CryptoPP16IteratedHashBaseIjNS_18HashTransformationEE18HashMultipleBlocksEPKjm
__ZN8CryptoPP16IteratedHashBaseIjNS_18HashTransformationEE6UpdateEPKhm
__ZN8CryptoPP16IteratedHashBaseIjNS_18HashTransformationEE7RestartEv
__ZN8CryptoPP16IteratedHashBaseIjNS_18HashTransformationEED0Ev
__ZN8CryptoPP16IteratedHashBaseIjNS_18HashTransformationEED1Ev
__ZN8CryptoPP16MontgomeryReduceEPjS0_S0_PKjS2_m
__ZN8CryptoPP16PK_FinalTemplateINS_15TF_VerifierImplINS_25TF_SignatureSchemeOptionsINS_5TF_SSINS_8PKCS1v15ENS_6SHA256ENS_3RSAEiEES6_NS_39PKCS1v15_SignatureMessageEncodingMethodES5_EEEEED0Ev
__ZN8CryptoPP16PK_FinalTemplateINS_15TF_VerifierImplINS_25TF_SignatureSchemeOptionsINS_5TF_SSINS_8PKCS1v15ENS_6SHA256ENS_3RSAEiEES6_NS_39PKCS1v15_SignatureMessageEncodingMethodES5_EEEEED1Ev
__ZN8CryptoPP16PositiveMultiplyERNS_7IntegerERKS0_S3_
__ZN8CryptoPP16PositiveSubtractERNS_7IntegerERKS0_S3_
__ZN8CryptoPP16TrapdoorFunctionD0Ev
__ZN8CryptoPP16TrapdoorFunctionD1Ev
__ZN8CryptoPP17AutoSeededX917RNGINS_8RijndaelEE18IncorporateEntropyEPKhm
__ZN8CryptoPP17AutoSeededX917RNGINS_8RijndaelEE34GenerateIntoBufferedTransformationERNS_22BufferedTransformationERKNSt3__112basic_stringIcNS5_11char_traitsIcEENS5_9allocatorIcEEEEy
__ZN8CryptoPP17AutoSeededX917RNGINS_8RijndaelEE6ReseedEPKhmS4_S4_
__ZN8CryptoPP17AutoSeededX917RNGINS_8RijndaelEE6ReseedEbPKhm
__ZN8CryptoPP17AutoSeededX917RNGINS_8RijndaelEED0Ev
__ZN8CryptoPP17AutoSeededX917RNGINS_8RijndaelEED1Ev
__ZN8CryptoPP17BERGeneralDecoder10MessageEndEv
__ZN8CryptoPP17BERGeneralDecoder11TransferTo2ERNS_22BufferedTransformationERyRKNSt3__112basic_stringIcNS4_11char_traitsIcEENS4_9allocatorIcEEEEb
__ZN8CryptoPP17BERGeneralDecoder15StoreInitializeERKNS_14NameValuePairsE
__ZN8CryptoPP17BERGeneralDecoder4InitEh
__ZN8CryptoPP17BERGeneralDecoderC1ERNS_22BufferedTransformationEh
__ZN8CryptoPP17BERGeneralDecoderC2ERNS_22BufferedTransformationEh
__ZN8CryptoPP17BERGeneralDecoderD0Ev
__ZN8CryptoPP17BERGeneralDecoderD1Ev
__ZN8CryptoPP17BERGeneralDecoderD2Ev
__ZN8CryptoPP17Baseline_Square16EPjPKj
__ZN8CryptoPP17DERGeneralEncoder10MessageEndEv
__ZN8CryptoPP17DERGeneralEncoderC1ERNS_22BufferedTransformationEh
__ZN8CryptoPP17DERGeneralEncoderC2ERNS_22BufferedTransformationEh
__ZN8CryptoPP17DERGeneralEncoderD0Ev
__ZN8CryptoPP17DERGeneralEncoderD1Ev
__ZN8CryptoPP17DERGeneralEncoderD2Ev
__ZN8CryptoPP17DetectX86FeaturesEv
__ZN8CryptoPP17DivideByPower2ModEPjPKjmS2_m
__ZN8CryptoPP17EuclideanDomainOfINS_7IntegerEEC2Ev
__ZN8CryptoPP17EuclideanDomainOfINS_7IntegerEED0Ev
__ZN8CryptoPP17EuclideanDomainOfINS_7IntegerEED1Ev
__ZN8CryptoPP17InvalidDataFormatD0Ev
__ZN8CryptoPP17InvalidDataFormatD1Ev
__ZN8CryptoPP17ModularArithmeticC2ERKNS_7IntegerE
__ZN8CryptoPP17ModularArithmeticC2ERKS0_
__ZN8CryptoPP17ModularArithmeticD0Ev
__ZN8CryptoPP17ModularArithmeticD1Ev
__ZN8CryptoPP17RecursiveMultiplyEPjS0_PKjS2_m
__ZN8CryptoPP17TF_ObjectImplBaseINS_15TF_VerifierBaseENS_25TF_SignatureSchemeOptionsINS_5TF_SSINS_8PKCS1v15ENS_6SHA256ENS_3RSAEiEES6_NS_39PKCS1v15_SignatureMessageEncodingMethodES5_EENS_11RSAFunctionEE15AccessPublicKeyEv
__ZN8CryptoPP17UnalignedAllocateEm
__ZN8CryptoPP18ASN1CryptoMaterialINS_9PublicKeyEE4LoadERNS_22BufferedTransformationE
__ZN8CryptoPP18ASN1CryptoMaterialINS_9PublicKeyEED0Ev
__ZN8CryptoPP18ASN1CryptoMaterialINS_9PublicKeyEED1Ev
__ZN8CryptoPP18AssignIntToIntegerERKSt9type_infoPvPKv
__ZN8CryptoPP18AsymmetricMultiplyEPjS0_PKjmS2_m
__ZN8CryptoPP18BERSequenceDecoderD0Ev
__ZN8CryptoPP18BERSequenceDecoderD1Ev
__ZN8CryptoPP18Baseline_Multiply2EPjPKjS2_
__ZN8CryptoPP18Baseline_Multiply4EPjPKjS2_
__ZN8CryptoPP18Baseline_Multiply8EPjPKjS2_
__ZN8CryptoPP18DERSequenceEncoderD0Ev
__ZN8CryptoPP18DERSequenceEncoderD1Ev
__ZN8CryptoPP18HashTransformation12VerifyDigestEPKhS2_m
__ZN8CryptoPP18HashTransformation15CalculateDigestEPhPKhm
__ZN8CryptoPP18HashTransformation15TruncatedVerifyEPKhm
__ZN8CryptoPP18HashTransformation17CreateUpdateSpaceERm
__ZN8CryptoPP18HashTransformation21VerifyTruncatedDigestEPKhmS2_m
__ZN8CryptoPP18HashTransformation24CalculateTruncatedDigestEPhmPKhm
__ZN8CryptoPP18HashTransformation5FinalEPh
__ZN8CryptoPP18HashTransformation6VerifyEPKh
__ZN8CryptoPP18HashTransformation7RestartEv
__ZN8CryptoPP18NullNameValuePairsD0Ev
__ZN8CryptoPP18NullNameValuePairsD1Ev
__ZN8CryptoPP18PK_SignatureScheme11KeyTooShortD0Ev
__ZN8CryptoPP18PK_SignatureScheme11KeyTooShortD1Ev
__ZN8CryptoPP18PK_SignatureScheme16InvalidKeyLengthD0Ev
__ZN8CryptoPP18PK_SignatureScheme16InvalidKeyLengthD1Ev
__ZN8CryptoPP18PK_SignatureSchemeD0Ev
__ZN8CryptoPP18PK_SignatureSchemeD1Ev
__ZN8CryptoPP18PublicKeyAlgorithm14AccessMaterialEv
__ZN8CryptoPP18g_x86DetectionDoneE
__ZN8CryptoPP19AlgorithmParametersC1ERKS0_
__ZN8CryptoPP19AlgorithmParametersC1Ev
__ZN8CryptoPP19AlgorithmParametersD0Ev
__ZN8CryptoPP19AlgorithmParametersD1Ev
__ZN8CryptoPP19AlgorithmParametersclINS_23ConstByteArrayParameterEEERS0_PKcRKT_b
__ZN8CryptoPP19Baseline_Multiply16EPjPKjS2_
__ZN8CryptoPP19GetValueHelperClassINS_11RSAFunctionES1_E10AssignableEv
__ZN8CryptoPP19GetValueHelperClassINS_11RSAFunctionES1_EC2EPKS1_PKcRKSt9type_infoPvPKNS_14NameValuePairsE
__ZN8CryptoPP19GetValueHelperClassINS_11RSAFunctionES1_EclINS_7IntegerEEERS2_PKcMS1_KFRKT_vE
__ZN8CryptoPP19MultiplyByPower2ModEPjPKjmS2_m
__ZN8CryptoPP19UnalignedDeallocateEPv
__ZN8CryptoPP20g_nullNameValuePairsE
__ZN8CryptoPP21AssignFromHelperClassINS_11RSAFunctionES1_EclINS_7IntegerEEERS2_PKcMS1_FvRKT_E
__ZN8CryptoPP21Baseline_MultiplyTop2EPjPKjS2_j
__ZN8CryptoPP21Baseline_MultiplyTop4EPjPKjS2_j
__ZN8CryptoPP21Baseline_MultiplyTop8EPjPKjS2_j
__ZN8CryptoPP21DivideThreeWordsByTwoIjNS_5DWordEEET_PS2_S2_S2_PT0_
__ZN8CryptoPP21PKCS_DigestDecorationINS_6SHA256EE10decorationE
__ZN8CryptoPP21PKCS_DigestDecorationINS_6SHA256EE6lengthE
__ZN8CryptoPP21PK_MessageAccumulator14TruncatedFinalEPhm
__ZN8CryptoPP21RandomNumberGenerator11GenerateBitEv
__ZN8CryptoPP21RandomNumberGenerator12DiscardBytesEm
__ZN8CryptoPP21RandomNumberGenerator12GenerateByteEv
__ZN8CryptoPP21RandomNumberGenerator13GenerateBlockEPhm
__ZN8CryptoPP21RandomNumberGenerator14GenerateWord32Ejj
__ZN8CryptoPP21RandomNumberGenerator18IncorporateEntropyEPKhm
__ZN8CryptoPP21RandomNumberGenerator34GenerateIntoBufferedTransformationERNS_22BufferedTransformationERKNSt3__112basic_stringIcNS3_11char_traitsIcEENS3_9allocatorIcEEEEy
__ZN8CryptoPP21SimpleKeyingInterface13ResynchronizeEPKhi
__ZN8CryptoPP21SimpleKeyingInterface23ThrowIfInvalidKeyLengthEm
__ZN8CryptoPP21SimpleKeyingInterface6SetKeyEPKhmRKNS_14NameValuePairsE
__ZN8CryptoPP21SimpleKeyingInterface9GetNextIVERNS_21RandomNumberGeneratorEPh
__ZN8CryptoPP21SimpleKeyingInterfaceD0Ev
__ZN8CryptoPP21SimpleKeyingInterfaceD1Ev
__ZN8CryptoPP21g_pAssignIntToIntegerE
__ZN8CryptoPP22Baseline_MultiplyTop16EPjPKjS2_j
__ZN8CryptoPP22BufferedTransformation10AttachableEv
__ZN8CryptoPP22BufferedTransformation10InitializeERKNS_14NameValuePairsEi
__ZN8CryptoPP22BufferedTransformation11ChannelPut2ERKNSt3__112basic_stringIcNS1_11char_traitsIcEENS1_9allocatorIcEEEEPKhmib
__ZN8CryptoPP22BufferedTransformation12ChannelFlushERKNSt3__112basic_stringIcNS1_11char_traitsIcEENS1_9allocatorIcEEEEbib
__ZN8CryptoPP22BufferedTransformation12NULL_CHANNELE
__ZN8CryptoPP22BufferedTransformation12SkipMessagesEj
__ZN8CryptoPP22BufferedTransformation14CreatePutSpaceERm
__ZN8CryptoPP22BufferedTransformation14GetNextMessageEv
__ZN8CryptoPP22BufferedTransformation14GetWaitObjectsERNS_19WaitObjectContainerERKNS_9CallStackE
__ZN8CryptoPP22BufferedTransformation14PutModifiable2EPhmib
__ZN8CryptoPP22BufferedTransformation14TransferAllTo2ERS0_RKNSt3__112basic_stringIcNS2_11char_traitsIcEENS2_9allocatorIcEEEEb
__ZN8CryptoPP22BufferedTransformation16MessageSeriesEndEib
__ZN8CryptoPP22BufferedTransformation16NoChannelSupportD0Ev
__ZN8CryptoPP22BufferedTransformation16NoChannelSupportD1Ev
__ZN8CryptoPP22BufferedTransformation18IsolatedInitializeERKNS_14NameValuePairsE
__ZN8CryptoPP22BufferedTransformation19SetRetrievalChannelERKNSt3__112basic_stringIcNS1_11char_traitsIcEENS1_9allocatorIcEEEE
__ZN8CryptoPP22BufferedTransformation19TransferMessagesTo2ERS0_RjRKNSt3__112basic_stringIcNS3_11char_traitsIcEENS3_9allocatorIcEEEEb
__ZN8CryptoPP22BufferedTransformation20GetNextMessageSeriesEv
__ZN8CryptoPP22BufferedTransformation21ChannelCreatePutSpaceERKNSt3__112basic_stringIcNS1_11char_traitsIcEENS1_9allocatorIcEEEERm
__ZN8CryptoPP22BufferedTransformation21ChannelPutModifiable2ERKNSt3__112basic_stringIcNS1_11char_traitsIcEENS1_9allocatorIcEEEEPhmib
__ZN8CryptoPP22BufferedTransformation22AttachedTransformationEv
__ZN8CryptoPP22BufferedTransformation23ChannelMessageSeriesEndERKNSt3__112basic_stringIcNS1_11char_traitsIcEENS1_9allocatorIcEEEEib
__ZN8CryptoPP22BufferedTransformation24IsolatedMessageSeriesEndEb
__ZN8CryptoPP22BufferedTransformation24SetAutoSignalPropagationEi
__ZN8CryptoPP22BufferedTransformation3GetEPhm
__ZN8CryptoPP22BufferedTransformation3GetERh
__ZN8CryptoPP22BufferedTransformation4SkipEy
__ZN8CryptoPP22BufferedTransformation5FlushEbib
__ZN8CryptoPP22BufferedTransformation6AttachEPS0_
__ZN8CryptoPP22BufferedTransformation6DetachEPS0_
__ZN8CryptoPP22BufferedTransformation7SkipAllEv
__ZN8CryptoPP22BufferedTransformation9GetWord16ERtNS_9ByteOrderE
__ZN8CryptoPP22OS_GenerateRandomBlockEbPhm
__ZN8CryptoPP23AbstractEuclideanDomainINS_7IntegerEED0Ev
__ZN8CryptoPP23AbstractEuclideanDomainINS_7IntegerEED1Ev
__ZN8CryptoPP23AlgorithmParametersBase16ParameterNotUsedC2EPKc
__ZN8CryptoPP23AlgorithmParametersBase16ParameterNotUsedD0Ev
__ZN8CryptoPP23AlgorithmParametersBase16ParameterNotUsedD1Ev
__ZN8CryptoPP23AlgorithmParametersBaseD0Ev
__ZN8CryptoPP23AlgorithmParametersBaseD1Ev
__ZN8CryptoPP23AlgorithmParametersBaseD2Ev
__ZN8CryptoPP23RecursiveMultiplyBottomEPjS0_PKjS2_m
__ZN8CryptoPP23g_powerUpSelfTestStatusE
__ZN8CryptoPP24Baseline_MultiplyBottom2EPjPKjS2_
__ZN8CryptoPP24Baseline_MultiplyBottom4EPjPKjS2_
__ZN8CryptoPP24Baseline_MultiplyBottom8EPjPKjS2_
__ZN8CryptoPP24GetPowerUpSelfTestStatusEv
__ZN8CryptoPP24MontgomeryRepresentationC2ERKNS_7IntegerE
__ZN8CryptoPP24MontgomeryRepresentationC2ERKS0_
__ZN8CryptoPP24MontgomeryRepresentationD0Ev
__ZN8CryptoPP24MontgomeryRepresentationD1Ev
__ZN8CryptoPP25Baseline_MultiplyBottom16EPjPKjS2_
__ZN8CryptoPP25PK_MessageAccumulatorBase6UpdateEPKhm
__ZN8CryptoPP25PK_MessageAccumulatorBaseC2Ev
__ZN8CryptoPP25PK_MessageAccumulatorBaseD0Ev
__ZN8CryptoPP25PK_MessageAccumulatorBaseD1Ev
__ZN8CryptoPP25PK_MessageAccumulatorBaseD2Ev
__ZN8CryptoPP25PK_MessageAccumulatorImplINS_6SHA256EE10AccessHashEv
__ZN8CryptoPP25PK_MessageAccumulatorImplINS_6SHA256EED0Ev
__ZN8CryptoPP25PK_MessageAccumulatorImplINS_6SHA256EED1Ev
__ZN8CryptoPP25RecursiveInverseModPower2EPjS0_PKjm
__ZN8CryptoPP27AlgorithmParametersTemplateINS_23ConstByteArrayParameterEEC2EPKcRKS1_b
__ZN8CryptoPP27AlgorithmParametersTemplateINS_23ConstByteArrayParameterEED0Ev
__ZN8CryptoPP27AlgorithmParametersTemplateINS_23ConstByteArrayParameterEED1Ev
__ZN8CryptoPP28FIPS_140_2_ComplianceEnabledEv
__ZN8CryptoPP31IteratedHashWithStaticTransformIjNS_10EnumToTypeINS_9ByteOrderELi1EEELj64ELj32ENS_6SHA256ELj32ELb1EE24HashEndianCorrectedBlockEPKj
__ZN8CryptoPP31IteratedHashWithStaticTransformIjNS_10EnumToTypeINS_9ByteOrderELi1EEELj64ELj32ENS_6SHA256ELj32ELb1EE4InitEv
__ZN8CryptoPP31IteratedHashWithStaticTransformIjNS_10EnumToTypeINS_9ByteOrderELi1EEELj64ELj32ENS_6SHA256ELj32ELb1EE8StateBufEv
__ZN8CryptoPP31IteratedHashWithStaticTransformIjNS_10EnumToTypeINS_9ByteOrderELi1EEELj64ELj32ENS_6SHA256ELj32ELb1EEC2ERKS5_
__ZN8CryptoPP31IteratedHashWithStaticTransformIjNS_10EnumToTypeINS_9ByteOrderELi1EEELj64ELj32ENS_6SHA256ELj32ELb1EEC2Ev
__ZN8CryptoPP31IteratedHashWithStaticTransformIjNS_10EnumToTypeINS_9ByteOrderELi1EEELj64ELj32ENS_6SHA256ELj32ELb1EED0Ev
__ZN8CryptoPP31IteratedHashWithStaticTransformIjNS_10EnumToTypeINS_9ByteOrderELi1EEELj64ELj32ENS_6SHA256ELj32ELb1EED1Ev
__ZN8CryptoPP37PowerUpSelfTestInProgressOnThisThreadEv
__ZN8CryptoPP39PKCS1v15_SignatureMessageEncodingMethodD0Ev
__ZN8CryptoPP39PKCS1v15_SignatureMessageEncodingMethodD1Ev
__ZN8CryptoPP3OID11EncodeValueERNS_22BufferedTransformationEj
__ZN8CryptoPP3OID9BERDecodeERNS_22BufferedTransformationE
__ZN8CryptoPP4ASN113rsaEncryptionEv
__ZN8CryptoPP4ASN14pkcsEv
__ZN8CryptoPP4ASN16iso_usEv
__ZN8CryptoPP4Sink11TransferTo2ERNS_22BufferedTransformationERyRKNSt3__112basic_stringIcNS4_11char_traitsIcEENS4_9allocatorIcEEEEb
__ZN8CryptoPP5Store14GetNextMessageEv
__ZN8CryptoPP5Store18IsolatedInitializeERKNS_14NameValuePairsE
__ZN8CryptoPP5TF_SSINS_8PKCS1v15ENS_6SHA256ENS_3RSAEiE19StaticAlgorithmNameEv
__ZN8CryptoPP6DivideEPjS0_S0_PKjmS2_m
__ZN8CryptoPP6Filter10AttachableEv
__ZN8CryptoPP6Filter10InitializeERKNS_14NameValuePairsEi
__ZN8CryptoPP6Filter11TransferTo2ERNS_22BufferedTransformationERyRKNSt3__112basic_stringIcNS4_11char_traitsIcEENS4_9allocatorIcEEEEb
__ZN8CryptoPP6Filter16MessageSeriesEndEib
__ZN8CryptoPP6Filter22AttachedTransformationEv
__ZN8CryptoPP6Filter5FlushEbib
__ZN8CryptoPP6Filter6DetachEPNS_22BufferedTransformationE
__ZN8CryptoPP6FilterC2EPNS_22BufferedTransformationE
__ZN8CryptoPP6FilterD0Ev
__ZN8CryptoPP6FilterD1Ev
__ZN8CryptoPP6SHA2569InitStateEPj
__ZN8CryptoPP6SHA2569TransformEPjPKj
__ZN8CryptoPP6SHA256D0Ev
__ZN8CryptoPP6SHA256D1Ev
__ZN8CryptoPP6Source8PumpAll2Eb
__ZN8CryptoPP6SourceD0Ev
__ZN8CryptoPP6SourceD1Ev
__ZN8CryptoPP6g_isP4E
__ZN8CryptoPP6xorbufEPhPKhS2_m
__ZN8CryptoPP6xorbufEPhPKhm
__ZN8CryptoPP7Integer12DivideByZeroD0Ev
__ZN8CryptoPP7Integer12DivideByZeroD1Ev
__ZN8CryptoPP7Integer3GcdERKS0_S2_
__ZN8CryptoPP7Integer3OneEv
__ZN8CryptoPP7Integer4ZeroEv
__ZN8CryptoPP7Integer6DecodeERNS_22BufferedTransformationEmNS0_10SignednessE
__ZN8CryptoPP7Integer6DivideERS0_S1_RKS0_S3_
__ZN8CryptoPP7Integer6Power2Em
__ZN8CryptoPP7Integer9BERDecodeERNS_22BufferedTransformationE
__ZN8CryptoPP7IntegerC1EPKhmNS0_10SignednessE
__ZN8CryptoPP7IntegerC1ERKS0_
__ZN8CryptoPP7IntegerC1Ejm
__ZN8CryptoPP7IntegerC1Ev
__ZN8CryptoPP7IntegerC2EPKhmNS0_10SignednessE
__ZN8CryptoPP7IntegerC2ERKS0_
__ZN8CryptoPP7IntegerC2Ejm
__ZN8CryptoPP7IntegerD0Ev
__ZN8CryptoPP7IntegerD1Ev
__ZN8CryptoPP7IntegeraSERKS0_
__ZN8CryptoPP7IntegerlSEm
__ZN8CryptoPP7IntegermIERKS0_
__ZN8CryptoPP7IntegermmEv
__ZN8CryptoPP7IntegerpLERKS0_
__ZN8CryptoPP7IntegerrSEm
__ZN8CryptoPP7NullRNGEv
__ZN8CryptoPP7X917RNG34GenerateIntoBufferedTransformationERNS_22BufferedTransformationERKNSt3__112basic_stringIcNS3_11char_traitsIcEENS3_9allocatorIcEEEEy
__ZN8CryptoPP7X917RNGC1EPNS_19BlockTransformationEPKhS4_
__ZN8CryptoPP7X917RNGC2EPNS_19BlockTransformationEPKhS4_
__ZN8CryptoPP7X917RNGD0Ev
__ZN8CryptoPP7X917RNGD1Ev
__ZN8CryptoPP8Rijndael4Base12FillDecTableEv
__ZN8CryptoPP8Rijndael4Base15UncheckedSetKeyEPKhjRKNS_14NameValuePairsE
__ZN8CryptoPP8Rijndael4Base2SdE
__ZN8CryptoPP8Rijndael4Base2SeE
__ZN8CryptoPP8Rijndael4Base4rconE
__ZN8CryptoPP8Rijndael4BaseD0Ev
__ZN8CryptoPP8Rijndael4BaseD1Ev
__ZN8CryptoPP8SHA256_KE
__ZN8CryptoPP8SecBlockIhNS_20AllocatorWithCleanupIhLb0EEEE6AssignERKS3_
__ZN8CryptoPP8SecBlockIjNS_20AllocatorWithCleanupIjLb0EEEE9CleanGrowEm
__ZN8CryptoPP8g_hasMMXE
__ZN8CryptoPP9AlgorithmC2Eb
__ZN8CryptoPP9AlgorithmD0Ev
__ZN8CryptoPP9AlgorithmD1Ev
__ZN8CryptoPP9ArraySink14CreatePutSpaceERm
__ZN8CryptoPP9ArraySink18IsolatedInitializeERKNS_14NameValuePairsE
__ZN8CryptoPP9ArraySink4Put2EPKhmib
__ZN8CryptoPP9ArraySinkD0Ev
__ZN8CryptoPP9ArraySinkD1Ev
__ZN8CryptoPP9BitBucket18IsolatedInitializeERKNS_14NameValuePairsE
__ZN8CryptoPP9BitBucket4Put2EPKhmib
__ZN8CryptoPP9BitBucketD0Ev
__ZN8CryptoPP9BitBucketD1Ev
__ZN8CryptoPP9ByteQueue11TransferTo2ERNS_22BufferedTransformationERyRKNSt3__112basic_stringIcNS4_11char_traitsIcEENS4_9allocatorIcEEEEb
__ZN8CryptoPP9ByteQueue14CreatePutSpaceERm
__ZN8CryptoPP9ByteQueue16CleanupUsedNodesEv
__ZN8CryptoPP9ByteQueue18IsolatedInitializeERKNS_14NameValuePairsE
__ZN8CryptoPP9ByteQueue3GetEPhm
__ZN8CryptoPP9ByteQueue3GetERh
__ZN8CryptoPP9ByteQueue4Put2EPKhmib
__ZN8CryptoPP9ByteQueue6Walker11TransferTo2ERNS_22BufferedTransformationERyRKNSt3__112basic_stringIcNS5_11char_traitsIcEENS5_9allocatorIcEEEEb
__ZN8CryptoPP9ByteQueue6Walker18IsolatedInitializeERKNS_14NameValuePairsE
__ZN8CryptoPP9ByteQueue6Walker3GetEPhm
__ZN8CryptoPP9ByteQueue6Walker3GetERh
__ZN8CryptoPP9ByteQueue6WalkerD0Ev
__ZN8CryptoPP9ByteQueue6WalkerD1Ev
__ZN8CryptoPP9ByteQueueC1Em
__ZN8CryptoPP9ByteQueueC2Em
__ZN8CryptoPP9ByteQueueD0Ev
__ZN8CryptoPP9ByteQueueD1Ev
__ZN8CryptoPP9ByteQueueD2Ev
__ZN8CryptoPP9ExceptionD0Ev
__ZN8CryptoPP9ExceptionD1Ev
__ZN8CryptoPP9PublicKeyD0Ev
__ZN8CryptoPP9PublicKeyD1Ev
__ZN8CryptoPP9g_hasISSEE
__ZN8CryptoPP9g_hasSSE2E
__ZN8CryptoPPL10s_TdFilledE
__ZN8CryptoPPL10s_TeFilledE
__ZN8CryptoPPL16RoundupSizeTableE
__ZN8CryptoPPL20s_NullNameValuePairsE
__ZN8CryptoPPL2TdE
__ZN8CryptoPPL2TeE
__ZN8CryptoPPL6s_pBotE
__ZN8CryptoPPL6s_pMulE
__ZN8CryptoPPL6s_pSquE
__ZN8CryptoPPL6s_pTopE
__ZN9CByteswap23SwapFieldToTargetEndianEPvS0_P17typedescription_t
__ZN9CByteswap24SwapFieldsToTargetEndianEPvS0_P9datamap_t
__ZN9CFunctor4IPFvP9FileJob_tPFvPvS2_PKvi13LoaderError_tES2_S2_ES1_S7_S2_S2_12CRefCounted1I8CFunctor20CRefCountServiceBaseILb1E6CRefMTEEED0Ev
__ZN9CFunctor4IPFvP9FileJob_tPFvPvS2_PKvi13LoaderError_tES2_S2_ES1_S7_S2_S2_12CRefCounted1I8CFunctor20CRefCountServiceBaseILb1E6CRefMTEEED1Ev
__ZN9CFunctor4IPFvP9FileJob_tPFvPvS2_PKvi13LoaderError_tES2_S2_ES1_S7_S2_S2_12CRefCounted1I8CFunctor20CRefCountServiceBaseILb1E6CRefMTEEEclEv
__ZN9CFunctor4IPFvP9FileJob_tPvi13LoaderError_tES1_S2_iS3_12CRefCounted1I8CFunctor20CRefCountServiceBaseILb1E6CRefMTEEED0Ev
__ZN9CFunctor4IPFvP9FileJob_tPvi13LoaderError_tES1_S2_iS3_12CRefCounted1I8CFunctor20CRefCountServiceBaseILb1E6CRefMTEEED1Ev
__ZN9CFunctor4IPFvP9FileJob_tPvi13LoaderError_tES1_S2_iS3_12CRefCounted1I8CFunctor20CRefCountServiceBaseILb1E6CRefMTEEEclEv
__ZN9CPackFile16SetupPreloadDataEv
__ZN9CPackFile18DiscardPreloadDataEv
__ZN9CPackFileD0Ev
__ZN9CPackFileD1Ev
__ZN9CPackFileD2Ev
__ZN9KeyValues10SetNextKeyEPS_
__ZN9KeyValues10deleteThisEv
__ZN9KeyValues12LoadFromFileEP15IBaseFileSystemPKcS3_b
__ZN9KeyValues14LoadFromBufferEPKcR10CUtlBufferP15IBaseFileSystemS1_
__ZN9KeyValues14LoadFromBufferEPKcS1_P15IBaseFileSystemS1_
__ZN9KeyValues14SetStringValueEPKc
__ZN9KeyValues16RemoveEverythingEv
__ZN9KeyValues17ParseIncludedKeysEPKcS1_P15IBaseFileSystemS1_R10CUtlVectorIPS_10CUtlMemoryIS5_iEE
__ZN9KeyValues22s_pfGetStringForSymbolE
__ZN9KeyValues22s_pfGetSymbolForStringE
__ZN9KeyValues23RecursiveLoadFromBufferEPKcR10CUtlBuffer
__ZN9KeyValues23RecursiveMergeKeyValuesEPS_
__ZN9KeyValues25GetStringForSymbolClassicEi
__ZN9KeyValues25GetSymbolForStringClassicEPKcb
__ZN9KeyValues28CreateKeyUsingKnownLastChildEPKcPS_
__ZN9KeyValues7SetNameEPKc
__ZN9KeyValues9AddSubKeyEPS_
__ZN9KeyValues9ReadTokenER10CUtlBufferRbS2_
__ZN9KeyValuesC1EPKc
__ZN9KeyValuesdlEPv
__ZN9KeyValuesnwEm
__ZNK10CUtlRBTreeIN7CUtlMapIiP14CUtlStringListtPFbRKiS4_EE6Node_tEtNS7_8CKeyLessE10CUtlMemoryI15UtlRBTreeNode_tIS8_tEtEE11NextInorderEt
__ZNK10CUtlString3GetEv
__ZNK10CUtlSymbol6StringEv
__ZNK10ConCommand9IsCommandEv
__ZNK12CEmptyConVar7GetNameEv
__ZNK12CEmptyConVar9IsFlagSetEi
__ZNK12CPackedStore14CheckSignatureEiPKv
__ZNK12CPackedStore15GetPackFileNameER22CPackedStoreFileHandlePci
__ZNK12CPackedStore7IsEmptyEv
__ZNK13CFileAsyncJob7IsWriteEv
__ZNK13CQueuedLoader10IsBatchingEv
__ZNK13CQueuedLoader10IsFinishedEv
__ZNK13CQueuedLoader12IsMapLoadingEv
__ZNK13CQueuedLoader13GetSpewDetailEv
__ZNK13CQueuedLoader16IsSameMapLoadingEv
__ZNK13CQueuedLoader9IsDynamicEv
__ZNK13CUtlHashtableIN19CUtlStableHashtableI19CUtlConstStringBaseIcE7empty_t18DefaultHashFunctorIS2_E19DefaultEqualFunctorIS2_EtPKcE13IndirectIndexES3_NSA_9HashProxyENSA_10EqualProxyES9_E8DoLookupIS9_EEjT_jPj
__ZNK13CUtlHashtableIPKcP18CMemoryFileBacking18DefaultHashFunctorIS1_E19DefaultEqualFunctorIS1_E11undefined_tE4FindES1_
__ZNK14CUtlSortVectorI19ChunkHashFraction_t23ChunkHashFractionLess_t10CUtlVectorIS0_10CUtlMemoryIS0_iEEE15FindLessOrEqualIS0_EEiRKT_Pb
__ZNK14CUtlSortVectorI19ChunkHashFraction_t23ChunkHashFractionLess_t10CUtlVectorIS0_10CUtlMemoryIS0_iEEE4FindIS0_EEiRKT_
__ZNK14CUtlSortVectorIN12CZipPackFile14CPackFileEntryENS0_17CPackFileLessFuncE10CUtlVectorIS1_10CUtlMemoryIS1_iEEE4FindIS1_EEiRKT_
__ZNK14CUtlSortVectorIPvN13CQueuedLoader21CResourceNameLessFuncE10CUtlVectorIS0_10CUtlMemoryIS0_iEEE4FindIS0_EEiRKT_
__ZNK14ConCommandBase11GetHelpTextEv
__ZNK14ConCommandBase12IsRegisteredEv
__ZNK14ConCommandBase16GetDLLIdentifierEv
__ZNK14ConCommandBase7GetNameEv
__ZNK14ConCommandBase9IsFlagSetEi
__ZNK15CBaseFileSystem24GetWriteProtectionEnableEv
__ZNK15CBaseFileSystem24IsFileInWritableLocationEPKc
__ZNK15CBaseFileSystem7WarningE18FileWarningLevel_tPKcz
__ZNK15CStringPoolBaseIjE5CountEv
__ZNK15CUtlSymbolTable4FindEPKc
__ZNK15CUtlSymbolTable5CLessclERKNS_16CStringPoolIndexES3_
__ZNK15CUtlSymbolTable6StringE10CUtlSymbol
__ZNK16CThreadLocalBase3GetEv
__ZNK17CFileSystem_Stdio7IsSteamEv
__ZNK17CUtlSymbolTableMT6StringE10CUtlSymbol
__ZNK18CFileAsyncWriteJob7IsWriteEv
__ZNK23CFileAsyncAppendFileJob7IsWriteEv
__ZNK6ConVar11GetHelpTextEv
__ZNK6ConVar12IsRegisteredEv
__ZNK6ConVar7GetNameEv
__ZNK6ConVar9IsCommandEv
__ZNK6ConVar9IsFlagSetEi
__ZNK8CryptoPP10ASN1Object9BEREncodeERNS_22BufferedTransformationE
__ZNK8CryptoPP11BlockCipher12GetAlgorithmEv
__ZNK8CryptoPP11PK_Verifier13VerifyMessageEPKhmS2_m
__ZNK8CryptoPP11PK_Verifier14RecoverMessageEPhPKhmS3_m
__ZNK8CryptoPP11PK_Verifier6VerifyEPNS_21PK_MessageAccumulatorE
__ZNK8CryptoPP11PK_Verifier7RecoverEPhPNS_21PK_MessageAccumulatorE
__ZNK8CryptoPP11RSAFunction10GetModulusEv
__ZNK8CryptoPP11RSAFunction10ImageBoundEv
__ZNK8CryptoPP11RSAFunction12GetVoidValueEPKcRKSt9type_infoPv
__ZNK8CryptoPP11RSAFunction13ApplyFunctionERKNS_7IntegerE
__ZNK8CryptoPP11RSAFunction13PreimageBoundEv
__ZNK8CryptoPP11RSAFunction14GetAlgorithmIDEv
__ZNK8CryptoPP11RSAFunction17GetPublicExponentEv
__ZNK8CryptoPP11RSAFunction18DEREncodePublicKeyERNS_22BufferedTransformationE
__ZNK8CryptoPP11RSAFunction8ValidateERNS_21RandomNumberGeneratorEj
__ZNK8CryptoPP11StringStore12CopyRangeTo2ERNS_22BufferedTransformationERyyRKNSt3__112basic_stringIcNS4_11char_traitsIcEENS4_9allocatorIcEEEEb
__ZNK8CryptoPP12AbstractRingINS_7IntegerEE12ExponentiateERKS1_S4_
__ZNK8CryptoPP12AbstractRingINS_7IntegerEE19CascadeExponentiateERKS1_S4_S4_S4_
__ZNK8CryptoPP12AbstractRingINS_7IntegerEE19MultiplicativeGroupEv
__ZNK8CryptoPP12AbstractRingINS_7IntegerEE20MultiplicativeGroupT10AccumulateERS1_RKS1_
__ZNK8CryptoPP12AbstractRingINS_7IntegerEE20MultiplicativeGroupT14ScalarMultiplyERKS1_S5_
__ZNK8CryptoPP12AbstractRingINS_7IntegerEE20MultiplicativeGroupT20SimultaneousMultiplyEPS1_RKS1_PS5_j
__ZNK8CryptoPP12AbstractRingINS_7IntegerEE20MultiplicativeGroupT21CascadeScalarMultiplyERKS1_S5_S5_S5_
__ZNK8CryptoPP12AbstractRingINS_7IntegerEE20MultiplicativeGroupT3AddERKS1_S5_
__ZNK8CryptoPP12AbstractRingINS_7IntegerEE20MultiplicativeGroupT5EqualERKS1_S5_
__ZNK8CryptoPP12AbstractRingINS_7IntegerEE20MultiplicativeGroupT6DoubleERKS1_
__ZNK8CryptoPP12AbstractRingINS_7IntegerEE20MultiplicativeGroupT6ReduceERS1_RKS1_
__ZNK8CryptoPP12AbstractRingINS_7IntegerEE20MultiplicativeGroupT7InverseERKS1_
__ZNK8CryptoPP12AbstractRingINS_7IntegerEE20MultiplicativeGroupT8IdentityEv
__ZNK8CryptoPP12AbstractRingINS_7IntegerEE20MultiplicativeGroupT8SubtractERKS1_S5_
__ZNK8CryptoPP12AbstractRingINS_7IntegerEE24SimultaneousExponentiateEPS1_RKS1_PS4_j
__ZNK8CryptoPP12AbstractRingINS_7IntegerEE6DivideERKS1_S4_
__ZNK8CryptoPP12AbstractRingINS_7IntegerEE6SquareERKS1_
__ZNK8CryptoPP12ClassNullRNG13AlgorithmNameEv
__ZNK8CryptoPP12ClonableImplINS_16BlockCipherFinalILNS_9CipherDirE0ENS_8Rijndael3EncEEES4_E5CloneEv
__ZNK8CryptoPP12ClonableImplINS_6SHA256ENS_13AlgorithmImplINS_12IteratedHashIjNS_10EnumToTypeINS_9ByteOrderELi1EEELj64ENS_18HashTransformationEEES1_EEE5CloneEv
__ZNK8CryptoPP12IteratedHashIjNS_10EnumToTypeINS_9ByteOrderELi1EEELj64ENS_18HashTransformationEE12GetByteOrderEv
__ZNK8CryptoPP12IteratedHashIjNS_10EnumToTypeINS_9ByteOrderELi1EEELj64ENS_18HashTransformationEE9BlockSizeEv
__ZNK8CryptoPP12MessageQueue12CopyRangeTo2ERNS_22BufferedTransformationERyyRKNSt3__112basic_stringIcNS4_11char_traitsIcEENS4_9allocatorIcEEEEb
__ZNK8CryptoPP12MessageQueue14AnyRetrievableEv
__ZNK8CryptoPP12MessageQueue14MaxRetrievableEv
__ZNK8CryptoPP12MessageQueue16NumberOfMessagesEv
__ZNK8CryptoPP12MessageQueue21NumberOfMessageSeriesEv
__ZNK8CryptoPP12MessageQueue21TotalBytesRetrievableEv
__ZNK8CryptoPP12MessageQueue28NumberOfMessagesInThisSeriesEv
__ZNK8CryptoPP13AbstractGroupINS_7IntegerEE10AccumulateERS1_RKS1_
__ZNK8CryptoPP13AbstractGroupINS_7IntegerEE14ScalarMultiplyERKS1_S4_
__ZNK8CryptoPP13AbstractGroupINS_7IntegerEE15InversionIsFastEv
__ZNK8CryptoPP13AbstractGroupINS_7IntegerEE20SimultaneousMultiplyEPS1_RKS1_PS4_j
__ZNK8CryptoPP13AbstractGroupINS_7IntegerEE21CascadeScalarMultiplyERKS1_S4_S4_S4_
__ZNK8CryptoPP13AbstractGroupINS_7IntegerEE6DoubleERKS1_
__ZNK8CryptoPP13AbstractGroupINS_7IntegerEE6ReduceERS1_RKS1_
__ZNK8CryptoPP13AbstractGroupINS_7IntegerEE8SubtractERKS1_S4_
__ZNK8CryptoPP13AlgorithmImplINS_12IteratedHashIjNS_10EnumToTypeINS_9ByteOrderELi1EEELj64ENS_18HashTransformationEEENS_6SHA256EE13AlgorithmNameEv
__ZNK8CryptoPP13AlgorithmImplINS_15TF_VerifierBaseENS_5TF_SSINS_8PKCS1v15ENS_6SHA256ENS_3RSAEiEEE13AlgorithmNameEv
__ZNK8CryptoPP13AlgorithmImplINS_25SimpleKeyingInterfaceImplINS_8TwoBasesINS_11BlockCipherENS_13Rijndael_InfoEEES5_EES6_E13AlgorithmNameEv
__ZNK8CryptoPP13AutoSignalingINS_14InputRejectingINS_22BufferedTransformationEEEE24GetAutoSignalPropagationEv
__ZNK8CryptoPP13AutoSignalingINS_22BufferedTransformationEE24GetAutoSignalPropagationEv
__ZNK8CryptoPP13TF_ObjectImplINS_15TF_VerifierBaseENS_25TF_SignatureSchemeOptionsINS_5TF_SSINS_8PKCS1v15ENS_6SHA256ENS_3RSAEiEES6_NS_39PKCS1v15_SignatureMessageEncodingMethodES5_EENS_11RSAFunctionEE6GetKeyEv
__ZNK8CryptoPP13X509PublicKey28DEREncodeAlgorithmParametersERNS_22BufferedTransformationE
__ZNK8CryptoPP13X509PublicKey9DEREncodeERNS_22BufferedTransformationE
__ZNK8CryptoPP14CryptoMaterial14ThrowIfInvalidERNS_21RandomNumberGeneratorEj
__ZNK8CryptoPP14CryptoMaterial18SavePrecomputationERNS_22BufferedTransformationE
__ZNK8CryptoPP14CryptoMaterial22SupportsPrecomputationEv
__ZNK8CryptoPP14CryptoMaterial4SaveERNS_22BufferedTransformationE
__ZNK8CryptoPP14NameValuePairs13GetThisObjectINS_11RSAFunctionEEEbRT_
__ZNK8CryptoPP14SourceTemplateINS_11StringStoreEE15SourceExhaustedEv
__ZNK8CryptoPP14SourceTemplateINS_11StringStoreEE24GetAutoSignalPropagationEv
__ZNK8CryptoPP15BlockCipherImplINS_13Rijndael_InfoENS_11BlockCipherEE9BlockSizeEv
__ZNK8CryptoPP15TF_VerifierBase14InputSignatureERNS_21PK_MessageAccumulatorEPKhm
__ZNK8CryptoPP15TF_VerifierBase16VerifyAndRestartERNS_21PK_MessageAccumulatorE
__ZNK8CryptoPP15TF_VerifierBase17RecoverAndRestartEPhRNS_21PK_MessageAccumulatorE
__ZNK8CryptoPP16BlockCipherFinalILNS_9CipherDirE0ENS_8Rijndael3EncEE23IsForwardTransformationEv
__ZNK8CryptoPP16IteratedHashBaseIjNS_18HashTransformationEE16OptimalBlockSizeEv
__ZNK8CryptoPP16IteratedHashBaseIjNS_18HashTransformationEE20OptimalDataAlignmentEv
__ZNK8CryptoPP16TrapdoorFunction12IsRandomizedEv
__ZNK8CryptoPP16TrapdoorFunction23ApplyRandomizedFunctionERNS_21RandomNumberGeneratorERKNS_7IntegerE
__ZNK8CryptoPP17AutoSeededX917RNGINS_8RijndaelEE21CanIncorporateEntropyEv
__ZNK8CryptoPP17BERGeneralDecoder12CopyRangeTo2ERNS_22BufferedTransformationERyyRKNSt3__112basic_stringIcNS4_11char_traitsIcEENS4_9allocatorIcEEEEb
__ZNK8CryptoPP17EuclideanDomainOfINS_7IntegerEE10AccumulateERS1_RKS1_
__ZNK8CryptoPP17EuclideanDomainOfINS_7IntegerEE17DivisionAlgorithmERS1_S3_RKS1_S5_
__ZNK8CryptoPP17EuclideanDomainOfINS_7IntegerEE21MultiplicativeInverseERKS1_
__ZNK8CryptoPP17EuclideanDomainOfINS_7IntegerEE22MultiplicativeIdentityEv
__ZNK8CryptoPP17EuclideanDomainOfINS_7IntegerEE3AddERKS1_S4_
__ZNK8CryptoPP17EuclideanDomainOfINS_7IntegerEE3ModERKS1_S4_
__ZNK8CryptoPP17EuclideanDomainOfINS_7IntegerEE5EqualERKS1_S4_
__ZNK8CryptoPP17EuclideanDomainOfINS_7IntegerEE6DivideERKS1_S4_
__ZNK8CryptoPP17EuclideanDomainOfINS_7IntegerEE6DoubleERKS1_
__ZNK8CryptoPP17EuclideanDomainOfINS_7IntegerEE6IsUnitERKS1_
__ZNK8CryptoPP17EuclideanDomainOfINS_7IntegerEE6ReduceERS1_RKS1_
__ZNK8CryptoPP17EuclideanDomainOfINS_7IntegerEE6SquareERKS1_
__ZNK8CryptoPP17EuclideanDomainOfINS_7IntegerEE7InverseERKS1_
__ZNK8CryptoPP17EuclideanDomainOfINS_7IntegerEE8IdentityEv
__ZNK8CryptoPP17EuclideanDomainOfINS_7IntegerEE8MultiplyERKS1_S4_
__ZNK8CryptoPP17EuclideanDomainOfINS_7IntegerEE8SubtractERKS1_S4_
__ZNK8CryptoPP17ModularArithmetic10AccumulateERNS_7IntegerERKS1_
__ZNK8CryptoPP17ModularArithmetic10ConvertOutERKNS_7IntegerE
__ZNK8CryptoPP17ModularArithmetic19CascadeExponentiateERKNS_7IntegerES3_S3_S3_
__ZNK8CryptoPP17ModularArithmetic21MultiplicativeInverseERKNS_7IntegerE
__ZNK8CryptoPP17ModularArithmetic22MultiplicativeIdentityEv
__ZNK8CryptoPP17ModularArithmetic24SimultaneousExponentiateEPNS_7IntegerERKS1_PS3_j
__ZNK8CryptoPP17ModularArithmetic26IsMontgomeryRepresentationEv
__ZNK8CryptoPP17ModularArithmetic3AddERKNS_7IntegerES3_
__ZNK8CryptoPP17ModularArithmetic5CloneEv
__ZNK8CryptoPP17ModularArithmetic5EqualERKNS_7IntegerES3_
__ZNK8CryptoPP17ModularArithmetic6DivideERKNS_7IntegerES3_
__ZNK8CryptoPP17ModularArithmetic6DoubleERKNS_7IntegerE
__ZNK8CryptoPP17ModularArithmetic6IsUnitERKNS_7IntegerE
__ZNK8CryptoPP17ModularArithmetic6ReduceERNS_7IntegerERKS1_
__ZNK8CryptoPP17ModularArithmetic6SquareERKNS_7IntegerE
__ZNK8CryptoPP17ModularArithmetic7InverseERKNS_7IntegerE
__ZNK8CryptoPP17ModularArithmetic8IdentityEv
__ZNK8CryptoPP17ModularArithmetic8MultiplyERKNS_7IntegerES3_
__ZNK8CryptoPP17ModularArithmetic8SubtractERKNS_7IntegerES3_
__ZNK8CryptoPP17ModularArithmetic9ConvertInERKNS_7IntegerE
__ZNK8CryptoPP17TF_ObjectImplBaseINS_15TF_VerifierBaseENS_25TF_SignatureSchemeOptionsINS_5TF_SSINS_8PKCS1v15ENS_6SHA256ENS_3RSAEiEES6_NS_39PKCS1v15_SignatureMessageEncodingMethodES5_EENS_11RSAFunctionEE12GetPublicKeyEv
__ZNK8CryptoPP17TF_ObjectImplBaseINS_15TF_VerifierBaseENS_25TF_SignatureSchemeOptionsINS_5TF_SSINS_8PKCS1v15ENS_6SHA256ENS_3RSAEiEES6_NS_39PKCS1v15_SignatureMessageEncodingMethodES5_EENS_11RSAFunctionEE13GetDigestSizeEv
__ZNK8CryptoPP17TF_ObjectImplBaseINS_15TF_VerifierBaseENS_25TF_SignatureSchemeOptionsINS_5TF_SSINS_8PKCS1v15ENS_6SHA256ENS_3RSAEiEES6_NS_39PKCS1v15_SignatureMessageEncodingMethodES5_EENS_11RSAFunctionEE17GetHashIdentifierEv
__ZNK8CryptoPP17TF_ObjectImplBaseINS_15TF_VerifierBaseENS_25TF_SignatureSchemeOptionsINS_5TF_SSINS_8PKCS1v15ENS_6SHA256ENS_3RSAEiEES6_NS_39PKCS1v15_SignatureMessageEncodingMethodES5_EENS_11RSAFunctionEE25GetTrapdoorFunctionBoundsEv
__ZNK8CryptoPP17TF_ObjectImplBaseINS_15TF_VerifierBaseENS_25TF_SignatureSchemeOptionsINS_5TF_SSINS_8PKCS1v15ENS_6SHA256ENS_3RSAEiEES6_NS_39PKCS1v15_SignatureMessageEncodingMethodES5_EENS_11RSAFunctionEE26NewVerificationAccumulatorEv
__ZNK8CryptoPP17TF_ObjectImplBaseINS_15TF_VerifierBaseENS_25TF_SignatureSchemeOptionsINS_5TF_SSINS_8PKCS1v15ENS_6SHA256ENS_3RSAEiEES6_NS_39PKCS1v15_SignatureMessageEncodingMethodES5_EENS_11RSAFunctionEE27GetMessageEncodingInterfaceEv
__ZNK8CryptoPP17TF_ObjectImplBaseINS_15TF_VerifierBaseENS_25TF_SignatureSchemeOptionsINS_5TF_SSINS_8PKCS1v15ENS_6SHA256ENS_3RSAEiEES6_NS_39PKCS1v15_SignatureMessageEncodingMethodES5_EENS_11RSAFunctionEE28GetTrapdoorFunctionInterfaceEv
__ZNK8CryptoPP18ASN1CryptoMaterialINS_9PublicKeyEE4SaveERNS_22BufferedTransformationE
__ZNK8CryptoPP18HashTransformation16OptimalBlockSizeEv
__ZNK8CryptoPP18HashTransformation20OptimalDataAlignmentEv
__ZNK8CryptoPP18HashTransformation27ThrowIfInvalidTruncatedSizeEm
__ZNK8CryptoPP18HashTransformation9BlockSizeEv
__ZNK8CryptoPP18NullNameValuePairs12GetVoidValueEPKcRKSt9type_infoPv
__ZNK8CryptoPP18PK_SignatureScheme16SignatureUpfrontEv
__ZNK8CryptoPP18PK_SignatureScheme18MaxSignatureLengthEm
__ZNK8CryptoPP18PublicKeyAlgorithm11GetMaterialEv
__ZNK8CryptoPP19AlgorithmParameters12GetVoidValueEPKcRKSt9type_infoPv
__ZNK8CryptoPP19BlockTransformation13IsPermutationEv
__ZNK8CryptoPP19BlockTransformation20OptimalDataAlignmentEv
__ZNK8CryptoPP19BlockTransformation21AdvancedProcessBlocksEPKhS2_Phmj
__ZNK8CryptoPP19BlockTransformation29OptimalNumberOfParallelBlocksEv
__ZNK8CryptoPP21PK_MessageAccumulator10DigestSizeEv
__ZNK8CryptoPP21RandomNumberGenerator21CanIncorporateEntropyEv
__ZNK8CryptoPP21SimpleKeyingInterface11MaxIVLengthEv
__ZNK8CryptoPP21SimpleKeyingInterface11MinIVLengthEv
__ZNK8CryptoPP21SimpleKeyingInterface16IsValidKeyLengthEm
__ZNK8CryptoPP21SimpleKeyingInterface6IVSizeEv
__ZNK8CryptoPP22BufferedTransformation10PeekWord16ERtNS_9ByteOrderE
__ZNK8CryptoPP22BufferedTransformation11AnyMessagesEv
__ZNK8CryptoPP22BufferedTransformation14AnyRetrievableEv
__ZNK8CryptoPP22BufferedTransformation14CanModifyInputEv
__ZNK8CryptoPP22BufferedTransformation14MaxRetrievableEv
__ZNK8CryptoPP22BufferedTransformation16NumberOfMessagesEv
__ZNK8CryptoPP22BufferedTransformation21GetMaxWaitObjectCountEv
__ZNK8CryptoPP22BufferedTransformation21NumberOfMessageSeriesEv
__ZNK8CryptoPP22BufferedTransformation21TotalBytesRetrievableEv
__ZNK8CryptoPP22BufferedTransformation22AttachedTransformationEv
__ZNK8CryptoPP22BufferedTransformation24GetAutoSignalPropagationEv
__ZNK8CryptoPP22BufferedTransformation28NumberOfMessagesInThisSeriesEv
__ZNK8CryptoPP22BufferedTransformation4PeekEPhm
__ZNK8CryptoPP22BufferedTransformation4PeekERh
__ZNK8CryptoPP22TF_SignatureSchemeBaseINS_11PK_VerifierENS_7TF_BaseINS_16TrapdoorFunctionENS_33PK_SignatureMessageEncodingMethodEEEE15IsProbabilisticEv
__ZNK8CryptoPP22TF_SignatureSchemeBaseINS_11PK_VerifierENS_7TF_BaseINS_16TrapdoorFunctionENS_33PK_SignatureMessageEncodingMethodEEEE15SignatureLengthEv
__ZNK8CryptoPP22TF_SignatureSchemeBaseINS_11PK_VerifierENS_7TF_BaseINS_16TrapdoorFunctionENS_33PK_SignatureMessageEncodingMethodEEEE20MaxRecoverableLengthEv
__ZNK8CryptoPP22TF_SignatureSchemeBaseINS_11PK_VerifierENS_7TF_BaseINS_16TrapdoorFunctionENS_33PK_SignatureMessageEncodingMethodEEEE20RecoverablePartFirstEv
__ZNK8CryptoPP22TF_SignatureSchemeBaseINS_11PK_VerifierENS_7TF_BaseINS_16TrapdoorFunctionENS_33PK_SignatureMessageEncodingMethodEEEE23AllowNonrecoverablePartEv
__ZNK8CryptoPP22TF_SignatureSchemeBaseINS_11PK_VerifierENS_7TF_BaseINS_16TrapdoorFunctionENS_33PK_SignatureMessageEncodingMethodEEEE30MessageRepresentativeBitLengthEv
__ZNK8CryptoPP22TF_SignatureSchemeBaseINS_11PK_VerifierENS_7TF_BaseINS_16TrapdoorFunctionENS_33PK_SignatureMessageEncodingMethodEEEE39MaxRecoverableLengthFromSignatureLengthEm
__ZNK8CryptoPP22TrapdoorFunctionBounds11MaxPreimageEv
__ZNK8CryptoPP22TrapdoorFunctionBounds8MaxImageEv
__ZNK8CryptoPP23AbstractEuclideanDomainINS_7IntegerEE3GcdERKS1_S4_
__ZNK8CryptoPP23AlgorithmParametersBase12GetVoidValueEPKcRKSt9type_infoPv
__ZNK8CryptoPP24MontgomeryRepresentation10ConvertOutERKNS_7IntegerE
__ZNK8CryptoPP24MontgomeryRepresentation19CascadeExponentiateERKNS_7IntegerES3_S3_S3_
__ZNK8CryptoPP24MontgomeryRepresentation21MultiplicativeInverseERKNS_7IntegerE
__ZNK8CryptoPP24MontgomeryRepresentation22MultiplicativeIdentityEv
__ZNK8CryptoPP24MontgomeryRepresentation24SimultaneousExponentiateEPNS_7IntegerERKS1_PS3_j
__ZNK8CryptoPP24MontgomeryRepresentation26IsMontgomeryRepresentationEv
__ZNK8CryptoPP24MontgomeryRepresentation5CloneEv
__ZNK8CryptoPP24MontgomeryRepresentation6SquareERKNS_7IntegerE
__ZNK8CryptoPP24MontgomeryRepresentation8MultiplyERKNS_7IntegerES3_
__ZNK8CryptoPP24MontgomeryRepresentation9ConvertInERKNS_7IntegerE
__ZNK8CryptoPP25SimpleKeyingInterfaceImplINS_8TwoBasesINS_11BlockCipherENS_13Rijndael_InfoEEES4_E12MaxKeyLengthEv
__ZNK8CryptoPP25SimpleKeyingInterfaceImplINS_8TwoBasesINS_11BlockCipherENS_13Rijndael_InfoEEES4_E12MinKeyLengthEv
__ZNK8CryptoPP25SimpleKeyingInterfaceImplINS_8TwoBasesINS_11BlockCipherENS_13Rijndael_InfoEEES4_E13IVRequirementEv
__ZNK8CryptoPP25SimpleKeyingInterfaceImplINS_8TwoBasesINS_11BlockCipherENS_13Rijndael_InfoEEES4_E16DefaultKeyLengthEv
__ZNK8CryptoPP25SimpleKeyingInterfaceImplINS_8TwoBasesINS_11BlockCipherENS_13Rijndael_InfoEEES4_E17GetValidKeyLengthEm
__ZNK8CryptoPP25SimpleKeyingInterfaceImplINS_8TwoBasesINS_11BlockCipherENS_13Rijndael_InfoEEES4_E6IVSizeEv
__ZNK8CryptoPP27AlgorithmParametersTemplateINS_23ConstByteArrayParameterEE11AssignValueEPKcRKSt9type_infoPv
__ZNK8CryptoPP31IteratedHashWithStaticTransformIjNS_10EnumToTypeINS_9ByteOrderELi1EEELj64ELj32ENS_6SHA256ELj32ELb1EE10DigestSizeEv
__ZNK8CryptoPP33PK_SignatureMessageEncodingMethod20MaxRecoverableLengthEmmm
__ZNK8CryptoPP33PK_SignatureMessageEncodingMethod20ProcessSemisignatureERNS_18HashTransformationEPKhm
__ZNK8CryptoPP33PK_SignatureMessageEncodingMethod20RecoverablePartFirstEv
__ZNK8CryptoPP33PK_SignatureMessageEncodingMethod23AllowNonrecoverablePartEv
__ZNK8CryptoPP33PK_SignatureMessageEncodingMethod25ProcessRecoverableMessageERNS_18HashTransformationEPKhmS4_mRNS_8SecBlockIhNS_20AllocatorWithCleanupIhLb0EEEEE
__ZNK8CryptoPP33PK_SignatureMessageEncodingMethod31RecoverMessageFromSemisignatureERNS_18HashTransformationENSt3__14pairIPKhmEES6_mS6_mPh
__ZNK8CryptoPP33PK_SignatureMessageEncodingMethod32RecoverMessageFromRepresentativeERNS_18HashTransformationENSt3__14pairIPKhmEEbPhmS8_
__ZNK8CryptoPP39PKCS1v15_SignatureMessageEncodingMethod26MinRepresentativeBitLengthEmm
__ZNK8CryptoPP39PKCS1v15_SignatureMessageEncodingMethod28ComputeMessageRepresentativeERNS_21RandomNumberGeneratorEPKhmRNS_18HashTransformationENSt3__14pairIS4_mEEbPhm
__ZNK8CryptoPP3OID17BERDecodeAndCheckERNS_22BufferedTransformationE
__ZNK8CryptoPP3OID9DEREncodeERNS_22BufferedTransformationE
__ZNK8CryptoPP46PK_DeterministicSignatureMessageEncodingMethod27VerifyMessageRepresentativeERNS_18HashTransformationENSt3__14pairIPKhmEEbPhm
__ZNK8CryptoPP4Sink12CopyRangeTo2ERNS_22BufferedTransformationERyyRKNSt3__112basic_stringIcNS4_11char_traitsIcEENS4_9allocatorIcEEEEb
__ZNK8CryptoPP5Store16NumberOfMessagesEv
__ZNK8CryptoPP6Filter12CopyRangeTo2ERNS_22BufferedTransformationERyyRKNSt3__112basic_stringIcNS4_11char_traitsIcEENS4_9allocatorIcEEEEb
__ZNK8CryptoPP6Filter20NewDefaultAttachmentEv
__ZNK8CryptoPP6Filter22AttachedTransformationEv
__ZNK8CryptoPP6Filter25ShouldPropagateMessageEndEv
__ZNK8CryptoPP6Filter31ShouldPropagateMessageSeriesEndEv
__ZNK8CryptoPP7Integer10InverseModERKS0_
__ZNK8CryptoPP7Integer14MinEncodedSizeENS0_10SignednessE
__ZNK8CryptoPP7Integer4PlusERKS0_
__ZNK8CryptoPP7Integer5MinusERKS0_
__ZNK8CryptoPP7Integer5TimesERKS0_
__ZNK8CryptoPP7Integer6EncodeEPhmNS0_10SignednessE
__ZNK8CryptoPP7Integer6EncodeERNS_22BufferedTransformationEmNS0_10SignednessE
__ZNK8CryptoPP7Integer6GetBitEm
__ZNK8CryptoPP7Integer6ModuloERKS0_
__ZNK8CryptoPP7Integer6ModuloEj
__ZNK8CryptoPP7Integer7CompareERKS0_
__ZNK8CryptoPP7Integer8BitCountEv
__ZNK8CryptoPP7Integer9ByteCountEv
__ZNK8CryptoPP7Integer9DEREncodeERNS_22BufferedTransformationE
__ZNK8CryptoPP7Integer9DividedByERKS0_
__ZNK8CryptoPP7Integer9WordCountEv
__ZNK8CryptoPP7IntegerlsEm
__ZNK8CryptoPP8Clonable5CloneEv
__ZNK8CryptoPP8Rijndael3Enc18ProcessAndXorBlockEPKhS3_Ph
__ZNK8CryptoPP8Rijndael3Enc21AdvancedProcessBlocksEPKhS3_Phmj
__ZNK8CryptoPP9Algorithm13AlgorithmNameEv
__ZNK8CryptoPP9BitBucket13AlgorithmNameEv
__ZNK8CryptoPP9ByteQueue11CurrentSizeEv
__ZNK8CryptoPP9ByteQueue12CopyRangeTo2ERNS_22BufferedTransformationERyyRKNSt3__112basic_stringIcNS4_11char_traitsIcEENS4_9allocatorIcEEEEb
__ZNK8CryptoPP9ByteQueue14AnyRetrievableEv
__ZNK8CryptoPP9ByteQueue14MaxRetrievableEv
__ZNK8CryptoPP9ByteQueue4PeekEPhm
__ZNK8CryptoPP9ByteQueue4PeekERh
__ZNK8CryptoPP9ByteQueue6Walker12CopyRangeTo2ERNS_22BufferedTransformationERyyRKNSt3__112basic_stringIcNS5_11char_traitsIcEENS5_9allocatorIcEEEEb
__ZNK8CryptoPP9ByteQueue6Walker14MaxRetrievableEv
__ZNK8CryptoPP9ByteQueue6Walker4PeekEPhm
__ZNK8CryptoPP9ByteQueue6Walker4PeekERh
__ZNK8CryptoPP9ByteQueue7IsEmptyEv
__ZNK8CryptoPP9Exception4whatEv
__ZNK8CryptoPP9SingletonINS_39PKCS1v15_SignatureMessageEncodingMethodENS_9NewObjectIS1_EELi0EE3RefEv
__ZNK8CryptoPP9SingletonINS_7IntegerENS_10NewIntegerILl1EEELi0EE3RefEv
__ZNK8CryptoPP9SingletonINS_7IntegerENS_9NewObjectIS1_EELi0EE3RefEv
__ZNK9KeyValues8MakeCopyEv
__ZNKSt3__110__function6__funcIZNK15CBaseFileSystem24IsFileInWritableLocationEPKcE3$_0NS_9allocatorIS5_EEFvvEE11target_typeEv
__ZNKSt3__110__function6__funcIZNK15CBaseFileSystem24IsFileInWritableLocationEPKcE3$_0NS_9allocatorIS5_EEFvvEE6targetERKSt9type_info
__ZNKSt3__110__function6__funcIZNK15CBaseFileSystem24IsFileInWritableLocationEPKcE3$_0NS_9allocatorIS5_EEFvvEE7__cloneEPNS0_6__baseIS8_EE
__ZNKSt3__110__function6__funcIZNK15CBaseFileSystem24IsFileInWritableLocationEPKcE3$_0NS_9allocatorIS5_EEFvvEE7__cloneEv
__ZNKSt3__120__vector_base_commonILb1EE20__throw_length_errorEv
__ZNSt3__110__function6__funcIZNK15CBaseFileSystem24IsFileInWritableLocationEPKcE3$_0NS_9allocatorIS5_EEFvvEE18destroy_deallocateEv
__ZNSt3__110__function6__funcIZNK15CBaseFileSystem24IsFileInWritableLocationEPKcE3$_0NS_9allocatorIS5_EEFvvEE7destroyEv
__ZNSt3__110__function6__funcIZNK15CBaseFileSystem24IsFileInWritableLocationEPKcE3$_0NS_9allocatorIS5_EEFvvEED0Ev
__ZNSt3__110__function6__funcIZNK15CBaseFileSystem24IsFileInWritableLocationEPKcE3$_0NS_9allocatorIS5_EEFvvEED1Ev
__ZNSt3__110__function6__funcIZNK15CBaseFileSystem24IsFileInWritableLocationEPKcE3$_0NS_9allocatorIS5_EEFvvEEclEv
__ZNSt3__112__deque_baseIjNS_9allocatorIjEEE5clearEv
__ZNSt3__112__deque_baseIyNS_9allocatorIyEEE5clearEv
__ZNSt3__112basic_stringIcNS_11char_traitsIcEENS_9allocatorIcEEE6__initEPKcm
__ZNSt3__112basic_stringIcNS_11char_traitsIcEENS_9allocatorIcEEE6__initEPKcmm
__ZNSt3__112basic_stringIcNS_11char_traitsIcEENS_9allocatorIcEEE6appendEPKc
__ZNSt3__112basic_stringIcNS_11char_traitsIcEENS_9allocatorIcEEE6appendEPKcm
__ZNSt3__112basic_stringIcNS_11char_traitsIcEENS_9allocatorIcEEE6insertEmPKc
__ZNSt3__112basic_stringIcNS_11char_traitsIcEENS_9allocatorIcEEE7reserveEm
__ZNSt3__112basic_stringIcNS_11char_traitsIcEENS_9allocatorIcEEE9push_backEc
__ZNSt3__112basic_stringIcNS_11char_traitsIcEENS_9allocatorIcEEEC1ERKS5_
__ZNSt3__112basic_stringIcNS_11char_traitsIcEENS_9allocatorIcEEED1Ev
__ZNSt3__113__vector_baseIN8CryptoPP12WindowSliderENS_9allocatorIS2_EEED2Ev
__ZNSt3__114__split_bufferIN8CryptoPP12WindowSliderERNS_9allocatorIS2_EEED2Ev
__ZNSt3__114__split_bufferIPjNS_9allocatorIS1_EEE10push_frontEOS1_
__ZNSt3__114__split_bufferIPjNS_9allocatorIS1_EEE9push_backEOS1_
__ZNSt3__114__split_bufferIPjRNS_9allocatorIS1_EEE10push_frontERKS1_
__ZNSt3__114__split_bufferIPjRNS_9allocatorIS1_EEE9push_backEOS1_
__ZNSt3__114__split_bufferIPyNS_9allocatorIS1_EEE10push_frontEOS1_
__ZNSt3__114__split_bufferIPyNS_9allocatorIS1_EEE9push_backEOS1_
__ZNSt3__114__split_bufferIPyRNS_9allocatorIS1_EEE10push_frontERKS1_
__ZNSt3__114__split_bufferIPyRNS_9allocatorIS1_EEE9push_backEOS1_
__ZNSt3__15dequeIjNS_9allocatorIjEEE14__erase_to_endENS_16__deque_iteratorIjPKjRS5_PKS6_iLi1024EEE
__ZNSt3__15dequeIjNS_9allocatorIjEEE19__add_back_capacityEm
__ZNSt3__15dequeIjNS_9allocatorIjEEE19__add_back_capacityEv
__ZNSt3__15dequeIjNS_9allocatorIjEEE6assignEmRKj
__ZNSt3__15dequeIjNS_9allocatorIjEEE8__appendEmRKj
__ZNSt3__15dequeIyNS_9allocatorIyEEE14__erase_to_endENS_16__deque_iteratorIyPKyRS5_PKS6_iLi512EEE
__ZNSt3__15dequeIyNS_9allocatorIyEEE19__add_back_capacityEm
__ZNSt3__15dequeIyNS_9allocatorIyEEE19__add_back_capacityEv
__ZNSt3__15dequeIyNS_9allocatorIyEEE6assignEmRKy
__ZNSt3__15dequeIyNS_9allocatorIyEEE8__appendEmRKy
__ZNSt3__16vectorIN8CryptoPP12WindowSliderENS_9allocatorIS2_EEE21__push_back_slow_pathIS2_EEvOT_
__ZNSt3__16vectorIN8CryptoPP12WindowSliderENS_9allocatorIS2_EEE26__swap_out_circular_bufferERNS_14__split_bufferIS2_RS4_EE
__ZNSt3__16vectorIN8CryptoPP12WindowSliderENS_9allocatorIS2_EEE7reserveEm
__ZNSt3__16vectorIN8CryptoPP7IntegerENS_9allocatorIS2_EEE8__appendEmRKS2_
__ZNSt3__16vectorIN8CryptoPP7IntegerENS_9allocatorIS2_EEEC2Em
__ZNSt3__16vectorINS0_IN8CryptoPP7IntegerENS_9allocatorIS2_EEEENS3_IS5_EEEC2Em
__ZNSt3__16vectorIjNS_9allocatorIjEEE21__push_back_slow_pathIRKjEEvOT_
__ZNSt3__16vectorIjNS_9allocatorIjEEE8__appendEm
__ZNSt3__16vectorIjNS_9allocatorIjEEEC2ERKS3_
__ZNSt3__1plIcNS_11char_traitsIcEENS_9allocatorIcEEEENS_12basic_stringIT_T0_T1_EEPKS6_RKS9_
__ZNSt3__1plIcNS_11char_traitsIcEENS_9allocatorIcEEEENS_12basic_stringIT_T0_T1_EERKS9_PKS6_
__ZNSt9bad_allocC1Ev
__ZNSt9bad_allocD1Ev
__ZNSt9exceptionD2Ev
__ZNV16CThreadFastMutex4LockEjj
__ZSt15set_new_handlerPFvvE
__ZSt18uncaught_exceptionv
__ZSt9terminatev
__ZTCN8CryptoPP11RSAFunctionE4_NS_13X509PublicKeyE
__ZTCN8CryptoPP11RSAFunctionE4_NS_18ASN1CryptoMaterialINS_9PublicKeyEEE
__ZTCN8CryptoPP11RSAFunctionE8_NS_9PublicKeyE
__ZTI10CStdioFile
__ZTI10ConCommand
__ZTI10IAppSystem
__ZTI11CFileHandle
__ZTI11CFileStream
__ZTI11CRefCountedI20CRefCountServiceBaseILb0E6CRefMTEE
__ZTI11CRefCountedI20CRefCountServiceBaseILb1E6CRefMTEE
__ZTI11IFileSystem
__ZTI11IRefCounted
__ZTI12CEmptyConVar
__ZTI12CPackedStore
__ZTI12CRefCounted1I11IRefCounted20CRefCountServiceBaseILb1E6CRefMTEE
__ZTI12CRefCounted1I8CFunctor20CRefCountServiceBaseILb1E6CRefMTEE
__ZTI12CZipPackFile
__ZTI12IWriteStream
__ZTI13CBufferStream
__ZTI13CFileAsyncJob
__ZTI13CFileTracker2
__ZTI13CQueuedLoader
__ZTI13IQueuedLoader
__ZTI14CBaseAppSystemI11IFileSystemE
__ZTI14CBaseAppSystemI13IQueuedLoaderE
__ZTI14CDummyProgress
__ZTI14ConCommandBase
__ZTI15CBaseFileSystem
__ZTI15CPackFileHandle
__ZTI15CTier0AppSystemI11IFileSystemE
__ZTI15CTier0AppSystemI13IQueuedLoaderE
__ZTI15CTier1AppSystemI11IFileSystemLi0EE
__ZTI15CTier1AppSystemI13IQueuedLoaderLi0EE
__ZTI15CTier2AppSystemI13IQueuedLoaderLi0EE
__ZTI15IBaseFileSystem
__ZTI15ILoaderProgress
__ZTI16CDefaultAccessor
__ZTI16IResourcePreload
__ZTI17AsyncOpenedFile_t
__ZTI17CFileAsyncReadJob
__ZTI17CFileSystem_Stdio
__ZTI17CMemoryFileHandle
__ZTI18CFileAsyncWriteJob
__ZTI18CMemoryFileBacking
__ZTI18CStdFilesystemFile
__ZTI18CUtlCharConversion
__ZTI18CZipPackFileHandle
__ZTI18FileAsyncRequest_t
__ZTI19CUtlNoEscConversion
__ZTI20CPackedStoreRefCount
__ZTI20CRefCountServiceBaseILb0E6CRefMTE
__ZTI20CRefCountServiceBaseILb1E6CRefMTE
__ZTI21CFileAsyncFileSizeJob
__ZTI21CUtlCStringConversion
__ZTI22CFileAsyncWriteFileJob
__ZTI22CLZMAZipPackFileHandle
__ZTI23CFileAsyncAppendFileJob
__ZTI23IConCommandBaseAccessor
__ZTI25CResourcePreloadAnonymous
__ZTI25IThreadedFileMD5Processor
__ZTI34FileListToUnloadForWhitelistChange
__ZTI4CJob
__ZTI4CZip
__ZTI4IZip
__ZTI6ConVar
__ZTI7IConVar
__ZTI8CFunctor
__ZTI9CFunctor4IPFvP9FileJob_tPFvPvS2_PKvi13LoaderError_tES2_S2_ES1_S7_S2_S2_12CRefCounted1I8CFunctor20CRefCountServiceBaseILb1E6CRefMTEEE
__ZTI9CFunctor4IPFvP9FileJob_tPvi13LoaderError_tES1_S2_iS3_12CRefCounted1I8CFunctor20CRefCountServiceBaseILb1E6CRefMTEEE
__ZTI9CPackFile
__ZTI9IFileList
__ZTIN8CryptoPP10ASN1ObjectE
__ZTIN8CryptoPP10BufferlessINS_22BufferedTransformationEEE
__ZTIN8CryptoPP10BufferlessINS_4SinkEEE
__ZTIN8CryptoPP10OS_RNG_ErrE
__ZTIN8CryptoPP11BlockCipherE
__ZTIN8CryptoPP11BlockingRngE
__ZTIN8CryptoPP11NotCopyableE
__ZTIN8CryptoPP11PK_VerifierE
__ZTIN8CryptoPP11RSAFunctionE
__ZTIN8CryptoPP11StringStoreE
__ZTIN8CryptoPP12AbstractRingINS_7IntegerEE20MultiplicativeGroupTE
__ZTIN8CryptoPP12AbstractRingINS_7IntegerEEE
__ZTIN8CryptoPP12BERDecodeErrE
__ZTIN8CryptoPP12ClassNullRNGE
__ZTIN8CryptoPP12ClonableImplINS_16BlockCipherFinalILNS_9CipherDirE0ENS_8Rijndael3EncEEES4_EE
__ZTIN8CryptoPP12ClonableImplINS_6SHA256ENS_13AlgorithmImplINS_12IteratedHashIjNS_10EnumToTypeINS_9ByteOrderELi1EEELj64ENS_18HashTransformationEEES1_EEEE
__ZTIN8CryptoPP12IteratedHashIjNS_10EnumToTypeINS_9ByteOrderELi1EEELj64ENS_18HashTransformationEEE
__ZTIN8CryptoPP12MessageQueueE
__ZTIN8CryptoPP12ObjectHolderINS_6SHA256EEE
__ZTIN8CryptoPP12StringSourceE
__ZTIN8CryptoPP13AbstractGroupINS_7IntegerEEE
__ZTIN8CryptoPP13AlgorithmImplINS_12IteratedHashIjNS_10EnumToTypeINS_9ByteOrderELi1EEELj64ENS_18HashTransformationEEENS_6SHA256EEE
__ZTIN8CryptoPP13AlgorithmImplINS_15TF_VerifierBaseENS_5TF_SSINS_8PKCS1v15ENS_6SHA256ENS_3RSAEiEEEE
__ZTIN8CryptoPP13AlgorithmImplINS_25SimpleKeyingInterfaceImplINS_8TwoBasesINS_11BlockCipherENS_13Rijndael_InfoEEES5_EES6_EE
__ZTIN8CryptoPP13AutoSignalingINS_14InputRejectingINS_22BufferedTransformationEEEEE
__ZTIN8CryptoPP13AutoSignalingINS_22BufferedTransformationEEE
__ZTIN8CryptoPP13Rijndael_InfoE
__ZTIN8CryptoPP13TF_ObjectImplINS_15TF_VerifierBaseENS_25TF_SignatureSchemeOptionsINS_5TF_SSINS_8PKCS1v15ENS_6SHA256ENS_3RSAEiEES6_NS_39PKCS1v15_SignatureMessageEncodingMethodES5_EENS_11RSAFunctionEEE
__ZTIN8CryptoPP13X509PublicKeyE
__ZTIN8CryptoPP14CryptoMaterial15InvalidMaterialE
__ZTIN8CryptoPP14CryptoMaterialE
__ZTIN8CryptoPP14FixedBlockSizeILj16EEE
__ZTIN8CryptoPP14InputRejectingINS_22BufferedTransformationEE13InputRejectedE
__ZTIN8CryptoPP14InputRejectingINS_22BufferedTransformationEEE
__ZTIN8CryptoPP14InputRejectingINS_6FilterEE13InputRejectedE
__ZTIN8CryptoPP14InputRejectingINS_6FilterEEE
__ZTIN8CryptoPP14NameValuePairs17ValueTypeMismatchE
__ZTIN8CryptoPP14NameValuePairsE
__ZTIN8CryptoPP14NonblockingRngE
__ZTIN8CryptoPP14NotImplementedE
__ZTIN8CryptoPP14SourceTemplateINS_11StringStoreEEE
__ZTIN8CryptoPP15BlockCipherImplINS_13Rijndael_InfoENS_11BlockCipherEEE
__ZTIN8CryptoPP15InvalidArgumentE
__ZTIN8CryptoPP15SelfTestFailureE
__ZTIN8CryptoPP15TF_VerifierBaseE
__ZTIN8CryptoPP15TF_VerifierImplINS_25TF_SignatureSchemeOptionsINS_5TF_SSINS_8PKCS1v15ENS_6SHA256ENS_3RSAEiEES5_NS_39PKCS1v15_SignatureMessageEncodingMethodES4_EEEE
__ZTIN8CryptoPP16BlockCipherFinalILNS_9CipherDirE0ENS_8Rijndael3EncEEE
__ZTIN8CryptoPP16HashInputTooLongE
__ZTIN8CryptoPP16InvalidKeyLengthE
__ZTIN8CryptoPP16IteratedHashBaseIjNS_18HashTransformationEEE
__ZTIN8CryptoPP16PK_FinalTemplateINS_15TF_VerifierImplINS_25TF_SignatureSchemeOptionsINS_5TF_SSINS_8PKCS1v15ENS_6SHA256ENS_3RSAEiEES6_NS_39PKCS1v15_SignatureMessageEncodingMethodES5_EEEEEE
__ZTIN8CryptoPP16TrapdoorFunctionE
__ZTIN8CryptoPP17AutoSeededX917RNGINS_8RijndaelEEE
__ZTIN8CryptoPP17BERGeneralDecoderE
__ZTIN8CryptoPP17DERGeneralEncoderE
__ZTIN8CryptoPP17EuclideanDomainOfINS_7IntegerEEE
__ZTIN8CryptoPP17InitializeIntegerE
__ZTIN8CryptoPP17InvalidDataFormatE
__ZTIN8CryptoPP17ModularArithmeticE
__ZTIN8CryptoPP17TF_ObjectImplBaseINS_15TF_VerifierBaseENS_25TF_SignatureSchemeOptionsINS_5TF_SSINS_8PKCS1v15ENS_6SHA256ENS_3RSAEiEES6_NS_39PKCS1v15_SignatureMessageEncodingMethodES5_EENS_11RSAFunctionEEE
__ZTIN8CryptoPP17VariableKeyLengthILj16ELj16ELj32ELj8ELj4ELj0EEE
__ZTIN8CryptoPP18ASN1CryptoMaterialINS_9PublicKeyEEE
__ZTIN8CryptoPP18BERSequenceDecoderE
__ZTIN8CryptoPP18ByteArrayParameterE
__ZTIN8CryptoPP18DERSequenceEncoderE
__ZTIN8CryptoPP18HashTransformationE
__ZTIN8CryptoPP18NullNameValuePairsE
__ZTIN8CryptoPP18PK_SignatureScheme11KeyTooShortE
__ZTIN8CryptoPP18PK_SignatureScheme16InvalidKeyLengthE
__ZTIN8CryptoPP18PK_SignatureSchemeE
__ZTIN8CryptoPP18PublicKeyAlgorithmE
__ZTIN8CryptoPP19AlgorithmParametersE
__ZTIN8CryptoPP19AsymmetricAlgorithmE
__ZTIN8CryptoPP19BlockTransformationE
__ZTIN8CryptoPP21PK_MessageAccumulatorE
__ZTIN8CryptoPP21RandomNumberGeneratorE
__ZTIN8CryptoPP21SimpleKeyingInterfaceE
__ZTIN8CryptoPP22BufferedTransformation16NoChannelSupportE
__ZTIN8CryptoPP22BufferedTransformationE
__ZTIN8CryptoPP22TF_SignatureSchemeBaseINS_11PK_VerifierENS_7TF_BaseINS_16TrapdoorFunctionENS_33PK_SignatureMessageEncodingMethodEEEEE
__ZTIN8CryptoPP22TrapdoorFunctionBoundsE
__ZTIN8CryptoPP23AbstractEuclideanDomainINS_7IntegerEEE
__ZTIN8CryptoPP23AlgorithmParametersBase16ParameterNotUsedE
__ZTIN8CryptoPP23AlgorithmParametersBaseE
__ZTIN8CryptoPP23ConstByteArrayParameterE
__ZTIN8CryptoPP24MontgomeryRepresentationE
__ZTIN8CryptoPP25PK_MessageAccumulatorBaseE
__ZTIN8CryptoPP25PK_MessageAccumulatorImplINS_6SHA256EEE
__ZTIN8CryptoPP25SimpleKeyingInterfaceImplINS_8TwoBasesINS_11BlockCipherENS_13Rijndael_InfoEEES4_EE
__ZTIN8CryptoPP26RandomizedTrapdoorFunctionE
__ZTIN8CryptoPP27AlgorithmParametersTemplateINS_23ConstByteArrayParameterEEE
__ZTIN8CryptoPP31IteratedHashWithStaticTransformIjNS_10EnumToTypeINS_9ByteOrderELi1EEELj64ELj32ENS_6SHA256ELj32ELb1EEE
__ZTIN8CryptoPP33PK_SignatureMessageEncodingMethodE
__ZTIN8CryptoPP39PKCS1v15_SignatureMessageEncodingMethodE
__ZTIN8CryptoPP46PK_DeterministicSignatureMessageEncodingMethodE
__ZTIN8CryptoPP4SinkE
__ZTIN8CryptoPP5StoreE
__ZTIN8CryptoPP6FilterE
__ZTIN8CryptoPP6SHA256E
__ZTIN8CryptoPP6SourceE
__ZTIN8CryptoPP7Integer12DivideByZeroE
__ZTIN8CryptoPP7IntegerE
__ZTIN8CryptoPP7TF_BaseINS_16TrapdoorFunctionENS_33PK_SignatureMessageEncodingMethodEEE
__ZTIN8CryptoPP7X917RNGE
__ZTIN8CryptoPP8ClonableE
__ZTIN8CryptoPP8Rijndael3EncE
__ZTIN8CryptoPP8Rijndael4BaseE
__ZTIN8CryptoPP8TwoBasesINS_11BlockCipherENS_13Rijndael_InfoEEE
__ZTIN8CryptoPP8WaitableE
__ZTIN8CryptoPP9AlgorithmE
__ZTIN8CryptoPP9ArraySinkE
__ZTIN8CryptoPP9BitBucketE
__ZTIN8CryptoPP9ByteQueue6WalkerE
__ZTIN8CryptoPP9ByteQueueE
__ZTIN8CryptoPP9ExceptionE
__ZTIN8CryptoPP9PublicKeyE
__ZTINSt3__110__function6__baseIFvvEEE
__ZTINSt3__110__function6__funcIZNK15CBaseFileSystem24IsFileInWritableLocationEPKcE3$_0NS_9allocatorIS5_EEFvvEEE
__ZTINSt3__112basic_stringIcNS_11char_traitsIcEENS_9allocatorIcEEEE
__ZTINSt3__121__basic_string_commonILb1EEE
__ZTIPN8CryptoPP11RSAFunctionE
__ZTIPNSt3__112basic_stringIcNS_11char_traitsIcEENS_9allocatorIcEEEE
__ZTISt9bad_alloc
__ZTISt9exception
__ZTIZNK15CBaseFileSystem24IsFileInWritableLocationEPKcE3$_0
__ZTIi
__ZTS10CStdioFile
__ZTS10ConCommand
__ZTS10IAppSystem
__ZTS11CFileHandle
__ZTS11CFileStream
__ZTS11CRefCountedI20CRefCountServiceBaseILb0E6CRefMTEE
__ZTS11CRefCountedI20CRefCountServiceBaseILb1E6CRefMTEE
__ZTS11IFileSystem
__ZTS11IRefCounted
__ZTS12CEmptyConVar
__ZTS12CPackedStore
__ZTS12CRefCounted1I11IRefCounted20CRefCountServiceBaseILb1E6CRefMTEE
__ZTS12CRefCounted1I8CFunctor20CRefCountServiceBaseILb1E6CRefMTEE
__ZTS12CZipPackFile
__ZTS12IWriteStream
__ZTS13CBufferStream
__ZTS13CFileAsyncJob
__ZTS13CFileTracker2
__ZTS13CQueuedLoader
__ZTS13IQueuedLoader
__ZTS14CBaseAppSystemI11IFileSystemE
__ZTS14CBaseAppSystemI13IQueuedLoaderE
__ZTS14CDummyProgress
__ZTS14ConCommandBase
__ZTS15CBaseFileSystem
__ZTS15CPackFileHandle
__ZTS15CTier0AppSystemI11IFileSystemE
__ZTS15CTier0AppSystemI13IQueuedLoaderE
__ZTS15CTier1AppSystemI11IFileSystemLi0EE
__ZTS15CTier1AppSystemI13IQueuedLoaderLi0EE
__ZTS15CTier2AppSystemI13IQueuedLoaderLi0EE
__ZTS15IBaseFileSystem
__ZTS15ILoaderProgress
__ZTS16CDefaultAccessor
__ZTS16IResourcePreload
__ZTS17AsyncOpenedFile_t
__ZTS17CFileAsyncReadJob
__ZTS17CFileSystem_Stdio
__ZTS17CMemoryFileHandle
__ZTS18CFileAsyncWriteJob
__ZTS18CMemoryFileBacking
__ZTS18CStdFilesystemFile
__ZTS18CUtlCharConversion
__ZTS18CZipPackFileHandle
__ZTS18FileAsyncRequest_t
__ZTS19CUtlNoEscConversion
__ZTS20CPackedStoreRefCount
__ZTS20CRefCountServiceBaseILb0E6CRefMTE
__ZTS20CRefCountServiceBaseILb1E6CRefMTE
__ZTS21CFileAsyncFileSizeJob
__ZTS21CUtlCStringConversion
__ZTS22CFileAsyncWriteFileJob
__ZTS22CLZMAZipPackFileHandle
__ZTS23CFileAsyncAppendFileJob
__ZTS23IConCommandBaseAccessor
__ZTS25CResourcePreloadAnonymous
__ZTS25IThreadedFileMD5Processor
__ZTS34FileListToUnloadForWhitelistChange
__ZTS4CJob
__ZTS4CZip
__ZTS4IZip
__ZTS6ConVar
__ZTS7IConVar
__ZTS8CFunctor
__ZTS9CFunctor4IPFvP9FileJob_tPFvPvS2_PKvi13LoaderError_tES2_S2_ES1_S7_S2_S2_12CRefCounted1I8CFunctor20CRefCountServiceBaseILb1E6CRefMTEEE
__ZTS9CFunctor4IPFvP9FileJob_tPvi13LoaderError_tES1_S2_iS3_12CRefCounted1I8CFunctor20CRefCountServiceBaseILb1E6CRefMTEEE
__ZTS9CPackFile
__ZTS9IFileList
__ZTSN8CryptoPP10ASN1ObjectE
__ZTSN8CryptoPP10BufferlessINS_22BufferedTransformationEEE
__ZTSN8CryptoPP10BufferlessINS_4SinkEEE
__ZTSN8CryptoPP10OS_RNG_ErrE
__ZTSN8CryptoPP11BlockCipherE
__ZTSN8CryptoPP11BlockingRngE
__ZTSN8CryptoPP11NotCopyableE
__ZTSN8CryptoPP11PK_VerifierE
__ZTSN8CryptoPP11RSAFunctionE
__ZTSN8CryptoPP11StringStoreE
__ZTSN8CryptoPP12AbstractRingINS_7IntegerEE20MultiplicativeGroupTE
__ZTSN8CryptoPP12AbstractRingINS_7IntegerEEE
__ZTSN8CryptoPP12BERDecodeErrE
__ZTSN8CryptoPP12ClassNullRNGE
__ZTSN8CryptoPP12ClonableImplINS_16BlockCipherFinalILNS_9CipherDirE0ENS_8Rijndael3EncEEES4_EE
__ZTSN8CryptoPP12ClonableImplINS_6SHA256ENS_13AlgorithmImplINS_12IteratedHashIjNS_10EnumToTypeINS_9ByteOrderELi1EEELj64ENS_18HashTransformationEEES1_EEEE
__ZTSN8CryptoPP12IteratedHashIjNS_10EnumToTypeINS_9ByteOrderELi1EEELj64ENS_18HashTransformationEEE
__ZTSN8CryptoPP12MessageQueueE
__ZTSN8CryptoPP12ObjectHolderINS_6SHA256EEE
__ZTSN8CryptoPP12StringSourceE
__ZTSN8CryptoPP13AbstractGroupINS_7IntegerEEE
__ZTSN8CryptoPP13AlgorithmImplINS_12IteratedHashIjNS_10EnumToTypeINS_9ByteOrderELi1EEELj64ENS_18HashTransformationEEENS_6SHA256EEE
__ZTSN8CryptoPP13AlgorithmImplINS_15TF_VerifierBaseENS_5TF_SSINS_8PKCS1v15ENS_6SHA256ENS_3RSAEiEEEE
__ZTSN8CryptoPP13AlgorithmImplINS_25SimpleKeyingInterfaceImplINS_8TwoBasesINS_11BlockCipherENS_13Rijndael_InfoEEES5_EES6_EE
__ZTSN8CryptoPP13AutoSignalingINS_14InputRejectingINS_22BufferedTransformationEEEEE
__ZTSN8CryptoPP13AutoSignalingINS_22BufferedTransformationEEE
__ZTSN8CryptoPP13Rijndael_InfoE
__ZTSN8CryptoPP13TF_ObjectImplINS_15TF_VerifierBaseENS_25TF_SignatureSchemeOptionsINS_5TF_SSINS_8PKCS1v15ENS_6SHA256ENS_3RSAEiEES6_NS_39PKCS1v15_SignatureMessageEncodingMethodES5_EENS_11RSAFunctionEEE
__ZTSN8CryptoPP13X509PublicKeyE
__ZTSN8CryptoPP14CryptoMaterial15InvalidMaterialE
__ZTSN8CryptoPP14CryptoMaterialE
__ZTSN8CryptoPP14FixedBlockSizeILj16EEE
__ZTSN8CryptoPP14InputRejectingINS_22BufferedTransformationEE13InputRejectedE
__ZTSN8CryptoPP14InputRejectingINS_22BufferedTransformationEEE
__ZTSN8CryptoPP14InputRejectingINS_6FilterEE13InputRejectedE
__ZTSN8CryptoPP14InputRejectingINS_6FilterEEE
__ZTSN8CryptoPP14NameValuePairs17ValueTypeMismatchE
__ZTSN8CryptoPP14NameValuePairsE
__ZTSN8CryptoPP14NonblockingRngE
__ZTSN8CryptoPP14NotImplementedE
__ZTSN8CryptoPP14SourceTemplateINS_11StringStoreEEE
__ZTSN8CryptoPP15BlockCipherImplINS_13Rijndael_InfoENS_11BlockCipherEEE
__ZTSN8CryptoPP15InvalidArgumentE
__ZTSN8CryptoPP15SelfTestFailureE
__ZTSN8CryptoPP15TF_VerifierBaseE
__ZTSN8CryptoPP15TF_VerifierImplINS_25TF_SignatureSchemeOptionsINS_5TF_SSINS_8PKCS1v15ENS_6SHA256ENS_3RSAEiEES5_NS_39PKCS1v15_SignatureMessageEncodingMethodES4_EEEE
__ZTSN8CryptoPP16BlockCipherFinalILNS_9CipherDirE0ENS_8Rijndael3EncEEE
__ZTSN8CryptoPP16HashInputTooLongE
__ZTSN8CryptoPP16InvalidKeyLengthE
__ZTSN8CryptoPP16IteratedHashBaseIjNS_18HashTransformationEEE
__ZTSN8CryptoPP16PK_FinalTemplateINS_15TF_VerifierImplINS_25TF_SignatureSchemeOptionsINS_5TF_SSINS_8PKCS1v15ENS_6SHA256ENS_3RSAEiEES6_NS_39PKCS1v15_SignatureMessageEncodingMethodES5_EEEEEE
__ZTSN8CryptoPP16TrapdoorFunctionE
__ZTSN8CryptoPP17AutoSeededX917RNGINS_8RijndaelEEE
__ZTSN8CryptoPP17BERGeneralDecoderE
__ZTSN8CryptoPP17DERGeneralEncoderE
__ZTSN8CryptoPP17EuclideanDomainOfINS_7IntegerEEE
__ZTSN8CryptoPP17InitializeIntegerE
__ZTSN8CryptoPP17InvalidDataFormatE
__ZTSN8CryptoPP17ModularArithmeticE
__ZTSN8CryptoPP17TF_ObjectImplBaseINS_15TF_VerifierBaseENS_25TF_SignatureSchemeOptionsINS_5TF_SSINS_8PKCS1v15ENS_6SHA256ENS_3RSAEiEES6_NS_39PKCS1v15_SignatureMessageEncodingMethodES5_EENS_11RSAFunctionEEE
__ZTSN8CryptoPP17VariableKeyLengthILj16ELj16ELj32ELj8ELj4ELj0EEE
__ZTSN8CryptoPP18ASN1CryptoMaterialINS_9PublicKeyEEE
__ZTSN8CryptoPP18BERSequenceDecoderE
__ZTSN8CryptoPP18ByteArrayParameterE
__ZTSN8CryptoPP18DERSequenceEncoderE
__ZTSN8CryptoPP18HashTransformationE
__ZTSN8CryptoPP18NullNameValuePairsE
__ZTSN8CryptoPP18PK_SignatureScheme11KeyTooShortE
__ZTSN8CryptoPP18PK_SignatureScheme16InvalidKeyLengthE
__ZTSN8CryptoPP18PK_SignatureSchemeE
__ZTSN8CryptoPP18PublicKeyAlgorithmE
__ZTSN8CryptoPP19AlgorithmParametersE
__ZTSN8CryptoPP19AsymmetricAlgorithmE
__ZTSN8CryptoPP19BlockTransformationE
__ZTSN8CryptoPP21PK_MessageAccumulatorE
__ZTSN8CryptoPP21RandomNumberGeneratorE
__ZTSN8CryptoPP21SimpleKeyingInterfaceE
__ZTSN8CryptoPP22BufferedTransformation16NoChannelSupportE
__ZTSN8CryptoPP22BufferedTransformationE
__ZTSN8CryptoPP22TF_SignatureSchemeBaseINS_11PK_VerifierENS_7TF_BaseINS_16TrapdoorFunctionENS_33PK_SignatureMessageEncodingMethodEEEEE
__ZTSN8CryptoPP22TrapdoorFunctionBoundsE
__ZTSN8CryptoPP23AbstractEuclideanDomainINS_7IntegerEEE
__ZTSN8CryptoPP23AlgorithmParametersBase16ParameterNotUsedE
__ZTSN8CryptoPP23AlgorithmParametersBaseE
__ZTSN8CryptoPP23ConstByteArrayParameterE
__ZTSN8CryptoPP24MontgomeryRepresentationE
__ZTSN8CryptoPP25PK_MessageAccumulatorBaseE
__ZTSN8CryptoPP25PK_MessageAccumulatorImplINS_6SHA256EEE
__ZTSN8CryptoPP25SimpleKeyingInterfaceImplINS_8TwoBasesINS_11BlockCipherENS_13Rijndael_InfoEEES4_EE
__ZTSN8CryptoPP26RandomizedTrapdoorFunctionE
__ZTSN8CryptoPP27AlgorithmParametersTemplateINS_23ConstByteArrayParameterEEE
__ZTSN8CryptoPP31IteratedHashWithStaticTransformIjNS_10EnumToTypeINS_9ByteOrderELi1EEELj64ELj32ENS_6SHA256ELj32ELb1EEE
__ZTSN8CryptoPP33PK_SignatureMessageEncodingMethodE
__ZTSN8CryptoPP39PKCS1v15_SignatureMessageEncodingMethodE
__ZTSN8CryptoPP46PK_DeterministicSignatureMessageEncodingMethodE
__ZTSN8CryptoPP4SinkE
__ZTSN8CryptoPP5StoreE
__ZTSN8CryptoPP6FilterE
__ZTSN8CryptoPP6SHA256E
__ZTSN8CryptoPP6SourceE
__ZTSN8CryptoPP7Integer12DivideByZeroE
__ZTSN8CryptoPP7IntegerE
__ZTSN8CryptoPP7TF_BaseINS_16TrapdoorFunctionENS_33PK_SignatureMessageEncodingMethodEEE
__ZTSN8CryptoPP7X917RNGE
__ZTSN8CryptoPP8ClonableE
__ZTSN8CryptoPP8Rijndael3EncE
__ZTSN8CryptoPP8Rijndael4BaseE
__ZTSN8CryptoPP8TwoBasesINS_11BlockCipherENS_13Rijndael_InfoEEE
__ZTSN8CryptoPP8WaitableE
__ZTSN8CryptoPP9AlgorithmE
__ZTSN8CryptoPP9ArraySinkE
__ZTSN8CryptoPP9BitBucketE
__ZTSN8CryptoPP9ByteQueue6WalkerE
__ZTSN8CryptoPP9ByteQueueE
__ZTSN8CryptoPP9ExceptionE
__ZTSN8CryptoPP9PublicKeyE
__ZTSNSt3__110__function6__baseIFvvEEE
__ZTSNSt3__110__function6__funcIZNK15CBaseFileSystem24IsFileInWritableLocationEPKcE3$_0NS_9allocatorIS5_EEFvvEEE
__ZTSNSt3__112basic_stringIcNS_11char_traitsIcEENS_9allocatorIcEEEE
__ZTSNSt3__121__basic_string_commonILb1EEE
__ZTSPN8CryptoPP11RSAFunctionE
__ZTSPNSt3__112basic_stringIcNS_11char_traitsIcEENS_9allocatorIcEEEE
__ZTSZNK15CBaseFileSystem24IsFileInWritableLocationEPKcE3$_0
__ZTTN8CryptoPP11RSAFunctionE
__ZTV10CStdioFile
__ZTV10ConCommand
__ZTV11CFileHandle
__ZTV11CFileStream
__ZTV12CEmptyConVar
__ZTV12CZipPackFile
__ZTV13CBufferStream
__ZTV13CFileAsyncJob
__ZTV13CFileTracker2
__ZTV13CQueuedLoader
__ZTV14CDummyProgress
__ZTV15CBaseFileSystem
__ZTV16CDefaultAccessor
__ZTV17AsyncOpenedFile_t
__ZTV17CFileAsyncReadJob
__ZTV17CFileSystem_Stdio
__ZTV17CMemoryFileHandle
__ZTV18CFileAsyncWriteJob
__ZTV18CMemoryFileBacking
__ZTV18CUtlCharConversion
__ZTV18CZipPackFileHandle
__ZTV19CUtlNoEscConversion
__ZTV20CPackedStoreRefCount
__ZTV21CFileAsyncFileSizeJob
__ZTV21CUtlCStringConversion
__ZTV22CFileAsyncWriteFileJob
__ZTV22CLZMAZipPackFileHandle
__ZTV23CFileAsyncAppendFileJob
__ZTV25CResourcePreloadAnonymous
__ZTV34FileListToUnloadForWhitelistChange
__ZTV4CJob
__ZTV4CZip
__ZTV6ConVar
__ZTV9CFunctor4IPFvP9FileJob_tPFvPvS2_PKvi13LoaderError_tES2_S2_ES1_S7_S2_S2_12CRefCounted1I8CFunctor20CRefCountServiceBaseILb1E6CRefMTEEE
__ZTV9CFunctor4IPFvP9FileJob_tPvi13LoaderError_tES1_S2_iS3_12CRefCounted1I8CFunctor20CRefCountServiceBaseILb1E6CRefMTEEE
__ZTV9CPackFile
__ZTVN10__cxxabiv117__class_type_infoE
__ZTVN10__cxxabiv119__pointer_type_infoE
__ZTVN10__cxxabiv120__si_class_type_infoE
__ZTVN10__cxxabiv121__vmi_class_type_infoE
__ZTVN8CryptoPP10ASN1ObjectE
__ZTVN8CryptoPP10OS_RNG_ErrE
__ZTVN8CryptoPP11BlockingRngE
__ZTVN8CryptoPP11RSAFunctionE
__ZTVN8CryptoPP11StringStoreE
__ZTVN8CryptoPP12AbstractRingINS_7IntegerEE20MultiplicativeGroupTE
__ZTVN8CryptoPP12BERDecodeErrE
__ZTVN8CryptoPP12ClassNullRNGE
__ZTVN8CryptoPP12IteratedHashIjNS_10EnumToTypeINS_9ByteOrderELi1EEELj64ENS_18HashTransformationEEE
__ZTVN8CryptoPP12MessageQueueE
__ZTVN8CryptoPP12StringSourceE
__ZTVN8CryptoPP13TF_ObjectImplINS_15TF_VerifierBaseENS_25TF_SignatureSchemeOptionsINS_5TF_SSINS_8PKCS1v15ENS_6SHA256ENS_3RSAEiEES6_NS_39PKCS1v15_SignatureMessageEncodingMethodES5_EENS_11RSAFunctionEEE
__ZTVN8CryptoPP14CryptoMaterial15InvalidMaterialE
__ZTVN8CryptoPP14InputRejectingINS_22BufferedTransformationEE13InputRejectedE
__ZTVN8CryptoPP14InputRejectingINS_6FilterEE13InputRejectedE
__ZTVN8CryptoPP14NameValuePairs17ValueTypeMismatchE
__ZTVN8CryptoPP14NonblockingRngE
__ZTVN8CryptoPP14NotImplementedE
__ZTVN8CryptoPP14SourceTemplateINS_11StringStoreEEE
__ZTVN8CryptoPP15InvalidArgumentE
__ZTVN8CryptoPP15SelfTestFailureE
__ZTVN8CryptoPP16BlockCipherFinalILNS_9CipherDirE0ENS_8Rijndael3EncEEE
__ZTVN8CryptoPP16HashInputTooLongE
__ZTVN8CryptoPP16InvalidKeyLengthE
__ZTVN8CryptoPP16IteratedHashBaseIjNS_18HashTransformationEEE
__ZTVN8CryptoPP16PK_FinalTemplateINS_15TF_VerifierImplINS_25TF_SignatureSchemeOptionsINS_5TF_SSINS_8PKCS1v15ENS_6SHA256ENS_3RSAEiEES6_NS_39PKCS1v15_SignatureMessageEncodingMethodES5_EEEEEE
__ZTVN8CryptoPP16TrapdoorFunctionE
__ZTVN8CryptoPP17AutoSeededX917RNGINS_8RijndaelEEE
__ZTVN8CryptoPP17BERGeneralDecoderE
__ZTVN8CryptoPP17DERGeneralEncoderE
__ZTVN8CryptoPP17EuclideanDomainOfINS_7IntegerEEE
__ZTVN8CryptoPP17InvalidDataFormatE
__ZTVN8CryptoPP17ModularArithmeticE
__ZTVN8CryptoPP18BERSequenceDecoderE
__ZTVN8CryptoPP18DERSequenceEncoderE
__ZTVN8CryptoPP18NullNameValuePairsE
__ZTVN8CryptoPP18PK_SignatureScheme11KeyTooShortE
__ZTVN8CryptoPP18PK_SignatureScheme16InvalidKeyLengthE
__ZTVN8CryptoPP18PK_SignatureSchemeE
__ZTVN8CryptoPP19AlgorithmParametersE
__ZTVN8CryptoPP21SimpleKeyingInterfaceE
__ZTVN8CryptoPP22BufferedTransformation16NoChannelSupportE
__ZTVN8CryptoPP23AbstractEuclideanDomainINS_7IntegerEEE
__ZTVN8CryptoPP23AlgorithmParametersBase16ParameterNotUsedE
__ZTVN8CryptoPP23AlgorithmParametersBaseE
__ZTVN8CryptoPP24MontgomeryRepresentationE
__ZTVN8CryptoPP25PK_MessageAccumulatorBaseE
__ZTVN8CryptoPP25PK_MessageAccumulatorImplINS_6SHA256EEE
__ZTVN8CryptoPP27AlgorithmParametersTemplateINS_23ConstByteArrayParameterEEE
__ZTVN8CryptoPP31IteratedHashWithStaticTransformIjNS_10EnumToTypeINS_9ByteOrderELi1EEELj64ELj32ENS_6SHA256ELj32ELb1EEE
__ZTVN8CryptoPP39PKCS1v15_SignatureMessageEncodingMethodE
__ZTVN8CryptoPP6FilterE
__ZTVN8CryptoPP6SHA256E
__ZTVN8CryptoPP6SourceE
__ZTVN8CryptoPP7Integer12DivideByZeroE
__ZTVN8CryptoPP7IntegerE
__ZTVN8CryptoPP7X917RNGE
__ZTVN8CryptoPP8Rijndael4BaseE
__ZTVN8CryptoPP9AlgorithmE
__ZTVN8CryptoPP9ArraySinkE
__ZTVN8CryptoPP9BitBucketE
__ZTVN8CryptoPP9ByteQueue6WalkerE
__ZTVN8CryptoPP9ByteQueueE
__ZTVN8CryptoPP9ExceptionE
__ZTVNSt3__110__function6__funcIZNK15CBaseFileSystem24IsFileInWritableLocationEPKcE3$_0NS_9allocatorIS5_EEFvvEEE
__ZThn24_N12CEmptyConVar8SetValueEPKc
__ZThn24_N12CEmptyConVar8SetValueEf
__ZThn24_N12CEmptyConVar8SetValueEi
__ZThn24_N6ConVar8SetValueEPKc
__ZThn24_N6ConVar8SetValueEf
__ZThn24_N6ConVar8SetValueEi
__ZThn24_NK12CEmptyConVar7GetNameEv
__ZThn24_NK12CEmptyConVar9IsFlagSetEi
__ZThn24_NK6ConVar7GetNameEv
__ZThn24_NK6ConVar9IsFlagSetEi
__ZThn4_N13CFileAsyncJobD0Ev
__ZThn4_N13CFileAsyncJobD1Ev
__ZThn4_N15CBaseFileSystem10FileExistsEPKcS1_
__ZThn4_N15CBaseFileSystem11GetFileTimeEPKcS1_
__ZThn4_N15CBaseFileSystem14IsFileWritableEPKcS1_
__ZThn4_N15CBaseFileSystem15SetFileWritableEPKcbS1_
__ZThn4_N15CBaseFileSystem4OpenEPKcS1_S1_
__ZThn4_N15CBaseFileSystem4ReadEPviS0_
__ZThn4_N15CBaseFileSystem4SeekEPvi16FileSystemSeek_t
__ZThn4_N15CBaseFileSystem4SizeEPKcS1_
__ZThn4_N15CBaseFileSystem4SizeEPv
__ZThn4_N15CBaseFileSystem4TellEPv
__ZThn4_N15CBaseFileSystem5CloseEPv
__ZThn4_N15CBaseFileSystem5FlushEPv
__ZThn4_N15CBaseFileSystem5WriteEPKviPv
__ZThn4_N15CBaseFileSystem8PrecacheEPKcS1_
__ZThn4_N15CBaseFileSystem8ReadFileEPKcS1_R10CUtlBufferiiPFPvS1_jE
__ZThn4_N15CBaseFileSystem9UnzipFileEPKcS1_S1_
__ZThn4_N15CBaseFileSystem9WriteFileEPKcS1_R10CUtlBuffer
__ZThn4_N17CFileAsyncReadJobD0Ev
__ZThn4_N17CFileAsyncReadJobD1Ev
__ZThn4_N18CFileAsyncWriteJobD0Ev
__ZThn4_N18CFileAsyncWriteJobD1Ev
__ZThn4_N21CFileAsyncFileSizeJobD0Ev
__ZThn4_N21CFileAsyncFileSizeJobD1Ev
__ZThn4_N22CFileAsyncWriteFileJobD0Ev
__ZThn4_N22CFileAsyncWriteFileJobD1Ev
__ZThn4_N23CFileAsyncAppendFileJobD0Ev
__ZThn4_N23CFileAsyncAppendFileJobD1Ev
__ZThn4_N4CJobD0Ev
__ZThn4_N4CJobD1Ev
__ZThn4_N8CryptoPP11RSAFunction18BERDecodePublicKeyERNS_22BufferedTransformationEbm
__ZThn4_N8CryptoPP11RSAFunctionD0Ev
__ZThn4_N8CryptoPP11RSAFunctionD1Ev
__ZThn4_N8CryptoPP11StringStoreD0Ev
__ZThn4_N8CryptoPP11StringStoreD1Ev
__ZThn4_N8CryptoPP12MessageQueueD0Ev
__ZThn4_N8CryptoPP12MessageQueueD1Ev
__ZThn4_N8CryptoPP12StringSourceD0Ev
__ZThn4_N8CryptoPP12StringSourceD1Ev
__ZThn4_N8CryptoPP13TF_ObjectImplINS_15TF_VerifierBaseENS_25TF_SignatureSchemeOptionsINS_5TF_SSINS_8PKCS1v15ENS_6SHA256ENS_3RSAEiEES6_NS_39PKCS1v15_SignatureMessageEncodingMethodES5_EENS_11RSAFunctionEED0Ev
__ZThn4_N8CryptoPP13TF_ObjectImplINS_15TF_VerifierBaseENS_25TF_SignatureSchemeOptionsINS_5TF_SSINS_8PKCS1v15ENS_6SHA256ENS_3RSAEiEES6_NS_39PKCS1v15_SignatureMessageEncodingMethodES5_EENS_11RSAFunctionEED1Ev
__ZThn4_N8CryptoPP13X509PublicKeyD0Ev
__ZThn4_N8CryptoPP13X509PublicKeyD1Ev
__ZThn4_N8CryptoPP14SourceTemplateINS_11StringStoreEED0Ev
__ZThn4_N8CryptoPP14SourceTemplateINS_11StringStoreEED1Ev
__ZThn4_N8CryptoPP16BlockCipherFinalILNS_9CipherDirE0ENS_8Rijndael3EncEED0Ev
__ZThn4_N8CryptoPP16BlockCipherFinalILNS_9CipherDirE0ENS_8Rijndael3EncEED1Ev
__ZThn4_N8CryptoPP16PK_FinalTemplateINS_15TF_VerifierImplINS_25TF_SignatureSchemeOptionsINS_5TF_SSINS_8PKCS1v15ENS_6SHA256ENS_3RSAEiEES6_NS_39PKCS1v15_SignatureMessageEncodingMethodES5_EEEEED0Ev
__ZThn4_N8CryptoPP16PK_FinalTemplateINS_15TF_VerifierImplINS_25TF_SignatureSchemeOptionsINS_5TF_SSINS_8PKCS1v15ENS_6SHA256ENS_3RSAEiEES6_NS_39PKCS1v15_SignatureMessageEncodingMethodES5_EEEEED1Ev
__ZThn4_N8CryptoPP17BERGeneralDecoderD0Ev
__ZThn4_N8CryptoPP17BERGeneralDecoderD1Ev
__ZThn4_N8CryptoPP17DERGeneralEncoderD0Ev
__ZThn4_N8CryptoPP17DERGeneralEncoderD1Ev
__ZThn4_N8CryptoPP17TF_ObjectImplBaseINS_15TF_VerifierBaseENS_25TF_SignatureSchemeOptionsINS_5TF_SSINS_8PKCS1v15ENS_6SHA256ENS_3RSAEiEES6_NS_39PKCS1v15_SignatureMessageEncodingMethodES5_EENS_11RSAFunctionEE15AccessPublicKeyEv
__ZThn4_N8CryptoPP18ASN1CryptoMaterialINS_9PublicKeyEED0Ev
__ZThn4_N8CryptoPP18ASN1CryptoMaterialINS_9PublicKeyEED1Ev
__ZThn4_N8CryptoPP18BERSequenceDecoderD0Ev
__ZThn4_N8CryptoPP18BERSequenceDecoderD1Ev
__ZThn4_N8CryptoPP18DERSequenceEncoderD0Ev
__ZThn4_N8CryptoPP18DERSequenceEncoderD1Ev
__ZThn4_N8CryptoPP22BufferedTransformation14GetWaitObjectsERNS_19WaitObjectContainerERKNS_9CallStackE
__ZThn4_N8CryptoPP6FilterD0Ev
__ZThn4_N8CryptoPP6FilterD1Ev
__ZThn4_N8CryptoPP6SourceD0Ev
__ZThn4_N8CryptoPP6SourceD1Ev
__ZThn4_N8CryptoPP8Rijndael4BaseD0Ev
__ZThn4_N8CryptoPP8Rijndael4BaseD1Ev
__ZThn4_N8CryptoPP9ArraySinkD0Ev
__ZThn4_N8CryptoPP9ArraySinkD1Ev
__ZThn4_N8CryptoPP9BitBucketD0Ev
__ZThn4_N8CryptoPP9BitBucketD1Ev
__ZThn4_N8CryptoPP9ByteQueue6WalkerD0Ev
__ZThn4_N8CryptoPP9ByteQueue6WalkerD1Ev
__ZThn4_N8CryptoPP9ByteQueueD0Ev
__ZThn4_N8CryptoPP9ByteQueueD1Ev
__ZThn4_NK8CryptoPP11RSAFunction14GetAlgorithmIDEv
__ZThn4_NK8CryptoPP11RSAFunction18DEREncodePublicKeyERNS_22BufferedTransformationE
__ZThn4_NK8CryptoPP12ClonableImplINS_16BlockCipherFinalILNS_9CipherDirE0ENS_8Rijndael3EncEEES4_E5CloneEv
__ZThn4_NK8CryptoPP13AlgorithmImplINS_15TF_VerifierBaseENS_5TF_SSINS_8PKCS1v15ENS_6SHA256ENS_3RSAEiEEE13AlgorithmNameEv
__ZThn4_NK8CryptoPP13AlgorithmImplINS_25SimpleKeyingInterfaceImplINS_8TwoBasesINS_11BlockCipherENS_13Rijndael_InfoEEES5_EES6_E13AlgorithmNameEv
__ZThn4_NK8CryptoPP15BlockCipherImplINS_13Rijndael_InfoENS_11BlockCipherEE9BlockSizeEv
__ZThn4_NK8CryptoPP16BlockCipherFinalILNS_9CipherDirE0ENS_8Rijndael3EncEE23IsForwardTransformationEv
__ZThn4_NK8CryptoPP17TF_ObjectImplBaseINS_15TF_VerifierBaseENS_25TF_SignatureSchemeOptionsINS_5TF_SSINS_8PKCS1v15ENS_6SHA256ENS_3RSAEiEES6_NS_39PKCS1v15_SignatureMessageEncodingMethodES5_EENS_11RSAFunctionEE12GetPublicKeyEv
__ZThn4_NK8CryptoPP22BufferedTransformation21GetMaxWaitObjectCountEv
__ZThn4_NK8CryptoPP8Rijndael3Enc18ProcessAndXorBlockEPKhS3_Ph
__ZThn4_NK8CryptoPP8Rijndael3Enc21AdvancedProcessBlocksEPKhS3_Phmj
__ZThn8_N8CryptoPP11RSAFunctionD0Ev
__ZThn8_N8CryptoPP11RSAFunctionD1Ev
__ZThn8_N9CFunctor4IPFvP9FileJob_tPFvPvS2_PKvi13LoaderError_tES2_S2_ES1_S7_S2_S2_12CRefCounted1I8CFunctor20CRefCountServiceBaseILb1E6CRefMTEEED0Ev
__ZThn8_N9CFunctor4IPFvP9FileJob_tPFvPvS2_PKvi13LoaderError_tES2_S2_ES1_S7_S2_S2_12CRefCounted1I8CFunctor20CRefCountServiceBaseILb1E6CRefMTEEED1Ev
__ZThn8_N9CFunctor4IPFvP9FileJob_tPvi13LoaderError_tES1_S2_iS3_12CRefCounted1I8CFunctor20CRefCountServiceBaseILb1E6CRefMTEEED0Ev
__ZThn8_N9CFunctor4IPFvP9FileJob_tPvi13LoaderError_tES1_S2_iS3_12CRefCounted1I8CFunctor20CRefCountServiceBaseILb1E6CRefMTEEED1Ev
__ZThn8_NK8CryptoPP17TF_ObjectImplBaseINS_15TF_VerifierBaseENS_25TF_SignatureSchemeOptionsINS_5TF_SSINS_8PKCS1v15ENS_6SHA256ENS_3RSAEiEES6_NS_39PKCS1v15_SignatureMessageEncodingMethodES5_EENS_11RSAFunctionEE25GetTrapdoorFunctionBoundsEv
__ZThn8_NK8CryptoPP17TF_ObjectImplBaseINS_15TF_VerifierBaseENS_25TF_SignatureSchemeOptionsINS_5TF_SSINS_8PKCS1v15ENS_6SHA256ENS_3RSAEiEES6_NS_39PKCS1v15_SignatureMessageEncodingMethodES5_EENS_11RSAFunctionEE27GetMessageEncodingInterfaceEv
__ZThn8_NK8CryptoPP17TF_ObjectImplBaseINS_15TF_VerifierBaseENS_25TF_SignatureSchemeOptionsINS_5TF_SSINS_8PKCS1v15ENS_6SHA256ENS_3RSAEiEES6_NS_39PKCS1v15_SignatureMessageEncodingMethodES5_EENS_11RSAFunctionEE28GetTrapdoorFunctionInterfaceEv
__ZTv0_n16_NK8CryptoPP11RSAFunction12GetVoidValueEPKcRKSt9type_infoPv
__ZTv0_n20_N8CryptoPP11RSAFunction10AssignFromERKNS_14NameValuePairsE
__ZTv0_n24_NK8CryptoPP11RSAFunction8ValidateERNS_21RandomNumberGeneratorEj
__ZTv0_n32_NK8CryptoPP18ASN1CryptoMaterialINS_9PublicKeyEE4SaveERNS_22BufferedTransformationE
__ZTv0_n36_N8CryptoPP18ASN1CryptoMaterialINS_9PublicKeyEE4LoadERNS_22BufferedTransformationE
__ZZ11DataMapInitI14ZIP_FileHeaderEP9datamap_tPT_E10nameHolder
__ZZ11DataMapInitI14ZIP_FileHeaderEP9datamap_tPT_E8dataDesc
__ZZ11DataMapInitI17ZIP_PreloadHeaderEP9datamap_tPT_E10nameHolder
__ZZ11DataMapInitI17ZIP_PreloadHeaderEP9datamap_tPT_E8dataDesc
__ZZ11DataMapInitI19ZIP_LocalFileHeaderEP9datamap_tPT_E10nameHolder
__ZZ11DataMapInitI19ZIP_LocalFileHeaderEP9datamap_tPT_E8dataDesc
__ZZ11DataMapInitI25ZIP_EndOfCentralDirRecordEP9datamap_tPT_E10nameHolder
__ZZ11DataMapInitI25ZIP_EndOfCentralDirRecordEP9datamap_tPT_E8dataDesc
__ZZ11DataMapInitI25ZIP_PreloadDirectoryEntryEP9datamap_tPT_E10nameHolder
__ZZ11DataMapInitI25ZIP_PreloadDirectoryEntryEP9datamap_tPT_E8dataDesc
__ZZ26UseOptimalBufferAllocationvE27bUseOptimalBufferAllocation
__ZZL11LogFileOpenPKcS0_S0_E4mode
__ZZN10CUtlSymbol10InitializeEvE18symbolsInitialized
__ZZN10CWin32File14CreateTempFileER10CUtlStringS1_E7counter
__ZZN12CPackedStore13GetFileHandleEiE7invalid
__ZZN15CBaseFileSystem15LogAccessToFileEPKcS1_S1_E11autoMutex__
__ZZN8CryptoPP12TheBitBucketEvE9bitBucket
__ZZN8CryptoPP6SHA2569InitStateEPjE1s
__ZZN8CryptoPP7NullRNGEvE9s_nullRNG
__ZZNK15CBaseFileSystem24IsFileInWritableLocationEPKcE10nNestLevel
__ZZNK8CryptoPP9SingletonINS_39PKCS1v15_SignatureMessageEncodingMethodENS_9NewObjectIS1_EELi0EE3RefEvE9s_pObject
__ZZNK8CryptoPP9SingletonINS_7IntegerENS_10NewIntegerILl1EEELi0EE3RefEvE9s_pObject
__ZZNK8CryptoPP9SingletonINS_7IntegerENS_9NewObjectIS1_EELi0EE3RefEvE9s_pObject
__ZdaPv
__ZdlPv
__Znam
__Znwm
___bzero
___clang_call_terminate
___cxa_allocate_exception
___cxa_atexit
___cxa_begin_catch
___cxa_call_unexpected
___cxa_end_catch
___cxa_free_exception
___cxa_get_exception_ptr
___cxa_guard_abort
___cxa_guard_acquire
___cxa_guard_release
___cxa_pure_virtual
___cxa_rethrow
___cxa_throw
___dynamic_cast
___error
___gxx_personality_v0
___maskrune
___moddi3
___stack_chk_fail
___stack_chk_guard
___stderrp
___tolower
___toupper
___udivdi3
___umoddi3
_alphasort$INODE64
_async_allow_held_files
_async_mode
_async_simulate_delay
_atof
_atoi
_chmod$UNIX2003
_clock$UNIX2003
_close$UNIX2003
_colorcorrection
_ctime
_cvar
_dlclose
_dlerror
_dlopen
_dlsym
_fclose
_feof
_ferror
_fflush
_fgets
_filesystem_buffer_size
_filesystem_max_stdio_read
_filesystem_native
_filesystem_report_buffered_io
_filesystem_unbuffered_io
_fopen$UNIX2003
_fprintf
_fputs$UNIX2003
_fread
_free
_fs_monitor_read_from_pack
_fs_report_sync_opens
_fs_warning_mode
_fseek
_fseeko
_fstat$INODE64
_ftell
_ftello
_fwrite$UNIX2003
_g_AsyncFinishMutex
_g_AsyncOpenedFiles
_g_FileSystem_Stdio
_g_KeyValuesErrorStack
_g_PathIDTable
_g_ResourceLoaderNames
_g_VBAllocTracker
_g_VProfCurrentProfile
_g_iNextSearchPathID
_g_pCVar
_g_pFullFileSystem
_g_pInputSystem
_g_pMaterialSystem
_g_pMaterialSystemDebugTextureInfo
_g_pMaterialSystemHardwareConfig
_g_pMemAlloc
_g_pNetworkSystem
_g_pProcessUtils
_g_pQueuedLoader
_g_pThreadPool
_g_pUtlSortVectorQSortContext
_g_pVCR
_g_pszReadFilename
_g_tslistPAutoSeededRNG
_getcwd
_getenv
_loader_sped_info_ex
_loader_spew_info
_localtime
_lzma_persistent_buffer
_malloc
_materials
_mdllib
_memcmp
_memcpy
_memmove
_memset
_memset_pattern16
_mkdir
_open$UNIX2003
_p4
_pow
_printf
_pthread_mutex_destroy
_pthread_mutex_init
_pthread_mutex_lock
_pthread_mutex_unlock
_pthread_mutexattr_init
_pthread_mutexattr_settype
_qsort
_raise
_read$UNIX2003
_rename
_rewind
_s_NoEscConversion
_s_StringCharConversion
_scandir$INODE64
_selectBuf
_sleep$UNIX2003
_snprintf
_sprintf
_sscanf
_stat$INODE64
_strcasecmp
_strcat
_strchr
_strcmp
_strcpy
_strlen
_strncasecmp
_strncat
_strncmp
_strncpy
_strrchr
_strstr
_strtod$UNIX2003
_strtol
_strtoul
_swprintf
_time
_tmpnam
_unlink
_vfprintf
_vsnprintf
_wcslen
dyld_stub_binder
