GCC_except_table0
GCC_except_table16
GCC_except_table2
GCC_except_table3
GCC_except_table4
GCC_except_table43
GCC_except_table5
GCC_except_table69
GCC_except_table7
GCC_except_table8
_CommandLine_Tier0
_CreateInterface
_Msg
_Plat_MSTime
_SDL_AddEventWatch
_SDL_DelEventWatch
_SDL_GameControllerClose
_SDL_GameControllerGetJoystick
_SDL_GameControllerOpen
_SDL_GetError
_SDL_HapticClose
_SDL_HapticOpenFromJoystick
_SDL_HapticRumbleInit
_SDL_HapticRumblePlay
_SDL_HapticRumbleStop
_SDL_InitSubSystem
_SDL_IsGameController
_SDL_JoystickClose
_SDL_JoystickGetDeviceGUID
_SDL_JoystickGetGUIDString
_SDL_JoystickInstanceID
_SDL_JoystickNameForIndex
_SDL_JoystickOpen
_SDL_NumJoysticks
_SDL_QuitSubSystem
_SDL_SetHint
_SDL_WasInit
_SteamAPI_GetHSteamUser
_SteamAPI_InitSafe
_SteamInternal_ContextInit
_SteamInternal_CreateInterface
_SteamInternal_FindOrCreateUserInterface
_Warning
__GLOBAL__sub_I_convar.stdout.rel_tf_osx_builder.55430.mXKsKU.ii
__GLOBAL__sub_I_inputsyste.stdout.rel_tf_osx_builder.58840.aYxQk6.ii
__GLOBAL__sub_I_joystick_s.stdout.rel_tf_osx_builder.58841.yctdjW.ii
__GLOBAL__sub_I_key_transl.stdout.rel_tf_osx_builder.58842.QNyeBM.ii
__GLOBAL__sub_I_steamcontr.stdout.rel_tf_osx_builder.58843.Udb03A.ii
__GLOBAL__sub_I_utlbuffer.stdout.rel_tf_osx_builder.8986.vt30zT.ii
__Unwind_Resume
__Z10V_snprintfPciPKcz
__Z10V_strnicmpPKcS0_i
__Z15ConVar_RegisteriP23IConCommandBaseAccessor
__Z15SearchForDevicev
__Z16Sys_UnloadModuleP10CSysModule
__Z17ConVar_Unregisterv
__Z21ConnectTier1LibrariesPPFPvPKcPiEi
__Z21ConnectTier2LibrariesPPFPvPKcPiEi
__Z21DefaultCompletionFuncPKcPA64_c
__Z24DisconnectTier1Librariesv
__Z24DisconnectTier2Librariesv
__Z27SteamInternal_Init_SteamUGCPP9ISteamUGC
__Z28SteamInternal_Init_SteamAppsPP10ISteamApps
__Z28SteamInternal_Init_SteamHTTPPP10ISteamHTTP
__Z28SteamInternal_Init_SteamUserPP10ISteamUser
__Z29AnalogCode_AnalogCodeToString12AnalogCode_t
__Z29AnalogCode_StringToAnalogCodePKc
__Z29ButtonCode_ButtonCodeToString12ButtonCode_tb
__Z29ButtonCode_StringToButtonCodePKcb
__Z29SteamInternal_Init_SteamInputPP11ISteamInput
__Z29SteamInternal_Init_SteamMusicPP11ISteamMusic
__Z29SteamInternal_Init_SteamUtilsPP11ISteamUtils
__Z29SteamInternal_Init_SteamVideoPP11ISteamVideo
__Z30SteamInternal_Init_SteamClientPP12ISteamClient
__Z31ButtonCode_ScanCodeToButtonCodei
__Z31ButtonCode_UpdateScanCodeLayoutv
__Z31SteamInternal_Init_SteamAppListPP13ISteamAppList
__Z31SteamInternal_Init_SteamFriendsPP13ISteamFriends
__Z33ButtonCode_ButtonCodeToVirtualKey12ButtonCode_t
__Z33ButtonCode_VirtualKeyToButtonCodei
__Z33SteamInternal_Init_SteamInventoryPP15ISteamInventory
__Z33SteamInternal_Init_SteamUserStatsPP15ISteamUserStats
__Z34ButtonCode_InitKeyTranslationTablev
__Z34SteamInternal_Init_SteamControllerPP16ISteamController
__Z34SteamInternal_Init_SteamGameSearchPP16ISteamGameSearch
__Z34SteamInternal_Init_SteamNetworkingPP16ISteamNetworking
__Z35SteamInternal_Init_SteamHTMLSurfacePP17ISteamHTMLSurface
__Z35SteamInternal_Init_SteamMatchmakingPP17ISteamMatchmaking
__Z35SteamInternal_Init_SteamMusicRemotePP17ISteamMusicRemote
__Z35SteamInternal_Init_SteamScreenshotsPP17ISteamScreenshots
__Z37SteamInternal_Init_SteamRemoteStoragePP19ISteamRemoteStorage
__Z40SteamInternal_Init_SteamParentalSettingsPP22ISteamParentalSettings
__Z42SteamInternal_Init_SteamMatchmakingServersPP24ISteamMatchmakingServers
__Z6ConMsgPKcz
__Z6DevMsgPKcz
__Z6V_atofPKc
__Z9V_stricmpPKcS0_
__ZGVZL22SetJoyXControllerFoundbE11joystickVar
__ZGVZL22SetJoyXControllerFoundbE14xcontrollerVar
__ZGVZN12CInputSystem16SetXDeviceRumbleEffiE11joystickVar
__ZL11s_nCVarFlag
__ZL11vec2_origin
__ZL11vec2_origin
__ZL11vec2_origin
__ZL11vec2_origin
__ZL11vec2_origin
__ZL11vec2_origin
__ZL12s_bConnected
__ZL12vec2_invalid
__ZL12vec2_invalid
__ZL12vec2_invalid
__ZL12vec2_invalid
__ZL12vec2_invalid
__ZL12vec2_invalid
__ZL13g_InputSystem
__ZL13s_EmptyConVar
__ZL13s_bRegistered
__ZL16g_GameActionSets
__ZL16key_updatelayoutRK8CCommand
__ZL16s_nDLLIdentifier
__ZL17s_DefaultAccessor
__ZL17s_pAnalogCodeName
__ZL17s_pButtonCodeName
__ZL18JoystickSDLWatcherPvP9SDL_Event
__ZL19s_pSKeytoButtonCode
__ZL19s_pScanToButtonCode
__ZL20g_DigitalMenuActions
__ZL20joy_active_changed_fP7IConVarPKcf
__ZL22SetJoyXControllerFoundb
__ZL22s_pButtonCodeToVirtual
__ZL24key_updatelayout_command
__ZL25s_pVirtualKeyToButtonCode
__ZL26s_pScanToButtonCode_QWERTY
__ZL29s_pXControllerButtonCodeNames
__ZL35joy_gamecontroller_config_changed_fP7IConVarPKcf
__ZL35s_pConversionArrays_NoEscConversion
__ZL36g_MapSteamControllerOriginToIconFont
__ZL38__g_CreateCInputSystemIInputSystem_reg
__ZL39g_MapSteamControllerOriginToDescription
__ZL40s_pConversionArrays_StringCharConversion
__ZL42__CreateCInputSystemIInputSystem_interfacev
__ZL9scantokey
__ZN10CUtlString3SetEPKc
__ZN10CUtlString5PurgeEv
__ZN10CUtlVectorI10CUtlString10CUtlMemoryIS0_iEE12InsertBeforeEiRKS0_
__ZN10CUtlVectorI12InputEvent_t10CUtlMemoryIS0_iEE10GrowVectorEi
__ZN10CUtlVectorI12InputEvent_t10CUtlMemoryIS0_iEED2Ev
__ZN10ConCommand15CanAutoCompleteEv
__ZN10ConCommand19AutoCompleteSuggestEPKcR10CUtlVectorI10CUtlString10CUtlMemoryIS3_iEE
__ZN10ConCommand8DispatchERK8CCommand
__ZN10ConCommandC1EPKcPFvRK8CCommandES1_iPFiS1_PA64_cE
__ZN10ConCommandD0Ev
__ZN10ConCommandD1Ev
__ZN12CEmptyConVar8SetValueEPKc
__ZN12CEmptyConVar8SetValueEf
__ZN12CEmptyConVar8SetValueEi
__ZN12CEmptyConVarD0Ev
__ZN12CEmptyConVarD1Ev
__ZN12CInputSystem10StopRumbleEv
__ZN12CInputSystem11EnableInputEb
__ZN12CInputSystem12PollJoystickEv
__ZN12CInputSystem13PostUserEventERK12InputEvent_t
__ZN12CInputSystem13SampleDevicesEv
__ZN12CInputSystem13SetNovintPureEb
__ZN12CInputSystem14AttachToWindowEPv
__ZN12CInputSystem14PollInputStateEv
__ZN12CInputSystem15ResetInputStateEv
__ZN12CInputSystem15SleepUntilInputEi
__ZN12CInputSystem16DetachFromWindowEv
__ZN12CInputSystem16SetPrimaryUserIdEi
__ZN12CInputSystem16SetXDeviceRumbleEffi
__ZN12CInputSystem17EnableMessagePumpEb
__ZN12CInputSystem17SetCursorPositionEii
__ZN12CInputSystem17ShutdownJoysticksEv
__ZN12CInputSystem18GetActionSetHandleE15GameActionSet_t
__ZN12CInputSystem18GetActionSetHandleEPKc
__ZN12CInputSystem18JoystickAxisMotionEiii
__ZN12CInputSystem18SetConsoleTextModeEb
__ZN12CInputSystem19EnableJoystickInputEib
__ZN12CInputSystem19InitializeJoysticksEv
__ZN12CInputSystem20JoystickHotplugAddedEi
__ZN12CInputSystem20PollSteamControllersEv
__ZN12CInputSystem22JoystickHotplugRemovedEi
__ZN12CInputSystem22PostButtonPressedEventE16InputEventType_ti12ButtonCode_tS1_
__ZN12CInputSystem22UpdateMouseButtonStateEi12ButtonCode_t
__ZN12CInputSystem23GetRawMouseAccumulatorsERiS0_
__ZN12CInputSystem23IsSteamControllerActiveEv
__ZN12CInputSystem23PollInputState_PlatformEv
__ZN12CInputSystem23PostButtonReleasedEventE16InputEventType_ti12ButtonCode_tS1_
__ZN12CInputSystem24GetRadialMenuStickValuesEiRfS0_
__ZN12CInputSystem24SteamControllerInterfaceEv
__ZN12CInputSystem24UpdateMousePositionStateERNS_12InputState_tEss
__ZN12CInputSystem25EnableJoystickDiagonalPOVEib
__ZN12CInputSystem26InitializeSteamControllersEv
__ZN12CInputSystem26IsSteamControllerConnectedEv
__ZN12CInputSystem30GetSteamControllerActionOriginEPKc15GameActionSet_t
__ZN12CInputSystem30GetSteamControllerActionOriginEPKcy
__ZN12CInputSystem30GetSteamControllerIndexForSlotEi
__ZN12CInputSystem31GetNumSteamControllersConnectedEv
__ZN12CInputSystem31SetSkipControllerInitializationEb
__ZN12CInputSystem35InitializeSteamControllerActionSetsEv
__ZN12CInputSystem39ActivateSteamControllerActionSetForSlotEy15GameActionSet_t
__ZN12CInputSystem44GetSteamControllerDescriptionForActionOriginE23EControllerActionOrigin
__ZN12CInputSystem46GetSteamControllerFontCharacterForActionOriginE23EControllerActionOrigin
__ZN12CInputSystem4InitEv
__ZN12CInputSystem7ConnectEPFPvPKcPiE
__ZN12CInputSystem8ShutdownEv
__ZN12CInputSystem9PostEventEiiiii
__ZN12CInputSystem9SetRumbleEffi
__ZN12CInputSystemC2Ev
__ZN12CInputSystemD0Ev
__ZN12CInputSystemD1Ev
__ZN12CInputSystemD2Ev
__ZN12InterfaceReg16s_pInterfaceRegsE
__ZN12InterfaceRegC1EPFPvvEPKc
__ZN14CBaseAppSystemI12IInputSystemE14QueryInterfaceEPKc
__ZN14ConCommandBase10CreateBaseEPKcS1_i
__ZN14ConCommandBase11s_pAccessorE
__ZN14ConCommandBase18s_pConCommandBasesE
__ZN14ConCommandBase4InitEv
__ZN14ConCommandBase8AddFlagsEi
__ZN15CTier2AppSystemI12IInputSystemLi0EE10DisconnectEv
__ZN16CDefaultAccessor22RegisterConCommandBaseEP14ConCommandBase
__ZN16CSteamAPIContext4InitEv
__ZN18CUtlCharConversion14FindConversionEPKcPi
__ZN19CUtlNoEscConversion14FindConversionEPKcPi
__ZN21CUtlCStringConversion14FindConversionEPKcPi
__ZN21CUtlCStringConversionC2EcPKciPN18CUtlCharConversion17ConversionArray_tE
__ZN6ConVar10ClampValueERf
__ZN6ConVar16InternalSetValueEPKc
__ZN6ConVar17ChangeStringValueEPKcf
__ZN6ConVar19InternalSetIntValueEi
__ZN6ConVar21InternalSetFloatValueEfb
__ZN6ConVar4InitEv
__ZN6ConVar6CreateEPKcS1_iS1_bfbfbfbfPFvP7IConVarS1_fE
__ZN6ConVar8AddFlagsEi
__ZN6ConVar8SetValueEPKc
__ZN6ConVar8SetValueEf
__ZN6ConVar8SetValueEi
__ZN6ConVarC1EPKcS1_iS1_
__ZN6ConVarC1EPKcS1_iS1_PFvP7IConVarS1_fE
__ZN6ConVarD0Ev
__ZN6ConVarD1Ev
__ZN9ConVarRefC1EPKc
__ZNK10CUtlString3GetEv
__ZNK10ConCommand9IsCommandEv
__ZNK12CEmptyConVar7GetNameEv
__ZNK12CEmptyConVar9IsFlagSetEi
__ZNK12CInputSystem11GetPollTickEv
__ZNK12CInputSystem12GetEventDataEv
__ZNK12CInputSystem12GetPollCountEv
__ZNK12CInputSystem12IsButtonDownE12ButtonCode_t
__ZNK12CInputSystem13GetEventCountEv
__ZNK12CInputSystem14GetAnalogDeltaE12AnalogCode_t
__ZNK12CInputSystem14GetAnalogValueE12AnalogCode_t
__ZNK12CInputSystem16GetJoystickCountEv
__ZNK12CInputSystem18AnalogCodeToStringE12AnalogCode_t
__ZNK12CInputSystem18ButtonCodeToStringE12ButtonCode_t
__ZNK12CInputSystem18StringToAnalogCodeEPKc
__ZNK12CInputSystem18StringToButtonCodeEPKc
__ZNK12CInputSystem20GetButtonPressedTickE12ButtonCode_t
__ZNK12CInputSystem20ScanCodeToButtonCodeEi
__ZNK12CInputSystem21GetButtonReleasedTickE12ButtonCode_t
__ZNK12CInputSystem22ButtonCodeToVirtualKeyE12ButtonCode_t
__ZNK12CInputSystem22VirtualKeyToButtonCodeEi
__ZNK12CInputSystem26GetHapticsInterfaceAddressEv
__ZNK14ConCommandBase11GetHelpTextEv
__ZNK14ConCommandBase12IsRegisteredEv
__ZNK14ConCommandBase16GetDLLIdentifierEv
__ZNK14ConCommandBase7GetNameEv
__ZNK14ConCommandBase9IsFlagSetEi
__ZNK6ConVar11GetHelpTextEv
__ZNK6ConVar12IsRegisteredEv
__ZNK6ConVar7GetNameEv
__ZNK6ConVar9IsCommandEv
__ZNK6ConVar9IsFlagSetEi
__ZNK9ConVarRef7IsValidEv
__ZSt9terminatev
__ZTI10ConCommand
__ZTI10IAppSystem
__ZTI12CEmptyConVar
__ZTI12CInputSystem
__ZTI12IInputSystem
__ZTI14CBaseAppSystemI12IInputSystemE
__ZTI14ConCommandBase
__ZTI15CTier0AppSystemI12IInputSystemE
__ZTI15CTier1AppSystemI12IInputSystemLi0EE
__ZTI15CTier2AppSystemI12IInputSystemLi0EE
__ZTI16CDefaultAccessor
__ZTI18CUtlCharConversion
__ZTI19CUtlNoEscConversion
__ZTI21CUtlCStringConversion
__ZTI23IConCommandBaseAccessor
__ZTI6ConVar
__ZTI7IConVar
__ZTISt9bad_alloc
__ZTS10ConCommand
__ZTS10IAppSystem
__ZTS12CEmptyConVar
__ZTS12CInputSystem
__ZTS12IInputSystem
__ZTS14CBaseAppSystemI12IInputSystemE
__ZTS14ConCommandBase
__ZTS15CTier0AppSystemI12IInputSystemE
__ZTS15CTier1AppSystemI12IInputSystemLi0EE
__ZTS15CTier2AppSystemI12IInputSystemLi0EE
__ZTS16CDefaultAccessor
__ZTS18CUtlCharConversion
__ZTS19CUtlNoEscConversion
__ZTS21CUtlCStringConversion
__ZTS23IConCommandBaseAccessor
__ZTS6ConVar
__ZTS7IConVar
__ZTV10ConCommand
__ZTV12CEmptyConVar
__ZTV12CInputSystem
__ZTV16CDefaultAccessor
__ZTV18CUtlCharConversion
__ZTV19CUtlNoEscConversion
__ZTV21CUtlCStringConversion
__ZTV6ConVar
__ZTVN10__cxxabiv117__class_type_infoE
__ZTVN10__cxxabiv120__si_class_type_infoE
__ZTVN10__cxxabiv121__vmi_class_type_infoE
__ZThn24_N12CEmptyConVar8SetValueEPKc
__ZThn24_N12CEmptyConVar8SetValueEf
__ZThn24_N12CEmptyConVar8SetValueEi
__ZThn24_N6ConVar8SetValueEPKc
__ZThn24_N6ConVar8SetValueEf
__ZThn24_N6ConVar8SetValueEi
__ZThn24_NK12CEmptyConVar7GetNameEv
__ZThn24_NK12CEmptyConVar9IsFlagSetEi
__ZThn24_NK6ConVar7GetNameEv
__ZThn24_NK6ConVar9IsFlagSetEi
__ZZ10SteamInputvE27s_CallbackCounterAndContext
__ZZ10SteamMusicvE27s_CallbackCounterAndContext
__ZZ10SteamUtilsvE27s_CallbackCounterAndContext
__ZZ10SteamVideovE27s_CallbackCounterAndContext
__ZZ11SteamClientvE27s_CallbackCounterAndContext
__ZZ12SteamAppListvE27s_CallbackCounterAndContext
__ZZ12SteamFriendsvE27s_CallbackCounterAndContext
__ZZ14SteamInventoryvE27s_CallbackCounterAndContext
__ZZ14SteamUserStatsvE27s_CallbackCounterAndContext
__ZZ15SteamControllervE27s_CallbackCounterAndContext
__ZZ15SteamGameSearchvE27s_CallbackCounterAndContext
__ZZ15SteamNetworkingvE27s_CallbackCounterAndContext
__ZZ16SteamHTMLSurfacevE27s_CallbackCounterAndContext
__ZZ16SteamMatchmakingvE27s_CallbackCounterAndContext
__ZZ16SteamMusicRemotevE27s_CallbackCounterAndContext
__ZZ16SteamScreenshotsvE27s_CallbackCounterAndContext
__ZZ18SteamRemoteStoragevE27s_CallbackCounterAndContext
__ZZ21SteamParentalSettingsvE27s_CallbackCounterAndContext
__ZZ23SteamMatchmakingServersvE27s_CallbackCounterAndContext
__ZZ8SteamUGCvE27s_CallbackCounterAndContext
__ZZ9SteamAppsvE27s_CallbackCounterAndContext
__ZZ9SteamHTTPvE27s_CallbackCounterAndContext
__ZZ9SteamUservE27s_CallbackCounterAndContext
__ZZL22SetJoyXControllerFoundbE11joystickVar
__ZZL22SetJoyXControllerFoundbE14xcontrollerVar
__ZZN12CInputSystem16SetXDeviceRumbleEffiE11joystickVar
__ZZN9ConVarRef4InitEPKcbE6bFirst
__ZdaPv
__ZdlPv
__Znam
__Znwm
___bzero
___clang_call_terminate
___cxa_atexit
___cxa_begin_catch
___cxa_call_unexpected
___cxa_guard_abort
___cxa_guard_acquire
___cxa_guard_release
___gxx_personality_v0
___stack_chk_fail
___stack_chk_guard
_atof
_atoi
_colorcorrection
_cvar
_dlclose
_g_VBAllocTracker
_g_pCVar
_g_pFullFileSystem
_g_pInputSystem
_g_pMaterialSystem
_g_pMaterialSystemDebugTextureInfo
_g_pMaterialSystemHardwareConfig
_g_pMemAlloc
_g_pNetworkSystem
_g_pProcessUtils
_g_pQueuedLoader
_joy_active
_joy_axis_deadzone
_joy_axisbutton_threshold
_joy_gamecontroller_config
_joy_xcontroller_found
_materials
_mdllib
_memcpy
_memmove
_p4
_pow
_s_NoEscConversion
_s_StringCharConversion
_sc_disable
_sc_joystick_map
_strcasecmp
_strcmp
_strlen
_strncasecmp
_vsnprintf
dyld_stub_binder
