GCC_except_table0
GCC_except_table0
GCC_except_table0
GCC_except_table105
GCC_except_table11
GCC_except_table119
GCC_except_table12
GCC_except_table120
GCC_except_table123
GCC_except_table13
GCC_except_table17
GCC_except_table179
GCC_except_table182
GCC_except_table184
GCC_except_table19
GCC_except_table2
GCC_except_table20
GCC_except_table22
GCC_except_table24
GCC_except_table25
GCC_except_table27
GCC_except_table3
GCC_except_table30
GCC_except_table30
GCC_except_table32
GCC_except_table34
GCC_except_table36
GCC_except_table37
GCC_except_table38
GCC_except_table39
GCC_except_table4
GCC_except_table50
GCC_except_table51
GCC_except_table52
GCC_except_table54
GCC_except_table56
GCC_except_table57
GCC_except_table61
GCC_except_table63
GCC_except_table65
GCC_except_table66
GCC_except_table67
GCC_except_table68
GCC_except_table69
GCC_except_table71
GCC_except_table72
GCC_except_table74
GCC_except_table77
GCC_except_table78
GCC_except_table79
GCC_except_table80
GCC_except_table81
GCC_except_table86
GCC_except_table91
GCC_except_table93
GCC_except_table95
GCC_except_table96
_NSHomeDirectory
_OBJC_CLASS_$_NSAutoreleasePool
_VR_GetGenericInterface
_VR_GetStringForHmdError
_VR_Init
_VR_IsHmdPresent
_VR_Shutdown
__GLOBAL__I_a
__GLOBAL__I_a
__GLOBAL__I_a
__GLOBAL__I_a
__GLOBAL__I_a
__Unwind_Resume
__Z10GetHomeDirv
__Z14SharedLib_LoadPKc
__Z15Path_FixSlashesRKSsc
__Z16Path_IsDirectoryRKSs
__Z16SharedLib_UnloadPv
__Z17Path_ReadTextFileRKSs
__Z19Path_ReadBinaryFileRKSsPi
__Z20GetStringForHmdErrorN2vr8HmdErrorE
__Z21SharedLib_GetFunctionPvPKc
__Z22GetEnvironmentVariablePKc
__Z3LogPKcz
__Z9Path_JoinRKSsS0_S0_c
__Z9Path_JoinRKSsS0_c
__ZGVZN4JsonL14valueAllocatorEvE16defaultAllocator
__ZL10s_pLogFile
__ZL11LogInternal8LogLevelPKcRA1_13__va_list_tag
__ZL14g_eMaxLogLevel
__ZL15g_pLoggingMutex
__ZL20g_ThreadMainThreadID
__ZL24ParsePathHistoryFromJsonPSt6vectorISsSaISsEERKN4Json5ValueEPKc
__ZL25GetVRPathRegistryFilenamev
__ZN15CVRPathRegistry13BLoadFromFileEv
__ZN15CVRPathRegistry8GetPathsEPSsS0_S0_PKcS2_
__ZN16SteamThreadTools12CThreadMutexD1Ev
__ZN16SteamThreadTools15CThreadLocalIntIlED1Ev
__ZN16SteamThreadTools15CThreadLocalPtrINS_7CThreadEED1Ev
__ZN2vr24VR_LoadHmdSystemInternalEv
__ZN2vrL11g_pVRModuleE
__ZN2vrL12g_pHmdSystemE
__ZN4Json21DefaultValueAllocator14makeMemberNameEPKc
__ZN4Json21DefaultValueAllocator17releaseMemberNameEPc
__ZN4Json21DefaultValueAllocator18releaseStringValueEPc
__ZN4Json21DefaultValueAllocator20duplicateStringValueEPKcj
__ZN4Json21DefaultValueAllocatorD0Ev
__ZN4Json21DefaultValueAllocatorD1Ev
__ZN4Json5Value10setCommentERKSsNS_16CommentPlacementE
__ZN4Json5Value11CommentInfo10setCommentEPKc
__ZN4Json5Value16resolveReferenceEPKcb
__ZN4Json5Value4nullE
__ZN4Json5Value6maxIntE
__ZN4Json5Value6minIntE
__ZN4Json5Value7maxUIntE
__ZN4Json5ValueC1ENS_9ValueTypeE
__ZN4Json5ValueC1ERKSs
__ZN4Json5ValueC1Eb
__ZN4Json5ValueC1Ed
__ZN4Json5ValueC1Ei
__ZN4Json5ValueC1Ej
__ZN4Json5ValueC2ERKS0_
__ZN4Json5ValueD1Ev
__ZN4Json5ValueD2Ev
__ZN4Json5ValueaSERKS0_
__ZN4Json5ValueixERKSs
__ZN4Json5ValueixEj
__ZN4Json6Reader10addCommentEPKcS2_NS_16CommentPlacementE
__ZN4Json6Reader10readObjectERNS0_5TokenE
__ZN4Json6Reader11readCommentEv
__ZN4Json6Reader12decodeDoubleERNS0_5TokenE
__ZN4Json6Reader12decodeNumberERNS0_5TokenE
__ZN4Json6Reader12decodeStringERNS0_5TokenE
__ZN4Json6Reader12decodeStringERNS0_5TokenERSs
__ZN4Json6Reader16recoverFromErrorENS0_9TokenTypeE
__ZN4Json6Reader22decodeUnicodeCodePointERNS0_5TokenERPKcS4_Rj
__ZN4Json6Reader27decodeUnicodeEscapeSequenceERNS0_5TokenERPKcS4_Rj
__ZN4Json6Reader5parseEPKcS2_RNS_5ValueEb
__ZN4Json6Reader5parseERKSsRNS_5ValueEb
__ZN4Json6Reader8addErrorERKSsRNS0_5TokenEPKc
__ZN4Json6Reader9readArrayERNS0_5TokenE
__ZN4Json6Reader9readTokenERNS0_5TokenE
__ZN4Json6Reader9readValueEv
__ZN4Json6ReaderC1Ev
__ZN4Json6ReaderC2Ev
__ZNK4Json5Value4sizeEv
__ZNK4Json5Value7isArrayEv
__ZNK4Json5Value8asStringEv
__ZNK4Json5Value8isMemberEPKc
__ZNK4Json5Value8isObjectEv
__ZNK4Json5ValueixEPKc
__ZNK4Json5ValueixEj
__ZNK4Json5ValuentEv
__ZNK4Json6Reader24getFormatedErrorMessagesEv
__ZNSs12_M_leak_hardEv
__ZNSs4_Rep10_M_destroyERKSaIcE
__ZNSs4_Rep11_S_terminalE
__ZNSs4_Rep20_S_empty_rep_storageE
__ZNSs4_Rep9_S_createEmmRKSaIcE
__ZNSs6appendEPKcm
__ZNSs6appendERKSs
__ZNSs6assignEPKcm
__ZNSs6assignERKSs
__ZNSs6resizeEmc
__ZNSs7reserveEm
__ZNSs9_M_mutateEmmm
__ZNSsC1EPKcRKSaIcE
__ZNSsC1ERKSs
__ZNSsC1ERKSsmm
__ZNSsC1EmcRKSaIcE
__ZNSt11_Deque_baseIN4Json6Reader9ErrorInfoESaIS2_EE15_M_create_nodesEPPS2_S6_
__ZNSt11_Deque_baseIN4Json6Reader9ErrorInfoESaIS2_EE17_M_initialize_mapEm
__ZNSt11_Deque_baseIPN4Json5ValueESaIS2_EE15_M_create_nodesEPPS2_S6_
__ZNSt11_Deque_baseIPN4Json5ValueESaIS2_EE17_M_initialize_mapEm
__ZNSt11logic_errorD2Ev
__ZNSt11range_errorD0Ev
__ZNSt11range_errorD1Ev
__ZNSt11range_errorD2Ev
__ZNSt12domain_errorD0Ev
__ZNSt12domain_errorD1Ev
__ZNSt12domain_errorD2Ev
__ZNSt12length_errorD0Ev
__ZNSt12length_errorD1Ev
__ZNSt12length_errorD2Ev
__ZNSt12out_of_rangeD0Ev
__ZNSt12out_of_rangeD1Ev
__ZNSt12out_of_rangeD2Ev
__ZNSt13runtime_errorC1ERKSs
__ZNSt13runtime_errorD1Ev
__ZNSt13runtime_errorD2Ev
__ZNSt14overflow_errorD0Ev
__ZNSt14overflow_errorD1Ev
__ZNSt14overflow_errorD2Ev
__ZNSt15underflow_errorD0Ev
__ZNSt15underflow_errorD1Ev
__ZNSt15underflow_errorD2Ev
__ZNSt16invalid_argumentD0Ev
__ZNSt16invalid_argumentD1Ev
__ZNSt16invalid_argumentD2Ev
__ZNSt4pairIKN4Json5Value8CZStringES1_EC1ERS3_RKS1_
__ZNSt5dequeIN4Json6Reader9ErrorInfoESaIS2_EE13_M_insert_auxESt15_Deque_iteratorIS2_RS2_PS2_EmRKS2_
__ZNSt5dequeIN4Json6Reader9ErrorInfoESaIS2_EE14_M_fill_insertESt15_Deque_iteratorIS2_RS2_PS2_EmRKS2_
__ZNSt5dequeIN4Json6Reader9ErrorInfoESaIS2_EE16_M_push_back_auxERKS2_
__ZNSt5dequeIN4Json6Reader9ErrorInfoESaIS2_EE17_M_reallocate_mapEmb
__ZNSt5dequeIN4Json6Reader9ErrorInfoESaIS2_EE19_M_destroy_data_auxESt15_Deque_iteratorIS2_RS2_PS2_ES8_
__ZNSt5dequeIN4Json6Reader9ErrorInfoESaIS2_EE23_M_new_elements_at_backEm
__ZNSt5dequeIN4Json6Reader9ErrorInfoESaIS2_EE24_M_new_elements_at_frontEm
__ZNSt5dequeIN4Json6Reader9ErrorInfoESaIS2_EE6resizeEmS2_
__ZNSt5dequeIN4Json6Reader9ErrorInfoESaIS2_EED2Ev
__ZNSt5dequeIPN4Json5ValueESaIS2_EE17_M_reallocate_mapEmb
__ZNSt5dequeIPN4Json5ValueESaIS2_EEC2ERKS4_
__ZNSt6vectorISsSaISsEE13_M_insert_auxEN9__gnu_cxx17__normal_iteratorIPSsS1_EERKSs
__ZNSt6vectorISsSaISsEE20_M_allocate_and_copyIPSsEES3_mT_S4_
__ZNSt6vectorISsSaISsEE7reserveEm
__ZNSt8_Rb_treeIN4Json5Value8CZStringESt4pairIKS2_S1_ESt10_Select1stIS5_ESt4lessIS2_ESaIS5_EE14_M_create_nodeERKS5_
__ZNSt8_Rb_treeIN4Json5Value8CZStringESt4pairIKS2_S1_ESt10_Select1stIS5_ESt4lessIS2_ESaIS5_EE16_M_insert_uniqueERKS5_
__ZNSt8_Rb_treeIN4Json5Value8CZStringESt4pairIKS2_S1_ESt10_Select1stIS5_ESt4lessIS2_ESaIS5_EE16_M_insert_uniqueESt17_Rb_tree_iteratorIS5_ERKS5_
__ZNSt8_Rb_treeIN4Json5Value8CZStringESt4pairIKS2_S1_ESt10_Select1stIS5_ESt4lessIS2_ESaIS5_EE7_M_copyEPKSt13_Rb_tree_nodeIS5_EPSD_
__ZNSt8_Rb_treeIN4Json5Value8CZStringESt4pairIKS2_S1_ESt10_Select1stIS5_ESt4lessIS2_ESaIS5_EE8_M_eraseEPSt13_Rb_tree_nodeIS5_E
__ZNSt8ios_base4InitC1Ev
__ZNSt8ios_base4InitD1Ev
__ZSt17__throw_bad_allocv
__ZSt18_Rb_tree_decrementPKSt18_Rb_tree_node_base
__ZSt18_Rb_tree_decrementPSt18_Rb_tree_node_base
__ZSt18_Rb_tree_incrementPSt18_Rb_tree_node_base
__ZSt19__throw_logic_errorPKc
__ZSt20__throw_length_errorPKc
__ZSt24__uninitialized_fill_auxISt15_Deque_iteratorIN4Json6Reader9ErrorInfoERS3_PS3_ES3_EvT_S7_RKT0_St12__false_type
__ZSt25__uninitialized_copy_fillISt15_Deque_iteratorIN4Json6Reader9ErrorInfoERS3_PS3_ES6_S3_SaIS3_EEvT_S8_T0_S9_RKT1_T2_
__ZSt25__uninitialized_fill_copyISt15_Deque_iteratorIN4Json6Reader9ErrorInfoERS3_PS3_ES3_S6_SaIS3_EET_S8_S8_RKT0_T1_SC_T2_
__ZSt29_Rb_tree_insert_and_rebalancebPSt18_Rb_tree_node_baseS0_RS_
__ZSt4fillIN4Json6Reader9ErrorInfoEEvRKSt15_Deque_iteratorIT_RS4_PS4_ES9_RKS4_
__ZSt9terminatev
__ZStL8__ioinit
__ZStL8__ioinit
__ZStL8__ioinit
__ZStL8__ioinit
__ZStplIcSt11char_traitsIcESaIcEESbIT_T0_T1_EPKS3_RKS6_
__ZTIN4Json14ValueAllocatorE
__ZTIN4Json21DefaultValueAllocatorE
__ZTISt13runtime_error
__ZTSN4Json14ValueAllocatorE
__ZTSN4Json21DefaultValueAllocatorE
__ZTVN10__cxxabiv117__class_type_infoE
__ZTVN10__cxxabiv120__si_class_type_infoE
__ZTVN4Json21DefaultValueAllocatorE
__ZZ20GetStringForHmdErrorN2vr8HmdErrorEE3buf
__ZZN4JsonL14valueAllocatorEvE14valueAllocator
__ZZN4JsonL14valueAllocatorEvE16defaultAllocator
__ZdaPv
__ZdlPv
__Znam
__Znwm
___clang_call_terminate
___cxa_allocate_exception
___cxa_atexit
___cxa_begin_catch
___cxa_call_unexpected
___cxa_end_catch
___cxa_free_exception
___cxa_guard_acquire
___cxa_guard_release
___cxa_rethrow
___cxa_throw
___gxx_personality_v0
___stack_chk_fail
___stack_chk_guard
_dlclose
_dlopen
_dlsym
_fclose
_fflush
_fopen
_fprintf
_fread
_free
_fseek
_ftell
_g_SuspendResumeLock
_g_nCurThreadSuspendCount
_g_pCurThread
_getenv
_gmtime_r
_mach_thread_self
_malloc
_memcpy
_memmove
_objc_msgSend_fixup
_pthread_key_create
_pthread_key_delete
_pthread_mutex_destroy
_pthread_mutex_init
_pthread_mutex_lock
_pthread_mutex_unlock
_pthread_mutexattr_init
_pthread_mutexattr_settype
_sprintf
_sscanf
_stat
_strcmp
_strftime
_strlen
_time
_vfprintf
dyld_stub_binding_helper
