GCC_except_table0
GCC_except_table0
GCC_except_table0
GCC_except_table0
GCC_except_table0
GCC_except_table0
GCC_except_table0
GCC_except_table0
GCC_except_table0
GCC_except_table0
GCC_except_table0
GCC_except_table0
GCC_except_table0
GCC_except_table0
GCC_except_table0
GCC_except_table0
GCC_except_table0
GCC_except_table0
GCC_except_table0
GCC_except_table0
GCC_except_table0
GCC_except_table1
GCC_except_table1
GCC_except_table1
GCC_except_table1
GCC_except_table1
GCC_except_table1
GCC_except_table1
GCC_except_table1
GCC_except_table1
GCC_except_table1
GCC_except_table1
GCC_except_table1
GCC_except_table1
GCC_except_table1
GCC_except_table10
GCC_except_table10
GCC_except_table10
GCC_except_table10
GCC_except_table10
GCC_except_table10
GCC_except_table10
GCC_except_table10
GCC_except_table10
GCC_except_table10
GCC_except_table100
GCC_except_table100
GCC_except_table100
GCC_except_table100
GCC_except_table100
GCC_except_table1008
GCC_except_table101
GCC_except_table101
GCC_except_table101
GCC_except_table101
GCC_except_table101
GCC_except_table1014
GCC_except_table1019
GCC_except_table102
GCC_except_table102
GCC_except_table102
GCC_except_table1020
GCC_except_table1021
GCC_except_table1023
GCC_except_table103
GCC_except_table103
GCC_except_table103
GCC_except_table103
GCC_except_table103
GCC_except_table1032
GCC_except_table1038
GCC_except_table104
GCC_except_table104
GCC_except_table104
GCC_except_table104
GCC_except_table104
GCC_except_table1043
GCC_except_table1044
GCC_except_table1045
GCC_except_table1047
GCC_except_table105
GCC_except_table105
GCC_except_table105
GCC_except_table105
GCC_except_table105
GCC_except_table1056
GCC_except_table106
GCC_except_table106
GCC_except_table106
GCC_except_table106
GCC_except_table106
GCC_except_table1062
GCC_except_table1067
GCC_except_table107
GCC_except_table107
GCC_except_table107
GCC_except_table107
GCC_except_table107
GCC_except_table107
GCC_except_table107
GCC_except_table107
GCC_except_table107
GCC_except_table108
GCC_except_table108
GCC_except_table108
GCC_except_table108
GCC_except_table108
GCC_except_table108
GCC_except_table108
GCC_except_table109
GCC_except_table109
GCC_except_table109
GCC_except_table109
GCC_except_table109
GCC_except_table11
GCC_except_table11
GCC_except_table11
GCC_except_table11
GCC_except_table11
GCC_except_table11
GCC_except_table11
GCC_except_table11
GCC_except_table11
GCC_except_table11
GCC_except_table110
GCC_except_table110
GCC_except_table110
GCC_except_table110
GCC_except_table110
GCC_except_table110
GCC_except_table110
GCC_except_table111
GCC_except_table111
GCC_except_table111
GCC_except_table111
GCC_except_table1111
GCC_except_table1112
GCC_except_table1113
GCC_except_table1114
GCC_except_table1115
GCC_except_table1116
GCC_except_table1117
GCC_except_table1118
GCC_except_table112
GCC_except_table112
GCC_except_table112
GCC_except_table112
GCC_except_table112
GCC_except_table113
GCC_except_table113
GCC_except_table113
GCC_except_table113
GCC_except_table113
GCC_except_table114
GCC_except_table114
GCC_except_table114
GCC_except_table114
GCC_except_table114
GCC_except_table115
GCC_except_table115
GCC_except_table115
GCC_except_table115
GCC_except_table115
GCC_except_table115
GCC_except_table116
GCC_except_table116
GCC_except_table116
GCC_except_table116
GCC_except_table116
GCC_except_table116
GCC_except_table116
GCC_except_table117
GCC_except_table117
GCC_except_table117
GCC_except_table118
GCC_except_table118
GCC_except_table118
GCC_except_table119
GCC_except_table119
GCC_except_table119
GCC_except_table119
GCC_except_table119
GCC_except_table12
GCC_except_table12
GCC_except_table12
GCC_except_table12
GCC_except_table12
GCC_except_table12
GCC_except_table12
GCC_except_table12
GCC_except_table12
GCC_except_table120
GCC_except_table120
GCC_except_table120
GCC_except_table120
GCC_except_table121
GCC_except_table121
GCC_except_table122
GCC_except_table122
GCC_except_table122
GCC_except_table123
GCC_except_table124
GCC_except_table124
GCC_except_table124
GCC_except_table124
GCC_except_table124
GCC_except_table125
GCC_except_table125
GCC_except_table125
GCC_except_table125
GCC_except_table126
GCC_except_table126
GCC_except_table127
GCC_except_table127
GCC_except_table128
GCC_except_table128
GCC_except_table128
GCC_except_table128
GCC_except_table129
GCC_except_table129
GCC_except_table129
GCC_except_table129
GCC_except_table13
GCC_except_table13
GCC_except_table13
GCC_except_table13
GCC_except_table13
GCC_except_table13
GCC_except_table13
GCC_except_table13
GCC_except_table13
GCC_except_table13
GCC_except_table13
GCC_except_table13
GCC_except_table13
GCC_except_table13
GCC_except_table130
GCC_except_table131
GCC_except_table131
GCC_except_table131
GCC_except_table131
GCC_except_table132
GCC_except_table132
GCC_except_table132
GCC_except_table133
GCC_except_table133
GCC_except_table133
GCC_except_table133
GCC_except_table133
GCC_except_table134
GCC_except_table134
GCC_except_table134
GCC_except_table135
GCC_except_table135
GCC_except_table136
GCC_except_table136
GCC_except_table136
GCC_except_table136
GCC_except_table136
GCC_except_table136
GCC_except_table136
GCC_except_table137
GCC_except_table137
GCC_except_table137
GCC_except_table138
GCC_except_table138
GCC_except_table138
GCC_except_table139
GCC_except_table139
GCC_except_table139
GCC_except_table139
GCC_except_table14
GCC_except_table14
GCC_except_table14
GCC_except_table14
GCC_except_table14
GCC_except_table14
GCC_except_table14
GCC_except_table14
GCC_except_table14
GCC_except_table14
GCC_except_table140
GCC_except_table140
GCC_except_table140
GCC_except_table140
GCC_except_table140
GCC_except_table141
GCC_except_table141
GCC_except_table142
GCC_except_table142
GCC_except_table142
GCC_except_table143
GCC_except_table143
GCC_except_table144
GCC_except_table145
GCC_except_table146
GCC_except_table146
GCC_except_table147
GCC_except_table147
GCC_except_table147
GCC_except_table148
GCC_except_table148
GCC_except_table148
GCC_except_table149
GCC_except_table149
GCC_except_table149
GCC_except_table149
GCC_except_table149
GCC_except_table149
GCC_except_table149
GCC_except_table15
GCC_except_table15
GCC_except_table15
GCC_except_table15
GCC_except_table15
GCC_except_table15
GCC_except_table15
GCC_except_table15
GCC_except_table15
GCC_except_table15
GCC_except_table15
GCC_except_table15
GCC_except_table150
GCC_except_table150
GCC_except_table150
GCC_except_table150
GCC_except_table151
GCC_except_table151
GCC_except_table151
GCC_except_table151
GCC_except_table151
GCC_except_table152
GCC_except_table152
GCC_except_table152
GCC_except_table152
GCC_except_table152
GCC_except_table152
GCC_except_table153
GCC_except_table153
GCC_except_table153
GCC_except_table153
GCC_except_table154
GCC_except_table154
GCC_except_table154
GCC_except_table155
GCC_except_table155
GCC_except_table155
GCC_except_table155
GCC_except_table156
GCC_except_table156
GCC_except_table156
GCC_except_table157
GCC_except_table157
GCC_except_table157
GCC_except_table157
GCC_except_table158
GCC_except_table158
GCC_except_table158
GCC_except_table158
GCC_except_table159
GCC_except_table159
GCC_except_table16
GCC_except_table16
GCC_except_table16
GCC_except_table16
GCC_except_table16
GCC_except_table16
GCC_except_table160
GCC_except_table160
GCC_except_table160
GCC_except_table161
GCC_except_table161
GCC_except_table161
GCC_except_table161
GCC_except_table162
GCC_except_table162
GCC_except_table162
GCC_except_table162
GCC_except_table163
GCC_except_table163
GCC_except_table163
GCC_except_table163
GCC_except_table163
GCC_except_table163
GCC_except_table163
GCC_except_table163
GCC_except_table164
GCC_except_table164
GCC_except_table164
GCC_except_table164
GCC_except_table165
GCC_except_table165
GCC_except_table166
GCC_except_table166
GCC_except_table166
GCC_except_table166
GCC_except_table166
GCC_except_table167
GCC_except_table167
GCC_except_table167
GCC_except_table168
GCC_except_table168
GCC_except_table169
GCC_except_table169
GCC_except_table169
GCC_except_table169
GCC_except_table17
GCC_except_table17
GCC_except_table17
GCC_except_table17
GCC_except_table17
GCC_except_table17
GCC_except_table17
GCC_except_table17
GCC_except_table17
GCC_except_table170
GCC_except_table172
GCC_except_table173
GCC_except_table173
GCC_except_table173
GCC_except_table174
GCC_except_table174
GCC_except_table175
GCC_except_table175
GCC_except_table176
GCC_except_table177
GCC_except_table177
GCC_except_table178
GCC_except_table178
GCC_except_table178
GCC_except_table179
GCC_except_table179
GCC_except_table179
GCC_except_table18
GCC_except_table18
GCC_except_table18
GCC_except_table18
GCC_except_table18
GCC_except_table18
GCC_except_table18
GCC_except_table180
GCC_except_table180
GCC_except_table180
GCC_except_table180
GCC_except_table180
GCC_except_table181
GCC_except_table181
GCC_except_table181
GCC_except_table182
GCC_except_table182
GCC_except_table183
GCC_except_table183
GCC_except_table184
GCC_except_table184
GCC_except_table184
GCC_except_table185
GCC_except_table185
GCC_except_table186
GCC_except_table186
GCC_except_table186
GCC_except_table186
GCC_except_table187
GCC_except_table188
GCC_except_table188
GCC_except_table189
GCC_except_table189
GCC_except_table189
GCC_except_table189
GCC_except_table19
GCC_except_table19
GCC_except_table19
GCC_except_table19
GCC_except_table19
GCC_except_table19
GCC_except_table19
GCC_except_table19
GCC_except_table19
GCC_except_table19
GCC_except_table19
GCC_except_table19
GCC_except_table190
GCC_except_table190
GCC_except_table190
GCC_except_table191
GCC_except_table191
GCC_except_table192
GCC_except_table192
GCC_except_table193
GCC_except_table193
GCC_except_table195
GCC_except_table195
GCC_except_table195
GCC_except_table196
GCC_except_table198
GCC_except_table199
GCC_except_table199
GCC_except_table2
GCC_except_table2
GCC_except_table2
GCC_except_table2
GCC_except_table2
GCC_except_table2
GCC_except_table2
GCC_except_table2
GCC_except_table20
GCC_except_table20
GCC_except_table20
GCC_except_table20
GCC_except_table20
GCC_except_table20
GCC_except_table20
GCC_except_table20
GCC_except_table20
GCC_except_table20
GCC_except_table201
GCC_except_table202
GCC_except_table202
GCC_except_table203
GCC_except_table203
GCC_except_table204
GCC_except_table204
GCC_except_table205
GCC_except_table205
GCC_except_table206
GCC_except_table206
GCC_except_table207
GCC_except_table207
GCC_except_table208
GCC_except_table208
GCC_except_table209
GCC_except_table21
GCC_except_table21
GCC_except_table21
GCC_except_table21
GCC_except_table21
GCC_except_table21
GCC_except_table21
GCC_except_table21
GCC_except_table21
GCC_except_table21
GCC_except_table21
GCC_except_table21
GCC_except_table21
GCC_except_table210
GCC_except_table210
GCC_except_table211
GCC_except_table212
GCC_except_table212
GCC_except_table213
GCC_except_table213
GCC_except_table214
GCC_except_table214
GCC_except_table214
GCC_except_table215
GCC_except_table216
GCC_except_table218
GCC_except_table22
GCC_except_table22
GCC_except_table22
GCC_except_table22
GCC_except_table22
GCC_except_table22
GCC_except_table22
GCC_except_table22
GCC_except_table22
GCC_except_table22
GCC_except_table220
GCC_except_table223
GCC_except_table225
GCC_except_table227
GCC_except_table227
GCC_except_table227
GCC_except_table229
GCC_except_table23
GCC_except_table23
GCC_except_table23
GCC_except_table23
GCC_except_table23
GCC_except_table23
GCC_except_table23
GCC_except_table23
GCC_except_table23
GCC_except_table23
GCC_except_table230
GCC_except_table231
GCC_except_table231
GCC_except_table231
GCC_except_table232
GCC_except_table232
GCC_except_table233
GCC_except_table233
GCC_except_table234
GCC_except_table234
GCC_except_table235
GCC_except_table235
GCC_except_table236
GCC_except_table237
GCC_except_table237
GCC_except_table238
GCC_except_table238
GCC_except_table239
GCC_except_table24
GCC_except_table24
GCC_except_table24
GCC_except_table24
GCC_except_table24
GCC_except_table24
GCC_except_table240
GCC_except_table241
GCC_except_table242
GCC_except_table243
GCC_except_table243
GCC_except_table244
GCC_except_table245
GCC_except_table246
GCC_except_table246
GCC_except_table247
GCC_except_table247
GCC_except_table248
GCC_except_table248
GCC_except_table249
GCC_except_table249
GCC_except_table25
GCC_except_table25
GCC_except_table25
GCC_except_table25
GCC_except_table25
GCC_except_table25
GCC_except_table25
GCC_except_table25
GCC_except_table25
GCC_except_table251
GCC_except_table253
GCC_except_table253
GCC_except_table255
GCC_except_table255
GCC_except_table258
GCC_except_table258
GCC_except_table259
GCC_except_table26
GCC_except_table26
GCC_except_table26
GCC_except_table26
GCC_except_table26
GCC_except_table26
GCC_except_table260
GCC_except_table260
GCC_except_table260
GCC_except_table260
GCC_except_table261
GCC_except_table261
GCC_except_table262
GCC_except_table262
GCC_except_table262
GCC_except_table262
GCC_except_table263
GCC_except_table263
GCC_except_table264
GCC_except_table268
GCC_except_table269
GCC_except_table269
GCC_except_table27
GCC_except_table27
GCC_except_table27
GCC_except_table27
GCC_except_table27
GCC_except_table27
GCC_except_table27
GCC_except_table270
GCC_except_table271
GCC_except_table273
GCC_except_table273
GCC_except_table273
GCC_except_table275
GCC_except_table277
GCC_except_table279
GCC_except_table279
GCC_except_table28
GCC_except_table28
GCC_except_table28
GCC_except_table28
GCC_except_table28
GCC_except_table28
GCC_except_table28
GCC_except_table280
GCC_except_table281
GCC_except_table282
GCC_except_table282
GCC_except_table282
GCC_except_table283
GCC_except_table283
GCC_except_table284
GCC_except_table284
GCC_except_table285
GCC_except_table285
GCC_except_table286
GCC_except_table286
GCC_except_table287
GCC_except_table288
GCC_except_table288
GCC_except_table289
GCC_except_table29
GCC_except_table29
GCC_except_table29
GCC_except_table29
GCC_except_table29
GCC_except_table29
GCC_except_table29
GCC_except_table29
GCC_except_table29
GCC_except_table290
GCC_except_table294
GCC_except_table294
GCC_except_table295
GCC_except_table296
GCC_except_table297
GCC_except_table297
GCC_except_table297
GCC_except_table298
GCC_except_table3
GCC_except_table3
GCC_except_table3
GCC_except_table3
GCC_except_table3
GCC_except_table3
GCC_except_table3
GCC_except_table3
GCC_except_table3
GCC_except_table3
GCC_except_table3
GCC_except_table3
GCC_except_table3
GCC_except_table3
GCC_except_table3
GCC_except_table3
GCC_except_table30
GCC_except_table30
GCC_except_table30
GCC_except_table301
GCC_except_table301
GCC_except_table302
GCC_except_table303
GCC_except_table303
GCC_except_table303
GCC_except_table306
GCC_except_table307
GCC_except_table307
GCC_except_table308
GCC_except_table308
GCC_except_table309
GCC_except_table31
GCC_except_table31
GCC_except_table31
GCC_except_table31
GCC_except_table31
GCC_except_table31
GCC_except_table31
GCC_except_table310
GCC_except_table310
GCC_except_table312
GCC_except_table313
GCC_except_table317
GCC_except_table318
GCC_except_table319
GCC_except_table32
GCC_except_table32
GCC_except_table32
GCC_except_table32
GCC_except_table32
GCC_except_table32
GCC_except_table32
GCC_except_table321
GCC_except_table323
GCC_except_table323
GCC_except_table325
GCC_except_table325
GCC_except_table326
GCC_except_table326
GCC_except_table327
GCC_except_table327
GCC_except_table327
GCC_except_table33
GCC_except_table33
GCC_except_table33
GCC_except_table33
GCC_except_table33
GCC_except_table33
GCC_except_table33
GCC_except_table33
GCC_except_table330
GCC_except_table330
GCC_except_table330
GCC_except_table331
GCC_except_table331
GCC_except_table332
GCC_except_table333
GCC_except_table333
GCC_except_table334
GCC_except_table336
GCC_except_table336
GCC_except_table336
GCC_except_table338
GCC_except_table339
GCC_except_table34
GCC_except_table34
GCC_except_table34
GCC_except_table34
GCC_except_table34
GCC_except_table34
GCC_except_table34
GCC_except_table340
GCC_except_table341
GCC_except_table341
GCC_except_table343
GCC_except_table343
GCC_except_table345
GCC_except_table345
GCC_except_table345
GCC_except_table347
GCC_except_table348
GCC_except_table349
GCC_except_table35
GCC_except_table35
GCC_except_table35
GCC_except_table35
GCC_except_table35
GCC_except_table35
GCC_except_table35
GCC_except_table35
GCC_except_table351
GCC_except_table352
GCC_except_table353
GCC_except_table354
GCC_except_table355
GCC_except_table355
GCC_except_table356
GCC_except_table356
GCC_except_table357
GCC_except_table358
GCC_except_table358
GCC_except_table358
GCC_except_table36
GCC_except_table36
GCC_except_table36
GCC_except_table36
GCC_except_table36
GCC_except_table36
GCC_except_table36
GCC_except_table360
GCC_except_table360
GCC_except_table360
GCC_except_table361
GCC_except_table361
GCC_except_table362
GCC_except_table362
GCC_except_table363
GCC_except_table363
GCC_except_table364
GCC_except_table365
GCC_except_table366
GCC_except_table367
GCC_except_table367
GCC_except_table368
GCC_except_table368
GCC_except_table369
GCC_except_table369
GCC_except_table37
GCC_except_table37
GCC_except_table37
GCC_except_table37
GCC_except_table37
GCC_except_table37
GCC_except_table37
GCC_except_table37
GCC_except_table370
GCC_except_table371
GCC_except_table371
GCC_except_table372
GCC_except_table373
GCC_except_table375
GCC_except_table375
GCC_except_table378
GCC_except_table378
GCC_except_table379
GCC_except_table38
GCC_except_table38
GCC_except_table38
GCC_except_table38
GCC_except_table38
GCC_except_table38
GCC_except_table38
GCC_except_table38
GCC_except_table38
GCC_except_table380
GCC_except_table380
GCC_except_table381
GCC_except_table381
GCC_except_table382
GCC_except_table383
GCC_except_table383
GCC_except_table384
GCC_except_table384
GCC_except_table385
GCC_except_table386
GCC_except_table39
GCC_except_table39
GCC_except_table39
GCC_except_table39
GCC_except_table39
GCC_except_table39
GCC_except_table39
GCC_except_table391
GCC_except_table391
GCC_except_table392
GCC_except_table393
GCC_except_table393
GCC_except_table397
GCC_except_table399
GCC_except_table4
GCC_except_table4
GCC_except_table4
GCC_except_table4
GCC_except_table4
GCC_except_table4
GCC_except_table4
GCC_except_table40
GCC_except_table40
GCC_except_table40
GCC_except_table40
GCC_except_table40
GCC_except_table40
GCC_except_table40
GCC_except_table402
GCC_except_table402
GCC_except_table403
GCC_except_table404
GCC_except_table404
GCC_except_table405
GCC_except_table405
GCC_except_table406
GCC_except_table406
GCC_except_table407
GCC_except_table408
GCC_except_table41
GCC_except_table41
GCC_except_table41
GCC_except_table41
GCC_except_table41
GCC_except_table41
GCC_except_table41
GCC_except_table41
GCC_except_table412
GCC_except_table413
GCC_except_table415
GCC_except_table417
GCC_except_table42
GCC_except_table42
GCC_except_table42
GCC_except_table42
GCC_except_table42
GCC_except_table42
GCC_except_table421
GCC_except_table423
GCC_except_table423
GCC_except_table425
GCC_except_table426
GCC_except_table426
GCC_except_table427
GCC_except_table428
GCC_except_table428
GCC_except_table429
GCC_except_table43
GCC_except_table43
GCC_except_table43
GCC_except_table43
GCC_except_table43
GCC_except_table43
GCC_except_table43
GCC_except_table43
GCC_except_table432
GCC_except_table433
GCC_except_table434
GCC_except_table44
GCC_except_table44
GCC_except_table44
GCC_except_table44
GCC_except_table44
GCC_except_table44
GCC_except_table44
GCC_except_table441
GCC_except_table444
GCC_except_table446
GCC_except_table447
GCC_except_table447
GCC_except_table448
GCC_except_table449
GCC_except_table45
GCC_except_table45
GCC_except_table45
GCC_except_table45
GCC_except_table45
GCC_except_table45
GCC_except_table452
GCC_except_table453
GCC_except_table454
GCC_except_table455
GCC_except_table456
GCC_except_table46
GCC_except_table46
GCC_except_table46
GCC_except_table46
GCC_except_table46
GCC_except_table46
GCC_except_table46
GCC_except_table46
GCC_except_table465
GCC_except_table465
GCC_except_table467
GCC_except_table468
GCC_except_table469
GCC_except_table47
GCC_except_table47
GCC_except_table47
GCC_except_table47
GCC_except_table47
GCC_except_table47
GCC_except_table47
GCC_except_table47
GCC_except_table47
GCC_except_table47
GCC_except_table470
GCC_except_table471
GCC_except_table475
GCC_except_table476
GCC_except_table476
GCC_except_table477
GCC_except_table477
GCC_except_table478
GCC_except_table479
GCC_except_table48
GCC_except_table48
GCC_except_table48
GCC_except_table48
GCC_except_table48
GCC_except_table48
GCC_except_table48
GCC_except_table48
GCC_except_table480
GCC_except_table481
GCC_except_table488
GCC_except_table489
GCC_except_table49
GCC_except_table49
GCC_except_table49
GCC_except_table49
GCC_except_table49
GCC_except_table49
GCC_except_table49
GCC_except_table49
GCC_except_table491
GCC_except_table494
GCC_except_table495
GCC_except_table499
GCC_except_table5
GCC_except_table5
GCC_except_table5
GCC_except_table5
GCC_except_table5
GCC_except_table5
GCC_except_table5
GCC_except_table5
GCC_except_table50
GCC_except_table50
GCC_except_table50
GCC_except_table50
GCC_except_table50
GCC_except_table50
GCC_except_table50
GCC_except_table500
GCC_except_table500
GCC_except_table501
GCC_except_table501
GCC_except_table503
GCC_except_table504
GCC_except_table505
GCC_except_table51
GCC_except_table51
GCC_except_table51
GCC_except_table51
GCC_except_table51
GCC_except_table512
GCC_except_table513
GCC_except_table515
GCC_except_table515
GCC_except_table516
GCC_except_table517
GCC_except_table518
GCC_except_table519
GCC_except_table52
GCC_except_table52
GCC_except_table52
GCC_except_table52
GCC_except_table52
GCC_except_table52
GCC_except_table52
GCC_except_table52
GCC_except_table522
GCC_except_table524
GCC_except_table524
GCC_except_table525
GCC_except_table525
GCC_except_table526
GCC_except_table528
GCC_except_table528
GCC_except_table53
GCC_except_table53
GCC_except_table53
GCC_except_table53
GCC_except_table53
GCC_except_table53
GCC_except_table53
GCC_except_table53
GCC_except_table530
GCC_except_table537
GCC_except_table537
GCC_except_table539
GCC_except_table54
GCC_except_table54
GCC_except_table54
GCC_except_table54
GCC_except_table54
GCC_except_table543
GCC_except_table544
GCC_except_table548
GCC_except_table549
GCC_except_table549
GCC_except_table55
GCC_except_table55
GCC_except_table55
GCC_except_table55
GCC_except_table55
GCC_except_table55
GCC_except_table55
GCC_except_table55
GCC_except_table55
GCC_except_table550
GCC_except_table552
GCC_except_table56
GCC_except_table56
GCC_except_table56
GCC_except_table56
GCC_except_table56
GCC_except_table56
GCC_except_table56
GCC_except_table56
GCC_except_table56
GCC_except_table56
GCC_except_table560
GCC_except_table561
GCC_except_table562
GCC_except_table563
GCC_except_table564
GCC_except_table565
GCC_except_table567
GCC_except_table57
GCC_except_table57
GCC_except_table57
GCC_except_table57
GCC_except_table57
GCC_except_table57
GCC_except_table57
GCC_except_table57
GCC_except_table570
GCC_except_table572
GCC_except_table573
GCC_except_table576
GCC_except_table58
GCC_except_table58
GCC_except_table58
GCC_except_table58
GCC_except_table58
GCC_except_table58
GCC_except_table58
GCC_except_table585
GCC_except_table587
GCC_except_table59
GCC_except_table59
GCC_except_table59
GCC_except_table59
GCC_except_table59
GCC_except_table59
GCC_except_table59
GCC_except_table59
GCC_except_table591
GCC_except_table593
GCC_except_table594
GCC_except_table595
GCC_except_table596
GCC_except_table596
GCC_except_table597
GCC_except_table598
GCC_except_table599
GCC_except_table6
GCC_except_table6
GCC_except_table6
GCC_except_table6
GCC_except_table6
GCC_except_table6
GCC_except_table6
GCC_except_table6
GCC_except_table6
GCC_except_table60
GCC_except_table60
GCC_except_table60
GCC_except_table600
GCC_except_table602
GCC_except_table604
GCC_except_table605
GCC_except_table606
GCC_except_table61
GCC_except_table61
GCC_except_table61
GCC_except_table61
GCC_except_table61
GCC_except_table61
GCC_except_table61
GCC_except_table61
GCC_except_table61
GCC_except_table611
GCC_except_table613
GCC_except_table617
GCC_except_table62
GCC_except_table62
GCC_except_table62
GCC_except_table62
GCC_except_table62
GCC_except_table621
GCC_except_table622
GCC_except_table622
GCC_except_table623
GCC_except_table624
GCC_except_table626
GCC_except_table629
GCC_except_table63
GCC_except_table63
GCC_except_table63
GCC_except_table63
GCC_except_table63
GCC_except_table63
GCC_except_table63
GCC_except_table63
GCC_except_table63
GCC_except_table631
GCC_except_table632
GCC_except_table633
GCC_except_table634
GCC_except_table635
GCC_except_table635
GCC_except_table637
GCC_except_table638
GCC_except_table639
GCC_except_table64
GCC_except_table64
GCC_except_table64
GCC_except_table64
GCC_except_table64
GCC_except_table64
GCC_except_table64
GCC_except_table641
GCC_except_table641
GCC_except_table643
GCC_except_table645
GCC_except_table646
GCC_except_table647
GCC_except_table647
GCC_except_table648
GCC_except_table649
GCC_except_table65
GCC_except_table65
GCC_except_table65
GCC_except_table65
GCC_except_table65
GCC_except_table65
GCC_except_table65
GCC_except_table65
GCC_except_table65
GCC_except_table650
GCC_except_table659
GCC_except_table66
GCC_except_table66
GCC_except_table66
GCC_except_table66
GCC_except_table66
GCC_except_table66
GCC_except_table66
GCC_except_table66
GCC_except_table66
GCC_except_table66
GCC_except_table665
GCC_except_table67
GCC_except_table67
GCC_except_table67
GCC_except_table67
GCC_except_table67
GCC_except_table67
GCC_except_table67
GCC_except_table670
GCC_except_table671
GCC_except_table672
GCC_except_table674
GCC_except_table68
GCC_except_table68
GCC_except_table68
GCC_except_table68
GCC_except_table68
GCC_except_table68
GCC_except_table68
GCC_except_table68
GCC_except_table68
GCC_except_table68
GCC_except_table68
GCC_except_table683
GCC_except_table689
GCC_except_table69
GCC_except_table69
GCC_except_table69
GCC_except_table69
GCC_except_table69
GCC_except_table69
GCC_except_table69
GCC_except_table69
GCC_except_table694
GCC_except_table697
GCC_except_table7
GCC_except_table7
GCC_except_table7
GCC_except_table7
GCC_except_table7
GCC_except_table7
GCC_except_table7
GCC_except_table7
GCC_except_table7
GCC_except_table70
GCC_except_table70
GCC_except_table70
GCC_except_table70
GCC_except_table70
GCC_except_table70
GCC_except_table70
GCC_except_table70
GCC_except_table70
GCC_except_table70
GCC_except_table700
GCC_except_table709
GCC_except_table71
GCC_except_table71
GCC_except_table71
GCC_except_table71
GCC_except_table71
GCC_except_table71
GCC_except_table71
GCC_except_table71
GCC_except_table711
GCC_except_table716
GCC_except_table72
GCC_except_table72
GCC_except_table72
GCC_except_table72
GCC_except_table72
GCC_except_table72
GCC_except_table72
GCC_except_table72
GCC_except_table72
GCC_except_table72
GCC_except_table72
GCC_except_table72
GCC_except_table721
GCC_except_table724
GCC_except_table727
GCC_except_table73
GCC_except_table73
GCC_except_table73
GCC_except_table73
GCC_except_table73
GCC_except_table73
GCC_except_table73
GCC_except_table73
GCC_except_table73
GCC_except_table73
GCC_except_table736
GCC_except_table738
GCC_except_table74
GCC_except_table74
GCC_except_table74
GCC_except_table74
GCC_except_table74
GCC_except_table742
GCC_except_table747
GCC_except_table75
GCC_except_table75
GCC_except_table75
GCC_except_table75
GCC_except_table75
GCC_except_table750
GCC_except_table751
GCC_except_table753
GCC_except_table76
GCC_except_table76
GCC_except_table76
GCC_except_table76
GCC_except_table76
GCC_except_table76
GCC_except_table76
GCC_except_table762
GCC_except_table764
GCC_except_table768
GCC_except_table77
GCC_except_table77
GCC_except_table77
GCC_except_table77
GCC_except_table77
GCC_except_table77
GCC_except_table77
GCC_except_table77
GCC_except_table77
GCC_except_table773
GCC_except_table776
GCC_except_table779
GCC_except_table78
GCC_except_table78
GCC_except_table78
GCC_except_table788
GCC_except_table79
GCC_except_table79
GCC_except_table79
GCC_except_table79
GCC_except_table79
GCC_except_table79
GCC_except_table790
GCC_except_table794
GCC_except_table799
GCC_except_table8
GCC_except_table8
GCC_except_table8
GCC_except_table8
GCC_except_table8
GCC_except_table8
GCC_except_table8
GCC_except_table80
GCC_except_table80
GCC_except_table80
GCC_except_table80
GCC_except_table800
GCC_except_table801
GCC_except_table803
GCC_except_table81
GCC_except_table81
GCC_except_table81
GCC_except_table81
GCC_except_table812
GCC_except_table818
GCC_except_table82
GCC_except_table82
GCC_except_table82
GCC_except_table82
GCC_except_table82
GCC_except_table82
GCC_except_table823
GCC_except_table824
GCC_except_table825
GCC_except_table827
GCC_except_table83
GCC_except_table83
GCC_except_table83
GCC_except_table83
GCC_except_table83
GCC_except_table83
GCC_except_table836
GCC_except_table838
GCC_except_table84
GCC_except_table84
GCC_except_table84
GCC_except_table84
GCC_except_table842
GCC_except_table847
GCC_except_table848
GCC_except_table849
GCC_except_table85
GCC_except_table85
GCC_except_table85
GCC_except_table85
GCC_except_table85
GCC_except_table851
GCC_except_table86
GCC_except_table86
GCC_except_table86
GCC_except_table86
GCC_except_table86
GCC_except_table86
GCC_except_table86
GCC_except_table86
GCC_except_table860
GCC_except_table866
GCC_except_table87
GCC_except_table87
GCC_except_table87
GCC_except_table87
GCC_except_table87
GCC_except_table871
GCC_except_table874
GCC_except_table875
GCC_except_table877
GCC_except_table88
GCC_except_table88
GCC_except_table88
GCC_except_table88
GCC_except_table88
GCC_except_table88
GCC_except_table88
GCC_except_table886
GCC_except_table888
GCC_except_table89
GCC_except_table89
GCC_except_table89
GCC_except_table89
GCC_except_table89
GCC_except_table89
GCC_except_table892
GCC_except_table897
GCC_except_table9
GCC_except_table9
GCC_except_table9
GCC_except_table90
GCC_except_table90
GCC_except_table90
GCC_except_table90
GCC_except_table90
GCC_except_table90
GCC_except_table90
GCC_except_table900
GCC_except_table901
GCC_except_table903
GCC_except_table91
GCC_except_table91
GCC_except_table91
GCC_except_table91
GCC_except_table91
GCC_except_table91
GCC_except_table912
GCC_except_table914
GCC_except_table918
GCC_except_table92
GCC_except_table92
GCC_except_table92
GCC_except_table92
GCC_except_table92
GCC_except_table92
GCC_except_table92
GCC_except_table92
GCC_except_table923
GCC_except_table924
GCC_except_table925
GCC_except_table927
GCC_except_table93
GCC_except_table93
GCC_except_table93
GCC_except_table93
GCC_except_table93
GCC_except_table93
GCC_except_table93
GCC_except_table936
GCC_except_table94
GCC_except_table94
GCC_except_table94
GCC_except_table94
GCC_except_table94
GCC_except_table94
GCC_except_table94
GCC_except_table942
GCC_except_table947
GCC_except_table948
GCC_except_table949
GCC_except_table95
GCC_except_table95
GCC_except_table95
GCC_except_table95
GCC_except_table95
GCC_except_table951
GCC_except_table96
GCC_except_table96
GCC_except_table96
GCC_except_table960
GCC_except_table966
GCC_except_table97
GCC_except_table97
GCC_except_table97
GCC_except_table97
GCC_except_table97
GCC_except_table971
GCC_except_table972
GCC_except_table975
GCC_except_table98
GCC_except_table98
GCC_except_table98
GCC_except_table98
GCC_except_table98
GCC_except_table98
GCC_except_table98
GCC_except_table98
GCC_except_table984
GCC_except_table99
GCC_except_table99
GCC_except_table99
GCC_except_table99
GCC_except_table99
GCC_except_table990
GCC_except_table995
GCC_except_table996
GCC_except_table999
K256
K512
K_XX_XX
_AES_cbc_encrypt
_AES_decrypt
_AES_encrypt
_AES_set_encrypt_key
_ASN1_ANY_it
_ASN1_BIT_STRING_free
_ASN1_BIT_STRING_it
_ASN1_BIT_STRING_new
_ASN1_BIT_STRING_set
_ASN1_INTEGER_free
_ASN1_INTEGER_get
_ASN1_INTEGER_it
_ASN1_INTEGER_new
_ASN1_INTEGER_set
_ASN1_INTEGER_to_BN
_ASN1_NULL_it
_ASN1_NULL_new
_ASN1_OBJECT_free
_ASN1_OBJECT_it
_ASN1_OBJECT_new
_ASN1_OCTET_STRING_dup
_ASN1_OCTET_STRING_free
_ASN1_OCTET_STRING_it
_ASN1_OCTET_STRING_new
_ASN1_OCTET_STRING_set
_ASN1_SEQUENCE_ANY_it
_ASN1_SEQUENCE_ANY_item_tt
_ASN1_STRING_clear_free
_ASN1_STRING_data
_ASN1_STRING_dup
_ASN1_STRING_free
_ASN1_STRING_length
_ASN1_STRING_new
_ASN1_STRING_set
_ASN1_STRING_set0
_ASN1_STRING_type_new
_ASN1_TYPE_free
_ASN1_TYPE_get
_ASN1_TYPE_get_octetstring
_ASN1_TYPE_new
_ASN1_TYPE_set
_ASN1_TYPE_set_octetstring
_ASN1_bn_print
_ASN1_get_object
_ASN1_item_d2i
_ASN1_item_ex_free
_ASN1_item_ex_i2d
_ASN1_item_ex_new
_ASN1_item_free
_ASN1_item_i2d
_ASN1_item_new
_ASN1_item_pack
_ASN1_object_size
_ASN1_primitive_free
_ASN1_primitive_new
_ASN1_put_eoc
_ASN1_put_object
_ASN1_template_free
_BIGNUM_it
_BIO_indent
_BIO_printf
_BIO_puts
_BIO_snprintf
_BIO_vprintf
_BIO_write
_BN_BLINDING_convert_ex
_BN_BLINDING_create_param
_BN_BLINDING_free
_BN_BLINDING_invert_ex
_BN_BLINDING_new
_BN_BLINDING_thread_id
_BN_BLINDING_update
_BN_CTX_end
_BN_CTX_free
_BN_CTX_get
_BN_CTX_new
_BN_CTX_start
_BN_GENCB_call
_BN_GF2m_add
_BN_GF2m_mod
_BN_GF2m_mod_arr
_BN_GF2m_mod_div
_BN_GF2m_mod_exp_arr
_BN_GF2m_mod_inv
_BN_GF2m_mod_mul
_BN_GF2m_mod_mul_arr
_BN_GF2m_mod_solve_quad_arr
_BN_GF2m_mod_sqr_arr
_BN_GF2m_mod_sqrt_arr
_BN_GF2m_poly2arr
_BN_MONT_CTX_copy
_BN_MONT_CTX_free
_BN_MONT_CTX_new
_BN_MONT_CTX_set
_BN_MONT_CTX_set_locked
_BN_RECP_CTX_free
_BN_RECP_CTX_init
_BN_RECP_CTX_set
_BN_add
_BN_add_word
_BN_asc2bn
_BN_bin2bn
_BN_bn2bin
_BN_bn2dec
_BN_clear_free
_BN_cmp
_BN_consttime_swap
_BN_copy
_BN_dec2bn
_BN_div
_BN_div_recp
_BN_div_word
_BN_dup
_BN_free
_BN_from_montgomery
_BN_generate_prime_ex
_BN_hex2bn
_BN_init
_BN_is_bit_set
_BN_is_prime_fasttest_ex
_BN_kronecker
_BN_kronecker.tab
_BN_lshift
_BN_lshift1
_BN_mask_bits
_BN_mod_add
_BN_mod_add_quick
_BN_mod_exp
_BN_mod_exp2_mont
_BN_mod_exp_mont
_BN_mod_exp_mont_consttime
_BN_mod_exp_mont_word
_BN_mod_exp_recp
_BN_mod_inverse
_BN_mod_lshift1_quick
_BN_mod_lshift_quick
_BN_mod_mul
_BN_mod_mul_montgomery
_BN_mod_mul_reciprocal
_BN_mod_sqr
_BN_mod_sqrt
_BN_mod_sub
_BN_mod_sub_quick
_BN_mod_word
_BN_mul
_BN_mul_word
_BN_new
_BN_nist_mod_224
_BN_nist_mod_224._bignum_nist_p_224_sqr
_BN_nist_mod_521
_BN_nist_mod_521._bignum_nist_p_521_sqr
_BN_nnmod
_BN_num_bits
_BN_num_bits_word
_BN_print
_BN_pseudo_rand
_BN_pseudo_rand_range
_BN_rand
_BN_rand_range
_BN_rshift
_BN_rshift1
_BN_set_bit
_BN_set_negative
_BN_set_word
_BN_sqr
_BN_sub
_BN_sub_word
_BN_to_ASN1_INTEGER
_BN_to_felem
_BN_to_felem
_BN_uadd
_BN_ucmp
_BN_usub
_BN_value_one
_BN_value_one.const_one
_BN_value_one.data_one
_BUF_MEM_grow_clean
_BUF_memdup
_BUF_strlcat
_BUF_strlcpy
_CBIGNUM_it
_CMAC_CTX_copy
_CMAC_CTX_free
_CMAC_CTX_new
_CMAC_Final
_CMAC_Init
_CMAC_Init.zero_iv
_CMAC_Update
_CMS_RecipientInfo_get0_pkey_ctx
_CMS_RecipientInfo_kari_get0_alg
_CMS_RecipientInfo_kari_get0_ctx
_CMS_RecipientInfo_kari_get0_orig_id
_CMS_RecipientInfo_ktri_get0_algs
_CMS_SharedInfo_encode
_CMS_SharedInfo_it
_CMS_SharedInfo_seq_tt
_CMS_SignerInfo_get0_algs
_CMS_SignerInfo_get0_pkey_ctx
_CRYPTO_THREADID_cmp
_CRYPTO_THREADID_cpy
_CRYPTO_THREADID_current
_CRYPTO_THREADID_hash
_CRYPTO_add_lock
_CRYPTO_cleanup_all_ex_data
_CRYPTO_destroy_dynlockid
_CRYPTO_free
_CRYPTO_free_ex_data
_CRYPTO_free_locked
_CRYPTO_gcm128_aad
_CRYPTO_gcm128_decrypt
_CRYPTO_gcm128_decrypt_ctr32
_CRYPTO_gcm128_encrypt
_CRYPTO_gcm128_encrypt_ctr32
_CRYPTO_gcm128_finish
_CRYPTO_gcm128_init
_CRYPTO_gcm128_setiv
_CRYPTO_gcm128_tag
_CRYPTO_lock
_CRYPTO_malloc
_CRYPTO_mem_ctrl
_CRYPTO_memcmp
_CRYPTO_new_ex_data
_CRYPTO_num_locks
_CRYPTO_pop_info
_CRYPTO_push_info_
_CRYPTO_realloc
_CRYPTO_realloc_clean
_CRYPTO_set_dynlock_create_callback
_CRYPTO_set_dynlock_destroy_callback
_CRYPTO_set_dynlock_lock_callback
_CRYPTO_set_ex_data
_CRYPTO_set_id_callback
_CRYPTO_set_locking_callback
_DH_KDF_X9_42
_DH_OpenSSL
_DH_check_pub_key
_DH_compute_key
_DH_compute_key_padded
_DH_free
_DH_generate_key
_DH_generate_parameters_ex
_DH_get_1024_160
_DH_get_1024_160._bignum_dh1024_160_g
_DH_get_1024_160._bignum_dh1024_160_p
_DH_get_1024_160._bignum_dh1024_160_q
_DH_get_2048_224
_DH_get_2048_224._bignum_dh2048_224_g
_DH_get_2048_224._bignum_dh2048_224_p
_DH_get_2048_224._bignum_dh2048_224_q
_DH_get_2048_256
_DH_get_2048_256._bignum_dh2048_256_g
_DH_get_2048_256._bignum_dh2048_256_p
_DH_get_2048_256._bignum_dh2048_256_q
_DH_new
_DH_new_method
_DH_size
_DHparams_aux
_DHparams_it
_DHparams_seq_tt
_DHvparams_it
_DHvparams_seq_tt
_DHxparams_it
_DHxparams_seq_tt
_DSAPrivateKey_aux
_DSAPrivateKey_it
_DSAPrivateKey_seq_tt
_DSAPublicKey_aux
_DSAPublicKey_ch_tt
_DSAPublicKey_it
_DSA_OpenSSL
_DSA_SIG_aux
_DSA_SIG_free
_DSA_SIG_it
_DSA_SIG_new
_DSA_SIG_seq_tt
_DSA_do_sign
_DSA_do_verify
_DSA_dup_DH
_DSA_free
_DSA_generate_key
_DSA_new
_DSA_new_method
_DSA_sign
_DSA_sign_setup
_DSA_size
_DSA_verify
_DSAparams_aux
_DSAparams_it
_DSAparams_seq_tt
_ECDH_KDF_X9_62
_ECDH_OpenSSL
_ECDH_compute_key
_ECDSA_OpenSSL
_ECDSA_SIG_free
_ECDSA_SIG_it
_ECDSA_SIG_new
_ECDSA_SIG_seq_tt
_ECDSA_sign
_ECDSA_sign_setup
_ECDSA_size
_ECDSA_verify
_ECPARAMETERS_it
_ECPARAMETERS_seq_tt
_ECPKPARAMETERS_ch_tt
_ECPKPARAMETERS_it
_ECPKParameters_print
_EC_EX_DATA_free_all_data
_EC_EX_DATA_free_data
_EC_EX_DATA_get_data
_EC_EX_DATA_set_data
_EC_GF2m_simple_method
_EC_GF2m_simple_method.ret
_EC_GFp_mont_method
_EC_GFp_mont_method.ret
_EC_GFp_nistp224_method
_EC_GFp_nistp224_method.ret
_EC_GFp_nistp521_method
_EC_GFp_nistp521_method.ret
_EC_GFp_nistz256_method
_EC_GFp_nistz256_method.ret
_EC_GROUP_clear_free
_EC_GROUP_cmp
_EC_GROUP_copy
_EC_GROUP_dup
_EC_GROUP_free
_EC_GROUP_get0_generator
_EC_GROUP_get0_seed
_EC_GROUP_get_asn1_flag
_EC_GROUP_get_basis_type
_EC_GROUP_get_cofactor
_EC_GROUP_get_curve_GF2m
_EC_GROUP_get_curve_GFp
_EC_GROUP_get_curve_name
_EC_GROUP_get_degree
_EC_GROUP_get_mont_data
_EC_GROUP_get_order
_EC_GROUP_get_point_conversion_form
_EC_GROUP_get_seed_len
_EC_GROUP_have_precompute_mult
_EC_GROUP_method_of
_EC_GROUP_new
_EC_GROUP_new_by_curve_name
_EC_GROUP_new_curve_GF2m
_EC_GROUP_new_curve_GFp
_EC_GROUP_set_asn1_flag
_EC_GROUP_set_curve_GF2m
_EC_GROUP_set_curve_GFp
_EC_GROUP_set_curve_name
_EC_GROUP_set_generator
_EC_GROUP_set_point_conversion_form
_EC_GROUP_set_seed
_EC_KEY_clear_flags
_EC_KEY_copy
_EC_KEY_dup
_EC_KEY_free
_EC_KEY_generate_key
_EC_KEY_get0_group
_EC_KEY_get0_private_key
_EC_KEY_get0_public_key
_EC_KEY_get_conv_form
_EC_KEY_get_enc_flags
_EC_KEY_get_flags
_EC_KEY_get_key_method_data
_EC_KEY_insert_key_method_data
_EC_KEY_new
_EC_KEY_set_enc_flags
_EC_KEY_set_flags
_EC_KEY_set_group
_EC_KEY_set_public_key
_EC_KEY_up_ref
_EC_METHOD_get_field_type
_EC_POINT_add
_EC_POINT_clear_free
_EC_POINT_cmp
_EC_POINT_copy
_EC_POINT_dbl
_EC_POINT_dup
_EC_POINT_free
_EC_POINT_get_affine_coordinates_GF2m
_EC_POINT_get_affine_coordinates_GFp
_EC_POINT_invert
_EC_POINT_is_at_infinity
_EC_POINT_make_affine
_EC_POINT_mul
_EC_POINT_new
_EC_POINT_oct2point
_EC_POINT_point2bn
_EC_POINT_point2oct
_EC_POINT_set_Jprojective_coordinates_GFp
_EC_POINT_set_affine_coordinates_GF2m
_EC_POINT_set_affine_coordinates_GFp
_EC_POINT_set_compressed_coordinates_GF2m
_EC_POINT_set_compressed_coordinates_GFp
_EC_POINT_set_to_infinity
_EC_POINTs_make_affine
_EC_PRIVATEKEY_it
_EC_PRIVATEKEY_seq_tt
_EC_curve_nid2nist
_EC_curve_nist2nid
_ERR_add_error_data
_ERR_add_error_vdata
_ERR_clear_error
_ERR_get_state
_ERR_peek_last_error
_ERR_pop_to_mark
_ERR_put_error
_ERR_set_mark
_EVP_CIPHER_CTX_block_size
_EVP_CIPHER_CTX_cipher
_EVP_CIPHER_CTX_cleanup
_EVP_CIPHER_CTX_copy
_EVP_CIPHER_CTX_ctrl
_EVP_CIPHER_CTX_flags
_EVP_CIPHER_CTX_init
_EVP_CIPHER_CTX_iv_length
_EVP_CIPHER_CTX_key_length
_EVP_CIPHER_CTX_set_key_length
_EVP_CIPHER_asn1_to_param
_EVP_CIPHER_flags
_EVP_CIPHER_param_to_asn1
_EVP_CIPHER_type
_EVP_Cipher
_EVP_CipherInit_ex
_EVP_DecryptFinal_ex
_EVP_DecryptInit_ex
_EVP_DecryptUpdate
_EVP_Digest
_EVP_DigestFinal
_EVP_DigestFinal_ex
_EVP_DigestInit_ex
_EVP_DigestSignFinal
_EVP_DigestSignInit
_EVP_DigestUpdate
_EVP_DigestVerifyInit
_EVP_EncryptFinal_ex
_EVP_EncryptInit_ex
_EVP_EncryptUpdate
_EVP_MD_CTX_cleanup
_EVP_MD_CTX_clear_flags
_EVP_MD_CTX_copy
_EVP_MD_CTX_copy_ex
_EVP_MD_CTX_create
_EVP_MD_CTX_destroy
_EVP_MD_CTX_init
_EVP_MD_CTX_md
_EVP_MD_CTX_set_flags
_EVP_MD_CTX_test_flags
_EVP_MD_block_size
_EVP_MD_size
_EVP_MD_type
_EVP_PKEY_CTX_ctrl
_EVP_PKEY_CTX_dup
_EVP_PKEY_CTX_free
_EVP_PKEY_CTX_get0_peerkey
_EVP_PKEY_CTX_get0_pkey
_EVP_PKEY_CTX_new
_EVP_PKEY_CTX_new_id
_EVP_PKEY_asn1_find
_EVP_PKEY_assign
_EVP_PKEY_bits
_EVP_PKEY_cmp_parameters
_EVP_PKEY_copy_parameters
_EVP_PKEY_derive_set_peer
_EVP_PKEY_free
_EVP_PKEY_get_default_digest_nid
_EVP_PKEY_id
_EVP_PKEY_keygen
_EVP_PKEY_missing_parameters
_EVP_PKEY_new
_EVP_PKEY_new_mac_key
_EVP_PKEY_set1_EC_KEY
_EVP_PKEY_sign
_EVP_PKEY_sign_init
_EVP_PKEY_size
_EVP_PKEY_verify_init
_EVP_aes_128_gcm
_EVP_aes_192_gcm
_EVP_aes_256_gcm
_EVP_get_cipherbyname
_EVP_get_digestbyname
_EVP_sha1
_EVP_sha224
_EVP_sha256
_HMAC_CTX_cleanup
_HMAC_CTX_copy
_HMAC_CTX_init
_HMAC_CTX_set_flags
_HMAC_Final
_HMAC_Init_ex
_HMAC_Update
_Hex
_IPv6AddrToString
_IPv6IPToString
_LONG_it
_MOD_EXP_CTIME_COPY_FROM_PREBUF
_OBJ_NAME_get
_OBJ_bsearch_
_OBJ_bsearch_ex_
_OBJ_dup
_OBJ_find_sigid_algs
_OBJ_find_sigid_by_algs
_OBJ_ln2nid
_OBJ_nid2obj
_OBJ_nid2sn
_OBJ_obj2nid
_OBJ_obj2txt
_OBJ_sn2nid
_ONE
_OPENSSL_atomic_add
_OPENSSL_cleanse
_OPENSSL_cpuid_setup
_OPENSSL_cpuid_setup.trigger
_OPENSSL_ia32_cpuid
_OPENSSL_ia32_rdrand
_OPENSSL_ia32_rdseed
_OPENSSL_ia32cap_P
_OPENSSL_init
_OPENSSL_init.done
_OPENSSL_rdtsc
_OPENSSL_showfatal
_OPENSSL_wipe_cpu
_OSAtomicCompareAndSwap64Barrier
_OSMemoryBarrier
_OpenSSLDie
_PKCS1_MGF1
_PKCS7_RECIP_INFO_get0_alg
_PKCS7_SIGNER_INFO_get0_algs
_PKCS8_pkey_get0
_PKCS8_pkey_set0
_ParseIPv6Addr
_Plat_IsInDebugSession
_Plat_RelativeTicks
_Plat_USTime
_RAND_SSLeay
_RAND_add
_RAND_bytes
_RAND_poll
_RAND_poll.egdsockets
_RAND_poll.randomfiles
_RAND_pseudo_bytes
_RAND_query_egd_bytes
_RAND_seed
_RAND_status
_RSAPrivateKey_aux
_RSAPrivateKey_it
_RSAPrivateKey_seq_tt
_RSAPublicKey_aux
_RSAPublicKey_it
_RSAPublicKey_seq_tt
_RSAZ_1024_mod_exp_avx2
_RSAZ_512_mod_exp
_RSA_OAEP_PARAMS_free
_RSA_OAEP_PARAMS_it
_RSA_OAEP_PARAMS_new
_RSA_OAEP_PARAMS_seq_tt
_RSA_PKCS1_SSLeay
_RSA_PSS_PARAMS_free
_RSA_PSS_PARAMS_it
_RSA_PSS_PARAMS_new
_RSA_PSS_PARAMS_seq_tt
_RSA_X931_hash_id
_RSA_eay_finish
_RSA_eay_init
_RSA_eay_mod_exp
_RSA_eay_private_decrypt
_RSA_eay_private_encrypt
_RSA_eay_public_decrypt
_RSA_eay_public_encrypt
_RSA_free
_RSA_generate_key_ex
_RSA_new
_RSA_new_method
_RSA_padding_add_PKCS1_OAEP
_RSA_padding_add_PKCS1_OAEP_mgf1
_RSA_padding_add_PKCS1_PSS_mgf1
_RSA_padding_add_PKCS1_type_1
_RSA_padding_add_PKCS1_type_2
_RSA_padding_add_SSLv23
_RSA_padding_add_X931
_RSA_padding_add_none
_RSA_padding_check_PKCS1_OAEP
_RSA_padding_check_PKCS1_OAEP_mgf1
_RSA_padding_check_PKCS1_type_1
_RSA_padding_check_PKCS1_type_2
_RSA_padding_check_SSLv23
_RSA_padding_check_X931
_RSA_private_decrypt
_RSA_private_encrypt
_RSA_public_decrypt
_RSA_public_encrypt
_RSA_setup_blinding
_RSA_sign
_RSA_sign_ASN1_OCTET_STRING
_RSA_size
_RSA_verify
_RSA_verify_PKCS1_PSS_mgf1
_SHA1_Final
_SHA1_Init
_SHA1_Update
_SHA224_Init
_SHA256_Final
_SHA256_Init
_SHA256_Update
_SHA512
_SHA512.m
_SHA512_Final
_SHA512_Init
_SHA512_Update
_SteamDatagramClient_Init_InternalV9
_SteamDatagramClient_Internal_SteamAPIKludge
_SteamDatagramClient_Kill
_SteamDatagramClient_SetAppID
_SteamDatagramClient_SetUniverse
_SteamDatagramServer_Init_InternalV2
_SteamDatagramServer_Kill
_SteamDatagram_GetNetworkConfigURL
_SteamDatagram_SetNetworkConfig
_SteamGameServerNetworkingMessages_LibV2
_SteamGameServerNetworkingSockets_LibV12
_SteamNetworkingIPAddr_GetFakeIPType
_SteamNetworkingIPAddr_ParseString
_SteamNetworkingIPAddr_ToString
_SteamNetworkingIdentity_ParseString
_SteamNetworkingIdentity_ToString
_SteamNetworkingMessages_LibV2
_SteamNetworkingSockets_DefaultPreFormatDebugOutputHandler
_SteamNetworkingSockets_LibV12
_SteamNetworkingSockets_Poll
_SteamNetworkingSockets_SetLockAcquiredCallback
_SteamNetworkingSockets_SetLockHeldCallback
_SteamNetworkingSockets_SetLockWaitWarningThreshold
_SteamNetworkingSockets_SetManualPollMode
_SteamNetworkingSockets_SetPreFormatDebugOutputHandler
_SteamNetworkingUtils_GetIPv4FakeIPType
_SteamNetworkingUtils_LibV4
_X509_ALGOR_free
_X509_ALGOR_get0
_X509_ALGOR_it
_X509_ALGOR_new
_X509_ALGOR_seq_tt
_X509_ALGOR_set0
_X509_ALGOR_set_md
_X509_ATTRIBUTE_SET_ch_tt
_X509_ATTRIBUTE_SET_it
_X509_ATTRIBUTE_free
_X509_ATTRIBUTE_it
_X509_ATTRIBUTE_seq_tt
_X509_PUBKEY_get0_param
_X509_PUBKEY_set0_param
_X509_SIG_free
_X509_SIG_it
_X509_SIG_seq_tt
_X509_signature_dump
_X9_62_CHARACTERISTIC_TWO_adb
_X9_62_CHARACTERISTIC_TWO_adbtbl
_X9_62_CHARACTERISTIC_TWO_it
_X9_62_CHARACTERISTIC_TWO_seq_tt
_X9_62_CURVE_it
_X9_62_CURVE_seq_tt
_X9_62_FIELDID_adb
_X9_62_FIELDID_adbtbl
_X9_62_FIELDID_it
_X9_62_FIELDID_seq_tt
_X9_62_PENTANOMIAL_it
_X9_62_PENTANOMIAL_seq_tt
_ZLONG_it
__DefaultRuneLocale
__EC_IPSEC_155_ID3
__EC_IPSEC_185_ID4
__EC_NIST_CHAR2_163B
__EC_NIST_CHAR2_163K
__EC_NIST_CHAR2_233B
__EC_NIST_CHAR2_233K
__EC_NIST_CHAR2_283B
__EC_NIST_CHAR2_283K
__EC_NIST_CHAR2_409B
__EC_NIST_CHAR2_409K
__EC_NIST_CHAR2_571B
__EC_NIST_CHAR2_571K
__EC_NIST_PRIME_192
__EC_NIST_PRIME_224
__EC_NIST_PRIME_384
__EC_NIST_PRIME_521
__EC_SECG_CHAR2_113R1
__EC_SECG_CHAR2_113R2
__EC_SECG_CHAR2_131R1
__EC_SECG_CHAR2_131R2
__EC_SECG_CHAR2_163R1
__EC_SECG_CHAR2_193R1
__EC_SECG_CHAR2_193R2
__EC_SECG_CHAR2_239K1
__EC_SECG_PRIME_112R1
__EC_SECG_PRIME_112R2
__EC_SECG_PRIME_128R1
__EC_SECG_PRIME_128R2
__EC_SECG_PRIME_160K1
__EC_SECG_PRIME_160R1
__EC_SECG_PRIME_160R2
__EC_SECG_PRIME_192K1
__EC_SECG_PRIME_224K1
__EC_SECG_PRIME_256K1
__EC_WTLS_1
__EC_WTLS_12
__EC_WTLS_8
__EC_WTLS_9
__EC_X9_62_CHAR2_163V1
__EC_X9_62_CHAR2_163V2
__EC_X9_62_CHAR2_163V3
__EC_X9_62_CHAR2_176V1
__EC_X9_62_CHAR2_191V1
__EC_X9_62_CHAR2_191V2
__EC_X9_62_CHAR2_191V3
__EC_X9_62_CHAR2_208W1
__EC_X9_62_CHAR2_239V1
__EC_X9_62_CHAR2_239V2
__EC_X9_62_CHAR2_239V3
__EC_X9_62_CHAR2_272W1
__EC_X9_62_CHAR2_304W1
__EC_X9_62_CHAR2_359V1
__EC_X9_62_CHAR2_368W1
__EC_X9_62_CHAR2_431R1
__EC_X9_62_PRIME_192V2
__EC_X9_62_PRIME_192V3
__EC_X9_62_PRIME_239V1
__EC_X9_62_PRIME_239V2
__EC_X9_62_PRIME_239V3
__EC_X9_62_PRIME_256V1
__EC_brainpoolP160r1
__EC_brainpoolP160t1
__EC_brainpoolP192r1
__EC_brainpoolP192t1
__EC_brainpoolP224r1
__EC_brainpoolP224t1
__EC_brainpoolP256r1
__EC_brainpoolP256t1
__EC_brainpoolP320r1
__EC_brainpoolP320t1
__EC_brainpoolP384r1
__EC_brainpoolP384t1
__EC_brainpoolP512r1
__EC_brainpoolP512t1
__GLOBAL__sub_I_csteamnetworkingmessages.cpp
__GLOBAL__sub_I_csteamnetworkingsockets.cpp
__GLOBAL__sub_I_csteamnetworkingsockets_sdr.cpp
__GLOBAL__sub_I_csteamnetworkingsockets_steam.cpp
__GLOBAL__sub_I_descriptor.cc
__GLOBAL__sub_I_descriptor.pb.cc
__GLOBAL__sub_I_extension_set.cc
__GLOBAL__sub_I_platformtime.cpp
__GLOBAL__sub_I_steamdatagram_messages_auth.pb.cc
__GLOBAL__sub_I_steamdatagram_messages_sdr.pb.cc
__GLOBAL__sub_I_steammessages_gamenetworkingui.pb.cc
__GLOBAL__sub_I_steamnetworkingsockets_certstore.cpp
__GLOBAL__sub_I_steamnetworkingsockets_connections.cpp
__GLOBAL__sub_I_steamnetworkingsockets_lowlevel.cpp
__GLOBAL__sub_I_steamnetworkingsockets_messages.pb.cc
__GLOBAL__sub_I_steamnetworkingsockets_messages_certs.pb.cc
__GLOBAL__sub_I_steamnetworkingsockets_messages_udp.pb.cc
__GLOBAL__sub_I_steamnetworkingsockets_p2p.cpp
__GLOBAL__sub_I_steamnetworkingsockets_sdr_common.cpp
__GLOBAL__sub_I_steamnetworkingsockets_thinker.cpp
__GLOBAL__sub_I_utlbuffer.cpp
__Unwind_Resume
__Z10V_snprintfPcmPKcz
__Z10V_strnicmpPKcS0_i
__Z11V_vsnprintfPciPKcP13__va_list_tag
__Z14V_SplitString2PKcPKS0_iR10CUtlVectorIPc10CUtlMemoryIS4_EEb
__Z14V_sprintf_safeILm1024EEiRAT__cPKcz
__Z14V_sprintf_safeILm128EEiRAT__cPKcz
__Z14V_sprintf_safeILm2048EEiRAT__cPKcz
__Z14V_sprintf_safeILm256EEiRAT__cPKcz
__Z14V_sprintf_safeILm32EEiRAT__cPKcz
__Z14V_sprintf_safeILm64EEiRAT__cPKcz
__Z14V_sprintf_safeILm80EEiRAT__cPKcz
__Z14V_sprintf_safeILm88EEiRAT__cPKcz
__Z15V_strupper_fastPc
__Z21V_AllocAndSplitStringPKcS0_R10CUtlVectorIPc10CUtlMemoryIS2_EEb
__Z23BParsePEMHeaderOrFooterRPKcS0_S0_S0_
__Z24OneTimeCryptoInitOpenSSLv
__Z30V_StripTrailingWhitespaceASCIIPc
__Z32SteamNetworkingSockets_GetEnvVarPKc
__Z32UtlMemory_CalcNewAllocationCountiiii
__Z37ESteamNetworkingSocketsCipher_IsValidi
__Z55protobuf_AddDesc_steamdatagram_5fmessages_5fsdr_2eprotov
__Z56protobuf_AddDesc_steamdatagram_5fmessages_5fauth_2eprotov
__Z57protobuf_AddDesc_steammessages_5fgamenetworkingui_2eprotov
__Z58protobuf_AddDesc_steamnetworkingsockets_5fmessages_2eprotov
__Z58protobuf_AssignDesc_steamdatagram_5fmessages_5fsdr_2eprotov
__Z59protobuf_AssignDesc_steamdatagram_5fmessages_5fauth_2eprotov
__Z60protobuf_AssignDesc_steammessages_5fgamenetworkingui_2eprotov
__Z60protobuf_ShutdownFile_steamdatagram_5fmessages_5fsdr_2eprotov
__Z61protobuf_AssignDesc_steamnetworkingsockets_5fmessages_2eprotov
__Z61protobuf_ShutdownFile_steamdatagram_5fmessages_5fauth_2eprotov
__Z62protobuf_ShutdownFile_steammessages_5fgamenetworkingui_2eprotov
__Z63protobuf_ShutdownFile_steamnetworkingsockets_5fmessages_2eprotov
__Z64protobuf_AddDesc_steamnetworkingsockets_5fmessages_5fudp_2eprotov
__Z66protobuf_AddDesc_steamnetworkingsockets_5fmessages_5fcerts_2eprotov
__Z67protobuf_AssignDesc_steamnetworkingsockets_5fmessages_5fudp_2eprotov
__Z69protobuf_AssignDesc_steamnetworkingsockets_5fmessages_5fcerts_2eprotov
__Z69protobuf_ShutdownFile_steamnetworkingsockets_5fmessages_5fudp_2eprotov
__Z71protobuf_ShutdownFile_steamnetworkingsockets_5fmessages_5fcerts_2eprotov
__Z9V_stristrPKcS0_
__Z9V_strncatPcPKcmi
__Z9V_strncmpPKcS0_i
__Z9V_strncpyPcPKcm
__ZGVZL14GetPopIDVectorvE9s_vecList
__ZGVZN25SteamNetworkingSocketsLib27CConnectionTransportUDPBase13Received_DataEPKhixE8msgStats
__ZGVZN7CCrypto19GenerateRandomBlockEPviE16s_dev_urandom_fd
__ZL10g_TickBase
__ZL11AllocStringPKci
__ZL11g_TicksToUS
__ZL13s_pMutexArray
__ZL14GetPopIDVectorv
__ZL16GetPingToClusterPKN25SteamNetworkingSocketsLib17SharedClusterDataE
__ZL16s_mapSDRTestVars
__ZL17BCheckAndEatBytesR10CUtlBufferPKvi
__ZL18ServerMetricsToMsgRKN25SteamNetworkingSocketsLib27SessionSelectQualityMetricsEP52CMsgSteamDatagramClientSwitchedPrimary_RouterQuality
__ZL21g_TickFrequencyDouble
__ZL24s_pConfigFetchInProgress
__ZL30BOpenSSHBinaryReadFixedSizeKeyR10CUtlBufferPvj
__ZL31s_nConfigFetchAttemptsCompleted
__ZL35s_pConversionArrays_NoEscConversion
__ZL40s_pConversionArrays_StringCharConversion
__ZL50InternalGetPingToDataCenterByIndexFromCachedRoutesiPj
__ZL53k_nSteamNetworkingConfig_P2P_Transport_ICE_Enable_All
__ZL57k_nSteamNetworkingConfig_P2P_Transport_ICE_Enable_Default
__ZL8get_boolRKNSt3__13mapINS_12basic_stringIcNS_11char_traitsIcEENS_9allocatorIcEEEEN8picojson5valueENS_4lessIS6_EENS4_INS_4pairIKS6_S8_EEEEEEPKcb
__ZL9InitTicksv
__ZN10CIPAddress10GetHashKeyERKS_
__ZN10CIPAddress13SetFromStringEPKcPt
__ZN10CIPAddress14SetFromSockadrEPKvmPt
__ZN10CIPAddress20BConvertMappedToIPv4Ev
__ZN10CIPAndPort10GetHashKeyERKS_
__ZN10CURLHelper23GetWebAPIURLForUniverseE9EUniverseb11ESteamRealm
__ZN10CUtlBuffer11GetOverflowEi
__ZN10CUtlBuffer11PutOverflowEi
__ZN10CUtlBuffer14EnsureCapacityEi
__ZN10CUtlBuffer18AddNullTerminationEv
__ZN10CUtlBuffer3GetEPvi
__ZN10CUtlBuffer3PutEPKvi
__ZN10CUtlBuffer4SwapERS_
__ZN10CUtlBuffer6PrintfEPKcz
__ZN10CUtlBuffer6PutIntEi
__ZN10CUtlBuffer7PutCharEc
__ZN10CUtlBuffer7SeekGetENS_10SeekType_tEi
__ZN10CUtlBuffer7SeekPutENS_10SeekType_tEi
__ZN10CUtlBuffer8CheckGetEi
__ZN10CUtlBuffer8CheckPutEi
__ZN10CUtlBuffer9PutStringEPKc
__ZN10CUtlBufferC1EPKvii
__ZN10CUtlBufferC1Eiii
__ZN10CUtlBufferC2EPKvii
__ZN10CUtlBufferC2Eiii
__ZN10CUtlVectorI21ServerWithSessionSort10CUtlMemoryIS0_EE10GrowVectorEi
__ZN10CUtlVectorI21ServerWithSessionSort10CUtlMemoryIS0_EE12InsertBeforeEi
__ZN10CUtlVectorI21ServerWithSessionSort10CUtlMemoryIS0_EED2Ev
__ZN10CUtlVectorI6pollfd10CUtlMemoryIS0_EE10GrowVectorEi
__ZN10CUtlVectorI6pollfd10CUtlMemoryIS0_EE12InsertBeforeEi
__ZN10CUtlVectorI6pollfd10CUtlMemoryIS0_EED1Ev
__ZN10CUtlVectorI6pollfd10CUtlMemoryIS0_EED2Ev
__ZN10CUtlVectorIN11CUtlHashMapI10CIPAndPortPN25SteamNetworkingSocketsLib11RelayServerENSt3__18equal_toIS1_EENS1_4HashEE12HashBucket_tE10CUtlMemoryISA_EE10GrowVectorEi
__ZN10CUtlVectorIN11CUtlHashMapI10CIPAndPortPN25SteamNetworkingSocketsLib11RelayServerENSt3__18equal_toIS1_EENS1_4HashEE12HashBucket_tE10CUtlMemoryISA_EE20InsertMultipleBeforeEiiPKSA_
__ZN10CUtlVectorIN11CUtlHashMapI10CIPAndPortPN25SteamNetworkingSocketsLib11RelayServerENSt3__18equal_toIS1_EENS1_4HashEE12HashBucket_tE10CUtlMemoryISA_EED2Ev
__ZN10CUtlVectorIN11CUtlHashMapI10CIPAndPortPN25SteamNetworkingSocketsLib13CSharedSocket10RemoteHostENSt3__18equal_toIS1_EENS1_4HashEE12HashBucket_tE10CUtlMemoryISB_EE10GrowVectorEi
__ZN10CUtlVectorIN11CUtlHashMapI10CIPAndPortPN25SteamNetworkingSocketsLib13CSharedSocket10RemoteHostENSt3__18equal_toIS1_EENS1_4HashEE12HashBucket_tE10CUtlMemoryISB_EE20InsertMultipleBeforeEiiPKSB_
__ZN10CUtlVectorIN11CUtlHashMapI10CIPAndPortPN25SteamNetworkingSocketsLib13CSharedSocket10RemoteHostENSt3__18equal_toIS1_EENS1_4HashEE12HashBucket_tE10CUtlMemoryISB_EED2Ev
__ZN10CUtlVectorIN11CUtlHashMapI21SteamNetworkingIPAddrPN25SteamNetworkingSocketsLib14FakeUDPSessionENSt3__18equal_toIS1_EENS2_25SteamNetworkingIPAddrHashEE12HashBucket_tE10CUtlMemoryISA_EE10GrowVectorEi
__ZN10CUtlVectorIN11CUtlHashMapI21SteamNetworkingIPAddrPN25SteamNetworkingSocketsLib14FakeUDPSessionENSt3__18equal_toIS1_EENS2_25SteamNetworkingIPAddrHashEE12HashBucket_tE10CUtlMemoryISA_EE20InsertMultipleBeforeEiiPKSA_
__ZN10CUtlVectorIN11CUtlHashMapI21SteamNetworkingIPAddrPN25SteamNetworkingSocketsLib14FakeUDPSessionENSt3__18equal_toIS1_EENS2_25SteamNetworkingIPAddrHashEE12HashBucket_tE10CUtlMemoryISA_EED2Ev
__ZN10CUtlVectorIN11CUtlHashMapI23SteamNetworkingIdentityPN25SteamNetworkingSocketsLib30SteamNetworkingMessagesSessionENSt3__18equal_toIS1_EENS2_27SteamNetworkingIdentityHashEE12HashBucket_tE10CUtlMemoryISA_EE10GrowVectorEi
__ZN10CUtlVectorIN11CUtlHashMapI23SteamNetworkingIdentityPN25SteamNetworkingSocketsLib30SteamNetworkingMessagesSessionENSt3__18equal_toIS1_EENS2_27SteamNetworkingIdentityHashEE12HashBucket_tE10CUtlMemoryISA_EE20InsertMultipleBeforeEiiPKSA_
__ZN10CUtlVectorIN11CUtlHashMapI23SteamNetworkingIdentityPN25SteamNetworkingSocketsLib30SteamNetworkingMessagesSessionENSt3__18equal_toIS1_EENS2_27SteamNetworkingIdentityHashEE12HashBucket_tE10CUtlMemoryISA_EED2Ev
__ZN10CUtlVectorIN11CUtlHashMapIN25SteamNetworkingSocketsLib21RemoteConnectionKey_tEPNS1_26CSteamNetworkConnectionP2PENSt3__18equal_toIS2_EENS2_4HashEE12HashBucket_tE10CUtlMemoryISA_EE10GrowVectorEi
__ZN10CUtlVectorIN11CUtlHashMapIN25SteamNetworkingSocketsLib21RemoteConnectionKey_tEPNS1_26CSteamNetworkConnectionP2PENSt3__18equal_toIS2_EENS2_4HashEE12HashBucket_tE10CUtlMemoryISA_EE20InsertMultipleBeforeEiiPKSA_
__ZN10CUtlVectorIN11CUtlHashMapIN25SteamNetworkingSocketsLib21RemoteConnectionKey_tEPNS1_26CSteamNetworkConnectionP2PENSt3__18equal_toIS2_EENS2_4HashEE12HashBucket_tE10CUtlMemoryISA_EED2Ev
__ZN10CUtlVectorIN11CUtlHashMapIN25SteamNetworkingSocketsLib21RemoteConnectionKey_tEPNS1_27CSteamNetworkConnectionBaseENSt3__18equal_toIS2_EENS2_4HashEE12HashBucket_tE10CUtlMemoryISA_EE10GrowVectorEi
__ZN10CUtlVectorIN11CUtlHashMapIN25SteamNetworkingSocketsLib21RemoteConnectionKey_tEPNS1_27CSteamNetworkConnectionBaseENSt3__18equal_toIS2_EENS2_4HashEE12HashBucket_tE10CUtlMemoryISA_EE20InsertMultipleBeforeEiiPKSA_
__ZN10CUtlVectorIN11CUtlHashMapIN25SteamNetworkingSocketsLib21RemoteConnectionKey_tEPNS1_27CSteamNetworkConnectionBaseENSt3__18equal_toIS2_EENS2_4HashEE12HashBucket_tE10CUtlMemoryISA_EED2Ev
__ZN10CUtlVectorIN11CUtlHashMapIN25SteamNetworkingSocketsLib9FakeIPKeyENS1_10FakeIPDataENSt3__18equal_toIS2_EENS2_4HashEE12HashBucket_tE10CUtlMemoryIS9_EE10GrowVectorEi
__ZN10CUtlVectorIN11CUtlHashMapIN25SteamNetworkingSocketsLib9FakeIPKeyENS1_10FakeIPDataENSt3__18equal_toIS2_EENS2_4HashEE12HashBucket_tE10CUtlMemoryIS9_EE20InsertMultipleBeforeEiiPKS9_
__ZN10CUtlVectorIN11CUtlHashMapIN25SteamNetworkingSocketsLib9FakeIPKeyENS1_10FakeIPDataENSt3__18equal_toIS2_EENS2_4HashEE12HashBucket_tE10CUtlMemoryIS9_EED2Ev
__ZN10CUtlVectorIN11CUtlHashMapIiPN25SteamNetworkingSocketsLib17CMessagesEndPointENSt3__18equal_toIiEENS4_4hashIiEEE12HashBucket_tE10CUtlMemoryISA_EE10GrowVectorEi
__ZN10CUtlVectorIN11CUtlHashMapIiPN25SteamNetworkingSocketsLib17CMessagesEndPointENSt3__18equal_toIiEENS4_4hashIiEEE12HashBucket_tE10CUtlMemoryISA_EE20InsertMultipleBeforeEiiPKSA_
__ZN10CUtlVectorIN11CUtlHashMapIiPN25SteamNetworkingSocketsLib17CMessagesEndPointENSt3__18equal_toIiEENS4_4hashIiEEE12HashBucket_tE10CUtlMemoryISA_EED2Ev
__ZN10CUtlVectorIN11CUtlHashMapIiPN25SteamNetworkingSocketsLib22CSteamNetworkPollGroupENSt3__18equal_toIiEENS1_8IdentityIiEEE12HashBucket_tE10CUtlMemoryISA_EE10GrowVectorEi
__ZN10CUtlVectorIN11CUtlHashMapIiPN25SteamNetworkingSocketsLib22CSteamNetworkPollGroupENSt3__18equal_toIiEENS1_8IdentityIiEEE12HashBucket_tE10CUtlMemoryISA_EE20InsertMultipleBeforeEiiPKSA_
__ZN10CUtlVectorIN11CUtlHashMapIiPN25SteamNetworkingSocketsLib22CSteamNetworkPollGroupENSt3__18equal_toIiEENS1_8IdentityIiEEE12HashBucket_tE10CUtlMemoryISA_EED2Ev
__ZN10CUtlVectorIN11CUtlHashMapIiPN25SteamNetworkingSocketsLib24CSteamNetworkingMessages7ChannelENSt3__18equal_toIiEENS5_4hashIiEEE12HashBucket_tE10CUtlMemoryISB_EE10GrowVectorEi
__ZN10CUtlVectorIN11CUtlHashMapIiPN25SteamNetworkingSocketsLib24CSteamNetworkingMessages7ChannelENSt3__18equal_toIiEENS5_4hashIiEEE12HashBucket_tE10CUtlMemoryISB_EE20InsertMultipleBeforeEiiPKSB_
__ZN10CUtlVectorIN11CUtlHashMapIiPN25SteamNetworkingSocketsLib24CSteamNetworkingMessages7ChannelENSt3__18equal_toIiEENS5_4hashIiEEE12HashBucket_tE10CUtlMemoryISB_EED2Ev
__ZN10CUtlVectorIN11CUtlHashMapIiPN25SteamNetworkingSocketsLib28CSteamNetworkListenSocketP2PENSt3__18equal_toIiEENS4_4hashIiEEE12HashBucket_tE10CUtlMemoryISA_EE10GrowVectorEi
__ZN10CUtlVectorIN11CUtlHashMapIiPN25SteamNetworkingSocketsLib28CSteamNetworkListenSocketP2PENSt3__18equal_toIiEENS4_4hashIiEEE12HashBucket_tE10CUtlMemoryISA_EE20InsertMultipleBeforeEiiPKSA_
__ZN10CUtlVectorIN11CUtlHashMapIiPN25SteamNetworkingSocketsLib28CSteamNetworkListenSocketP2PENSt3__18equal_toIiEENS4_4hashIiEEE12HashBucket_tE10CUtlMemoryISA_EED2Ev
__ZN10CUtlVectorIN11CUtlHashMapIiPN25SteamNetworkingSocketsLib29CSteamNetworkListenSocketBaseENSt3__18equal_toIiEENS1_8IdentityIiEEE12HashBucket_tE10CUtlMemoryISA_EE10GrowVectorEi
__ZN10CUtlVectorIN11CUtlHashMapIiPN25SteamNetworkingSocketsLib29CSteamNetworkListenSocketBaseENSt3__18equal_toIiEENS1_8IdentityIiEEE12HashBucket_tE10CUtlMemoryISA_EE20InsertMultipleBeforeEiiPKSA_
__ZN10CUtlVectorIN11CUtlHashMapIiPN25SteamNetworkingSocketsLib29CSteamNetworkListenSocketBaseENSt3__18equal_toIiEENS1_8IdentityIiEEE12HashBucket_tE10CUtlMemoryISA_EED2Ev
__ZN10CUtlVectorIN11CUtlHashMapIibNSt3__18equal_toIiEENS1_4hashIiEEE12HashBucket_tE10CUtlMemoryIS7_EE10GrowVectorEi
__ZN10CUtlVectorIN11CUtlHashMapIibNSt3__18equal_toIiEENS1_4hashIiEEE12HashBucket_tE10CUtlMemoryIS7_EE20InsertMultipleBeforeEiiPKS7_
__ZN10CUtlVectorIN11CUtlHashMapIibNSt3__18equal_toIiEENS1_4hashIiEEE12HashBucket_tE10CUtlMemoryIS7_EED2Ev
__ZN10CUtlVectorIN11CUtlHashMapIjN25SteamNetworkingSocketsLib17SharedClusterData14DataCenterPingENSt3__18equal_toIjEENS4_4hashIjEEE12HashBucket_tE10CUtlMemoryISA_EE10GrowVectorEi
__ZN10CUtlVectorIN11CUtlHashMapIjN25SteamNetworkingSocketsLib17SharedClusterData14DataCenterPingENSt3__18equal_toIjEENS4_4hashIjEEE12HashBucket_tE10CUtlMemoryISA_EE20InsertMultipleBeforeEiiPKSA_
__ZN10CUtlVectorIN11CUtlHashMapIjN25SteamNetworkingSocketsLib17SharedClusterData14DataCenterPingENSt3__18equal_toIjEENS4_4hashIjEEE12HashBucket_tE10CUtlMemoryISA_EED2Ev
__ZN10CUtlVectorIN11CUtlHashMapIjPN25SteamNetworkingSocketsLib17SharedClusterDataENSt3__18equal_toIjEENS4_4hashIjEEE12HashBucket_tE10CUtlMemoryISA_EE10GrowVectorEi
__ZN10CUtlVectorIN11CUtlHashMapIjPN25SteamNetworkingSocketsLib17SharedClusterDataENSt3__18equal_toIjEENS4_4hashIjEEE12HashBucket_tE10CUtlMemoryISA_EE20InsertMultipleBeforeEiiPKSA_
__ZN10CUtlVectorIN11CUtlHashMapIjPN25SteamNetworkingSocketsLib17SharedClusterDataENSt3__18equal_toIjEENS4_4hashIjEEE12HashBucket_tE10CUtlMemoryISA_EED2Ev
__ZN10CUtlVectorIN11CUtlHashMapIjPN25SteamNetworkingSocketsLib24CMessagesEndPointSessionENSt3__18equal_toIjEENS4_4hashIjEEE12HashBucket_tE10CUtlMemoryISA_EE10GrowVectorEi
__ZN10CUtlVectorIN11CUtlHashMapIjPN25SteamNetworkingSocketsLib24CMessagesEndPointSessionENSt3__18equal_toIjEENS4_4hashIjEEE12HashBucket_tE10CUtlMemoryISA_EE20InsertMultipleBeforeEiiPKSA_
__ZN10CUtlVectorIN11CUtlHashMapIjPN25SteamNetworkingSocketsLib24CMessagesEndPointSessionENSt3__18equal_toIjEENS4_4hashIjEEE12HashBucket_tE10CUtlMemoryISA_EED2Ev
__ZN10CUtlVectorIN11CUtlHashMapItPN25SteamNetworkingSocketsLib27CSteamNetworkConnectionBaseENSt3__18equal_toItEENS1_8IdentityItEEE12HashBucket_tE10CUtlMemoryISA_EE10GrowVectorEi
__ZN10CUtlVectorIN11CUtlHashMapItPN25SteamNetworkingSocketsLib27CSteamNetworkConnectionBaseENSt3__18equal_toItEENS1_8IdentityItEEE12HashBucket_tE10CUtlMemoryISA_EE20InsertMultipleBeforeEiiPKSA_
__ZN10CUtlVectorIN11CUtlHashMapItPN25SteamNetworkingSocketsLib27CSteamNetworkConnectionBaseENSt3__18equal_toItEENS1_8IdentityItEEE12HashBucket_tE10CUtlMemoryISA_EED2Ev
__ZN10CUtlVectorIN11CUtlHashMapIyNSt3__110unique_ptrIN25SteamNetworkingSocketsLib9PublicKeyENS1_14default_deleteIS4_EEEENS1_8equal_toIyEENS1_4hashIyEEE12HashBucket_tE10CUtlMemoryISD_EE10GrowVectorEi
__ZN10CUtlVectorIN11CUtlHashMapIyNSt3__110unique_ptrIN25SteamNetworkingSocketsLib9PublicKeyENS1_14default_deleteIS4_EEEENS1_8equal_toIyEENS1_4hashIyEEE12HashBucket_tE10CUtlMemoryISD_EE20InsertMultipleBeforeEiiPKSD_
__ZN10CUtlVectorIN11CUtlHashMapIyNSt3__110unique_ptrIN25SteamNetworkingSocketsLib9PublicKeyENS1_14default_deleteIS4_EEEENS1_8equal_toIyEENS1_4hashIyEEE12HashBucket_tE10CUtlMemoryISD_EED2Ev
__ZN10CUtlVectorIN25SteamNetworkingSocketsLib17SharedClusterData13FailedAddressE15CUtlMemoryFixedIS2_Lm3EEE12InsertBeforeEiRKS2_
__ZN10CUtlVectorIN25SteamNetworkingSocketsLib21CachedRelayAuthTicketE15CUtlMemoryFixedIS1_Lm10EEE12InsertBeforeEi
__ZN10CUtlVectorIN25SteamNetworkingSocketsLib21CachedRelayAuthTicketE15CUtlMemoryFixedIS1_Lm10EEE6RemoveEi
__ZN10CUtlVectorIN25SteamNetworkingSocketsLib21CachedRelayAuthTicketE15CUtlMemoryFixedIS1_Lm10EEE9RemoveAllEv
__ZN10CUtlVectorIN25SteamNetworkingSocketsLib21RouterDowntimeWarningE10CUtlMemoryIS1_EE10GrowVectorEi
__ZN10CUtlVectorIN25SteamNetworkingSocketsLib21RouterDowntimeWarningE10CUtlMemoryIS1_EE12InsertBeforeEi
__ZN10CUtlVectorIN25SteamNetworkingSocketsLib21RouterDowntimeWarningE10CUtlMemoryIS1_EE6RemoveEi
__ZN10CUtlVectorIN25SteamNetworkingSocketsLib21RouterDowntimeWarningE10CUtlMemoryIS1_EED1Ev
__ZN10CUtlVectorIN25SteamNetworkingSocketsLib21RouterDowntimeWarningE10CUtlMemoryIS1_EED2Ev
__ZN10CUtlVectorIN25SteamNetworkingSocketsLib23CachedDataCenterRoute_tE15CUtlMemoryFixedIS1_Lm3EEE12InsertBeforeEiRKS1_
__ZN10CUtlVectorIN25SteamNetworkingSocketsLib23CachedDataCenterRoute_tE15CUtlMemoryFixedIS1_Lm3EEE8SetCountEi
__ZN10CUtlVectorIN25SteamNetworkingSocketsLib23CachedDataCenterRoute_tE15CUtlMemoryFixedIS1_Lm3EEE9CopyArrayEPKS1_i
__ZN10CUtlVectorIN25SteamNetworkingSocketsLib27CConnectionTransportSDRBase25SavedServerQualityMetricsE10CUtlMemoryIS2_EE10GrowVectorEi
__ZN10CUtlVectorIN25SteamNetworkingSocketsLib27CConnectionTransportSDRBase25SavedServerQualityMetricsE10CUtlMemoryIS2_EE12InsertBeforeEiRKS2_
__ZN10CUtlVectorIN25SteamNetworkingSocketsLib27CConnectionTransportSDRBase25SavedServerQualityMetricsE10CUtlMemoryIS2_EED2Ev
__ZN10CUtlVectorIPN25SteamNetworkingSocketsLib12RelaySessionE10CUtlMemoryIS2_EE10FastRemoveEi
__ZN10CUtlVectorIPN25SteamNetworkingSocketsLib12RelaySessionE10CUtlMemoryIS2_EE10GrowVectorEi
__ZN10CUtlVectorIPN25SteamNetworkingSocketsLib12RelaySessionE10CUtlMemoryIS2_EE17FindAndFastRemoveERKS2_
__ZN10CUtlVectorIPN25SteamNetworkingSocketsLib12RelaySessionE10CUtlMemoryIS2_EE9AddToTailEOS2_
__ZN10CUtlVectorIPN25SteamNetworkingSocketsLib12RelaySessionE10CUtlMemoryIS2_EED2Ev
__ZN10CUtlVectorIPN25SteamNetworkingSocketsLib12RelaySessionE15CUtlMemoryFixedIS2_Lm2EEE12InsertBeforeEiRKS2_
__ZN10CUtlVectorIPN25SteamNetworkingSocketsLib12RelaySessionE15CUtlMemoryFixedIS2_Lm2EEE17AddMultipleToTailEiPKS2_
__ZN10CUtlVectorIPN25SteamNetworkingSocketsLib12RelaySessionE15CUtlMemoryFixedIS2_Lm2EEE20InsertMultipleBeforeEiiPKS2_
__ZN10CUtlVectorIPN25SteamNetworkingSocketsLib12RelaySessionE15CUtlMemoryFixedIS2_Lm2EEE22RemoveMultipleFromTailEi
__ZN10CUtlVectorIPN25SteamNetworkingSocketsLib12RelaySessionE15CUtlMemoryFixedIS2_Lm2EEE9AddToTailEOS2_
__ZN10CUtlVectorIPN25SteamNetworkingSocketsLib17CRawUDPSocketImplE10CUtlMemoryIS2_EE10GrowVectorEi
__ZN10CUtlVectorIPN25SteamNetworkingSocketsLib17CRawUDPSocketImplE10CUtlMemoryIS2_EE12InsertBeforeEiRKS2_
__ZN10CUtlVectorIPN25SteamNetworkingSocketsLib17CRawUDPSocketImplE10CUtlMemoryIS2_EE6RemoveEi
__ZN10CUtlVectorIPN25SteamNetworkingSocketsLib17CRawUDPSocketImplE10CUtlMemoryIS2_EED1Ev
__ZN10CUtlVectorIPN25SteamNetworkingSocketsLib17CRawUDPSocketImplE10CUtlMemoryIS2_EED2Ev
__ZN10CUtlVectorIPN25SteamNetworkingSocketsLib27CSteamNetworkConnectionBaseE10CUtlMemoryIS2_EE10FastRemoveEi
__ZN10CUtlVectorIPN25SteamNetworkingSocketsLib27CSteamNetworkConnectionBaseE10CUtlMemoryIS2_EE10GrowVectorEi
__ZN10CUtlVectorIPN25SteamNetworkingSocketsLib27CSteamNetworkConnectionBaseE10CUtlMemoryIS2_EE17FindAndFastRemoveERKS2_
__ZN10CUtlVectorIPN25SteamNetworkingSocketsLib27CSteamNetworkConnectionBaseE10CUtlMemoryIS2_EE9AddToTailEOS2_
__ZN10CUtlVectorIPN25SteamNetworkingSocketsLib27CSteamNetworkConnectionBaseE10CUtlMemoryIS2_EED2Ev
__ZN10CUtlVectorIPN25SteamNetworkingSocketsLib8IThinkerE10CUtlMemoryIS2_EE10FastRemoveEi
__ZN10CUtlVectorIPN25SteamNetworkingSocketsLib8IThinkerE10CUtlMemoryIS2_EE10GrowVectorEi
__ZN10CUtlVectorIPN25SteamNetworkingSocketsLib8IThinkerE10CUtlMemoryIS2_EE12InsertBeforeEi
__ZN10CUtlVectorIPN25SteamNetworkingSocketsLib8IThinkerE10CUtlMemoryIS2_EED2Ev
__ZN10CUtlVectorIPc10CUtlMemoryIS0_EE10GrowVectorEi
__ZN10CUtlVectorIPc10CUtlMemoryIS0_EE22PurgeAndDeleteElementsEv
__ZN10CUtlVectorIPc10CUtlMemoryIS0_EE9AddToTailEOS0_
__ZN10CUtlVectorIPc10CUtlMemoryIS0_EED2Ev
__ZN10CUtlVectorIt15CUtlMemoryFixedItLm256EEE9AddToTailEOt
__ZN11CUtlHashMapI10CIPAndPortPN25SteamNetworkingSocketsLib11RelayServerENSt3__18equal_toIS0_EENS0_4HashEE14EnsureCapacityEi
__ZN11CUtlHashMapI10CIPAndPortPN25SteamNetworkingSocketsLib11RelayServerENSt3__18equal_toIS0_EENS0_4HashEE17IncrementalRehashEv
__ZN11CUtlHashMapI10CIPAndPortPN25SteamNetworkingSocketsLib11RelayServerENSt3__18equal_toIS0_EENS0_4HashEE19InsertUnconstructedIRKS0_EEiOT_Pib
__ZN11CUtlHashMapI10CIPAndPortPN25SteamNetworkingSocketsLib11RelayServerENSt3__18equal_toIS0_EENS0_4HashEE19RehashNodesInBucketEi
__ZN11CUtlHashMapI10CIPAndPortPN25SteamNetworkingSocketsLib11RelayServerENSt3__18equal_toIS0_EENS0_4HashEE20RemoveNodeFromBucketEii
__ZN11CUtlHashMapI10CIPAndPortPN25SteamNetworkingSocketsLib11RelayServerENSt3__18equal_toIS0_EENS0_4HashEE21FindOrInsert_InternalIRKS0_S3_EEiOT_OT0_NS8_15ReplaceExistingE
__ZN11CUtlHashMapI10CIPAndPortPN25SteamNetworkingSocketsLib11RelayServerENSt3__18equal_toIS0_EENS0_4HashEE8RemoveAtEi
__ZN11CUtlHashMapI10CIPAndPortPN25SteamNetworkingSocketsLib11RelayServerENSt3__18equal_toIS0_EENS0_4HashEE9AllocNodeEv
__ZN11CUtlHashMapI10CIPAndPortPN25SteamNetworkingSocketsLib11RelayServerENSt3__18equal_toIS0_EENS0_4HashEEC2Ev
__ZN11CUtlHashMapI10CIPAndPortPN25SteamNetworkingSocketsLib11RelayServerENSt3__18equal_toIS0_EENS0_4HashEED1Ev
__ZN11CUtlHashMapI10CIPAndPortPN25SteamNetworkingSocketsLib11RelayServerENSt3__18equal_toIS0_EENS0_4HashEED2Ev
__ZN11CUtlHashMapI10CIPAndPortPN25SteamNetworkingSocketsLib13CSharedSocket10RemoteHostENSt3__18equal_toIS0_EENS0_4HashEE14EnsureCapacityEi
__ZN11CUtlHashMapI10CIPAndPortPN25SteamNetworkingSocketsLib13CSharedSocket10RemoteHostENSt3__18equal_toIS0_EENS0_4HashEE17IncrementalRehashEv
__ZN11CUtlHashMapI10CIPAndPortPN25SteamNetworkingSocketsLib13CSharedSocket10RemoteHostENSt3__18equal_toIS0_EENS0_4HashEE19InsertUnconstructedIRKS0_EEiOT_Pib
__ZN11CUtlHashMapI10CIPAndPortPN25SteamNetworkingSocketsLib13CSharedSocket10RemoteHostENSt3__18equal_toIS0_EENS0_4HashEE19RehashNodesInBucketEi
__ZN11CUtlHashMapI10CIPAndPortPN25SteamNetworkingSocketsLib13CSharedSocket10RemoteHostENSt3__18equal_toIS0_EENS0_4HashEE20RemoveNodeFromBucketEii
__ZN11CUtlHashMapI10CIPAndPortPN25SteamNetworkingSocketsLib13CSharedSocket10RemoteHostENSt3__18equal_toIS0_EENS0_4HashEE21FindOrInsert_InternalIRKS0_RKS4_EEiOT_OT0_NS9_15ReplaceExistingE
__ZN11CUtlHashMapI10CIPAndPortPN25SteamNetworkingSocketsLib13CSharedSocket10RemoteHostENSt3__18equal_toIS0_EENS0_4HashEE8RemoveAtEi
__ZN11CUtlHashMapI10CIPAndPortPN25SteamNetworkingSocketsLib13CSharedSocket10RemoteHostENSt3__18equal_toIS0_EENS0_4HashEE9AllocNodeEv
__ZN11CUtlHashMapI10CIPAndPortPN25SteamNetworkingSocketsLib13CSharedSocket10RemoteHostENSt3__18equal_toIS0_EENS0_4HashEEC2Ev
__ZN11CUtlHashMapI10CIPAndPortPN25SteamNetworkingSocketsLib13CSharedSocket10RemoteHostENSt3__18equal_toIS0_EENS0_4HashEED2Ev
__ZN11CUtlHashMapI21SteamNetworkingIPAddrPN25SteamNetworkingSocketsLib14FakeUDPSessionENSt3__18equal_toIS0_EENS1_25SteamNetworkingIPAddrHashEE14EnsureCapacityEi
__ZN11CUtlHashMapI21SteamNetworkingIPAddrPN25SteamNetworkingSocketsLib14FakeUDPSessionENSt3__18equal_toIS0_EENS1_25SteamNetworkingIPAddrHashEE17IncrementalRehashEv
__ZN11CUtlHashMapI21SteamNetworkingIPAddrPN25SteamNetworkingSocketsLib14FakeUDPSessionENSt3__18equal_toIS0_EENS1_25SteamNetworkingIPAddrHashEE19InsertUnconstructedIRKS0_EEiOT_Pib
__ZN11CUtlHashMapI21SteamNetworkingIPAddrPN25SteamNetworkingSocketsLib14FakeUDPSessionENSt3__18equal_toIS0_EENS1_25SteamNetworkingIPAddrHashEE19RehashNodesInBucketEi
__ZN11CUtlHashMapI21SteamNetworkingIPAddrPN25SteamNetworkingSocketsLib14FakeUDPSessionENSt3__18equal_toIS0_EENS1_25SteamNetworkingIPAddrHashEE20RemoveNodeFromBucketEii
__ZN11CUtlHashMapI21SteamNetworkingIPAddrPN25SteamNetworkingSocketsLib14FakeUDPSessionENSt3__18equal_toIS0_EENS1_25SteamNetworkingIPAddrHashEE21FindOrInsert_InternalIRKS0_RKS3_EEiOT_OT0_NS8_15ReplaceExistingE
__ZN11CUtlHashMapI21SteamNetworkingIPAddrPN25SteamNetworkingSocketsLib14FakeUDPSessionENSt3__18equal_toIS0_EENS1_25SteamNetworkingIPAddrHashEE8RemoveAtEi
__ZN11CUtlHashMapI21SteamNetworkingIPAddrPN25SteamNetworkingSocketsLib14FakeUDPSessionENSt3__18equal_toIS0_EENS1_25SteamNetworkingIPAddrHashEE9AllocNodeEv
__ZN11CUtlHashMapI21SteamNetworkingIPAddrPN25SteamNetworkingSocketsLib14FakeUDPSessionENSt3__18equal_toIS0_EENS1_25SteamNetworkingIPAddrHashEEC2Ev
__ZN11CUtlHashMapI21SteamNetworkingIPAddrPN25SteamNetworkingSocketsLib14FakeUDPSessionENSt3__18equal_toIS0_EENS1_25SteamNetworkingIPAddrHashEED2Ev
__ZN11CUtlHashMapI23SteamNetworkingIdentityPN25SteamNetworkingSocketsLib30SteamNetworkingMessagesSessionENSt3__18equal_toIS0_EENS1_27SteamNetworkingIdentityHashEE14EnsureCapacityEi
__ZN11CUtlHashMapI23SteamNetworkingIdentityPN25SteamNetworkingSocketsLib30SteamNetworkingMessagesSessionENSt3__18equal_toIS0_EENS1_27SteamNetworkingIdentityHashEE17IncrementalRehashEv
__ZN11CUtlHashMapI23SteamNetworkingIdentityPN25SteamNetworkingSocketsLib30SteamNetworkingMessagesSessionENSt3__18equal_toIS0_EENS1_27SteamNetworkingIdentityHashEE19InsertUnconstructedIRKS0_EEiOT_Pib
__ZN11CUtlHashMapI23SteamNetworkingIdentityPN25SteamNetworkingSocketsLib30SteamNetworkingMessagesSessionENSt3__18equal_toIS0_EENS1_27SteamNetworkingIdentityHashEE19RehashNodesInBucketEi
__ZN11CUtlHashMapI23SteamNetworkingIdentityPN25SteamNetworkingSocketsLib30SteamNetworkingMessagesSessionENSt3__18equal_toIS0_EENS1_27SteamNetworkingIdentityHashEE20RemoveNodeFromBucketEii
__ZN11CUtlHashMapI23SteamNetworkingIdentityPN25SteamNetworkingSocketsLib30SteamNetworkingMessagesSessionENSt3__18equal_toIS0_EENS1_27SteamNetworkingIdentityHashEE21FindOrInsert_InternalIRKS0_RKS3_EEiOT_OT0_NS8_15ReplaceExistingE
__ZN11CUtlHashMapI23SteamNetworkingIdentityPN25SteamNetworkingSocketsLib30SteamNetworkingMessagesSessionENSt3__18equal_toIS0_EENS1_27SteamNetworkingIdentityHashEE8RemoveAtEi
__ZN11CUtlHashMapI23SteamNetworkingIdentityPN25SteamNetworkingSocketsLib30SteamNetworkingMessagesSessionENSt3__18equal_toIS0_EENS1_27SteamNetworkingIdentityHashEE9AllocNodeEv
__ZN11CUtlHashMapI23SteamNetworkingIdentityPN25SteamNetworkingSocketsLib30SteamNetworkingMessagesSessionENSt3__18equal_toIS0_EENS1_27SteamNetworkingIdentityHashEEC2Ev
__ZN11CUtlHashMapI23SteamNetworkingIdentityPN25SteamNetworkingSocketsLib30SteamNetworkingMessagesSessionENSt3__18equal_toIS0_EENS1_27SteamNetworkingIdentityHashEED2Ev
__ZN11CUtlHashMapIN25SteamNetworkingSocketsLib21RemoteConnectionKey_tEPNS0_26CSteamNetworkConnectionP2PENSt3__18equal_toIS1_EENS1_4HashEE14EnsureCapacityEi
__ZN11CUtlHashMapIN25SteamNetworkingSocketsLib21RemoteConnectionKey_tEPNS0_26CSteamNetworkConnectionP2PENSt3__18equal_toIS1_EENS1_4HashEE17IncrementalRehashEv
__ZN11CUtlHashMapIN25SteamNetworkingSocketsLib21RemoteConnectionKey_tEPNS0_26CSteamNetworkConnectionP2PENSt3__18equal_toIS1_EENS1_4HashEE19InsertUnconstructedIRKS1_EEiOT_Pib
__ZN11CUtlHashMapIN25SteamNetworkingSocketsLib21RemoteConnectionKey_tEPNS0_26CSteamNetworkConnectionP2PENSt3__18equal_toIS1_EENS1_4HashEE19RehashNodesInBucketEi
__ZN11CUtlHashMapIN25SteamNetworkingSocketsLib21RemoteConnectionKey_tEPNS0_26CSteamNetworkConnectionP2PENSt3__18equal_toIS1_EENS1_4HashEE20RemoveNodeFromBucketEii
__ZN11CUtlHashMapIN25SteamNetworkingSocketsLib21RemoteConnectionKey_tEPNS0_26CSteamNetworkConnectionP2PENSt3__18equal_toIS1_EENS1_4HashEE21FindOrInsert_InternalIRKS1_S3_EEiOT_OT0_NS8_15ReplaceExistingE
__ZN11CUtlHashMapIN25SteamNetworkingSocketsLib21RemoteConnectionKey_tEPNS0_26CSteamNetworkConnectionP2PENSt3__18equal_toIS1_EENS1_4HashEE8RemoveAtEi
__ZN11CUtlHashMapIN25SteamNetworkingSocketsLib21RemoteConnectionKey_tEPNS0_26CSteamNetworkConnectionP2PENSt3__18equal_toIS1_EENS1_4HashEE9AllocNodeEv
__ZN11CUtlHashMapIN25SteamNetworkingSocketsLib21RemoteConnectionKey_tEPNS0_26CSteamNetworkConnectionP2PENSt3__18equal_toIS1_EENS1_4HashEEC2Ev
__ZN11CUtlHashMapIN25SteamNetworkingSocketsLib21RemoteConnectionKey_tEPNS0_26CSteamNetworkConnectionP2PENSt3__18equal_toIS1_EENS1_4HashEED1Ev
__ZN11CUtlHashMapIN25SteamNetworkingSocketsLib21RemoteConnectionKey_tEPNS0_26CSteamNetworkConnectionP2PENSt3__18equal_toIS1_EENS1_4HashEED2Ev
__ZN11CUtlHashMapIN25SteamNetworkingSocketsLib21RemoteConnectionKey_tEPNS0_27CSteamNetworkConnectionBaseENSt3__18equal_toIS1_EENS1_4HashEE14EnsureCapacityEi
__ZN11CUtlHashMapIN25SteamNetworkingSocketsLib21RemoteConnectionKey_tEPNS0_27CSteamNetworkConnectionBaseENSt3__18equal_toIS1_EENS1_4HashEE17IncrementalRehashEv
__ZN11CUtlHashMapIN25SteamNetworkingSocketsLib21RemoteConnectionKey_tEPNS0_27CSteamNetworkConnectionBaseENSt3__18equal_toIS1_EENS1_4HashEE19InsertUnconstructedIRKS1_EEiOT_Pib
__ZN11CUtlHashMapIN25SteamNetworkingSocketsLib21RemoteConnectionKey_tEPNS0_27CSteamNetworkConnectionBaseENSt3__18equal_toIS1_EENS1_4HashEE19RehashNodesInBucketEi
__ZN11CUtlHashMapIN25SteamNetworkingSocketsLib21RemoteConnectionKey_tEPNS0_27CSteamNetworkConnectionBaseENSt3__18equal_toIS1_EENS1_4HashEE20RemoveNodeFromBucketEii
__ZN11CUtlHashMapIN25SteamNetworkingSocketsLib21RemoteConnectionKey_tEPNS0_27CSteamNetworkConnectionBaseENSt3__18equal_toIS1_EENS1_4HashEE21FindOrInsert_InternalIRKS1_RKS3_EEiOT_OT0_NS8_15ReplaceExistingE
__ZN11CUtlHashMapIN25SteamNetworkingSocketsLib21RemoteConnectionKey_tEPNS0_27CSteamNetworkConnectionBaseENSt3__18equal_toIS1_EENS1_4HashEE8RemoveAtEi
__ZN11CUtlHashMapIN25SteamNetworkingSocketsLib21RemoteConnectionKey_tEPNS0_27CSteamNetworkConnectionBaseENSt3__18equal_toIS1_EENS1_4HashEE9AllocNodeEv
__ZN11CUtlHashMapIN25SteamNetworkingSocketsLib21RemoteConnectionKey_tEPNS0_27CSteamNetworkConnectionBaseENSt3__18equal_toIS1_EENS1_4HashEEC2Ev
__ZN11CUtlHashMapIN25SteamNetworkingSocketsLib21RemoteConnectionKey_tEPNS0_27CSteamNetworkConnectionBaseENSt3__18equal_toIS1_EENS1_4HashEED2Ev
__ZN11CUtlHashMapIN25SteamNetworkingSocketsLib9FakeIPKeyENS0_10FakeIPDataENSt3__18equal_toIS1_EENS1_4HashEE14EnsureCapacityEi
__ZN11CUtlHashMapIN25SteamNetworkingSocketsLib9FakeIPKeyENS0_10FakeIPDataENSt3__18equal_toIS1_EENS1_4HashEE17IncrementalRehashEv
__ZN11CUtlHashMapIN25SteamNetworkingSocketsLib9FakeIPKeyENS0_10FakeIPDataENSt3__18equal_toIS1_EENS1_4HashEE19InsertUnconstructedIRKS1_EEiOT_Pib
__ZN11CUtlHashMapIN25SteamNetworkingSocketsLib9FakeIPKeyENS0_10FakeIPDataENSt3__18equal_toIS1_EENS1_4HashEE19RehashNodesInBucketEi
__ZN11CUtlHashMapIN25SteamNetworkingSocketsLib9FakeIPKeyENS0_10FakeIPDataENSt3__18equal_toIS1_EENS1_4HashEE20RemoveNodeFromBucketEii
__ZN11CUtlHashMapIN25SteamNetworkingSocketsLib9FakeIPKeyENS0_10FakeIPDataENSt3__18equal_toIS1_EENS1_4HashEE21FindOrInsert_InternalIRKS1_EEiOT_NS7_15ReplaceExistingE
__ZN11CUtlHashMapIN25SteamNetworkingSocketsLib9FakeIPKeyENS0_10FakeIPDataENSt3__18equal_toIS1_EENS1_4HashEE8RemoveAtEi
__ZN11CUtlHashMapIN25SteamNetworkingSocketsLib9FakeIPKeyENS0_10FakeIPDataENSt3__18equal_toIS1_EENS1_4HashEE9AllocNodeEv
__ZN11CUtlHashMapIN25SteamNetworkingSocketsLib9FakeIPKeyENS0_10FakeIPDataENSt3__18equal_toIS1_EENS1_4HashEEC2Ev
__ZN11CUtlHashMapIN25SteamNetworkingSocketsLib9FakeIPKeyENS0_10FakeIPDataENSt3__18equal_toIS1_EENS1_4HashEED1Ev
__ZN11CUtlHashMapIN25SteamNetworkingSocketsLib9FakeIPKeyENS0_10FakeIPDataENSt3__18equal_toIS1_EENS1_4HashEED2Ev
__ZN11CUtlHashMapIiPN25SteamNetworkingSocketsLib17CMessagesEndPointENSt3__18equal_toIiEENS3_4hashIiEEE14EnsureCapacityEi
__ZN11CUtlHashMapIiPN25SteamNetworkingSocketsLib17CMessagesEndPointENSt3__18equal_toIiEENS3_4hashIiEEE17IncrementalRehashEv
__ZN11CUtlHashMapIiPN25SteamNetworkingSocketsLib17CMessagesEndPointENSt3__18equal_toIiEENS3_4hashIiEEE19InsertUnconstructedIRKiEEiOT_Pib
__ZN11CUtlHashMapIiPN25SteamNetworkingSocketsLib17CMessagesEndPointENSt3__18equal_toIiEENS3_4hashIiEEE19RehashNodesInBucketEi
__ZN11CUtlHashMapIiPN25SteamNetworkingSocketsLib17CMessagesEndPointENSt3__18equal_toIiEENS3_4hashIiEEE20RemoveNodeFromBucketEii
__ZN11CUtlHashMapIiPN25SteamNetworkingSocketsLib17CMessagesEndPointENSt3__18equal_toIiEENS3_4hashIiEEE21FindOrInsert_InternalIRKiS2_EEiOT_OT0_NS8_15ReplaceExistingE
__ZN11CUtlHashMapIiPN25SteamNetworkingSocketsLib17CMessagesEndPointENSt3__18equal_toIiEENS3_4hashIiEEE8RemoveAtEi
__ZN11CUtlHashMapIiPN25SteamNetworkingSocketsLib17CMessagesEndPointENSt3__18equal_toIiEENS3_4hashIiEEE9AllocNodeEv
__ZN11CUtlHashMapIiPN25SteamNetworkingSocketsLib17CMessagesEndPointENSt3__18equal_toIiEENS3_4hashIiEEEC2Ev
__ZN11CUtlHashMapIiPN25SteamNetworkingSocketsLib17CMessagesEndPointENSt3__18equal_toIiEENS3_4hashIiEEED2Ev
__ZN11CUtlHashMapIiPN25SteamNetworkingSocketsLib22CSteamNetworkPollGroupENSt3__18equal_toIiEENS0_8IdentityIiEEE14EnsureCapacityEi
__ZN11CUtlHashMapIiPN25SteamNetworkingSocketsLib22CSteamNetworkPollGroupENSt3__18equal_toIiEENS0_8IdentityIiEEE17IncrementalRehashEv
__ZN11CUtlHashMapIiPN25SteamNetworkingSocketsLib22CSteamNetworkPollGroupENSt3__18equal_toIiEENS0_8IdentityIiEEE19InsertUnconstructedIRKiEEiOT_Pib
__ZN11CUtlHashMapIiPN25SteamNetworkingSocketsLib22CSteamNetworkPollGroupENSt3__18equal_toIiEENS0_8IdentityIiEEE19RehashNodesInBucketEi
__ZN11CUtlHashMapIiPN25SteamNetworkingSocketsLib22CSteamNetworkPollGroupENSt3__18equal_toIiEENS0_8IdentityIiEEE20RemoveNodeFromBucketEii
__ZN11CUtlHashMapIiPN25SteamNetworkingSocketsLib22CSteamNetworkPollGroupENSt3__18equal_toIiEENS0_8IdentityIiEEE21FindOrInsert_InternalIRKiS2_EEiOT_OT0_NS8_15ReplaceExistingE
__ZN11CUtlHashMapIiPN25SteamNetworkingSocketsLib22CSteamNetworkPollGroupENSt3__18equal_toIiEENS0_8IdentityIiEEE8RemoveAtEi
__ZN11CUtlHashMapIiPN25SteamNetworkingSocketsLib22CSteamNetworkPollGroupENSt3__18equal_toIiEENS0_8IdentityIiEEE9AllocNodeEv
__ZN11CUtlHashMapIiPN25SteamNetworkingSocketsLib22CSteamNetworkPollGroupENSt3__18equal_toIiEENS0_8IdentityIiEEEC2Ev
__ZN11CUtlHashMapIiPN25SteamNetworkingSocketsLib22CSteamNetworkPollGroupENSt3__18equal_toIiEENS0_8IdentityIiEEED1Ev
__ZN11CUtlHashMapIiPN25SteamNetworkingSocketsLib22CSteamNetworkPollGroupENSt3__18equal_toIiEENS0_8IdentityIiEEED2Ev
__ZN11CUtlHashMapIiPN25SteamNetworkingSocketsLib24CSteamNetworkingMessages7ChannelENSt3__18equal_toIiEENS4_4hashIiEEE14EnsureCapacityEi
__ZN11CUtlHashMapIiPN25SteamNetworkingSocketsLib24CSteamNetworkingMessages7ChannelENSt3__18equal_toIiEENS4_4hashIiEEE17IncrementalRehashEv
__ZN11CUtlHashMapIiPN25SteamNetworkingSocketsLib24CSteamNetworkingMessages7ChannelENSt3__18equal_toIiEENS4_4hashIiEEE19InsertUnconstructedIRKiEEiOT_Pib
__ZN11CUtlHashMapIiPN25SteamNetworkingSocketsLib24CSteamNetworkingMessages7ChannelENSt3__18equal_toIiEENS4_4hashIiEEE19RehashNodesInBucketEi
__ZN11CUtlHashMapIiPN25SteamNetworkingSocketsLib24CSteamNetworkingMessages7ChannelENSt3__18equal_toIiEENS4_4hashIiEEE21FindOrInsert_InternalIRKiRKS3_EEiOT_OT0_NS9_15ReplaceExistingE
__ZN11CUtlHashMapIiPN25SteamNetworkingSocketsLib24CSteamNetworkingMessages7ChannelENSt3__18equal_toIiEENS4_4hashIiEEE22PurgeAndDeleteElementsEv
__ZN11CUtlHashMapIiPN25SteamNetworkingSocketsLib24CSteamNetworkingMessages7ChannelENSt3__18equal_toIiEENS4_4hashIiEEE9AllocNodeEv
__ZN11CUtlHashMapIiPN25SteamNetworkingSocketsLib24CSteamNetworkingMessages7ChannelENSt3__18equal_toIiEENS4_4hashIiEEEC2Ev
__ZN11CUtlHashMapIiPN25SteamNetworkingSocketsLib24CSteamNetworkingMessages7ChannelENSt3__18equal_toIiEENS4_4hashIiEEED2Ev
__ZN11CUtlHashMapIiPN25SteamNetworkingSocketsLib28CSteamNetworkListenSocketP2PENSt3__18equal_toIiEENS3_4hashIiEEE14EnsureCapacityEi
__ZN11CUtlHashMapIiPN25SteamNetworkingSocketsLib28CSteamNetworkListenSocketP2PENSt3__18equal_toIiEENS3_4hashIiEEE17IncrementalRehashEv
__ZN11CUtlHashMapIiPN25SteamNetworkingSocketsLib28CSteamNetworkListenSocketP2PENSt3__18equal_toIiEENS3_4hashIiEEE19InsertUnconstructedIRKiEEiOT_Pib
__ZN11CUtlHashMapIiPN25SteamNetworkingSocketsLib28CSteamNetworkListenSocketP2PENSt3__18equal_toIiEENS3_4hashIiEEE19RehashNodesInBucketEi
__ZN11CUtlHashMapIiPN25SteamNetworkingSocketsLib28CSteamNetworkListenSocketP2PENSt3__18equal_toIiEENS3_4hashIiEEE20RemoveNodeFromBucketEii
__ZN11CUtlHashMapIiPN25SteamNetworkingSocketsLib28CSteamNetworkListenSocketP2PENSt3__18equal_toIiEENS3_4hashIiEEE21FindOrInsert_InternalIRKiS2_EEiOT_OT0_NS8_15ReplaceExistingE
__ZN11CUtlHashMapIiPN25SteamNetworkingSocketsLib28CSteamNetworkListenSocketP2PENSt3__18equal_toIiEENS3_4hashIiEEE8RemoveAtEi
__ZN11CUtlHashMapIiPN25SteamNetworkingSocketsLib28CSteamNetworkListenSocketP2PENSt3__18equal_toIiEENS3_4hashIiEEE9AllocNodeEv
__ZN11CUtlHashMapIiPN25SteamNetworkingSocketsLib28CSteamNetworkListenSocketP2PENSt3__18equal_toIiEENS3_4hashIiEEEC2Ev
__ZN11CUtlHashMapIiPN25SteamNetworkingSocketsLib28CSteamNetworkListenSocketP2PENSt3__18equal_toIiEENS3_4hashIiEEED2Ev
__ZN11CUtlHashMapIiPN25SteamNetworkingSocketsLib29CSteamNetworkListenSocketBaseENSt3__18equal_toIiEENS0_8IdentityIiEEE14EnsureCapacityEi
__ZN11CUtlHashMapIiPN25SteamNetworkingSocketsLib29CSteamNetworkListenSocketBaseENSt3__18equal_toIiEENS0_8IdentityIiEEE17IncrementalRehashEv
__ZN11CUtlHashMapIiPN25SteamNetworkingSocketsLib29CSteamNetworkListenSocketBaseENSt3__18equal_toIiEENS0_8IdentityIiEEE19InsertUnconstructedIRKiEEiOT_Pib
__ZN11CUtlHashMapIiPN25SteamNetworkingSocketsLib29CSteamNetworkListenSocketBaseENSt3__18equal_toIiEENS0_8IdentityIiEEE19RehashNodesInBucketEi
__ZN11CUtlHashMapIiPN25SteamNetworkingSocketsLib29CSteamNetworkListenSocketBaseENSt3__18equal_toIiEENS0_8IdentityIiEEE20RemoveNodeFromBucketEii
__ZN11CUtlHashMapIiPN25SteamNetworkingSocketsLib29CSteamNetworkListenSocketBaseENSt3__18equal_toIiEENS0_8IdentityIiEEE21FindOrInsert_InternalIRKiS2_EEiOT_OT0_NS8_15ReplaceExistingE
__ZN11CUtlHashMapIiPN25SteamNetworkingSocketsLib29CSteamNetworkListenSocketBaseENSt3__18equal_toIiEENS0_8IdentityIiEEE8RemoveAtEi
__ZN11CUtlHashMapIiPN25SteamNetworkingSocketsLib29CSteamNetworkListenSocketBaseENSt3__18equal_toIiEENS0_8IdentityIiEEE9AllocNodeEv
__ZN11CUtlHashMapIiPN25SteamNetworkingSocketsLib29CSteamNetworkListenSocketBaseENSt3__18equal_toIiEENS0_8IdentityIiEEEC2Ev
__ZN11CUtlHashMapIiPN25SteamNetworkingSocketsLib29CSteamNetworkListenSocketBaseENSt3__18equal_toIiEENS0_8IdentityIiEEED1Ev
__ZN11CUtlHashMapIiPN25SteamNetworkingSocketsLib29CSteamNetworkListenSocketBaseENSt3__18equal_toIiEENS0_8IdentityIiEEED2Ev
__ZN11CUtlHashMapIibNSt3__18equal_toIiEENS0_4hashIiEEE14EnsureCapacityEi
__ZN11CUtlHashMapIibNSt3__18equal_toIiEENS0_4hashIiEEE17IncrementalRehashEv
__ZN11CUtlHashMapIibNSt3__18equal_toIiEENS0_4hashIiEEE19InsertUnconstructedIRKiEEiOT_Pib
__ZN11CUtlHashMapIibNSt3__18equal_toIiEENS0_4hashIiEEE19RehashNodesInBucketEi
__ZN11CUtlHashMapIibNSt3__18equal_toIiEENS0_4hashIiEEE20RemoveNodeFromBucketEii
__ZN11CUtlHashMapIibNSt3__18equal_toIiEENS0_4hashIiEEE21FindOrInsert_InternalIRKibEEiOT_OT0_NS5_15ReplaceExistingE
__ZN11CUtlHashMapIibNSt3__18equal_toIiEENS0_4hashIiEEE8RemoveAtEi
__ZN11CUtlHashMapIibNSt3__18equal_toIiEENS0_4hashIiEEE9AllocNodeEv
__ZN11CUtlHashMapIibNSt3__18equal_toIiEENS0_4hashIiEEEC2Ev
__ZN11CUtlHashMapIibNSt3__18equal_toIiEENS0_4hashIiEEED2Ev
__ZN11CUtlHashMapIjN25SteamNetworkingSocketsLib17SharedClusterData14DataCenterPingENSt3__18equal_toIjEENS3_4hashIjEEE14EnsureCapacityEi
__ZN11CUtlHashMapIjN25SteamNetworkingSocketsLib17SharedClusterData14DataCenterPingENSt3__18equal_toIjEENS3_4hashIjEEE17IncrementalRehashEv
__ZN11CUtlHashMapIjN25SteamNetworkingSocketsLib17SharedClusterData14DataCenterPingENSt3__18equal_toIjEENS3_4hashIjEEE19InsertUnconstructedIRKjEEiOT_Pib
__ZN11CUtlHashMapIjN25SteamNetworkingSocketsLib17SharedClusterData14DataCenterPingENSt3__18equal_toIjEENS3_4hashIjEEE19RehashNodesInBucketEi
__ZN11CUtlHashMapIjN25SteamNetworkingSocketsLib17SharedClusterData14DataCenterPingENSt3__18equal_toIjEENS3_4hashIjEEE21FindOrInsert_InternalIRKjEEiOT_NS8_15ReplaceExistingE
__ZN11CUtlHashMapIjN25SteamNetworkingSocketsLib17SharedClusterData14DataCenterPingENSt3__18equal_toIjEENS3_4hashIjEEE9AllocNodeEv
__ZN11CUtlHashMapIjN25SteamNetworkingSocketsLib17SharedClusterData14DataCenterPingENSt3__18equal_toIjEENS3_4hashIjEEEC2Ev
__ZN11CUtlHashMapIjN25SteamNetworkingSocketsLib17SharedClusterData14DataCenterPingENSt3__18equal_toIjEENS3_4hashIjEEED2Ev
__ZN11CUtlHashMapIjPN25SteamNetworkingSocketsLib17SharedClusterDataENSt3__18equal_toIjEENS3_4hashIjEEE14EnsureCapacityEi
__ZN11CUtlHashMapIjPN25SteamNetworkingSocketsLib17SharedClusterDataENSt3__18equal_toIjEENS3_4hashIjEEE17IncrementalRehashEv
__ZN11CUtlHashMapIjPN25SteamNetworkingSocketsLib17SharedClusterDataENSt3__18equal_toIjEENS3_4hashIjEEE19InsertUnconstructedIRKjEEiOT_Pib
__ZN11CUtlHashMapIjPN25SteamNetworkingSocketsLib17SharedClusterDataENSt3__18equal_toIjEENS3_4hashIjEEE19RehashNodesInBucketEi
__ZN11CUtlHashMapIjPN25SteamNetworkingSocketsLib17SharedClusterDataENSt3__18equal_toIjEENS3_4hashIjEEE20RemoveNodeFromBucketEii
__ZN11CUtlHashMapIjPN25SteamNetworkingSocketsLib17SharedClusterDataENSt3__18equal_toIjEENS3_4hashIjEEE21FindOrInsert_InternalIRKjS2_EEiOT_OT0_NS8_15ReplaceExistingE
__ZN11CUtlHashMapIjPN25SteamNetworkingSocketsLib17SharedClusterDataENSt3__18equal_toIjEENS3_4hashIjEEE8RemoveAtEi
__ZN11CUtlHashMapIjPN25SteamNetworkingSocketsLib17SharedClusterDataENSt3__18equal_toIjEENS3_4hashIjEEE9AllocNodeEv
__ZN11CUtlHashMapIjPN25SteamNetworkingSocketsLib17SharedClusterDataENSt3__18equal_toIjEENS3_4hashIjEEEC2Ev
__ZN11CUtlHashMapIjPN25SteamNetworkingSocketsLib17SharedClusterDataENSt3__18equal_toIjEENS3_4hashIjEEED1Ev
__ZN11CUtlHashMapIjPN25SteamNetworkingSocketsLib17SharedClusterDataENSt3__18equal_toIjEENS3_4hashIjEEED2Ev
__ZN11CUtlHashMapIjPN25SteamNetworkingSocketsLib24CMessagesEndPointSessionENSt3__18equal_toIjEENS3_4hashIjEEE14EnsureCapacityEi
__ZN11CUtlHashMapIjPN25SteamNetworkingSocketsLib24CMessagesEndPointSessionENSt3__18equal_toIjEENS3_4hashIjEEE17IncrementalRehashEv
__ZN11CUtlHashMapIjPN25SteamNetworkingSocketsLib24CMessagesEndPointSessionENSt3__18equal_toIjEENS3_4hashIjEEE19InsertUnconstructedIRKjEEiOT_Pib
__ZN11CUtlHashMapIjPN25SteamNetworkingSocketsLib24CMessagesEndPointSessionENSt3__18equal_toIjEENS3_4hashIjEEE19RehashNodesInBucketEi
__ZN11CUtlHashMapIjPN25SteamNetworkingSocketsLib24CMessagesEndPointSessionENSt3__18equal_toIjEENS3_4hashIjEEE20RemoveNodeFromBucketEii
__ZN11CUtlHashMapIjPN25SteamNetworkingSocketsLib24CMessagesEndPointSessionENSt3__18equal_toIjEENS3_4hashIjEEE21FindOrInsert_InternalIRKjS2_EEiOT_OT0_NS8_15ReplaceExistingE
__ZN11CUtlHashMapIjPN25SteamNetworkingSocketsLib24CMessagesEndPointSessionENSt3__18equal_toIjEENS3_4hashIjEEE8RemoveAtEi
__ZN11CUtlHashMapIjPN25SteamNetworkingSocketsLib24CMessagesEndPointSessionENSt3__18equal_toIjEENS3_4hashIjEEE9AllocNodeEv
__ZN11CUtlHashMapIjPN25SteamNetworkingSocketsLib24CMessagesEndPointSessionENSt3__18equal_toIjEENS3_4hashIjEEEC2Ev
__ZN11CUtlHashMapIjPN25SteamNetworkingSocketsLib24CMessagesEndPointSessionENSt3__18equal_toIjEENS3_4hashIjEEED1Ev
__ZN11CUtlHashMapIjPN25SteamNetworkingSocketsLib24CMessagesEndPointSessionENSt3__18equal_toIjEENS3_4hashIjEEED2Ev
__ZN11CUtlHashMapItPN25SteamNetworkingSocketsLib27CSteamNetworkConnectionBaseENSt3__18equal_toItEENS0_8IdentityItEEE14EnsureCapacityEi
__ZN11CUtlHashMapItPN25SteamNetworkingSocketsLib27CSteamNetworkConnectionBaseENSt3__18equal_toItEENS0_8IdentityItEEE17IncrementalRehashEv
__ZN11CUtlHashMapItPN25SteamNetworkingSocketsLib27CSteamNetworkConnectionBaseENSt3__18equal_toItEENS0_8IdentityItEEE19InsertUnconstructedItEEiOT_Pib
__ZN11CUtlHashMapItPN25SteamNetworkingSocketsLib27CSteamNetworkConnectionBaseENSt3__18equal_toItEENS0_8IdentityItEEE19RehashNodesInBucketEi
__ZN11CUtlHashMapItPN25SteamNetworkingSocketsLib27CSteamNetworkConnectionBaseENSt3__18equal_toItEENS0_8IdentityItEEE20RemoveNodeFromBucketEii
__ZN11CUtlHashMapItPN25SteamNetworkingSocketsLib27CSteamNetworkConnectionBaseENSt3__18equal_toItEENS0_8IdentityItEEE21FindOrInsert_InternalItS2_EEiOT_OT0_NS8_15ReplaceExistingE
__ZN11CUtlHashMapItPN25SteamNetworkingSocketsLib27CSteamNetworkConnectionBaseENSt3__18equal_toItEENS0_8IdentityItEEE8RemoveAtEi
__ZN11CUtlHashMapItPN25SteamNetworkingSocketsLib27CSteamNetworkConnectionBaseENSt3__18equal_toItEENS0_8IdentityItEEE9AllocNodeEv
__ZN11CUtlHashMapItPN25SteamNetworkingSocketsLib27CSteamNetworkConnectionBaseENSt3__18equal_toItEENS0_8IdentityItEEEC2Ev
__ZN11CUtlHashMapItPN25SteamNetworkingSocketsLib27CSteamNetworkConnectionBaseENSt3__18equal_toItEENS0_8IdentityItEEED1Ev
__ZN11CUtlHashMapItPN25SteamNetworkingSocketsLib27CSteamNetworkConnectionBaseENSt3__18equal_toItEENS0_8IdentityItEEED2Ev
__ZN11CUtlHashMapIyNSt3__110unique_ptrIN25SteamNetworkingSocketsLib9PublicKeyENS0_14default_deleteIS3_EEEENS0_8equal_toIyEENS0_4hashIyEEE14EnsureCapacityEi
__ZN11CUtlHashMapIyNSt3__110unique_ptrIN25SteamNetworkingSocketsLib9PublicKeyENS0_14default_deleteIS3_EEEENS0_8equal_toIyEENS0_4hashIyEEE17IncrementalRehashEv
__ZN11CUtlHashMapIyNSt3__110unique_ptrIN25SteamNetworkingSocketsLib9PublicKeyENS0_14default_deleteIS3_EEEENS0_8equal_toIyEENS0_4hashIyEEE19InsertUnconstructedIRKyEEiOT_Pib
__ZN11CUtlHashMapIyNSt3__110unique_ptrIN25SteamNetworkingSocketsLib9PublicKeyENS0_14default_deleteIS3_EEEENS0_8equal_toIyEENS0_4hashIyEEE19RehashNodesInBucketEi
__ZN11CUtlHashMapIyNSt3__110unique_ptrIN25SteamNetworkingSocketsLib9PublicKeyENS0_14default_deleteIS3_EEEENS0_8equal_toIyEENS0_4hashIyEEE21FindOrInsert_InternalIRKyS6_EEiOT_OT0_NSB_15ReplaceExistingE
__ZN11CUtlHashMapIyNSt3__110unique_ptrIN25SteamNetworkingSocketsLib9PublicKeyENS0_14default_deleteIS3_EEEENS0_8equal_toIyEENS0_4hashIyEEE5PurgeEv
__ZN11CUtlHashMapIyNSt3__110unique_ptrIN25SteamNetworkingSocketsLib9PublicKeyENS0_14default_deleteIS3_EEEENS0_8equal_toIyEENS0_4hashIyEEE9AllocNodeEv
__ZN11CUtlHashMapIyNSt3__110unique_ptrIN25SteamNetworkingSocketsLib9PublicKeyENS0_14default_deleteIS3_EEEENS0_8equal_toIyEENS0_4hashIyEEEC2Ev
__ZN11CUtlHashMapIyNSt3__110unique_ptrIN25SteamNetworkingSocketsLib9PublicKeyENS0_14default_deleteIS3_EEEENS0_8equal_toIyEENS0_4hashIyEEED1Ev
__ZN11CUtlHashMapIyNSt3__110unique_ptrIN25SteamNetworkingSocketsLib9PublicKeyENS0_14default_deleteIS3_EEEENS0_8equal_toIyEENS0_4hashIyEEED2Ev
__ZN12_GLOBAL__N_122protobuf_RegisterTypesERKNSt3__112basic_stringIcNS0_11char_traitsIcEENS0_9allocatorIcEEEE
__ZN12_GLOBAL__N_122protobuf_RegisterTypesERKNSt3__112basic_stringIcNS0_11char_traitsIcEENS0_9allocatorIcEEEE
__ZN12_GLOBAL__N_122protobuf_RegisterTypesERKNSt3__112basic_stringIcNS0_11char_traitsIcEENS0_9allocatorIcEEEE
__ZN12_GLOBAL__N_122protobuf_RegisterTypesERKNSt3__112basic_stringIcNS0_11char_traitsIcEENS0_9allocatorIcEEEE
__ZN12_GLOBAL__N_122protobuf_RegisterTypesERKNSt3__112basic_stringIcNS0_11char_traitsIcEENS0_9allocatorIcEEEE
__ZN12_GLOBAL__N_122protobuf_RegisterTypesERKNSt3__112basic_stringIcNS0_11char_traitsIcEENS0_9allocatorIcEEEE
__ZN12_GLOBAL__N_129CMsgICERendezvous_descriptor_E
__ZN12_GLOBAL__N_129CMsgICERendezvous_reflection_E
__ZN12_GLOBAL__N_131ESteamDatagramMsgID_descriptor_E
__ZN12_GLOBAL__N_132protobuf_AssignDescriptors_once_E
__ZN12_GLOBAL__N_132protobuf_AssignDescriptors_once_E
__ZN12_GLOBAL__N_132protobuf_AssignDescriptors_once_E
__ZN12_GLOBAL__N_132protobuf_AssignDescriptors_once_E
__ZN12_GLOBAL__N_132protobuf_AssignDescriptors_once_E
__ZN12_GLOBAL__N_132protobuf_AssignDescriptors_once_E
__ZN12_GLOBAL__N_134CMsgICERendezvous_Auth_descriptor_E
__ZN12_GLOBAL__N_134CMsgICERendezvous_Auth_reflection_E
__ZN12_GLOBAL__N_136ESteamNetworkingUDPMsgID_descriptor_E
__ZN12_GLOBAL__N_137CGameNetworkingUI_Message_descriptor_E
__ZN12_GLOBAL__N_137CGameNetworkingUI_Message_reflection_E
__ZN12_GLOBAL__N_138CMsgSteamDatagramConnectOK_descriptor_E
__ZN12_GLOBAL__N_138CMsgSteamDatagramConnectOK_reflection_E
__ZN12_GLOBAL__N_138CMsgSteamDatagramP2PRoutes_descriptor_E
__ZN12_GLOBAL__N_138CMsgSteamDatagramP2PRoutes_reflection_E
__ZN12_GLOBAL__N_138CMsgSteamSockets_UDP_Stats_descriptor_E
__ZN12_GLOBAL__N_138CMsgSteamSockets_UDP_Stats_reflection_E
__ZN12_GLOBAL__N_139CMsgICERendezvous_Candidate_descriptor_E
__ZN12_GLOBAL__N_139CMsgICERendezvous_Candidate_reflection_E
__ZN12_GLOBAL__N_139CMsgSteamDatagramDiagnostic_descriptor_E
__ZN12_GLOBAL__N_139CMsgSteamDatagramDiagnostic_reflection_E
__ZN12_GLOBAL__N_140CMsgSteamDatagramCertificate_descriptor_E
__ZN12_GLOBAL__N_140CMsgSteamDatagramCertificate_reflection_E
__ZN12_GLOBAL__N_140CMsgSteamNetworkingIPAddress_descriptor_E
__ZN12_GLOBAL__N_140CMsgSteamNetworkingIPAddress_reflection_E
__ZN12_GLOBAL__N_141CGameNetworkingUI_GlobalState_descriptor_E
__ZN12_GLOBAL__N_141CGameNetworkingUI_GlobalState_reflection_E
__ZN12_GLOBAL__N_141CMsgSteamDatagramNoConnection_descriptor_E
__ZN12_GLOBAL__N_141CMsgSteamDatagramNoConnection_reflection_E
__ZN12_GLOBAL__N_141ESteamNetworkingSocketsCipher_descriptor_E
__ZN12_GLOBAL__N_142CMsgSteamSockets_UDP_ConnectOK_descriptor_E
__ZN12_GLOBAL__N_142CMsgSteamSockets_UDP_ConnectOK_reflection_E
__ZN12_GLOBAL__N_143CMsgSteamDatagramConnectRequest_descriptor_E
__ZN12_GLOBAL__N_143CMsgSteamDatagramConnectRequest_reflection_E
__ZN12_GLOBAL__N_144CMsgSteamDatagramP2PRoutes_Route_descriptor_E
__ZN12_GLOBAL__N_144CMsgSteamDatagramP2PRoutes_Route_reflection_E
__ZN12_GLOBAL__N_144CMsgSteamDatagramRelayAuthTicket_descriptor_E
__ZN12_GLOBAL__N_144CMsgSteamDatagramRelayAuthTicket_reflection_E
__ZN12_GLOBAL__N_144CMsgSteamDatagramRouterPingReply_descriptor_E
__ZN12_GLOBAL__N_144CMsgSteamDatagramRouterPingReply_reflection_E
__ZN12_GLOBAL__N_144CMsgSteamNetworkingP2PRendezvous_descriptor_E
__ZN12_GLOBAL__N_144CMsgSteamNetworkingP2PRendezvous_reflection_E
__ZN12_GLOBAL__N_144CMsgSteamSockets_UDP_Stats_Flags_descriptor_E
__ZN12_GLOBAL__N_145CGameNetworkingUI_ConnectionState_descriptor_E
__ZN12_GLOBAL__N_145CGameNetworkingUI_ConnectionState_reflection_E
__ZN12_GLOBAL__N_145CMsgSteamDatagramConnectionClosed_descriptor_E
__ZN12_GLOBAL__N_145CMsgSteamDatagramConnectionClosed_reflection_E
__ZN12_GLOBAL__N_145CMsgSteamDatagramSessionCryptInfo_descriptor_E
__ZN12_GLOBAL__N_145CMsgSteamDatagramSessionCryptInfo_reflection_E
__ZN12_GLOBAL__N_145CMsgSteamSockets_UDP_NoConnection_descriptor_E
__ZN12_GLOBAL__N_145CMsgSteamSockets_UDP_NoConnection_reflection_E
__ZN12_GLOBAL__N_146CMsgSteamDatagramCertificateSigned_descriptor_E
__ZN12_GLOBAL__N_146CMsgSteamDatagramCertificateSigned_reflection_E
__ZN12_GLOBAL__N_146CMsgSteamDatagramConnectionQuality_descriptor_E
__ZN12_GLOBAL__N_146CMsgSteamDatagramConnectionQuality_reflection_E
__ZN12_GLOBAL__N_146CMsgSteamDatagramLinkLifetimeStats_descriptor_E
__ZN12_GLOBAL__N_146CMsgSteamDatagramLinkLifetimeStats_reflection_E
__ZN12_GLOBAL__N_146CMsgSteamDatagramP2PRoutingSummary_descriptor_E
__ZN12_GLOBAL__N_146CMsgSteamDatagramP2PRoutingSummary_reflection_E
__ZN12_GLOBAL__N_146CMsgSteamDatagramP2PSessionRequest_descriptor_E
__ZN12_GLOBAL__N_146CMsgSteamDatagramP2PSessionRequest_reflection_E
__ZN12_GLOBAL__N_147CMsgSteamDatagramCertificateRequest_descriptor_E
__ZN12_GLOBAL__N_147CMsgSteamDatagramCertificateRequest_reflection_E
__ZN12_GLOBAL__N_147CMsgSteamSockets_UDP_ChallengeReply_descriptor_E
__ZN12_GLOBAL__N_147CMsgSteamSockets_UDP_ChallengeReply_reflection_E
__ZN12_GLOBAL__N_147CMsgSteamSockets_UDP_ConnectRequest_descriptor_E
__ZN12_GLOBAL__N_147CMsgSteamSockets_UDP_ConnectRequest_reflection_E
__ZN12_GLOBAL__N_148CMsgSteamNetworkingICESessionSummary_descriptor_E
__ZN12_GLOBAL__N_148CMsgSteamNetworkingICESessionSummary_reflection_E
__ZN12_GLOBAL__N_149CMsgSteamDatagramCertificate_EKeyType_descriptor_E
__ZN12_GLOBAL__N_149CMsgSteamDatagramNoSessionRelayToPeer_descriptor_E
__ZN12_GLOBAL__N_149CMsgSteamDatagramNoSessionRelayToPeer_reflection_E
__ZN12_GLOBAL__N_149CMsgSteamDatagramSignedMessageGeneric_descriptor_E
__ZN12_GLOBAL__N_149CMsgSteamDatagramSignedMessageGeneric_reflection_E
__ZN12_GLOBAL__N_149CMsgSteamSockets_UDP_ChallengeRequest_descriptor_E
__ZN12_GLOBAL__N_149CMsgSteamSockets_UDP_ChallengeRequest_reflection_E
__ZN12_GLOBAL__N_149CMsgSteamSockets_UDP_ConnectionClosed_descriptor_E
__ZN12_GLOBAL__N_149CMsgSteamSockets_UDP_ConnectionClosed_reflection_E
__ZN12_GLOBAL__N_150CMsgSteamDatagramClientPingSampleReply_descriptor_E
__ZN12_GLOBAL__N_150CMsgSteamDatagramClientPingSampleReply_reflection_E
__ZN12_GLOBAL__N_150CMsgSteamDatagramClientSwitchedPrimary_descriptor_E
__ZN12_GLOBAL__N_150CMsgSteamDatagramClientSwitchedPrimary_reflection_E
__ZN12_GLOBAL__N_150CMsgSteamDatagramP2PSessionEstablished_descriptor_E
__ZN12_GLOBAL__N_150CMsgSteamDatagramP2PSessionEstablished_reflection_E
__ZN12_GLOBAL__N_150CMsgSteamDatagramP2PSessionRequestBody_descriptor_E
__ZN12_GLOBAL__N_150CMsgSteamDatagramP2PSessionRequestBody_reflection_E
__ZN12_GLOBAL__N_150CMsgSteamDatagramRouterPingReply_Flags_descriptor_E
__ZN12_GLOBAL__N_150CMsgSteamDatagramSignedRelayAuthTicket_descriptor_E
__ZN12_GLOBAL__N_150CMsgSteamDatagramSignedRelayAuthTicket_reflection_E
__ZN12_GLOBAL__N_151CMsgSteamDatagramLinkInstantaneousStats_descriptor_E
__ZN12_GLOBAL__N_151CMsgSteamDatagramLinkInstantaneousStats_reflection_E
__ZN12_GLOBAL__N_151CMsgSteamDatagramNoSessionRelayToClient_descriptor_E
__ZN12_GLOBAL__N_151CMsgSteamDatagramNoSessionRelayToClient_reflection_E
__ZN12_GLOBAL__N_151CMsgSteamDatagramP2PRoutes_RelayCluster_descriptor_E
__ZN12_GLOBAL__N_151CMsgSteamDatagramP2PRoutes_RelayCluster_reflection_E
__ZN12_GLOBAL__N_151CMsgSteamDatagramSessionCryptInfoSigned_descriptor_E
__ZN12_GLOBAL__N_151CMsgSteamDatagramSessionCryptInfoSigned_reflection_E
__ZN12_GLOBAL__N_151CMsgSteamNetworkingIdentityLegacyBinary_descriptor_E
__ZN12_GLOBAL__N_151CMsgSteamNetworkingIdentityLegacyBinary_reflection_E
__ZN12_GLOBAL__N_151CMsgSteamNetworkingP2PSDRRoutingSummary_descriptor_E
__ZN12_GLOBAL__N_151CMsgSteamNetworkingP2PSDRRoutingSummary_reflection_E
__ZN12_GLOBAL__N_152CMsgSteamDatagramCachedCredentialsForApp_descriptor_E
__ZN12_GLOBAL__N_152CMsgSteamDatagramCachedCredentialsForApp_reflection_E
__ZN12_GLOBAL__N_152CMsgSteamDatagramClientPingSampleRequest_descriptor_E
__ZN12_GLOBAL__N_152CMsgSteamDatagramClientPingSampleRequest_reflection_E
__ZN12_GLOBAL__N_152CMsgSteamDatagramGameserverPingReplyData_descriptor_E
__ZN12_GLOBAL__N_152CMsgSteamDatagramGameserverPingReplyData_reflection_E
__ZN12_GLOBAL__N_153CMsgSteamDatagramGameserverSessionRequest_descriptor_E
__ZN12_GLOBAL__N_153CMsgSteamDatagramGameserverSessionRequest_reflection_E
__ZN12_GLOBAL__N_154CMsgSteamDatagramClientPingSampleReply_POP_descriptor_E
__ZN12_GLOBAL__N_154CMsgSteamDatagramClientPingSampleReply_POP_reflection_E
__ZN12_GLOBAL__N_154CMsgSteamDatagramGameserverPingRequestBody_descriptor_E
__ZN12_GLOBAL__N_154CMsgSteamDatagramGameserverPingRequestBody_reflection_E
__ZN12_GLOBAL__N_154CMsgSteamDatagramP2PBadRouteRouterToClient_descriptor_E
__ZN12_GLOBAL__N_154CMsgSteamDatagramP2PBadRouteRouterToClient_reflection_E
__ZN12_GLOBAL__N_154CMsgSteamDatagramSessionCryptInfo_EKeyType_descriptor_E
__ZN12_GLOBAL__N_154CMsgSteamDatagramSetSecondaryAddressResult_descriptor_E
__ZN12_GLOBAL__N_154CMsgSteamDatagramSetSecondaryAddressResult_reflection_E
__ZN12_GLOBAL__N_154CMsgSteamNetworkingP2PRendezvous_ConnectOK_descriptor_E
__ZN12_GLOBAL__N_154CMsgSteamNetworkingP2PRendezvous_ConnectOK_reflection_E
__ZN12_GLOBAL__N_155CMsgSteamDatagramGameCoordinatorServerLogin_descriptor_E
__ZN12_GLOBAL__N_155CMsgSteamDatagramGameCoordinatorServerLogin_reflection_E
__ZN12_GLOBAL__N_155CMsgSteamDatagramRelayAuthTicket_ExtraField_descriptor_E
__ZN12_GLOBAL__N_155CMsgSteamDatagramRelayAuthTicket_ExtraField_reflection_E
__ZN12_GLOBAL__N_155CMsgSteamDatagramRouterPingReply_AltAddress_descriptor_E
__ZN12_GLOBAL__N_155CMsgSteamDatagramRouterPingReply_AltAddress_reflection_E
__ZN12_GLOBAL__N_155CMsgSteamDatagramSetSecondaryAddressRequest_descriptor_E
__ZN12_GLOBAL__N_155CMsgSteamDatagramSetSecondaryAddressRequest_reflection_E
__ZN12_GLOBAL__N_156CMsgSteamDatagramConnectionClosed_ERelayMode_descriptor_E
__ZN12_GLOBAL__N_157CMsgSteamDatagramGameserverSessionEstablished_descriptor_E
__ZN12_GLOBAL__N_157CMsgSteamDatagramGameserverSessionEstablished_reflection_E
__ZN12_GLOBAL__N_157CMsgSteamDatagramHostedServerAddressPlaintext_descriptor_E
__ZN12_GLOBAL__N_157CMsgSteamDatagramHostedServerAddressPlaintext_reflection_E
__ZN12_GLOBAL__N_158CMsgSteamDatagramConnectionStatsClientToRouter_descriptor_E
__ZN12_GLOBAL__N_158CMsgSteamDatagramConnectionStatsClientToRouter_reflection_E
__ZN12_GLOBAL__N_158CMsgSteamDatagramConnectionStatsRouterToClient_descriptor_E
__ZN12_GLOBAL__N_158CMsgSteamDatagramConnectionStatsRouterToClient_reflection_E
__ZN12_GLOBAL__N_158CMsgSteamDatagramConnectionStatsRouterToServer_descriptor_E
__ZN12_GLOBAL__N_158CMsgSteamDatagramConnectionStatsRouterToServer_reflection_E
__ZN12_GLOBAL__N_158CMsgSteamDatagramConnectionStatsServerToRouter_descriptor_E
__ZN12_GLOBAL__N_158CMsgSteamDatagramConnectionStatsServerToRouter_reflection_E
__ZN12_GLOBAL__N_158CMsgSteamDatagramGameserverPingRequestEnvelope_descriptor_E
__ZN12_GLOBAL__N_158CMsgSteamDatagramGameserverPingRequestEnvelope_reflection_E
__ZN12_GLOBAL__N_159CMsgSteamDatagramRouterPingReply_RouteException_descriptor_E
__ZN12_GLOBAL__N_159CMsgSteamDatagramRouterPingReply_RouteException_reflection_E
__ZN12_GLOBAL__N_159CMsgSteamNetworkingP2PRendezvous_ConnectRequest_descriptor_E
__ZN12_GLOBAL__N_159CMsgSteamNetworkingP2PRendezvous_ConnectRequest_reflection_E
__ZN12_GLOBAL__N_160CMsgSteamNetworkingP2PRendezvous_ReliableMessage_descriptor_E
__ZN12_GLOBAL__N_160CMsgSteamNetworkingP2PRendezvous_ReliableMessage_reflection_E
__ZN12_GLOBAL__N_161CMsgSteamDatagramConnectionStatsP2PClientToRouter_descriptor_E
__ZN12_GLOBAL__N_161CMsgSteamDatagramConnectionStatsP2PClientToRouter_reflection_E
__ZN12_GLOBAL__N_161CMsgSteamDatagramConnectionStatsP2PRouterToClient_descriptor_E
__ZN12_GLOBAL__N_161CMsgSteamDatagramConnectionStatsP2PRouterToClient_reflection_E
__ZN12_GLOBAL__N_161CMsgSteamDatagramSignedGameCoordinatorServerLogin_descriptor_E
__ZN12_GLOBAL__N_161CMsgSteamDatagramSignedGameCoordinatorServerLogin_reflection_E
__ZN12_GLOBAL__N_161CMsgSteamNetworkingP2PRendezvous_ConnectionClosed_descriptor_E
__ZN12_GLOBAL__N_161CMsgSteamNetworkingP2PRendezvous_ConnectionClosed_reflection_E
__ZN12_GLOBAL__N_163CMsgSteamNetworkingP2PRendezvous_ApplicationMessage_descriptor_E
__ZN12_GLOBAL__N_163CMsgSteamNetworkingP2PRendezvous_ApplicationMessage_reflection_E
__ZN12_GLOBAL__N_164CMsgSteamDatagramClientSwitchedPrimary_RouterQuality_descriptor_E
__ZN12_GLOBAL__N_164CMsgSteamDatagramClientSwitchedPrimary_RouterQuality_reflection_E
__ZN12_GLOBAL__N_164CMsgSteamDatagramConnectionStatsClientToRouter_Flags_descriptor_E
__ZN12_GLOBAL__N_164CMsgSteamDatagramConnectionStatsRouterToClient_Flags_descriptor_E
__ZN12_GLOBAL__N_164CMsgSteamDatagramConnectionStatsRouterToServer_Flags_descriptor_E
__ZN12_GLOBAL__N_164CMsgSteamDatagramConnectionStatsServerToRouter_Flags_descriptor_E
__ZN12_GLOBAL__N_164CMsgSteamDatagramRouterPingReply_AltAddress_Protocol_descriptor_E
__ZN12_GLOBAL__N_165CMsgSteamDatagramClientPingSampleReply_POP_AltAddress_descriptor_E
__ZN12_GLOBAL__N_165CMsgSteamDatagramClientPingSampleReply_POP_AltAddress_reflection_E
__ZN12_GLOBAL__N_167CMsgSteamDatagramClientPingSampleReply_LegacyDataCenter_descriptor_E
__ZN12_GLOBAL__N_167CMsgSteamDatagramClientPingSampleReply_LegacyDataCenter_reflection_E
__ZN12_GLOBAL__N_167CMsgSteamDatagramConnectionStatsP2PClientToRouter_Flags_descriptor_E
__ZN12_GLOBAL__N_167CMsgSteamDatagramConnectionStatsP2PRouterToClient_Flags_descriptor_E
__ZN13EVPCTXPointerIP11evp_pkey_stXadL_Z13EVP_PKEY_freeEEED2Ev
__ZN13EVPCTXPointerIP13env_md_ctx_stXadL_Z15EVP_MD_CTX_freeS1_EEED2Ev
__ZN14CCryptoKeyBase21LoadFromAndWipeBufferEPvm
__ZN14CCryptoKeyBase22SetRawDataAndWipeInputEPvm
__ZN14CCryptoKeyBase23SetFromHexEncodedStringEPKc
__ZN14CCryptoKeyBase23SetRawDataFromStdStringERKNSt3__112basic_stringIcNS0_11char_traitsIcEENS0_9allocatorIcEEEE
__ZN14CCryptoKeyBase28SetRawDataWithoutWipingInputEPKvm
__ZN14CCryptoKeyBase8CopyFromERKS_
__ZN14CUtlLinkedListIN25SteamNetworkingSocketsLib13CPacketLagger12LaggedPacketEiE11InsertAfterEi
__ZN14CUtlLinkedListIN25SteamNetworkingSocketsLib13CPacketLagger12LaggedPacketEiE13AllocInternalEb
__ZN14CUtlLinkedListIN25SteamNetworkingSocketsLib13CPacketLagger12LaggedPacketEiE4FreeEi
__ZN14CUtlLinkedListIN25SteamNetworkingSocketsLib13CPacketLagger12LaggedPacketEiE6UnlinkEi
__ZN14CUtlLinkedListIN25SteamNetworkingSocketsLib13CPacketLagger12LaggedPacketEiE9LinkAfterEii
__ZN14CUtlLinkedListIN25SteamNetworkingSocketsLib13CPacketLagger12LaggedPacketEiE9RemoveAllEv
__ZN14CUtlLinkedListIN25SteamNetworkingSocketsLib24SNPSendReliableSegment_tEtE10LinkBeforeEtt
__ZN14CUtlLinkedListIN25SteamNetworkingSocketsLib24SNPSendReliableSegment_tEtE13AllocInternalEb
__ZN14CUtlLinkedListIN25SteamNetworkingSocketsLib24SNPSendReliableSegment_tEtE4FreeEt
__ZN14CUtlLinkedListIN25SteamNetworkingSocketsLib24SNPSendReliableSegment_tEtE6UnlinkEt
__ZN14CUtlLinkedListIN25SteamNetworkingSocketsLib24SNPSendReliableSegment_tEtE9RemoveAllEv
__ZN14CUtlLinkedListIiiE13AllocInternalEb
__ZN14CUtlLinkedListIiiE4FreeEi
__ZN14CUtlLinkedListIiiE6UnlinkEi
__ZN14CUtlLinkedListIiiE9LinkAfterEii
__ZN14CUtlLinkedListIiiE9RemoveAllEv
__ZN14CUtlLinkedListIiiED1Ev
__ZN14CUtlLinkedListIttE10LinkBeforeEtt
__ZN14CUtlLinkedListIttE13AllocInternalEb
__ZN14CUtlLinkedListIttE4FreeEt
__ZN14CUtlLinkedListIttE6UnlinkEt
__ZN14CUtlLinkedListIttE9RemoveAllEv
__ZN14CUtlMemoryBase14EnsureCapacityEi
__ZN14CUtlMemoryBase23ConvertToGrowableMemoryEi
__ZN14CUtlMemoryBase4GrowEi
__ZN14CUtlMemoryBase4SwapERS_
__ZN14CUtlMemoryBase5PurgeEv
__ZN14CUtlMemoryBaseC2EiPvi
__ZN14CUtlMemoryBaseC2Eiii
__ZN14CUtlMemoryBaseD2Ev
__ZN15AssertMsgHelperILb0ELb0EE12AssertFailedEPKcjS2_z
__ZN15AssertMsgHelperILb0ELb1EE12AssertFailedEPKcjS2_
__ZN15AssertMsgHelperILb1ELb0EE12AssertFailedEPKcjS2_z
__ZN15AssertMsgHelperILb1ELb1EE12AssertFailedEPKcjS2_
__ZN15CAutoWipeBuffer5ClearEv
__ZN15CAutoWipeBufferD2Ev
__ZN15CEC25519KeyBase10SetRawDataEPKvm
__ZN15CEC25519KeyBase4WipeEv
__ZN15CEC25519KeyBaseD0Ev
__ZN15CEC25519KeyBaseD1Ev
__ZN15CEC25519KeyBaseD2Ev
__ZN15COpenSSLWrapper10InitializeEv
__ZN15COpenSSLWrapper12m_nInstancesE
__ZN15COpenSSLWrapper22OpenSSLLockingCallbackEiiPKci
__ZN15COpenSSLWrapper23OpenSSLThreadIDCallbackEv
__ZN15COpenSSLWrapper26OpenSSLDynLockLockCallbackEiP20CRYPTO_dynlock_valuePKci
__ZN15COpenSSLWrapper28OpenSSLDynLockCreateCallbackEPKci
__ZN15COpenSSLWrapper29OpenSSLDynLockDestroyCallbackEP20CRYPTO_dynlock_valuePKci
__ZN15COpenSSLWrapper8ShutdownEv
__ZN15CUtlVectorFixedItLm256EED1Ev
__ZN17CMsgICERendezvous10SharedDtorEv
__ZN17CMsgICERendezvous17default_instance_E
__ZN17CMsgICERendezvous21InitAsDefaultInstanceEv
__ZN17CMsgICERendezvous27MergePartialFromCodedStreamEPN6google8protobuf2io16CodedInputStreamE
__ZN17CMsgICERendezvous5ClearEv
__ZN17CMsgICERendezvous8CopyFromERKN6google8protobuf7MessageE
__ZN17CMsgICERendezvous9MergeFromERKN6google8protobuf7MessageE
__ZN17CMsgICERendezvous9MergeFromERKS_
__ZN17CMsgICERendezvousC1ERKS_
__ZN17CMsgICERendezvousC1Ev
__ZN17CMsgICERendezvousC2ERKS_
__ZN17CMsgICERendezvousC2Ev
__ZN17CMsgICERendezvousD0Ev
__ZN17CMsgICERendezvousD1Ev
__ZN17CUtlPriorityQueueIPN25SteamNetworkingSocketsLib8IThinkerENS0_11ThinkerLessENS0_15ThinkerSetIndexEE11PercolateUpEi
__ZN17CUtlPriorityQueueIPN25SteamNetworkingSocketsLib8IThinkerENS0_11ThinkerLessENS0_15ThinkerSetIndexEE13PercolateDownEi
__ZN17CUtlPriorityQueueIPN25SteamNetworkingSocketsLib8IThinkerENS0_11ThinkerLessENS0_15ThinkerSetIndexEE16RevaluateElementEi
__ZN17CUtlPriorityQueueIPN25SteamNetworkingSocketsLib8IThinkerENS0_11ThinkerLessENS0_15ThinkerSetIndexEE6InsertERKS2_
__ZN17CUtlPriorityQueueIPN25SteamNetworkingSocketsLib8IThinkerENS0_11ThinkerLessENS0_15ThinkerSetIndexEE8RemoveAtEi
__ZN17CUtlPriorityQueueIPN25SteamNetworkingSocketsLib8IThinkerENS0_11ThinkerLessENS0_15ThinkerSetIndexEED1Ev
__ZN18CUtlCharConversion14FindConversionEPKcPi
__ZN18CUtlCharConversionC2EcPKciPNS_17ConversionArray_tE
__ZN19CECSigningPublicKey21LoadFromAndWipeBufferEPvm
__ZN19CECSigningPublicKey28SetFromOpenSSHAuthorizedKeysEPKcm
__ZN19CECSigningPublicKeyD0Ev
__ZN19CECSigningPublicKeyD1Ev
__ZN19CUtlNoEscConversion14FindConversionEPKcPi
__ZN19CUtlVectorAutoPurgeIPcED2Ev
__ZN19PercentileGeneratorIhLi1000EE9AddSampleEh
__ZN19PercentileGeneratorIiLi1000EE9AddSampleEi
__ZN19PercentileGeneratorItLi1000EE9AddSampleEt
__ZN20CECSigningPrivateKey21LoadFromAndWipeBufferEPvm
__ZN20CECSigningPrivateKey8ParsePEMEPKcm
__ZN20CECSigningPrivateKeyD0Ev
__ZN20CECSigningPrivateKeyD1Ev
__ZN21AES_GCM_CipherContext10InitCipherEPKvmmmb
__ZN21CEC25519PublicKeyBaseD2Ev
__ZN21CUtlCStringConversion14FindConversionEPKcPi
__ZN21CUtlCStringConversionC2EcPKciPN18CUtlCharConversion17ConversionArray_tE
__ZN22AES_GCM_DecryptContext7DecryptEPKvmS1_PvPjS1_m
__ZN22AES_GCM_DecryptContextD0Ev
__ZN22AES_GCM_DecryptContextD1Ev
__ZN22AES_GCM_EncryptContext7EncryptEPKvmS1_PvPjS1_m
__ZN22AES_GCM_EncryptContextD0Ev
__ZN22AES_GCM_EncryptContextD1Ev
__ZN22CEC25519PrivateKeyBase10SetRawDataEPKvm
__ZN22CEC25519PrivateKeyBase14CachePublicKeyEv
__ZN22CEC25519PrivateKeyBase4WipeEv
__ZN22CEC25519PrivateKeyBaseD0Ev
__ZN22CEC25519PrivateKeyBaseD1Ev
__ZN22CEC25519PrivateKeyBaseD2Ev
__ZN22CMsgICERendezvous_Auth10SharedCtorEv
__ZN22CMsgICERendezvous_Auth10SharedDtorEv
__ZN22CMsgICERendezvous_Auth17default_instance_E
__ZN22CMsgICERendezvous_Auth27MergePartialFromCodedStreamEPN6google8protobuf2io16CodedInputStreamE
__ZN22CMsgICERendezvous_Auth5ClearEv
__ZN22CMsgICERendezvous_Auth8CopyFromERKN6google8protobuf7MessageE
__ZN22CMsgICERendezvous_Auth9MergeFromERKN6google8protobuf7MessageE
__ZN22CMsgICERendezvous_Auth9MergeFromERKS_
__ZN22CMsgICERendezvous_AuthC1Ev
__ZN22CMsgICERendezvous_AuthC2Ev
__ZN22CMsgICERendezvous_AuthD0Ev
__ZN22CMsgICERendezvous_AuthD1Ev
__ZN23CECKeyExchangePublicKeyC2ERKS_
__ZN23CECKeyExchangePublicKeyD0Ev
__ZN23CECKeyExchangePublicKeyD1Ev
__ZN24CCryptoKeyBase_RawBuffer10SetRawDataEPKvm
__ZN24CCryptoKeyBase_RawBuffer4WipeEv
__ZN24CCryptoKeyBase_RawBufferD0Ev
__ZN24CCryptoKeyBase_RawBufferD1Ev
__ZN24CCryptoKeyBase_RawBufferD2Ev
__ZN24CECKeyExchangePrivateKeyD0Ev
__ZN24CECKeyExchangePrivateKeyD1Ev
__ZN25CGameNetworkingUI_Message17default_instance_E
__ZN25CGameNetworkingUI_Message27MergePartialFromCodedStreamEPN6google8protobuf2io16CodedInputStreamE
__ZN25CGameNetworkingUI_Message5ClearEv
__ZN25CGameNetworkingUI_Message8CopyFromERKN6google8protobuf7MessageE
__ZN25CGameNetworkingUI_Message9MergeFromERKN6google8protobuf7MessageE
__ZN25CGameNetworkingUI_Message9MergeFromERKS_
__ZN25CGameNetworkingUI_MessageC2Ev
__ZN25CGameNetworkingUI_MessageD0Ev
__ZN25CGameNetworkingUI_MessageD1Ev
__ZN25SteamNetworkingSocketsLib11CQueuedTask22QueueToRunInBackgroundEv
__ZN25SteamNetworkingSocketsLib11CQueuedTask24QueueToRunWithGlobalLockEPKc
__ZN25SteamNetworkingSocketsLib11CQueuedTask24RunWithGlobalLockOrQueueEPKc
__ZN25SteamNetworkingSocketsLib11CQueuedTask9SetTargetEPNS_11CTaskTargetE
__ZN25SteamNetworkingSocketsLib11CQueuedTaskD0Ev
__ZN25SteamNetworkingSocketsLib11CQueuedTaskD1Ev
__ZN25SteamNetworkingSocketsLib11CQueuedTaskD2Ev
__ZN25SteamNetworkingSocketsLib11CTaskTarget17CancelQueuedTasksEv
__ZN25SteamNetworkingSocketsLib11CTaskTargetD2Ev
__ZN25SteamNetworkingSocketsLib11PingTracker12ReceivedPingEix
__ZN25SteamNetworkingSocketsLib11PingTracker5ResetEv
__ZN25SteamNetworkingSocketsLib11RelayServer13BCreateSocketEv
__ZN25SteamNetworkingSocketsLib11RelayServer13RecvPingReplyEix
__ZN25SteamNetworkingSocketsLib11RelayServer13SaveChallengeI32CMsgSteamDatagramRouterPingReplyEEvRKT_x
__ZN25SteamNetworkingSocketsLib11RelayServer13SaveChallengeI39CMsgSteamDatagramNoSessionRelayToClientEEvRKT_x
__ZN25SteamNetworkingSocketsLib11RelayServer14ReceivedPacketEix
__ZN25SteamNetworkingSocketsLib11RelayServer15SendPingRequestExPKcNS_18EStatsReplyRequestE
__ZN25SteamNetworkingSocketsLib11RelayServer16SendNoConnectionEjjbPNS_12RelaySessionE
__ZN25SteamNetworkingSocketsLib11RelayServer17BSendPacketGatherEiPK5ioveciPNS_12RelaySessionE
__ZN25SteamNetworkingSocketsLib11RelayServer17RecvAltTransportsERK32CMsgSteamDatagramRouterPingReplyx
__ZN25SteamNetworkingSocketsLib11RelayServer19RecvDowntimeWarningEix
__ZN25SteamNetworkingSocketsLib11RelayServer20TrackSentPingRequestExx
__ZN25SteamNetworkingSocketsLib11RelayServer25RecvClusterScoringPenaltyEi
__ZN25SteamNetworkingSocketsLib11RelayServer30ProcessMessage_RouterPingReplyERK32CMsgSteamDatagramRouterPingReplyix
__ZN25SteamNetworkingSocketsLib11RelayServer31CheckCreatedAltTransportByIndexEix
__ZN25SteamNetworkingSocketsLib11RelayServer3NewE52CMsgSteamDatagramRouterPingReply_AltAddress_ProtocolRK10CIPAndPortPNS_17SharedClusterDataEPS0_PNS0_12AltTransportE
__ZN25SteamNetworkingSocketsLib11RelayServer7SendMsgE19ESteamDatagramMsgIDRKN6google8protobuf7MessageEPNS_12RelaySessionE
__ZN25SteamNetworkingSocketsLib11RelayServerC2Ei52CMsgSteamDatagramRouterPingReply_AltAddress_ProtocolRK10CIPAndPortPNS_17SharedClusterDataEPS0_
__ZN25SteamNetworkingSocketsLib11RelayServerD2Ev
__ZN25SteamNetworkingSocketsLib11g_eUniverseE
__ZN25SteamNetworkingSocketsLib12CFakeUDPPort13CreateSessionERK21SteamNetworkingIPAddr
__ZN25SteamNetworkingSocketsLib12CFakeUDPPort13FreeResourcesEv
__ZN25SteamNetworkingSocketsLib12CFakeUDPPort14DestroySessionEPNS_14FakeUDPSessionEiPKc
__ZN25SteamNetworkingSocketsLib12CFakeUDPPort15ReceiveMessagesEPP24SteamNetworkingMessage_ti
__ZN25SteamNetworkingSocketsLib12CFakeUDPPort15ScheduleCleanupERK21SteamNetworkingIPAddr
__ZN25SteamNetworkingSocketsLib12CFakeUDPPort18DestroyFakeUDPPortEv
__ZN25SteamNetworkingSocketsLib12CFakeUDPPort19SendMessageToFakeIPERK21SteamNetworkingIPAddrPKvji
__ZN25SteamNetworkingSocketsLib12CFakeUDPPort28BHandleNewIncomingConnectionEPNS_27CSteamNetworkConnectionBaseERNS_19ConnectionScopeLockE
__ZN25SteamNetworkingSocketsLib12CFakeUDPPort5BInitEv
__ZN25SteamNetworkingSocketsLib12CFakeUDPPortC2ERNS_32CSteamNetworkingSocketsSteamBaseEi
__ZN25SteamNetworkingSocketsLib12CFakeUDPPortD0Ev
__ZN25SteamNetworkingSocketsLib12CFakeUDPPortD1Ev
__ZN25SteamNetworkingSocketsLib12CFakeUDPPortD2Ev
__ZN25SteamNetworkingSocketsLib12Murmorhash32EPKvm
__ZN25SteamNetworkingSocketsLib12RelaySession22TrackRecvSessionPacketEix
__ZN25SteamNetworkingSocketsLib12RelaySessionC1EPNS_11RelayServerEPNS_27CConnectionTransportSDRBaseEx
__ZN25SteamNetworkingSocketsLib12RelaySessionC2EPNS_11RelayServerEPNS_27CConnectionTransportSDRBaseEx
__ZN25SteamNetworkingSocketsLib13CPacketLagger5ThinkEx
__ZN25SteamNetworkingSocketsLib13CPacketLagger8ScheduleEv
__ZN25SteamNetworkingSocketsLib13CPacketLagger9LagPacketEPNS_17CRawUDPSocketImplERK10CIPAndPortiiPK5iovec
__ZN25SteamNetworkingSocketsLib13CPacketLaggerD0Ev
__ZN25SteamNetworkingSocketsLib13CPacketLaggerD1Ev
__ZN25SteamNetworkingSocketsLib13CPacketLaggerD2Ev
__ZN25SteamNetworkingSocketsLib13CSharedSocket10RemoteHost5CloseEv
__ZN25SteamNetworkingSocketsLib13CSharedSocket10RemoteHostD0Ev
__ZN25SteamNetworkingSocketsLib13CSharedSocket10RemoteHostD1Ev
__ZN25SteamNetworkingSocketsLib13CSharedSocket13AddRemoteHostERK10CIPAndPortNS_19CRecvPacketCallbackE
__ZN25SteamNetworkingSocketsLib13CSharedSocket18CallbackRecvPacketERKNS_13RecvPktInfo_tEPS0_
__ZN25SteamNetworkingSocketsLib13CSharedSocket22CloseRemoteHostByIndexEi
__ZN25SteamNetworkingSocketsLib13CSharedSocket4KillEv
__ZN25SteamNetworkingSocketsLib13CSharedSocket5BInitERK21SteamNetworkingIPAddrNS_19CRecvPacketCallbackERA1024_c
__ZN25SteamNetworkingSocketsLib13CSharedSocketC1Ev
__ZN25SteamNetworkingSocketsLib13CSharedSocketD1Ev
__ZN25SteamNetworkingSocketsLib13CSharedSocketD2Ev
__ZN25SteamNetworkingSocketsLib13CertAuthScope6SetAllEv
__ZN25SteamNetworkingSocketsLib13LockDebugInfo11AboutToLockEb
__ZN25SteamNetworkingSocketsLib13LockDebugInfo13AboutToUnlockEv
__ZN25SteamNetworkingSocketsLib13LockDebugInfo8OnLockedEPKc
__ZN25SteamNetworkingSocketsLib13LockDebugInfoD2Ev
__ZN25SteamNetworkingSocketsLib13PingHistogram9AddSampleEi
__ZN25SteamNetworkingSocketsLib13PollGroupLockC2Ev
__ZN25SteamNetworkingSocketsLib13g_eSteamRealmE
__ZN25SteamNetworkingSocketsLib13g_tables_lockE
__ZN25SteamNetworkingSocketsLib14CheckCertAppIDERK28CMsgSteamDatagramCertificatePKNS_13CertAuthScopeEjRA1024_c
__ZN25SteamNetworkingSocketsLib14CheckCertPOPIDERK28CMsgSteamDatagramCertificatePKNS_13CertAuthScopeEjRA1024_c
__ZN25SteamNetworkingSocketsLib14ConnectionLockC2Ev
__ZN25SteamNetworkingSocketsLib14ConnectionLockD1Ev
__ZN25SteamNetworkingSocketsLib14FakeUDPSession14CheckFakeIPRefEv
__ZN25SteamNetworkingSocketsLib14FakeUDPSession15CheckConnectionEx
__ZN25SteamNetworkingSocketsLib14FakeUDPSession15CloseConnectionEiPKc
__ZN25SteamNetworkingSocketsLib14FakeUDPSession15ReceivedMessageEPNS_23CSteamNetworkingMessageEPNS_27CSteamNetworkConnectionBaseE
__ZN25SteamNetworkingSocketsLib14FakeUDPSession15ScheduleCleanupEx
__ZN25SteamNetworkingSocketsLib14FakeUDPSession5ThinkEx
__ZN25SteamNetworkingSocketsLib14FakeUDPSessionC2ERK23SteamNetworkingIdentityRNS_12CFakeUDPPortE
__ZN25SteamNetworkingSocketsLib14FakeUDPSessionD0Ev
__ZN25SteamNetworkingSocketsLib14FakeUDPSessionD1Ev
__ZN25SteamNetworkingSocketsLib15BCheckSignatureERKNSt3__112basic_stringIcNS0_11char_traitsIcEENS0_9allocatorIcEEEE37CMsgSteamDatagramCertificate_EKeyTypeS8_S8_RA1024_c
__ZN25SteamNetworkingSocketsLib15CSDRHTTPRequest16SetRequestHeaderEPKcS2_
__ZN25SteamNetworkingSocketsLib15CSDRHTTPRequest28QueueCallbackAndSelfDestructEv
__ZN25SteamNetworkingSocketsLib15CSDRHTTPRequest34QueueFailedCallbackAndSelfDestructEPKc
__ZN25SteamNetworkingSocketsLib15CSDRHTTPRequest5ThinkEx
__ZN25SteamNetworkingSocketsLib15CSDRHTTPRequest6CancelEv
__ZN25SteamNetworkingSocketsLib15CSDRHTTPRequestC2EPKc
__ZN25SteamNetworkingSocketsLib15CSDRHTTPRequestD0Ev
__ZN25SteamNetworkingSocketsLib15CSDRHTTPRequestD1Ev
__ZN25SteamNetworkingSocketsLib15CSDRHTTPRequestD2Ev
__ZN25SteamNetworkingSocketsLib15CertStore_CheckEv
__ZN25SteamNetworkingSocketsLib15FakeIPReference14AddRefInternalEiPK23SteamNetworkingIdentity
__ZN25SteamNetworkingSocketsLib15FakeIPReference14InsertInternalERKNS_9FakeIPKeyERK23SteamNetworkingIdentity
__ZN25SteamNetworkingSocketsLib15FakeIPReference15SetupNewLocalIPERK23SteamNetworkingIdentityP21SteamNetworkingIPAddr
__ZN25SteamNetworkingSocketsLib15FakeIPReference5ClearEv
__ZN25SteamNetworkingSocketsLib15FakeIPReference5SetupERK21SteamNetworkingIPAddrRK23SteamNetworkingIdentity
__ZN25SteamNetworkingSocketsLib15FakeIPReference6LookupERK21SteamNetworkingIPAddr
__ZN25SteamNetworkingSocketsLib15FakeIPReferenceD2Ev
__ZN25SteamNetworkingSocketsLib15JitterHistogram9AddSampleEx
__ZN25SteamNetworkingSocketsLib15SSNPSenderState29RemoveRefCountReliableSegmentEt
__ZN25SteamNetworkingSocketsLib15SSNPSenderState8ShutdownEv
__ZN25SteamNetworkingSocketsLib15SSNPSenderStateC1Ev
__ZN25SteamNetworkingSocketsLib15SSNPSenderStateC2Ev
__ZN25SteamNetworkingSocketsLib15SSNPSenderStateD2Ev
__ZN25SteamNetworkingSocketsLib15g_eAppSpewLevelE
__ZN25SteamNetworkingSocketsLib15g_mapPollGroupsE
__ZN25SteamNetworkingSocketsLib15g_vecSDRClientsE
__ZN25SteamNetworkingSocketsLib15s_lockTaskQueueE
__ZN25SteamNetworkingSocketsLib16ConnectionConfig4InitEPS0_
__ZN25SteamNetworkingSocketsLib16LinkStatsTrackerINS_24LinkStatsTrackerEndToEndEE14TrackSentStatsERK34CMsgSteamDatagramConnectionQualityxb
__ZN25SteamNetworkingSocketsLib16LinkStatsTrackerINS_24LinkStatsTrackerEndToEndEE27TrackProcessSequencedPacketExxii
__ZN25SteamNetworkingSocketsLib16LinkStatsTrackerINS_24LinkStatsTrackerEndToEndEE30ExpandWirePacketNumberAndCheckEti
__ZN25SteamNetworkingSocketsLib16LinkStatsTrackerINS_34LinkStatsTrackerClientRelaySessionEE14TrackSentStatsERK34CMsgSteamDatagramConnectionQualityxb
__ZN25SteamNetworkingSocketsLib16LinkStatsTrackerINS_34LinkStatsTrackerClientRelaySessionEE27TrackProcessSequencedPacketExxii
__ZN25SteamNetworkingSocketsLib16LinkStatsTrackerINS_34LinkStatsTrackerClientRelaySessionEE30ExpandWirePacketNumberAndCheckEti
__ZN25SteamNetworkingSocketsLib16ParseCertFromPEMEPKvmR34CMsgSteamDatagramCertificateSignedRA1024_c
__ZN25SteamNetworkingSocketsLib16g_eAvailAnyRelayE
__ZN25SteamNetworkingSocketsLib16g_mapConnectionsE
__ZN25SteamNetworkingSocketsLib16g_pfnDebugOutputE
__ZN25SteamNetworkingSocketsLib17CMessagesEndPoint13FreeResourcesEv
__ZN25SteamNetworkingSocketsLib17CMessagesEndPoint19BCreateListenSocketEv
__ZN25SteamNetworkingSocketsLib17CMessagesEndPoint23DestroyMessagesEndPointEv
__ZN25SteamNetworkingSocketsLib17CMessagesEndPoint5BInitEv
__ZN25SteamNetworkingSocketsLib17CMessagesEndPointC2ERNS_23CSteamNetworkingSocketsEi
__ZN25SteamNetworkingSocketsLib17CMessagesEndPointD0Ev
__ZN25SteamNetworkingSocketsLib17CMessagesEndPointD1Ev
__ZN25SteamNetworkingSocketsLib17CMessagesEndPointD2Ev
__ZN25SteamNetworkingSocketsLib17CP2PRouteSelector14FindOrAddRouteEii
__ZN25SteamNetworkingSocketsLib17CP2PRouteSelector20MessageToPeerBuilder13TruncateListsEv
__ZN25SteamNetworkingSocketsLib17CP2PRouteSelector25MarkRemoteRelaysAndRoutesERK26CMsgSteamDatagramP2PRoutes
__ZN25SteamNetworkingSocketsLib17CP2PRouteSelector28BuildListsForServerSelectionEv
__ZN25SteamNetworkingSocketsLib17CP2PRouteSelector4InitEv
__ZN25SteamNetworkingSocketsLib17CPacketLaggerRecv13ProcessPacketERKNS_13CPacketLagger12LaggedPacketEx
__ZN25SteamNetworkingSocketsLib17CPacketLaggerRecvD0Ev
__ZN25SteamNetworkingSocketsLib17CPacketLaggerRecvD1Ev
__ZN25SteamNetworkingSocketsLib17CPacketLaggerSend13ProcessPacketERKNS_13CPacketLagger12LaggedPacketEx
__ZN25SteamNetworkingSocketsLib17CPacketLaggerSendD0Ev
__ZN25SteamNetworkingSocketsLib17CPacketLaggerSendD1Ev
__ZN25SteamNetworkingSocketsLib17CRawUDPSocketImpl25InternalAddToCleanupQueueEv
__ZN25SteamNetworkingSocketsLib17CRawUDPSocketImpl5CloseEv
__ZN25SteamNetworkingSocketsLib17CRawUDPSocketImplD0Ev
__ZN25SteamNetworkingSocketsLib17CRawUDPSocketImplD1Ev
__ZN25SteamNetworkingSocketsLib17CRawUDPSocketImplD2Ev
__ZN25SteamNetworkingSocketsLib17CertAuthParameterIjLj4294967295EE15SetIntersectionERKS1_S3_
__ZN25SteamNetworkingSocketsLib17CertAuthParameterIjLj4294967295EE5SetupEPKji
__ZN25SteamNetworkingSocketsLib17GlobalConfigValueINSt3__112basic_stringIcNS1_11char_traitsIcEENS1_9allocatorIcEEEEEC1E27ESteamNetworkingConfigValuePKcRKS7_
__ZN25SteamNetworkingSocketsLib17GlobalConfigValueINSt3__112basic_stringIcNS1_11char_traitsIcEENS1_9allocatorIcEEEEED1Ev
__ZN25SteamNetworkingSocketsLib17ReallySpewTypeFmtEiPKcz
__ZN25SteamNetworkingSocketsLib17SNPEncodedSegment13SetupReliableEPNS_23CSteamNetworkingMessageExxx
__ZN25SteamNetworkingSocketsLib17SSNPReceiverState17QueueFlushAllAcksEx
__ZN25SteamNetworkingSocketsLib17SSNPReceiverState8ShutdownEv
__ZN25SteamNetworkingSocketsLib17SSNPReceiverStateC1Ev
__ZN25SteamNetworkingSocketsLib17SSNPReceiverStateC2Ev
__ZN25SteamNetworkingSocketsLib17SSNPReceiverStateD2Ev
__ZN25SteamNetworkingSocketsLib17SendPacketContextI26CMsgSteamSockets_UDP_StatsE20SlamFlagsAndCalcSizeEv
__ZN25SteamNetworkingSocketsLib17SendPacketContextI26CMsgSteamSockets_UDP_StatsE27CalcMaxEncryptedPayloadSizeEmPNS_27CSteamNetworkConnectionBaseE
__ZN25SteamNetworkingSocketsLib17SendPacketContextI26CMsgSteamSockets_UDP_StatsE9SerializeERPh
__ZN25SteamNetworkingSocketsLib17SendPacketContextI46CMsgSteamDatagramConnectionStatsClientToRouterE20SlamFlagsAndCalcSizeEv
__ZN25SteamNetworkingSocketsLib17SendPacketContextI46CMsgSteamDatagramConnectionStatsClientToRouterE27CalcMaxEncryptedPayloadSizeEmPNS_27CSteamNetworkConnectionBaseE
__ZN25SteamNetworkingSocketsLib17SendPacketContextI46CMsgSteamDatagramConnectionStatsClientToRouterE9SerializeERPh
__ZN25SteamNetworkingSocketsLib17SendPacketContextI49CMsgSteamDatagramConnectionStatsP2PClientToRouterE20SlamFlagsAndCalcSizeEv
__ZN25SteamNetworkingSocketsLib17SendPacketContextI49CMsgSteamDatagramConnectionStatsP2PClientToRouterE27CalcMaxEncryptedPayloadSizeEmPNS_27CSteamNetworkConnectionBaseE
__ZN25SteamNetworkingSocketsLib17SendPacketContextI49CMsgSteamDatagramConnectionStatsP2PClientToRouterE9SerializeERPh
__ZN25SteamNetworkingSocketsLib17SharedClusterData23RecvDataCenterLatenciesERNS_11RelayServerERK32CMsgSteamDatagramRouterPingReplyx
__ZN25SteamNetworkingSocketsLib17SharedClusterDataC2Ei
__ZN25SteamNetworkingSocketsLib17SharedClusterDataD2Ev
__ZN25SteamNetworkingSocketsLib17ShortDurationLockD1Ev
__ZN25SteamNetworkingSocketsLib17VirtualPortRenderC2Ei
__ZN25SteamNetworkingSocketsLib18CHTTPRequest_Steam10OnCanceledEv
__ZN25SteamNetworkingSocketsLib18CHTTPRequest_Steam12OnCallResultEP22HTTPRequestCompleted_tb
__ZN25SteamNetworkingSocketsLib18CHTTPRequest_Steam13SubmitRequestEv
__ZN25SteamNetworkingSocketsLib18CHTTPRequest_Steam14DestroyRequestEv
__ZN25SteamNetworkingSocketsLib18CHTTPRequest_SteamC1EPKcPNS_30CSteamNetworkingUtilsSteamBaseE
__ZN25SteamNetworkingSocketsLib18CHTTPRequest_SteamD0Ev
__ZN25SteamNetworkingSocketsLib18CHTTPRequest_SteamD1Ev
__ZN25SteamNetworkingSocketsLib18CHTTPRequest_SteamD2Ev
__ZN25SteamNetworkingSocketsLib18PingTrackerBucketsILi17ELx1000000EE12ReceivedPingEix
__ZN25SteamNetworkingSocketsLib18PingTrackerBucketsILi17ELx1000000EE15SetPingOverrideEi
__ZN25SteamNetworkingSocketsLib18g_eSystemSpewLevelE
__ZN25SteamNetworkingSocketsLib18g_mapListenSocketsE
__ZN25SteamNetworkingSocketsLib19CertStore_CheckCertERK34CMsgSteamDatagramCertificateSignedR28CMsgSteamDatagramCertificatelRA1024_c
__ZN25SteamNetworkingSocketsLib19ExpectedAcksTracker14AddExpectedAckEtx
__ZN25SteamNetworkingSocketsLib19ExpectedAcksTracker23GetTimeSentAndRemoveAckEtx
__ZN25SteamNetworkingSocketsLib19ExpectedAcksTracker26BRemoveOldestAckIfTimedOutERNS_9PacketAckEx
__ZN25SteamNetworkingSocketsLib19GetConfigValueTypedINSt3__112basic_stringIcNS1_11char_traitsIcEENS1_9allocatorIcEEEEEE36ESteamNetworkingGetConfigValueResultPNS_22GlobalConfigValueEntryE27ESteamNetworkingConfigScopelPvPm
__ZN25SteamNetworkingSocketsLib19GetConfigValueTypedIPvEE36ESteamNetworkingGetConfigValueResultPNS_22GlobalConfigValueEntryE27ESteamNetworkingConfigScopelS1_Pm
__ZN25SteamNetworkingSocketsLib19GetConfigValueTypedIfEE36ESteamNetworkingGetConfigValueResultPNS_22GlobalConfigValueEntryE27ESteamNetworkingConfigScopelPvPm
__ZN25SteamNetworkingSocketsLib19GetConfigValueTypedIiEE36ESteamNetworkingGetConfigValueResultPNS_22GlobalConfigValueEntryE27ESteamNetworkingConfigScopelPvPm
__ZN25SteamNetworkingSocketsLib19GetConfigValueTypedIxEE36ESteamNetworkingGetConfigValueResultPNS_22GlobalConfigValueEntryE27ESteamNetworkingConfigScopelPvPm
__ZN25SteamNetworkingSocketsLib19LinkStatsPrintToBufEPKcRKNS_22SteamDatagramLinkStatsER10CUtlBuffer
__ZN25SteamNetworkingSocketsLib19NumberPrettyPrinter5PrintEx
__ZN25SteamNetworkingSocketsLib19ParseCertFromBase64EPKcmR34CMsgSteamDatagramCertificateSignedRA1024_c
__ZN25SteamNetworkingSocketsLib19PingTrackerDetailed12ReceivedPingEix
__ZN25SteamNetworkingSocketsLib19RouteQualityMetrics4InitEPKNS_17SharedClusterDataEx
__ZN25SteamNetworkingSocketsLib19SNPSegmentCollectorILb0ELb0EE8UndoLastEPNS_23SNPSegmentCollectorLaneILb0EEE
__ZN25SteamNetworkingSocketsLib19SNPSegmentCollectorILb1ELb0EE8UndoLastEPNS_23SNPSegmentCollectorLaneILb1EEE
__ZN25SteamNetworkingSocketsLib19SetConfigValueTypedINSt3__112basic_stringIcNS1_11char_traitsIcEENS1_9allocatorIcEEEEEEbPNS_22GlobalConfigValueEntryE27ESteamNetworkingConfigScopel30ESteamNetworkingConfigDataTypePKv
__ZN25SteamNetworkingSocketsLib19SetConfigValueTypedIPvEEbPNS_22GlobalConfigValueEntryE27ESteamNetworkingConfigScopel30ESteamNetworkingConfigDataTypePKv
__ZN25SteamNetworkingSocketsLib19SetConfigValueTypedIfEEbPNS_22GlobalConfigValueEntryE27ESteamNetworkingConfigScopel30ESteamNetworkingConfigDataTypePKv
__ZN25SteamNetworkingSocketsLib19SetConfigValueTypedIiEEbPNS_22GlobalConfigValueEntryE27ESteamNetworkingConfigScopel30ESteamNetworkingConfigDataTypePKv
__ZN25SteamNetworkingSocketsLib19SetConfigValueTypedIxEEbPNS_22GlobalConfigValueEntryE27ESteamNetworkingConfigScopel30ESteamNetworkingConfigDataTypePKv
__ZN25SteamNetworkingSocketsLib19V_sprintf_stdstringILi1024EEENSt3__112basic_stringIcNS1_11char_traitsIcEENS1_9allocatorIcEEEEPKcz
__ZN25SteamNetworkingSocketsLib20CConnectionTransport22TransportFreeResourcesEv
__ZN25SteamNetworkingSocketsLib20CConnectionTransport23TransportDestroySelfNowEv
__ZN25SteamNetworkingSocketsLib20CConnectionTransport26SendEndToEndConnectRequestEx
__ZN25SteamNetworkingSocketsLib20CConnectionTransport27GetDetailedConnectionStatusERNS_39SteamNetworkingDetailedConnectionStatusEx
__ZN25SteamNetworkingSocketsLib20CConnectionTransport27TransportGuessTimeoutReasonER22ESteamNetConnectionEndRA128_cx
__ZN25SteamNetworkingSocketsLib20CConnectionTransport28TransportPopulateDiagnosticsER33CGameNetworkingUI_ConnectionStatex
__ZN25SteamNetworkingSocketsLib20CConnectionTransport31TransportConnectionStateChangedE31ESteamNetworkingConnectionState
__ZN25SteamNetworkingSocketsLib20CalculatePublicKeyIDERK19CECSigningPublicKey
__ZN25SteamNetworkingSocketsLib20DataPacketSerializerINS_24MsgHdrDataClientToRouterEE6FinishEv
__ZN25SteamNetworkingSocketsLib20DataPacketSerializerINS_24MsgHdrDataClientToRouterEEC2EP5iovecPKvi
__ZN25SteamNetworkingSocketsLib20GetPollGroupByHandleEjRNS_9ScopeLockINS_13PollGroupLockEEEPKc
__ZN25SteamNetworkingSocketsLib20LinkStatsTrackerBase12InitInternalEx
__ZN25SteamNetworkingSocketsLib20LinkStatsTrackerBase14InFlightPktAckEx
__ZN25SteamNetworkingSocketsLib20LinkStatsTrackerBase14ProcessMessageERK34CMsgSteamDatagramConnectionQualityx
__ZN25SteamNetworkingSocketsLib20LinkStatsTrackerBase14UpdateIntervalEx
__ZN25SteamNetworkingSocketsLib20LinkStatsTrackerBase15PopulateMessageEiR34CMsgSteamDatagramConnectionQualityx
__ZN25SteamNetworkingSocketsLib20LinkStatsTrackerBase16GetStatsSendNeedEx
__ZN25SteamNetworkingSocketsLib20LinkStatsTrackerBase17InitMaxRecvPktNumEx
__ZN25SteamNetworkingSocketsLib20LinkStatsTrackerBase18SetPassiveInternalEbx
__ZN25SteamNetworkingSocketsLib20LinkStatsTrackerBase23PopulateLifetimeMessageER34CMsgSteamDatagramLinkLifetimeStats
__ZN25SteamNetworkingSocketsLib20LinkStatsTrackerBase28BCheckHaveDataToSendLifetimeEx
__ZN25SteamNetworkingSocketsLib20LinkStatsTrackerBase30TrackSentMessageExpectingReplyExb
__ZN25SteamNetworkingSocketsLib20LinkStatsTrackerBase33BCheckHaveDataToSendInstantaneousEx
__ZN25SteamNetworkingSocketsLib20LinkStatsTrackerBase41InternalProcessSequencedPacket_OutOfOrderEx
__ZN25SteamNetworkingSocketsLib20LinkStatsTrackerBase47InternalGetSendStatsReasonOrUpdateNextThinkTimeExPKPKcRx
__ZN25SteamNetworkingSocketsLib20SteamDatagramNetwork13SetupFromJSONEPKcmRNS_31SteamDatagramNetworkConfigCertsERA1024_c
__ZN25SteamNetworkingSocketsLib20SteamDatagramNetwork16SetupTestClusterERKNSt3__16vectorINS0_12RelayAddressENS1_9allocatorIS3_EEEE
__ZN25SteamNetworkingSocketsLib20SteamDatagramNetwork17BuildLookupTablesERA1024_c
__ZN25SteamNetworkingSocketsLib20SteamDatagramNetwork19SetupFromJSONGlobalEPKcmRA1024_c
__ZN25SteamNetworkingSocketsLib20SteamDatagramNetwork3POP7SetCodeEPKc
__ZN25SteamNetworkingSocketsLib20SteamDatagramNetworkC1Ev
__ZN25SteamNetworkingSocketsLib20SteamDatagramNetworkD1Ev
__ZN25SteamNetworkingSocketsLib20SteamDatagramNetworkD2Ev
__ZN25SteamNetworkingSocketsLib20g_szAvailAnyRelayMsgE
__ZN25SteamNetworkingSocketsLib21CDedicatedBoundSocket5CloseEv
__ZN25SteamNetworkingSocketsLib21CDedicatedBoundSocketD0Ev
__ZN25SteamNetworkingSocketsLib21CDedicatedBoundSocketD1Ev
__ZN25SteamNetworkingSocketsLib21CSteamNetworkingUtils13GetTimeSecureEv
__ZN25SteamNetworkingSocketsLib21CSteamNetworkingUtils14GetBuildStringEv
__ZN25SteamNetworkingSocketsLib21CSteamNetworkingUtils14GetConfigValueE27ESteamNetworkingConfigValue27ESteamNetworkingConfigScopelP30ESteamNetworkingConfigDataTypePvPm
__ZN25SteamNetworkingSocketsLib21CSteamNetworkingUtils14SetConfigValueE27ESteamNetworkingConfigValue27ESteamNetworkingConfigScopel30ESteamNetworkingConfigDataTypePKv
__ZN25SteamNetworkingSocketsLib21CSteamNetworkingUtils14TEST_ResetSelfEv
__ZN25SteamNetworkingSocketsLib21CSteamNetworkingUtils15AllocateMessageEi
__ZN25SteamNetworkingSocketsLib21CSteamNetworkingUtils17GetIPv4FakeIPTypeEj
__ZN25SteamNetworkingSocketsLib21CSteamNetworkingUtils17GetLocalTimestampEv
__ZN25SteamNetworkingSocketsLib21CSteamNetworkingUtils17GetPlatformStringEv
__ZN25SteamNetworkingSocketsLib21CSteamNetworkingUtils18GetConfigValueInfoE27ESteamNetworkingConfigValueP30ESteamNetworkingConfigDataTypeP27ESteamNetworkingConfigScope
__ZN25SteamNetworkingSocketsLib21CSteamNetworkingUtils22SetDebugOutputFunctionE38ESteamNetworkingSocketsDebugOutputTypePFvS1_PKcE
__ZN25SteamNetworkingSocketsLib21CSteamNetworkingUtils24GetRealIdentityForFakeIPERK21SteamNetworkingIPAddrP23SteamNetworkingIdentity
__ZN25SteamNetworkingSocketsLib21CSteamNetworkingUtils30SteamNetworkingIPAddr_ToStringERK21SteamNetworkingIPAddrPcmb
__ZN25SteamNetworkingSocketsLib21CSteamNetworkingUtils32SteamNetworkingIdentity_ToStringERK23SteamNetworkingIdentityPcm
__ZN25SteamNetworkingSocketsLib21CSteamNetworkingUtils33SteamNetworkingIPAddr_ParseStringEP21SteamNetworkingIPAddrPKc
__ZN25SteamNetworkingSocketsLib21CSteamNetworkingUtils34IterateGenericEditableConfigValuesE27ESteamNetworkingConfigValueb
__ZN25SteamNetworkingSocketsLib21CSteamNetworkingUtils35SteamNetworkingIPAddr_GetFakeIPTypeERK21SteamNetworkingIPAddr
__ZN25SteamNetworkingSocketsLib21CSteamNetworkingUtils35SteamNetworkingIdentity_ParseStringEP23SteamNetworkingIdentityPKc
__ZN25SteamNetworkingSocketsLib21CSteamNetworkingUtils8GetAppIDEv
__ZN25SteamNetworkingSocketsLib21CSteamNetworkingUtilsC2Ev
__ZN25SteamNetworkingSocketsLib21CSteamNetworkingUtilsD0Ev
__ZN25SteamNetworkingSocketsLib21CSteamNetworkingUtilsD1Ev
__ZN25SteamNetworkingSocketsLib21CSteamNetworkingUtilsD2Ev
__ZN25SteamNetworkingSocketsLib21CachedRelayAuthTicket4WipeEv
__ZN25SteamNetworkingSocketsLib21CachedRelayAuthTicketD2Ev
__ZN25SteamNetworkingSocketsLib21CreateBoundSocketPairENS_19CRecvPacketCallbackES0_PPNS_15IBoundUDPSocketERA1024_c
__ZN25SteamNetworkingSocketsLib21DescribeStatsContentsERK26CMsgSteamSockets_UDP_Stats
__ZN25SteamNetworkingSocketsLib21DescribeStatsContentsERK49CMsgSteamDatagramConnectionStatsP2PClientToRouter
__ZN25SteamNetworkingSocketsLib21DescribeStatsContentsERK49CMsgSteamDatagramConnectionStatsP2PRouterToClient
__ZN25SteamNetworkingSocketsLib21DescribeStatsContentsI46CMsgSteamDatagramConnectionStatsClientToRouterEENSt3__112basic_stringIcNS2_11char_traitsIcEENS2_9allocatorIcEEEERKT_
__ZN25SteamNetworkingSocketsLib21DescribeStatsContentsI46CMsgSteamDatagramConnectionStatsRouterToClientEENSt3__112basic_stringIcNS2_11char_traitsIcEENS2_9allocatorIcEEEERKT_
__ZN25SteamNetworkingSocketsLib21DescribeStatsContentsI49CMsgSteamDatagramConnectionStatsP2PClientToRouterEENSt3__112basic_stringIcNS2_11char_traitsIcEENS2_9allocatorIcEEEERKT_
__ZN25SteamNetworkingSocketsLib21DescribeStatsContentsI49CMsgSteamDatagramConnectionStatsP2PRouterToClientEENSt3__112basic_stringIcNS2_11char_traitsIcEENS2_9allocatorIcEEEERKT_
__ZN25SteamNetworkingSocketsLib21GetAvailabilityStringE28ESteamNetworkingAvailability
__ZN25SteamNetworkingSocketsLib21GetConnectionByHandleEjRNS_19ConnectionScopeLockE
__ZN25SteamNetworkingSocketsLib21GlobalConfigValueBaseINSt3__112basic_stringIcNS1_11char_traitsIcEENS1_9allocatorIcEEEEEC2E27ESteamNetworkingConfigValuePKc27ESteamNetworkingConfigScopeiRKS7_
__ZN25SteamNetworkingSocketsLib21GlobalConfigValueBaseIPvEC2E27ESteamNetworkingConfigValuePKc27ESteamNetworkingConfigScopeiRKS1_
__ZN25SteamNetworkingSocketsLib21GlobalConfigValueBaseIfEC2E27ESteamNetworkingConfigValuePKc27ESteamNetworkingConfigScopeiRKfS7_S7_
__ZN25SteamNetworkingSocketsLib21GlobalConfigValueBaseIiEC2E27ESteamNetworkingConfigValuePKc27ESteamNetworkingConfigScopeiRKiS7_S7_
__ZN25SteamNetworkingSocketsLib21GlobalConfigValueBaseIxEC2E27ESteamNetworkingConfigValuePKc27ESteamNetworkingConfigScopeiRKx
__ZN25SteamNetworkingSocketsLib21PendingSendAckTracker12TrackSentAckEt
__ZN25SteamNetworkingSocketsLib21SendP2PRendezvousTask3RunEv
__ZN25SteamNetworkingSocketsLib21SendP2PRendezvousTaskC2EPNS_32CSteamNetworkingSocketsSteamBaseE8CSteamIDPKvi
__ZN25SteamNetworkingSocketsLib21SendP2PRendezvousTaskD0Ev
__ZN25SteamNetworkingSocketsLib21SendP2PRendezvousTaskD1Ev
__ZN25SteamNetworkingSocketsLib21g_eAvailNetworkConfigE
__ZN25SteamNetworkingSocketsLib21g_nRateLimitSpewCountE
__ZN25SteamNetworkingSocketsLib22CSteamNetworkPollGroup31AssignHandleAndAddToGlobalTableEv
__ZN25SteamNetworkingSocketsLib22CSteamNetworkPollGroupC1EPNS_23CSteamNetworkingSocketsE
__ZN25SteamNetworkingSocketsLib22CSteamNetworkPollGroupC2EPNS_23CSteamNetworkingSocketsE
__ZN25SteamNetworkingSocketsLib22CSteamNetworkPollGroupD1Ev
__ZN25SteamNetworkingSocketsLib22CSteamNetworkPollGroupD2Ev
__ZN25SteamNetworkingSocketsLib22GlobalConfigValueEntryC2E27ESteamNetworkingConfigValuePKc30ESteamNetworkingConfigDataType27ESteamNetworkingConfigScopei
__ZN25SteamNetworkingSocketsLib22SNPAckSerializerHelper15EncodeTimeSinceExx
__ZN25SteamNetworkingSocketsLib22ScheduledMethodThinkerINS_23CSteamNetworkingSocketsEE5ThinkEx
__ZN25SteamNetworkingSocketsLib22ScheduledMethodThinkerINS_23CSteamNetworkingSocketsEED0Ev
__ZN25SteamNetworkingSocketsLib22ScheduledMethodThinkerINS_23CSteamNetworkingSocketsEED1Ev
__ZN25SteamNetworkingSocketsLib22SteamDatagramLinkStats5ClearEv
__ZN25SteamNetworkingSocketsLib22UDPSendPacketContext_t4TrimEi
__ZN25SteamNetworkingSocketsLib22UDPSendPacketContext_t8PopulateEmNS_18EStatsReplyRequestEPNS_27CConnectionTransportUDPBaseE
__ZN25SteamNetworkingSocketsLib22g_SteamDatagramNetworkE
__ZN25SteamNetworkingSocketsLib22g_mapSharedClusterDataE
__ZN25SteamNetworkingSocketsLib23CConnectionTransportUDP10SendPacketEPKvi
__ZN25SteamNetworkingSocketsLib23CConnectionTransportUDP13SendConnectOKEx
__ZN25SteamNetworkingSocketsLib23CConnectionTransportUDP14PacketReceivedERKNS_13RecvPktInfo_tEPS0_
__ZN25SteamNetworkingSocketsLib23CConnectionTransportUDP16SendPacketGatherEiPK5ioveci
__ZN25SteamNetworkingSocketsLib23CConnectionTransportUDP18CreateLoopbackPairEPPS0_
__ZN25SteamNetworkingSocketsLib23CConnectionTransportUDP18Received_ConnectOKERK30CMsgSteamSockets_UDP_ConnectOKx
__ZN25SteamNetworkingSocketsLib23CConnectionTransportUDP22TransportFreeResourcesEv
__ZN25SteamNetworkingSocketsLib23CConnectionTransportUDP23Received_ChallengeReplyERK35CMsgSteamSockets_UDP_ChallengeReplyx
__ZN25SteamNetworkingSocketsLib23CConnectionTransportUDP26SendEndToEndConnectRequestEx
__ZN25SteamNetworkingSocketsLib23CConnectionTransportUDP31TransportConnectionStateChangedE31ESteamNetworkingConnectionState
__ZN25SteamNetworkingSocketsLib23CConnectionTransportUDP34Received_ChallengeOrConnectRequestEPKcjx
__ZN25SteamNetworkingSocketsLib23CConnectionTransportUDP7BAcceptEPNS_13CSharedSocketERK10CIPAndPortRA1024_c
__ZN25SteamNetworkingSocketsLib23CConnectionTransportUDP8BConnectERK10CIPAndPortRA1024_c
__ZN25SteamNetworkingSocketsLib23CConnectionTransportUDPD0Ev
__ZN25SteamNetworkingSocketsLib23CConnectionTransportUDPD1Ev
__ZN25SteamNetworkingSocketsLib23CConnectionTransportUDPD2Ev
__ZN25SteamNetworkingSocketsLib23CSteamNetworkingMessage10LinkBeforeEPS0_MS0_NS0_5LinksEPNS_27SteamNetworkingMessageQueueE
__ZN25SteamNetworkingSocketsLib23CSteamNetworkingMessage11ReleaseFuncEP24SteamNetworkingMessage_t
__ZN25SteamNetworkingSocketsLib23CSteamNetworkingMessage15DefaultFreeDataEP24SteamNetworkingMessage_t
__ZN25SteamNetworkingSocketsLib23CSteamNetworkingMessage15UnlinkFromQueueEMS0_NS0_5LinksE
__ZN25SteamNetworkingSocketsLib23CSteamNetworkingMessage3NewEj
__ZN25SteamNetworkingSocketsLib23CSteamNetworkingMessage6UnlinkEv
__ZN25SteamNetworkingSocketsLib23CSteamNetworkingSockets10ConnectP2PERK23SteamNetworkingIdentityiiPK28SteamNetworkingConfigValue_t
__ZN25SteamNetworkingSocketsLib23CSteamNetworkingSockets11GetIdentityEP23SteamNetworkingIdentity
__ZN25SteamNetworkingSocketsLib23CSteamNetworkingSockets12RunCallbacksEv
__ZN25SteamNetworkingSocketsLib23CSteamNetworkingSockets12SendMessagesEiPKP24SteamNetworkingMessage_tPx
__ZN25SteamNetworkingSocketsLib23CSteamNetworkingSockets13BInitLowLevelERA1024_c
__ZN25SteamNetworkingSocketsLib23CSteamNetworkingSockets13FreeResourcesEv
__ZN25SteamNetworkingSocketsLib23CSteamNetworkingSockets13ResetIdentityEPK23SteamNetworkingIdentity
__ZN25SteamNetworkingSocketsLib23CSteamNetworkingSockets13SetCertStatusE28ESteamNetworkingAvailabilityPKcz
__ZN25SteamNetworkingSocketsLib23CSteamNetworkingSockets14SetCertificateEPKviRA1024_c
__ZN25SteamNetworkingSocketsLib23CSteamNetworkingSockets15CloseConnectionEjiPKcb
__ZN25SteamNetworkingSocketsLib23CSteamNetworkingSockets15CreatePollGroupEv
__ZN25SteamNetworkingSocketsLib23CSteamNetworkingSockets15KillConnectionsEv
__ZN25SteamNetworkingSocketsLib23CSteamNetworkingSockets16AcceptConnectionEj
__ZN25SteamNetworkingSocketsLib23CSteamNetworkingSockets16BMatchesIdentityERK23SteamNetworkingIdentity
__ZN25SteamNetworkingSocketsLib23CSteamNetworkingSockets16CreateSocketPairEPjS1_bPK23SteamNetworkingIdentityS4_
__ZN25SteamNetworkingSocketsLib23CSteamNetworkingSockets16DestroyPollGroupEj
__ZN25SteamNetworkingSocketsLib23CSteamNetworkingSockets17CertRequestFailedE28ESteamNetworkingAvailability22ESteamNetConnectionEndPKc
__ZN25SteamNetworkingSocketsLib23CSteamNetworkingSockets17CloseListenSocketEj
__ZN25SteamNetworkingSocketsLib23CSteamNetworkingSockets17GetConnectionInfoEjP24SteamNetConnectionInfo_t
__ZN25SteamNetworkingSocketsLib23CSteamNetworkingSockets17GetConnectionNameEjPci
__ZN25SteamNetworkingSocketsLib23CSteamNetworkingSockets17SetConnectionNameEjPKc
__ZN25SteamNetworkingSocketsLib23CSteamNetworkingSockets18ConnectByIPAddressERK21SteamNetworkingIPAddriPK28SteamNetworkingConfigValue_t
__ZN25SteamNetworkingSocketsLib23CSteamNetworkingSockets18InitAuthenticationEv
__ZN25SteamNetworkingSocketsLib23CSteamNetworkingSockets18InternalConnectP2PEP35ISteamNetworkingConnectionSignalingPK23SteamNetworkingIdentityiiPK28SteamNetworkingConfigValue_tRNS_19ConnectionScopeLockE
__ZN25SteamNetworkingSocketsLib23CSteamNetworkingSockets20CreateListenSocketIPERK21SteamNetworkingIPAddriPK28SteamNetworkingConfigValue_t
__ZN25SteamNetworkingSocketsLib23CSteamNetworkingSockets20InternalInitIdentityEv
__ZN25SteamNetworkingSocketsLib23CSteamNetworkingSockets21CreateListenSocketP2PEiiPK28SteamNetworkingConfigValue_t
__ZN25SteamNetworkingSocketsLib23CSteamNetworkingSockets21GetCertificateRequestEPiPvRA1024_c
__ZN25SteamNetworkingSocketsLib23CSteamNetworkingSockets21GetConnectionUserDataEj
__ZN25SteamNetworkingSocketsLib23CSteamNetworkingSockets21InternalQueueCallbackEiiPKvPv
__ZN25SteamNetworkingSocketsLib23CSteamNetworkingSockets21SetConnectionUserDataEjx
__ZN25SteamNetworkingSocketsLib23CSteamNetworkingSockets22GetListenSocketAddressEjP21SteamNetworkingIPAddr
__ZN25SteamNetworkingSocketsLib23CSteamNetworkingSockets22SetConnectionPollGroupEjj
__ZN25SteamNetworkingSocketsLib23CSteamNetworkingSockets23GetAuthenticationStatusEP30SteamNetAuthenticationStatus_t
__ZN25SteamNetworkingSocketsLib23CSteamNetworkingSockets23InternalCreatePollGroupERNS_9ScopeLockINS_13PollGroupLockEEE
__ZN25SteamNetworkingSocketsLib23CSteamNetworkingSockets23ReceivedP2PCustomSignalEPKviP36ISteamNetworkingSignalingRecvContext
__ZN25SteamNetworkingSocketsLib23CSteamNetworkingSockets23SendMessageToConnectionEjPKvjiPx
__ZN25SteamNetworkingSocketsLib23CSteamNetworkingSockets23SetAuthenticationStatusERK30SteamNetAuthenticationStatus_t
__ZN25SteamNetworkingSocketsLib23CSteamNetworkingSockets24AsyncCertRequestFinishedEv
__ZN25SteamNetworkingSocketsLib23CSteamNetworkingSockets24ConfigureConnectionLanesEjiPKiPKt
__ZN25SteamNetworkingSocketsLib23CSteamNetworkingSockets25ConnectP2PCustomSignalingEP35ISteamNetworkingConnectionSignalingPK23SteamNetworkingIdentityiiPK28SteamNetworkingConfigValue_t
__ZN25SteamNetworkingSocketsLib23CSteamNetworkingSockets25FlushMessagesOnConnectionEj
__ZN25SteamNetworkingSocketsLib23CSteamNetworkingSockets25InternalReceivedP2PSignalERK32CMsgSteamNetworkingP2PRendezvousP36ISteamNetworkingSignalingRecvContextb
__ZN25SteamNetworkingSocketsLib23CSteamNetworkingSockets26DeduceAuthenticationStatusEv
__ZN25SteamNetworkingSocketsLib23CSteamNetworkingSockets26GetSteamNetworkingMessagesEv
__ZN25SteamNetworkingSocketsLib23CSteamNetworkingSockets26ReceiveMessagesOnPollGroupEjPP24SteamNetworkingMessage_ti
__ZN25SteamNetworkingSocketsLib23CSteamNetworkingSockets27CreateListenSocketP2PFakeIPEiiPK28SteamNetworkingConfigValue_t
__ZN25SteamNetworkingSocketsLib23CSteamNetworkingSockets27GetConnectionRealTimeStatusEjP34SteamNetConnectionRealTimeStatus_tiP38SteamNetConnectionRealTimeLaneStatus_t
__ZN25SteamNetworkingSocketsLib23CSteamNetworkingSockets27GetDetailedConnectionStatusEjPci
__ZN25SteamNetworkingSocketsLib23CSteamNetworkingSockets27GetP2P_Transport_ICE_EnableERK23SteamNetworkingIdentityPi
__ZN25SteamNetworkingSocketsLib23CSteamNetworkingSockets27ReceiveMessagesOnConnectionEjPP24SteamNetworkingMessage_ti
__ZN25SteamNetworkingSocketsLib23CSteamNetworkingSockets27SetCertificateAndPrivateKeyEPKviPvi
__ZN25SteamNetworkingSocketsLib23CSteamNetworkingSockets28GetRemoteFakeIPForConnectionEjP21SteamNetworkingIPAddr
__ZN25SteamNetworkingSocketsLib23CSteamNetworkingSockets29InternalCreateListenSocketP2PEiiPK28SteamNetworkingConfigValue_t
__ZN25SteamNetworkingSocketsLib23CSteamNetworkingSockets32CheckAuthenticationPrerequisitesEx
__ZN25SteamNetworkingSocketsLib23CSteamNetworkingSockets34InternalConnectP2PDefaultSignalingERK23SteamNetworkingIdentityiiPK28SteamNetworkingConfigValue_tRNS_19ConnectionScopeLockE
__ZN25SteamNetworkingSocketsLib23CSteamNetworkingSockets36s_vecSteamNetworkingSocketsInstancesE
__ZN25SteamNetworkingSocketsLib23CSteamNetworkingSockets7DestroyEv
__ZN25SteamNetworkingSocketsLib23CSteamNetworkingSocketsC2EPNS_21CSteamNetworkingUtilsE
__ZN25SteamNetworkingSocketsLib23CSteamNetworkingSocketsD0Ev
__ZN25SteamNetworkingSocketsLib23CSteamNetworkingSocketsD1Ev
__ZN25SteamNetworkingSocketsLib23CSteamNetworkingSocketsD2Ev
__ZN25SteamNetworkingSocketsLib23CreateSharedClusterDataEv
__ZN25SteamNetworkingSocketsLib23SNPSegmentCollectorLaneILb0EE11AddReliableEPNS_23CSteamNetworkingMessageExx
__ZN25SteamNetworkingSocketsLib23SNPSegmentCollectorLaneILb0EE16AddReliableRetryEtRKNS_24SNPSendReliableSegment_tE
__ZN25SteamNetworkingSocketsLib23WakeSteamDatagramThreadEv
__ZN25SteamNetworkingSocketsLib23g_cbUDPSocketBufferSizeE
__ZN25SteamNetworkingSocketsLib23g_mapRelayServersByAddrE
__ZN25SteamNetworkingSocketsLib23g_usecLastRateLimitSpewE
__ZN25SteamNetworkingSocketsLib24BParseRelayAuthTicketMsgERK38CMsgSteamDatagramSignedRelayAuthTicketR32CMsgSteamDatagramRelayAuthTicketR28SteamDatagramRelayAuthTicketiPyRA1024_c
__ZN25SteamNetworkingSocketsLib24CMessagesEndPointSession13ScheduleThinkEv
__ZN25SteamNetworkingSocketsLib24CMessagesEndPointSession19SetActiveConnectionEPNS_27CSteamNetworkConnectionBaseERNS_19ConnectionScopeLockE
__ZN25SteamNetworkingSocketsLib24CMessagesEndPointSession19UnlinkConnectionNowEPNS_27CSteamNetworkConnectionBaseE
__ZN25SteamNetworkingSocketsLib24CMessagesEndPointSession21ClearActiveConnectionEv
__ZN25SteamNetworkingSocketsLib24CMessagesEndPointSession28ActiveConnectionStateChangedEv
__ZN25SteamNetworkingSocketsLib24CMessagesEndPointSession29SessionConnectionStateChangedEPNS_27CSteamNetworkConnectionBaseE31ESteamNetworkingConnectionState
__ZN25SteamNetworkingSocketsLib24CMessagesEndPointSession29UnlinkFromInactiveConnectionsEv
__ZN25SteamNetworkingSocketsLib24CMessagesEndPointSession8MarkUsedEx
__ZN25SteamNetworkingSocketsLib24CMessagesEndPointSessionC2ERK23SteamNetworkingIdentityRNS_17CMessagesEndPointE
__ZN25SteamNetworkingSocketsLib24CMessagesEndPointSessionD0Ev
__ZN25SteamNetworkingSocketsLib24CMessagesEndPointSessionD1Ev
__ZN25SteamNetworkingSocketsLib24CMessagesEndPointSessionD2Ev
__ZN25SteamNetworkingSocketsLib24CSteamNetworkingMessages11FindSessionERK23SteamNetworkingIdentityRNS_19ConnectionScopeLockE
__ZN25SteamNetworkingSocketsLib24CSteamNetworkingMessages13FreeResourcesEv
__ZN25SteamNetworkingSocketsLib24CSteamNetworkingMessages14DestroySessionERK23SteamNetworkingIdentity
__ZN25SteamNetworkingSocketsLib24CSteamNetworkingMessages17SendMessageToUserERK23SteamNetworkingIdentityPKvjii
__ZN25SteamNetworkingSocketsLib24CSteamNetworkingMessages19FindOrCreateChannelEi
__ZN25SteamNetworkingSocketsLib24CSteamNetworkingMessages19FindOrCreateSessionERK23SteamNetworkingIdentityRNS_19ConnectionScopeLockE
__ZN25SteamNetworkingSocketsLib24CSteamNetworkingMessages20CloseChannelWithUserERK23SteamNetworkingIdentityi
__ZN25SteamNetworkingSocketsLib24CSteamNetworkingMessages20CloseSessionWithUserERK23SteamNetworkingIdentity
__ZN25SteamNetworkingSocketsLib24CSteamNetworkingMessages21AcceptSessionWithUserERK23SteamNetworkingIdentity
__ZN25SteamNetworkingSocketsLib24CSteamNetworkingMessages24GetSessionConnectionInfoERK23SteamNetworkingIdentityP24SteamNetConnectionInfo_tP34SteamNetConnectionRealTimeStatus_t
__ZN25SteamNetworkingSocketsLib24CSteamNetworkingMessages24ReceiveMessagesOnChannelEiPP24SteamNetworkingMessage_ti
__ZN25SteamNetworkingSocketsLib24CSteamNetworkingMessages28BHandleNewIncomingConnectionEPNS_27CSteamNetworkConnectionBaseERNS_19ConnectionScopeLockE
__ZN25SteamNetworkingSocketsLib24CSteamNetworkingMessages5BInitEv
__ZN25SteamNetworkingSocketsLib24CSteamNetworkingMessages7ChannelD2Ev
__ZN25SteamNetworkingSocketsLib24CSteamNetworkingMessagesC2ERNS_23CSteamNetworkingSocketsE
__ZN25SteamNetworkingSocketsLib24CSteamNetworkingMessagesD0Ev
__ZN25SteamNetworkingSocketsLib24CSteamNetworkingMessagesD1Ev
__ZN25SteamNetworkingSocketsLib24CSteamNetworkingMessagesD2Ev
__ZN25SteamNetworkingSocketsLib24CSteamNetworkingUtilsSDR10GetPOPListEPji
__ZN25SteamNetworkingSocketsLib24CSteamNetworkingUtilsSDR11GetPOPCountEv
__ZN25SteamNetworkingSocketsLib24CSteamNetworkingUtilsSDR14TEST_ResetSelfEv
__ZN25SteamNetworkingSocketsLib24CSteamNetworkingUtilsSDR16SetNetworkConfigEPKvmRA1024_c
__ZN25SteamNetworkingSocketsLib24CSteamNetworkingUtilsSDR17SetManualPollModeEb
__ZN25SteamNetworkingSocketsLib24CSteamNetworkingUtilsSDR18GetDirectPingToPOPEj
__ZN25SteamNetworkingSocketsLib24CSteamNetworkingUtilsSDR19GetNetworkConfigURLEjPcm
__ZN25SteamNetworkingSocketsLib24CSteamNetworkingUtilsSDR19GetPingToDataCenterEjPj
__ZN25SteamNetworkingSocketsLib24CSteamNetworkingUtilsSDR20GetLocalPingLocationER26SteamNetworkPingLocation_t
__ZN25SteamNetworkingSocketsLib24CSteamNetworkingUtilsSDR20SetICESessionFactoryEPFP11IICESessionRK16ICESessionConfigP19IICESessionDelegateiE
__ZN25SteamNetworkingSocketsLib24CSteamNetworkingUtilsSDR21CheckPingDataUpToDateEf
__ZN25SteamNetworkingSocketsLib24CSteamNetworkingUtilsSDR21GetRelayNetworkStatusEP25SteamRelayNetworkStatus_t
__ZN25SteamNetworkingSocketsLib24CSteamNetworkingUtilsSDR21s_nSDRNetworkRefCountE
__ZN25SteamNetworkingSocketsLib24CSteamNetworkingUtilsSDR22BAddSDRNetworkRefCountERA1024_c
__ZN25SteamNetworkingSocketsLib24CSteamNetworkingUtilsSDR22BEnsureSDRNetworkReadyEv
__ZN25SteamNetworkingSocketsLib24CSteamNetworkingUtilsSDR22ClientSetNetworkConfigEPKvmRA1024_c
__ZN25SteamNetworkingSocketsLib24CSteamNetworkingUtilsSDR23BeginFetchNetworkConfigEb
__ZN25SteamNetworkingSocketsLib24CSteamNetworkingUtilsSDR23ParsePingLocationStringEPKcR26SteamNetworkPingLocation_t
__ZN25SteamNetworkingSocketsLib24CSteamNetworkingUtilsSDR23RefreshPingMeasurementsEb
__ZN25SteamNetworkingSocketsLib24CSteamNetworkingUtilsSDR25AutoDetectSDRSingleSocketEv
__ZN25SteamNetworkingSocketsLib24CSteamNetworkingUtilsSDR25ClientGetNetworkConfigURLEjPcm
__ZN25SteamNetworkingSocketsLib24CSteamNetworkingUtilsSDR26InternalGetDirectPingToPOPEj
__ZN25SteamNetworkingSocketsLib24CSteamNetworkingUtilsSDR26OnNetworkConfigFetchFailedEPKc
__ZN25SteamNetworkingSocketsLib24CSteamNetworkingUtilsSDR27ConvertPingLocationToStringERK26SteamNetworkPingLocation_tPci
__ZN25SteamNetworkingSocketsLib24CSteamNetworkingUtilsSDR27DecrementSDRNetworkRefCountEv
__ZN25SteamNetworkingSocketsLib24CSteamNetworkingUtilsSDR29EstimatePingTimeFromLocalHostERK26SteamNetworkPingLocation_t
__ZN25SteamNetworkingSocketsLib24CSteamNetworkingUtilsSDR29OnNetworkConfigFetchCompletedEPNS_14HTTPResponse_tE
__ZN25SteamNetworkingSocketsLib24CSteamNetworkingUtilsSDR34s_vecSteamNetworkingUtilsInstancesE
__ZN25SteamNetworkingSocketsLib24CSteamNetworkingUtilsSDR35EstimatePingTimeBetweenTwoLocationsERK26SteamNetworkPingLocation_tS3_
__ZN25SteamNetworkingSocketsLib24CSteamNetworkingUtilsSDR4PollEi
__ZN25SteamNetworkingSocketsLib24CSteamNetworkingUtilsSDRC2Ev
__ZN25SteamNetworkingSocketsLib24CSteamNetworkingUtilsSDRD0Ev
__ZN25SteamNetworkingSocketsLib24CSteamNetworkingUtilsSDRD1Ev
__ZN25SteamNetworkingSocketsLib24CSteamNetworkingUtilsSDRD2Ev
__ZN25SteamNetworkingSocketsLib24LinkStatsTrackerEndToEnd12InitInternalEx
__ZN25SteamNetworkingSocketsLib24LinkStatsTrackerEndToEnd19UpdateSpeedIntervalEx
__ZN25SteamNetworkingSocketsLib24OpenUDPSocketBoundToHostERK10CIPAndPortNS_19CRecvPacketCallbackERA1024_c
__ZN25SteamNetworkingSocketsLib24ReallyReportBadUDPPacketEPKcS1_S1_z
__ZN25SteamNetworkingSocketsLib24g_eDefaultGroupSpewLevelE
__ZN25SteamNetworkingSocketsLib25LinkStatsTrackerRelayBase42TrackSentMessageExpectingSeqNumAckInternalINS_16LinkStatsTrackerINS_34LinkStatsTrackerClientRelaySessionEEEEEvPT_xb
__ZN25SteamNetworkingSocketsLib25RemoveRelayServerByHandleEiPKcx
__ZN25SteamNetworkingSocketsLib25SteamNetworkingGlobalLock26_AssertHeldByCurrentThreadEPKci
__ZN25SteamNetworkingSocketsLib25SteamNetworkingGlobalLock26_AssertHeldByCurrentThreadEPKciS2_
__ZN25SteamNetworkingSocketsLib25SteamNetworkingGlobalLock29SetLongLockWarningThresholdMSEPKci
__ZN25SteamNetworkingSocketsLib25SteamNetworkingGlobalLock4LockEPKc
__ZN25SteamNetworkingSocketsLib25SteamNetworkingGlobalLock6UnlockEv
__ZN25SteamNetworkingSocketsLib25SteamNetworkingGlobalLock7TryLockEPKci
__ZN25SteamNetworkingSocketsLib25g_ConfigDefault_NagleTimeE
__ZN25SteamNetworkingSocketsLib25g_pfnPreFormatSpewHandlerE
__ZN25SteamNetworkingSocketsLib25g_szAvailNetworkConfigMsgE
__ZN25SteamNetworkingSocketsLib25g_taskListRunInBackgroundE
__ZN25SteamNetworkingSocketsLib26BParseRelayAuthTicketBytesEPKviR28SteamDatagramRelayAuthTicketRA1024_c
__ZN25SteamNetworkingSocketsLib26CConnectionTransportP2PICE10SendPacketEPKvi
__ZN25SteamNetworkingSocketsLib26CConnectionTransportP2PICE11UpdateRouteEv
__ZN25SteamNetworkingSocketsLib26CConnectionTransportP2PICE13ProcessPacketEPKhix
__ZN25SteamNetworkingSocketsLib26CConnectionTransportP2PICE14OnRouteChangedEv
__ZN25SteamNetworkingSocketsLib26CConnectionTransportP2PICE14RecvRendezvousERK17CMsgICERendezvousx
__ZN25SteamNetworkingSocketsLib26CConnectionTransportP2PICE14TrackSentStatsERNS_22UDPSendPacketContext_tE
__ZN25SteamNetworkingSocketsLib26CConnectionTransportP2PICE16DrainPacketQueueEx
__ZN25SteamNetworkingSocketsLib26CConnectionTransportP2PICE16SendPacketGatherEiPK5ioveci
__ZN25SteamNetworkingSocketsLib26CConnectionTransportP2PICE17P2PTransportThinkEx
__ZN25SteamNetworkingSocketsLib26CConnectionTransportP2PICE21PopulateRendezvousMsgER32CMsgSteamNetworkingP2PRendezvousx
__ZN25SteamNetworkingSocketsLib26CConnectionTransportP2PICE22OnWritableStateChangedEv
__ZN25SteamNetworkingSocketsLib26CConnectionTransportP2PICE22RecvValidUDPDataPacketERNS_22UDPRecvPacketContext_tE
__ZN25SteamNetworkingSocketsLib26CConnectionTransportP2PICE22TransportFreeResourcesEv
__ZN25SteamNetworkingSocketsLib26CConnectionTransportP2PICE24OnLocalCandidateGatheredE17EICECandidateTypePKc
__ZN25SteamNetworkingSocketsLib26CConnectionTransportP2PICE27GetDetailedConnectionStatusERNS_39SteamNetworkingDetailedConnectionStatusEx
__ZN25SteamNetworkingSocketsLib26CConnectionTransportP2PICE27RouteOrWritableStateChangedEv
__ZN25SteamNetworkingSocketsLib26CConnectionTransportP2PICE30P2PTransportUpdateRouteMetricsEx
__ZN25SteamNetworkingSocketsLib26CConnectionTransportP2PICE3LogEN19IICESessionDelegate12ELogPriorityEPKcz
__ZN25SteamNetworkingSocketsLib26CConnectionTransportP2PICE4InitEv
__ZN25SteamNetworkingSocketsLib26CConnectionTransportP2PICE6OnDataEPKvm
__ZN25SteamNetworkingSocketsLib26CConnectionTransportP2PICEC1ERNS_26CSteamNetworkConnectionP2PE
__ZN25SteamNetworkingSocketsLib26CConnectionTransportP2PICEC2ERNS_26CSteamNetworkConnectionP2PE
__ZN25SteamNetworkingSocketsLib26CConnectionTransportP2PICED0Ev
__ZN25SteamNetworkingSocketsLib26CConnectionTransportP2PICED1Ev
__ZN25SteamNetworkingSocketsLib26CConnectionTransportP2PICED2Ev
__ZN25SteamNetworkingSocketsLib26CConnectionTransportP2PSDR10RecvRoutesERKNSt3__112basic_stringIcNS1_11char_traitsIcEENS1_9allocatorIcEEEE
__ZN25SteamNetworkingSocketsLib26CConnectionTransportP2PSDR11CleanRoutesEx
__ZN25SteamNetworkingSocketsLib26CConnectionTransportP2PSDR14SendDataPacketEx
__ZN25SteamNetworkingSocketsLib26CConnectionTransportP2PSDR17ThinkSelectServerEx
__ZN25SteamNetworkingSocketsLib26CConnectionTransportP2PSDR18CheckRecvRoutesAckI32CMsgSteamNetworkingP2PRendezvousEEvRKT_
__ZN25SteamNetworkingSocketsLib26CConnectionTransportP2PSDR18CheckRecvRoutesAckI49CMsgSteamDatagramConnectionStatsP2PRouterToClientEEvRKT_
__ZN25SteamNetworkingSocketsLib26CConnectionTransportP2PSDR19RecvValidDataPacketERNS_28SDRClientRecvPacketContext_tE
__ZN25SteamNetworkingSocketsLib26CConnectionTransportP2PSDR20DestroySessionLockedEPNS_12RelaySessionEPKcx
__ZN25SteamNetworkingSocketsLib26CConnectionTransportP2PSDR21GetRecalcRoutesReasonEv
__ZN25SteamNetworkingSocketsLib26CConnectionTransportP2PSDR21PopulateRendezvousMsgER32CMsgSteamNetworkingP2PRendezvousx
__ZN25SteamNetworkingSocketsLib26CConnectionTransportP2PSDR22NetworkRevisionChangedEv
__ZN25SteamNetworkingSocketsLib26CConnectionTransportP2PSDR22SendEncryptedDataChunkEPKviRNS_19SendPacketContext_tE
__ZN25SteamNetworkingSocketsLib26CConnectionTransportP2PSDR23ProcessMessage_P2PStatsEPNS_12RelaySessionERK49CMsgSteamDatagramConnectionStatsP2PRouterToClientix
__ZN25SteamNetworkingSocketsLib26CConnectionTransportP2PSDR23RecvValidEndToEndPacketExPKcPNS_12RelaySessionE
__ZN25SteamNetworkingSocketsLib26CConnectionTransportP2PSDR23TrackSentStatsToSessionERNS_12RelaySessionERK49CMsgSteamDatagramConnectionStatsP2PClientToRouterPKcx
__ZN25SteamNetworkingSocketsLib26CConnectionTransportP2PSDR25PopulateSendPacketContextERNS_20SDRSendPacketContextI49CMsgSteamDatagramConnectionStatsP2PClientToRouterNS_12RelaySessionEEENS_18EStatsReplyRequestEb
__ZN25SteamNetworkingSocketsLib26CConnectionTransportP2PSDR26BSendStatsMsgToRelayLockedEPNS_12RelaySessionENS_18EStatsReplyRequestEbxPKc
__ZN25SteamNetworkingSocketsLib26CConnectionTransportP2PSDR26CheckRebuildRoutingMessageEx
__ZN25SteamNetworkingSocketsLib26CConnectionTransportP2PSDR26ProcessMessage_P2PBadRouteEPNS_12RelaySessionERK42CMsgSteamDatagramP2PBadRouteRouterToClientix
__ZN25SteamNetworkingSocketsLib26CConnectionTransportP2PSDR27GetDetailedConnectionStatusERNS_39SteamNetworkingDetailedConnectionStatusEx
__ZN25SteamNetworkingSocketsLib26CConnectionTransportP2PSDR29BSetSessionForwardTargetTokenEPNS_12RelaySessionE
__ZN25SteamNetworkingSocketsLib26CConnectionTransportP2PSDR29CleanRoutesForServerSelectionEv
__ZN25SteamNetworkingSocketsLib26CConnectionTransportP2PSDR29SessionDowntimeWarningChangedEPNS_12RelaySessionE
__ZN25SteamNetworkingSocketsLib26CConnectionTransportP2PSDR30P2PTransportUpdateRouteMetricsEx
__ZN25SteamNetworkingSocketsLib26CConnectionTransportP2PSDR35SDRTransportPopulateNoConnectionMsgER29CMsgSteamDatagramNoConnectionRNS_12RelaySessionE
__ZN25SteamNetworkingSocketsLib26CConnectionTransportP2PSDR36ProcessMessage_P2PSessionEstablishedERNS_11RelayServerERK38CMsgSteamDatagramP2PSessionEstablishedix
__ZN25SteamNetworkingSocketsLib26CConnectionTransportP2PSDR36SDRTransportPopulateClientPingSampleERNSt3__16vectorI42CMsgSteamDatagramClientPingSampleReply_POPNS1_9allocatorIS3_EEEE
__ZN25SteamNetworkingSocketsLib26CConnectionTransportP2PSDR36ThinkSelectServer_SendSessionRequestERNS_11RelayServerERKNS_19RouteQualityMetricsE
__ZN25SteamNetworkingSocketsLib26CConnectionTransportP2PSDR38ThinkSelectServer_SelectActiveSessionsEx
__ZN25SteamNetworkingSocketsLib26CConnectionTransportP2PSDR39SDRTransportPopulateConnectionClosedMsgER33CMsgSteamDatagramConnectionClosedRNS_11RelayServerEPNS_12RelaySessionEb
__ZN25SteamNetworkingSocketsLib26CConnectionTransportP2PSDR49ThinkSelectServer_SelectClustersAndPursueSessionsEx
__ZN25SteamNetworkingSocketsLib26CConnectionTransportP2PSDR53ThinkSelectServer_SetServerMetricsForSessionSelectionERNS_11RelayServerERNS_27SessionSelectQualityMetricsE
__ZN25SteamNetworkingSocketsLib26CConnectionTransportP2PSDR9RecvStatsEPNS_12RelaySessionERK49CMsgSteamDatagramConnectionStatsP2PRouterToClientbx
__ZN25SteamNetworkingSocketsLib26CConnectionTransportP2PSDRC1ERNS_26CSteamNetworkConnectionP2PE
__ZN25SteamNetworkingSocketsLib26CConnectionTransportP2PSDRC2ERNS_26CSteamNetworkConnectionP2PE
__ZN25SteamNetworkingSocketsLib26CConnectionTransportP2PSDRD0Ev
__ZN25SteamNetworkingSocketsLib26CConnectionTransportP2PSDRD1Ev
__ZN25SteamNetworkingSocketsLib26CConnectionTransportP2PSDRD2Ev
__ZN25SteamNetworkingSocketsLib26CSteamNetworkConnectionP2P12BInitConnectEP35ISteamNetworkingConnectionSignalingPK23SteamNetworkingIdentityiiPK28SteamNetworkingConfigValue_tPPS0_RA1024_c
__ZN25SteamNetworkingSocketsLib26CSteamNetworkConnectionP2P12CheckInitICEEv
__ZN25SteamNetworkingSocketsLib26CSteamNetworkConnectionP2P13DestroyICENowEv
__ZN25SteamNetworkingSocketsLib26CSteamNetworkConnectionP2P13FreeResourcesEv
__ZN25SteamNetworkingSocketsLib26CSteamNetworkConnectionP2P13ProcessSignalERK32CMsgSteamNetworkingP2PRendezvousx
__ZN25SteamNetworkingSocketsLib26CSteamNetworkConnectionP2P14ProcessSNPPingEiRNS_19RecvPacketContext_tE
__ZN25SteamNetworkingSocketsLib26CSteamNetworkConnectionP2P15CheckRemoteCertEPKNS_13CertAuthScopeERA1024_c
__ZN25SteamNetworkingSocketsLib26CSteamNetworkConnectionP2P15SelectTransportEPNS_27CConnectionTransportP2PBaseEx
__ZN25SteamNetworkingSocketsLib26CSteamNetworkConnectionP2P15ThinkConnectionEx
__ZN25SteamNetworkingSocketsLib26CSteamNetworkConnectionP2P16AcceptConnectionEx
__ZN25SteamNetworkingSocketsLib26CSteamNetworkConnectionP2P16DestroyTransportEv
__ZN25SteamNetworkingSocketsLib26CSteamNetworkConnectionP2P17BInitSDRTransportERA1024_c
__ZN25SteamNetworkingSocketsLib26CSteamNetworkConnectionP2P18ScheduleSendSignalEPKc
__ZN25SteamNetworkingSocketsLib26CSteamNetworkConnectionP2P20ThinkSelectTransportEx
__ZN25SteamNetworkingSocketsLib26CSteamNetworkConnectionP2P21GuessICEFailureReasonER22ESteamNetConnectionEndRA128_cx
__ZN25SteamNetworkingSocketsLib26CSteamNetworkConnectionP2P22BBeginAcceptFromSignalERK47CMsgSteamNetworkingP2PRendezvous_ConnectRequestRA1024_cx
__ZN25SteamNetworkingSocketsLib26CSteamNetworkConnectionP2P22BSupportsSymmetricModeEv
__ZN25SteamNetworkingSocketsLib26CSteamNetworkConnectionP2P22ConnectionStateChangedE31ESteamNetworkingConnectionState
__ZN25SteamNetworkingSocketsLib26CSteamNetworkConnectionP2P22SendNoConnectionSignalEx
__ZN25SteamNetworkingSocketsLib26CSteamNetworkConnectionP2P23BInitConnectToSDRServerERK23SteamNetworkingIdentityiiPK28SteamNetworkingConfigValue_tRA1024_c
__ZN25SteamNetworkingSocketsLib26CSteamNetworkConnectionP2P23FindDuplicateConnectionEPNS_23CSteamNetworkingSocketsEiRK23SteamNetworkingIdentityibPS0_
__ZN25SteamNetworkingSocketsLib26CSteamNetworkConnectionP2P23ProcessSignal_ConnectOKERK42CMsgSteamNetworkingP2PRendezvous_ConnectOKx
__ZN25SteamNetworkingSocketsLib26CSteamNetworkConnectionP2P24BInitP2PConnectionCommonExiPK28SteamNetworkingConfigValue_tRA1024_c
__ZN25SteamNetworkingSocketsLib26CSteamNetworkConnectionP2P24QueueSendConnectOKSignalEv
__ZN25SteamNetworkingSocketsLib26CSteamNetworkConnectionP2P24UpdateTransportSummariesEx
__ZN25SteamNetworkingSocketsLib26CSteamNetworkConnectionP2P25EnsureICEFailureReasonSetEx
__ZN25SteamNetworkingSocketsLib26CSteamNetworkConnectionP2P25PopulateP2PRoutingSummaryER34CMsgSteamDatagramP2PRoutingSummary
__ZN25SteamNetworkingSocketsLib26CSteamNetworkConnectionP2P26QueueSignalReliableMessageEO48CMsgSteamNetworkingP2PRendezvous_ReliableMessagePKc
__ZN25SteamNetworkingSocketsLib26CSteamNetworkConnectionP2P26SendConnectionClosedSignalEx
__ZN25SteamNetworkingSocketsLib26CSteamNetworkConnectionP2P27AsSteamNetworkConnectionP2PEv
__ZN25SteamNetworkingSocketsLib26CSteamNetworkConnectionP2P27ChangeRoleToServerAndAcceptERK32CMsgSteamNetworkingP2PRendezvousx
__ZN25SteamNetworkingSocketsLib26CSteamNetworkConnectionP2P27P2PInternalAcceptConnectionEx
__ZN25SteamNetworkingSocketsLib26CSteamNetworkConnectionP2P27_APISendMessageToConnectionEPNS_23CSteamNetworkingMessageExPb
__ZN25SteamNetworkingSocketsLib26CSteamNetworkConnectionP2P28PeerSelectedTransportChangedEv
__ZN25SteamNetworkingSocketsLib26CSteamNetworkConnectionP2P28ThinkConnection_FindingRouteEx
__ZN25SteamNetworkingSocketsLib26CSteamNetworkConnectionP2P29ConnectionPopulateDiagnosticsE31ESteamNetworkingConnectionStateR33CGameNetworkingUI_ConnectionStatex
__ZN25SteamNetworkingSocketsLib26CSteamNetworkConnectionP2P31CheckWaitForInitialRoutingReadyEx
__ZN25SteamNetworkingSocketsLib26CSteamNetworkConnectionP2P32ThinkConnection_ClientConnectingEx
__ZN25SteamNetworkingSocketsLib26CSteamNetworkConnectionP2P34InternalCreateTransportToSDRServerERKNS_21CachedRelayAuthTicketE
__ZN25SteamNetworkingSocketsLib26CSteamNetworkConnectionP2P34RemoveP2PConnectionMapByRemoteInfoEv
__ZN25SteamNetworkingSocketsLib26CSteamNetworkConnectionP2P36TransportEndToEndConnectivityChangedEPNS_27CConnectionTransportP2PBaseEx
__ZN25SteamNetworkingSocketsLib26CSteamNetworkConnectionP2P37BEnsureInP2PConnectionMapByRemoteInfoERA1024_c
__ZN25SteamNetworkingSocketsLib26CSteamNetworkConnectionP2P37BSelectTransportToSDRServerFromSignalERK32CMsgSteamNetworkingP2PRendezvous
__ZN25SteamNetworkingSocketsLib26CSteamNetworkConnectionP2P38PopulateRendezvousMsgWithTransportInfoER32CMsgSteamNetworkingP2PRendezvousx
__ZN25SteamNetworkingSocketsLib26CSteamNetworkConnectionP2P38SetRendezvousCommonFieldsAndSendSignalER32CMsgSteamNetworkingP2PRendezvousxPKc
__ZN25SteamNetworkingSocketsLib26CSteamNetworkConnectionP2P9ICEFailedEiPKc
__ZN25SteamNetworkingSocketsLib26CSteamNetworkConnectionP2PC1EPNS_23CSteamNetworkingSocketsERNS_19ConnectionScopeLockE
__ZN25SteamNetworkingSocketsLib26CSteamNetworkConnectionP2PC2EPNS_23CSteamNetworkingSocketsERNS_19ConnectionScopeLockE
__ZN25SteamNetworkingSocketsLib26CSteamNetworkConnectionP2PD0Ev
__ZN25SteamNetworkingSocketsLib26CSteamNetworkConnectionP2PD1Ev
__ZN25SteamNetworkingSocketsLib26CSteamNetworkConnectionP2PD2Ev
__ZN25SteamNetworkingSocketsLib26CSteamNetworkConnectionUDP12BBeginAcceptEPNS_34CSteamNetworkListenSocketDirectUDPERK10CIPAndPortPNS_13CSharedSocketERK23SteamNetworkingIdentityjRK34CMsgSteamDatagramCertificateSignedRK39CMsgSteamDatagramSessionCryptInfoSignedRA1024_c
__ZN25SteamNetworkingSocketsLib26CSteamNetworkConnectionUDP12BInitConnectERK21SteamNetworkingIPAddriPK28SteamNetworkingConfigValue_tRA1024_c
__ZN25SteamNetworkingSocketsLib26CSteamNetworkConnectionUDP16AcceptConnectionEx
__ZN25SteamNetworkingSocketsLib26CSteamNetworkConnectionUDP22AllowLocalUnsignedCertEv
__ZN25SteamNetworkingSocketsLib26CSteamNetworkConnectionUDP23AllowRemoteUnsignedCertEv
__ZN25SteamNetworkingSocketsLib26CSteamNetworkConnectionUDPC1EPNS_23CSteamNetworkingSocketsERNS_19ConnectionScopeLockE
__ZN25SteamNetworkingSocketsLib26CSteamNetworkConnectionUDPD0Ev
__ZN25SteamNetworkingSocketsLib26CSteamNetworkConnectionUDPD1Ev
__ZN25SteamNetworkingSocketsLib26CSteamNetworkingSocketsSDR13FreeResourcesEv
__ZN25SteamNetworkingSocketsLib26CSteamNetworkingSocketsSDR13SDRClientKillEv
__ZN25SteamNetworkingSocketsLib26CSteamNetworkingSocketsSDR14BSDRClientInitERA1024_c
__ZN25SteamNetworkingSocketsLib26CSteamNetworkingSocketsSDR14SetCertificateEPKviRA1024_c
__ZN25SteamNetworkingSocketsLib26CSteamNetworkingSocketsSDR23ReceivedRelayAuthTicketEPKviP28SteamDatagramRelayAuthTicket
__ZN25SteamNetworkingSocketsLib26CSteamNetworkingSocketsSDR25AddRelayAuthTicketToCacheEPKvib
__ZN25SteamNetworkingSocketsLib26CSteamNetworkingSocketsSDR25RelayNetworkStatusChangedERK25SteamRelayNetworkStatus_t
__ZN25SteamNetworkingSocketsLib26CSteamNetworkingSocketsSDR26DeduceAuthenticationStatusEv
__ZN25SteamNetworkingSocketsLib26CSteamNetworkingSocketsSDR28FindRelayAuthTicketForServerERK23SteamNetworkingIdentityiP28SteamDatagramRelayAuthTicket
__ZN25SteamNetworkingSocketsLib26CSteamNetworkingSocketsSDR28GetHostedDedicatedServerPortEv
__ZN25SteamNetworkingSocketsLib26CSteamNetworkingSocketsSDR29GetGameCoordinatorServerLoginEP39SteamDatagramGameCoordinatorServerLoginPiPv
__ZN25SteamNetworkingSocketsLib26CSteamNetworkingSocketsSDR29GetHostedDedicatedServerPOPIDEv
__ZN25SteamNetworkingSocketsLib26CSteamNetworkingSocketsSDR30ConnectToHostedDedicatedServerERK23SteamNetworkingIdentityiiPK28SteamNetworkingConfigValue_t
__ZN25SteamNetworkingSocketsLib26CSteamNetworkingSocketsSDR31BCheckInitHostedDedicatedServerERA1024_c
__ZN25SteamNetworkingSocketsLib26CSteamNetworkingSocketsSDR31FindRelayAuthTicketForServerPtrERK23SteamNetworkingIdentityi
__ZN25SteamNetworkingSocketsLib26CSteamNetworkingSocketsSDR31GetHostedDedicatedServerAddressEP26SteamDatagramHostedAddress
__ZN25SteamNetworkingSocketsLib26CSteamNetworkingSocketsSDR32CheckAuthenticationPrerequisitesEx
__ZN25SteamNetworkingSocketsLib26CSteamNetworkingSocketsSDR39CreateHostedDedicatedServerListenSocketEiiPK28SteamNetworkingConfigValue_t
__ZN25SteamNetworkingSocketsLib26CSteamNetworkingSocketsSDRC2EbPNS_24CSteamNetworkingUtilsSDRE
__ZN25SteamNetworkingSocketsLib26CSteamNetworkingSocketsSDRD0Ev
__ZN25SteamNetworkingSocketsLib26CSteamNetworkingSocketsSDRD1Ev
__ZN25SteamNetworkingSocketsLib26CSteamNetworkingSocketsSDRD2Ev
__ZN25SteamNetworkingSocketsLib26CertStore_AddKeyRevocationEy
__ZN25SteamNetworkingSocketsLib26CertStore_CheckCASignatureERKNSt3__112basic_stringIcNS0_11char_traitsIcEENS0_9allocatorIcEEEEyS8_lRA1024_c
__ZN25SteamNetworkingSocketsLib26RecvValidDataPacketGenericI46CMsgSteamDatagramConnectionStatsRouterToClientNS_27CSteamNetworkConnectionBaseEEEbRT0_RT_RNS_28SDRClientRecvPacketContext_tE
__ZN25SteamNetworkingSocketsLib26RecvValidDataPacketGenericI49CMsgSteamDatagramConnectionStatsP2PRouterToClientNS_27CSteamNetworkConnectionBaseEEEbRT0_RT_RNS_28SDRClientRecvPacketContext_tE
__ZN25SteamNetworkingSocketsLib26SteamDatagramClientThinker5ThinkEx
__ZN25SteamNetworkingSocketsLib26SteamDatagramClientThinkerD0Ev
__ZN25SteamNetworkingSocketsLib26SteamDatagramClientThinkerD1Ev
__ZN25SteamNetworkingSocketsLib26g_lockAllRecvMessageQueuesE
__ZN25SteamNetworkingSocketsLib27CConnectionTransportP2PBase17P2PTransportThinkEx
__ZN25SteamNetworkingSocketsLib27CConnectionTransportP2PBase40P2PTransportTrackSentEndToEndPingRequestExb
__ZN25SteamNetworkingSocketsLib27CConnectionTransportP2PBase41P2PTransportEndToEndConnectivityConfirmedEx
__ZN25SteamNetworkingSocketsLib27CConnectionTransportP2PBase44P2PTransportEndToEndConnectivityNotConfirmedEx
__ZN25SteamNetworkingSocketsLib27CConnectionTransportP2PBaseC2EPKcPNS_20CConnectionTransportE
__ZN25SteamNetworkingSocketsLib27CConnectionTransportP2PBaseD0Ev
__ZN25SteamNetworkingSocketsLib27CConnectionTransportP2PBaseD1Ev
__ZN25SteamNetworkingSocketsLib27CConnectionTransportP2PBaseD2Ev
__ZN25SteamNetworkingSocketsLib27CConnectionTransportSDRBase14DestroySessionEPNS_12RelaySessionEPKcx
__ZN25SteamNetworkingSocketsLib27CConnectionTransportSDRBase15RecvStatsCommonI46CMsgSteamDatagramConnectionStatsRouterToClientEEvPNS_12RelaySessionERKT_bx
__ZN25SteamNetworkingSocketsLib27CConnectionTransportSDRBase15RecvStatsCommonI49CMsgSteamDatagramConnectionStatsP2PRouterToClientEEvPNS_12RelaySessionERKT_bx
__ZN25SteamNetworkingSocketsLib27CConnectionTransportSDRBase17ThinkSelectServerEx
__ZN25SteamNetworkingSocketsLib27CConnectionTransportSDRBase18DestroyAllSessionsEPKc
__ZN25SteamNetworkingSocketsLib27CConnectionTransportSDRBase19AboutToRemoveServerERNS_11RelayServerE
__ZN25SteamNetworkingSocketsLib27CConnectionTransportSDRBase20DestroySessionLockedEPNS_12RelaySessionEPKcx
__ZN25SteamNetworkingSocketsLib27CConnectionTransportSDRBase20SDRClientDestroySelfEv
__ZN25SteamNetworkingSocketsLib27CConnectionTransportSDRBase20SendEndToEndStatsMsgENS_18EStatsReplyRequestExPKc
__ZN25SteamNetworkingSocketsLib27CConnectionTransportSDRBase22NetworkRevisionChangedEv
__ZN25SteamNetworkingSocketsLib27CConnectionTransportSDRBase22TransportFreeResourcesEv
__ZN25SteamNetworkingSocketsLib27CConnectionTransportSDRBase24ProcessMessage_NoSessionEPNS_12RelaySessionERK39CMsgSteamDatagramNoSessionRelayToClientixb
__ZN25SteamNetworkingSocketsLib27CConnectionTransportSDRBase25SDRTransportThinkSessionsEx
__ZN25SteamNetworkingSocketsLib27CConnectionTransportSDRBase27CheckCancelMigrationRequestEv
__ZN25SteamNetworkingSocketsLib27CConnectionTransportSDRBase27GetDetailedConnectionStatusERNS_39SteamNetworkingDetailedConnectionStatusEx
__ZN25SteamNetworkingSocketsLib27CConnectionTransportSDRBase27ProcessMessage_NoConnectionEPNS_12RelaySessionERK29CMsgSteamDatagramNoConnectionix
__ZN25SteamNetworkingSocketsLib27CConnectionTransportSDRBase27TransportGuessTimeoutReasonER22ESteamNetConnectionEndRA128_cx
__ZN25SteamNetworkingSocketsLib27CConnectionTransportSDRBase28SendConnectionClosedToServerERNS_11RelayServerEPNS_12RelaySessionEb
__ZN25SteamNetworkingSocketsLib27CConnectionTransportSDRBase28ThinkPendingMigrationRequestEx
__ZN25SteamNetworkingSocketsLib27CConnectionTransportSDRBase28TransportPopulateDiagnosticsER33CGameNetworkingUI_ConnectionStatex
__ZN25SteamNetworkingSocketsLib27CConnectionTransportSDRBase29SessionDowntimeWarningChangedEPNS_12RelaySessionE
__ZN25SteamNetworkingSocketsLib27CConnectionTransportSDRBase29TrackSentStatsToSessionCommonI46CMsgSteamDatagramConnectionStatsClientToRouterEEvRNS_12RelaySessionERKT_PKcx
__ZN25SteamNetworkingSocketsLib27CConnectionTransportSDRBase29TrackSentStatsToSessionCommonI49CMsgSteamDatagramConnectionStatsP2PClientToRouterEEvRNS_12RelaySessionERKT_PKcx
__ZN25SteamNetworkingSocketsLib27CConnectionTransportSDRBase30BPingRelayUsingSessionStatsMsgEPNS_12RelaySessionExNS_18EStatsReplyRequestEPKc
__ZN25SteamNetworkingSocketsLib27CConnectionTransportSDRBase30SendConnectionClosedForSessionEPNS_12RelaySessionEb
__ZN25SteamNetworkingSocketsLib27CConnectionTransportSDRBase30SetSessionSelectQualityMetricsERNS_11RelayServerERNS_27SessionSelectQualityMetricsEx
__ZN25SteamNetworkingSocketsLib27CConnectionTransportSDRBase31ProcessMessage_ConnectionClosedEPNS_12RelaySessionERK33CMsgSteamDatagramConnectionClosedix
__ZN25SteamNetworkingSocketsLib27CConnectionTransportSDRBase31TransportConnectionStateChangedE31ESteamNetworkingConnectionState
__ZN25SteamNetworkingSocketsLib27CConnectionTransportSDRBase32ProcessPacket_DataRouterToClientEPNS_12RelaySessionEPKhixi
__ZN25SteamNetworkingSocketsLib27CConnectionTransportSDRBase35SDRTransportPopulateNoConnectionMsgER29CMsgSteamDatagramNoConnectionRNS_12RelaySessionE
__ZN25SteamNetworkingSocketsLib27CConnectionTransportSDRBase36SDRTransportPopulateClientPingSampleERNSt3__16vectorI42CMsgSteamDatagramClientPingSampleReply_POPNS1_9allocatorIS3_EEEE
__ZN25SteamNetworkingSocketsLib27CConnectionTransportSDRBase38ProcessMessage_ClientPingSampleRequestERNS_11RelayServerERK40CMsgSteamDatagramClientPingSampleRequestix
__ZN25SteamNetworkingSocketsLib27CConnectionTransportSDRBase38ThinkSelectServer_SelectActiveSessionsEx
__ZN25SteamNetworkingSocketsLib27CConnectionTransportSDRBase39SDRTransportPopulateConnectionClosedMsgER33CMsgSteamDatagramConnectionClosedRNS_11RelayServerEPNS_12RelaySessionEb
__ZN25SteamNetworkingSocketsLib27CConnectionTransportSDRBase42ThinkSelectServer_PursueSessionsOnClustersERKNSt3__16vectorINS_19RouteQualityMetricsENS1_9allocatorIS3_EEEEix
__ZN25SteamNetworkingSocketsLib27CConnectionTransportSDRBase47SDRTransportGuessTimeoutReason_CheckDevOverrideER22ESteamNetConnectionEndRA128_c
__ZN25SteamNetworkingSocketsLib27CConnectionTransportSDRBase48SDRTransportGuessTimeoutReason_IsClusterRelevantEPKNS_17SharedClusterDataE
__ZN25SteamNetworkingSocketsLib27CConnectionTransportSDRBaseC2ERNS_27CSteamNetworkConnectionBaseENS0_11EClientTypeE
__ZN25SteamNetworkingSocketsLib27CConnectionTransportSDRBaseD0Ev
__ZN25SteamNetworkingSocketsLib27CConnectionTransportSDRBaseD1Ev
__ZN25SteamNetworkingSocketsLib27CConnectionTransportSDRBaseD2Ev
__ZN25SteamNetworkingSocketsLib27CConnectionTransportUDPBase13Received_DataEPKhix
__ZN25SteamNetworkingSocketsLib27CConnectionTransportUDPBase13SendPaddedMsgEhRKN6google8protobuf11MessageLiteE
__ZN25SteamNetworkingSocketsLib27CConnectionTransportUDPBase14SendDataPacketEx
__ZN25SteamNetworkingSocketsLib27CConnectionTransportUDPBase14TrackSentStatsERNS_22UDPSendPacketContext_tE
__ZN25SteamNetworkingSocketsLib27CConnectionTransportUDPBase16SendNoConnectionEjj
__ZN25SteamNetworkingSocketsLib27CConnectionTransportUDPBase20SendEndToEndStatsMsgENS_18EStatsReplyRequestExPKc
__ZN25SteamNetworkingSocketsLib27CConnectionTransportUDPBase21Received_NoConnectionERK33CMsgSteamSockets_UDP_NoConnectionx
__ZN25SteamNetworkingSocketsLib27CConnectionTransportUDPBase22RecvValidUDPDataPacketERNS_22UDPRecvPacketContext_tE
__ZN25SteamNetworkingSocketsLib27CConnectionTransportUDPBase22SendEncryptedDataChunkEPKviRNS_19SendPacketContext_tE
__ZN25SteamNetworkingSocketsLib27CConnectionTransportUDPBase25Received_ConnectionClosedERK37CMsgSteamSockets_UDP_ConnectionClosedx
__ZN25SteamNetworkingSocketsLib27CConnectionTransportUDPBase27GetDetailedConnectionStatusERNS_39SteamNetworkingDetailedConnectionStatusEx
__ZN25SteamNetworkingSocketsLib27CConnectionTransportUDPBase34SendConnectionClosedOrNoConnectionEv
__ZN25SteamNetworkingSocketsLib27CConnectionTransportUDPBase7SendMsgEhRKN6google8protobuf11MessageLiteE
__ZN25SteamNetworkingSocketsLib27CConnectionTransportUDPBase9RecvStatsERK26CMsgSteamSockets_UDP_Statsx
__ZN25SteamNetworkingSocketsLib27CConnectionTransportUDPBaseC2ERNS_27CSteamNetworkConnectionBaseE
__ZN25SteamNetworkingSocketsLib27CConnectionTransportUDPBaseD0Ev
__ZN25SteamNetworkingSocketsLib27CConnectionTransportUDPBaseD1Ev
__ZN25SteamNetworkingSocketsLib27CSteamNetworkConnectionBase10SetAppNameEPKc
__ZN25SteamNetworkingSocketsLib27CSteamNetworkConnectionBase11ClearCryptoEv
__ZN25SteamNetworkingSocketsLib27CSteamNetworkConnectionBase11SetUserDataEx
__ZN25SteamNetworkingSocketsLib27CSteamNetworkConnectionBase12SetLocalCertERK34CMsgSteamDatagramCertificateSignedRK20CECSigningPrivateKeyb
__ZN25SteamNetworkingSocketsLib27CSteamNetworkConnectionBase12SetPollGroupEPNS_22CSteamNetworkPollGroupE
__ZN25SteamNetworkingSocketsLib27CSteamNetworkConnectionBase13FreeResourcesEv
__ZN25SteamNetworkingSocketsLib27CSteamNetworkConnectionBase14ProcessSNPPingEiRNS_19RecvPacketContext_tE
__ZN25SteamNetworkingSocketsLib27CSteamNetworkConnectionBase14SNP_SendPacketEPNS_20CConnectionTransportERNS_19SendPacketContext_tE
__ZN25SteamNetworkingSocketsLib27CSteamNetworkConnectionBase14SetDescriptionEv
__ZN25SteamNetworkingSocketsLib27CSteamNetworkConnectionBase15BInitConnectionExiPK28SteamNetworkingConfigValue_tRA1024_c
__ZN25SteamNetworkingSocketsLib27CSteamNetworkConnectionBase15CheckRemoteCertEPKNS_13CertAuthScopeERA1024_c
__ZN25SteamNetworkingSocketsLib27CSteamNetworkConnectionBase15ReceivedMessageEPNS_23CSteamNetworkingMessageE
__ZN25SteamNetworkingSocketsLib27CSteamNetworkConnectionBase15SNP_SendMessageEPNS_23CSteamNetworkingMessageExPb
__ZN25SteamNetworkingSocketsLib27CSteamNetworkConnectionBase15ThinkConnectionEx
__ZN25SteamNetworkingSocketsLib27CSteamNetworkConnectionBase16AcceptConnectionEx
__ZN25SteamNetworkingSocketsLib27CSteamNetworkConnectionBase16ClearLocalCryptoEv
__ZN25SteamNetworkingSocketsLib27CSteamNetworkConnectionBase16DecryptDataChunkEtiPKviRNS_19RecvPacketContext_tE
__ZN25SteamNetworkingSocketsLib27CSteamNetworkConnectionBase16DestroyTransportEv
__ZN25SteamNetworkingSocketsLib27CSteamNetworkConnectionBase16InterfaceGotCertEv
__ZN25SteamNetworkingSocketsLib27CSteamNetworkConnectionBase16QueueEndToEndAckEbx
__ZN25SteamNetworkingSocketsLib27CSteamNetworkConnectionBase16SNP_FlushMessageEx
__ZN25SteamNetworkingSocketsLib27CSteamNetworkConnectionBase17BThinkCryptoReadyEx
__ZN25SteamNetworkingSocketsLib27CSteamNetworkConnectionBase17CertRequestFailedE22ESteamNetConnectionEndPKc
__ZN25SteamNetworkingSocketsLib27CSteamNetworkConnectionBase17QueueFlushAllAcksEx
__ZN25SteamNetworkingSocketsLib27CSteamNetworkConnectionBase17SNP_ClampSendRateEv
__ZN25SteamNetworkingSocketsLib27CSteamNetworkConnectionBase18APICloseConnectionEiPKcb
__ZN25SteamNetworkingSocketsLib27CSteamNetworkConnectionBase18APIReceiveMessagesEPP24SteamNetworkingMessage_ti
__ZN25SteamNetworkingSocketsLib27CSteamNetworkConnectionBase18ConnectionTimedOutEx
__ZN25SteamNetworkingSocketsLib27CSteamNetworkConnectionBase18SNP_ConfigureLanesEiPKiPKt
__ZN25SteamNetworkingSocketsLib27CSteamNetworkConnectionBase18SNP_ThinkSendStateEx
__ZN25SteamNetworkingSocketsLib27CSteamNetworkConnectionBase19APIAcceptConnectionEv
__ZN25SteamNetworkingSocketsLib27CSteamNetworkConnectionBase19FinalizeLocalCryptoEv
__ZN25SteamNetworkingSocketsLib27CSteamNetworkConnectionBase19ProcessDeletionListEv
__ZN25SteamNetworkingSocketsLib27CSteamNetworkConnectionBase19ReceivedMessageDataEPKviixix
__ZN25SteamNetworkingSocketsLib27CSteamNetworkConnectionBase19RecvCryptoHandshakeERK34CMsgSteamDatagramCertificateSignedRK39CMsgSteamDatagramSessionCryptInfoSignedbRA1024_c
__ZN25SteamNetworkingSocketsLib27CSteamNetworkConnectionBase19RemoveFromPollGroupEv
__ZN25SteamNetworkingSocketsLib27CSteamNetworkConnectionBase19SNP_GatherAckBlocksERNS_24SNPPacketSerializeHelperE
__ZN25SteamNetworkingSocketsLib27CSteamNetworkConnectionBase19SetCryptoCipherListEv
__ZN25SteamNetworkingSocketsLib27CSteamNetworkConnectionBase19UpdateMTUFromConfigEb
__ZN25SteamNetworkingSocketsLib27CSteamNetworkConnectionBase20APIGetRealTimeStatusEP34SteamNetConnectionRealTimeStatus_tiP38SteamNetConnectionRealTimeLaneStatus_t
__ZN25SteamNetworkingSocketsLib27CSteamNetworkConnectionBase20BRecvCryptoHandshakeERK34CMsgSteamDatagramCertificateSignedRK39CMsgSteamDatagramSessionCryptInfoSignedb
__ZN25SteamNetworkingSocketsLib27CSteamNetworkConnectionBase20InitConnectionCryptoEx
__ZN25SteamNetworkingSocketsLib27CSteamNetworkConnectionBase20SNP_GetNextThinkTimeEx
__ZN25SteamNetworkingSocketsLib27CSteamNetworkConnectionBase20SetLocalCertUnsignedEv
__ZN25SteamNetworkingSocketsLib27CSteamNetworkConnectionBase21FinishCryptoHandshakeEbRA1024_c
__ZN25SteamNetworkingSocketsLib27CSteamNetworkConnectionBase21SNP_SentNonDataPacketEPNS_20CConnectionTransportEix
__ZN25SteamNetworkingSocketsLib27CSteamNetworkConnectionBase22AllocateNewRecvMessageEjix
__ZN25SteamNetworkingSocketsLib27CSteamNetworkConnectionBase22AllowLocalUnsignedCertEv
__ZN25SteamNetworkingSocketsLib27CSteamNetworkConnectionBase22BSupportsSymmetricModeEv
__ZN25SteamNetworkingSocketsLib27CSteamNetworkConnectionBase22ConnectionQueueDestroyEv
__ZN25SteamNetworkingSocketsLib27CSteamNetworkConnectionBase22ConnectionStateChangedE31ESteamNetworkingConnectionState
__ZN25SteamNetworkingSocketsLib27CSteamNetworkConnectionBase22SNP_SerializeAckBlocksERKNS_24SNPPacketSerializeHelperEPhPKh
__ZN25SteamNetworkingSocketsLib27CSteamNetworkConnectionBase22SNP_ShutdownConnectionEv
__ZN25SteamNetworkingSocketsLib27CSteamNetworkConnectionBase23AllowRemoteUnsignedCertEv
__ZN25SteamNetworkingSocketsLib27CSteamNetworkConnectionBase23ConnectionState_FinWaitEv
__ZN25SteamNetworkingSocketsLib27CSteamNetworkConnectionBase24SNP_InitializeConnectionEx
__ZN25SteamNetworkingSocketsLib27CSteamNetworkConnectionBase24SNP_RecordReceivedPktNumExxb
__ZN25SteamNetworkingSocketsLib27CSteamNetworkConnectionBase25ConnectionState_ConnectedEx
__ZN25SteamNetworkingSocketsLib27CSteamNetworkConnectionBase25ProcessPlainTextDataChunkEiRNS_19RecvPacketContext_tE
__ZN25SteamNetworkingSocketsLib27CSteamNetworkConnectionBase25SNP_PopulateDetailedStatsERNS_22SteamDatagramLinkStatsE
__ZN25SteamNetworkingSocketsLib27CSteamNetworkConnectionBase25SNP_SerializeSegmentArrayILb0EEEPhS2_RNS_24SNPPacketSerializeHelperEPNS_17SNPEncodedSegmentES6_b
__ZN25SteamNetworkingSocketsLib27CSteamNetworkConnectionBase25SNP_SerializeSegmentArrayILb1EEEPhS2_RNS_24SNPPacketSerializeHelperEPNS_17SNPEncodedSegmentES6_b
__ZN25SteamNetworkingSocketsLib27CSteamNetworkConnectionBase26APISendMessageToConnectionEPKvjiPx
__ZN25SteamNetworkingSocketsLib27CSteamNetworkConnectionBase26APISendMessageToConnectionEPNS_23CSteamNetworkingMessageExPb
__ZN25SteamNetworkingSocketsLib27CSteamNetworkConnectionBase26RecvNonDataSequencedPacketExx
__ZN25SteamNetworkingSocketsLib27CSteamNetworkConnectionBase26SNP_PopulateRealTimeStatusEP34SteamNetConnectionRealTimeStatus_tiP38SteamNetConnectionRealTimeLaneStatus_tx
__ZN25SteamNetworkingSocketsLib27CSteamNetworkConnectionBase26SNP_ReceiveReliableSegmentExxPKhiix
__ZN25SteamNetworkingSocketsLib27CSteamNetworkConnectionBase26SNP_TokenBucket_AccumulateEx
__ZN25SteamNetworkingSocketsLib27CSteamNetworkConnectionBase27APIFlushMessageOnConnectionEv
__ZN25SteamNetworkingSocketsLib27CSteamNetworkConnectionBase27AsSteamNetworkConnectionP2PEv
__ZN25SteamNetworkingSocketsLib27CSteamNetworkConnectionBase27BConnectionState_ConnectingExRA1024_c
__ZN25SteamNetworkingSocketsLib27CSteamNetworkConnectionBase27SNP_SenderProcessPacketNackExRNS_19SNPInFlightPacket_tEPKc
__ZN25SteamNetworkingSocketsLib27CSteamNetworkConnectionBase27SNP_SerializePacketInternalILb0ELb0EEEiRNS_24SNPPacketSerializeHelperE
__ZN25SteamNetworkingSocketsLib27CSteamNetworkConnectionBase27SNP_SerializePacketInternalILb0ELb1EEEiRNS_24SNPPacketSerializeHelperE
__ZN25SteamNetworkingSocketsLib27CSteamNetworkConnectionBase27SNP_SerializePacketInternalILb1ELb0EEEiRNS_24SNPPacketSerializeHelperE
__ZN25SteamNetworkingSocketsLib27CSteamNetworkConnectionBase27SNP_SerializePacketInternalILb1ELb1EEEiRNS_24SNPPacketSerializeHelperE
__ZN25SteamNetworkingSocketsLib27CSteamNetworkConnectionBase27_APISendMessageToConnectionEPNS_23CSteamNetworkingMessageExPb
__ZN25SteamNetworkingSocketsLib27CSteamNetworkConnectionBase28ConnectionGuessTimeoutReasonER22ESteamNetConnectionEndRA128_cx
__ZN25SteamNetworkingSocketsLib27CSteamNetworkConnectionBase28ConnectionState_ClosedByPeerEiPKc
__ZN25SteamNetworkingSocketsLib27CSteamNetworkConnectionBase28ConnectionState_FindingRouteEx
__ZN25SteamNetworkingSocketsLib27CSteamNetworkConnectionBase28SNP_ReceiveUnreliableSegmentExiPKvibix
__ZN25SteamNetworkingSocketsLib27CSteamNetworkConnectionBase28ThinkConnection_FindingRouteEx
__ZN25SteamNetworkingSocketsLib27CSteamNetworkConnectionBase29ConnectionPopulateDiagnosticsE31ESteamNetworkingConnectionStateR33CGameNetworkingUI_ConnectionStatex
__ZN25SteamNetworkingSocketsLib27CSteamNetworkConnectionBase30APIGetDetailedConnectionStatusERNS_39SteamNetworkingDetailedConnectionStatusEx
__ZN25SteamNetworkingSocketsLib27CSteamNetworkConnectionBase30SNP_SenderCheckInFlightPacketsEx
__ZN25SteamNetworkingSocketsLib27CSteamNetworkConnectionBase31SNP_SerializeSegments_MultiLaneILb0EEEPhS2_RNS_24SNPPacketSerializeHelperERNS_19SNPSegmentCollectorIXT_ELb0EEE
__ZN25SteamNetworkingSocketsLib27CSteamNetworkConnectionBase31SNP_SerializeSegments_MultiLaneILb1EEEPhS2_RNS_24SNPPacketSerializeHelperERNS_19SNPSegmentCollectorIXT_ELb0EEE
__ZN25SteamNetworkingSocketsLib27CSteamNetworkConnectionBase32ThinkConnection_ClientConnectingEx
__ZN25SteamNetworkingSocketsLib27CSteamNetworkConnectionBase33SNP_QueueReliableSegmentsForRetryERNS_19SNPInFlightPacket_tExPKc
__ZN25SteamNetworkingSocketsLib27CSteamNetworkConnectionBase34CheckScheduleDiagnosticsUpdateASAPEv
__ZN25SteamNetworkingSocketsLib27CSteamNetworkConnectionBase34PostConnectionStateChangedCallbackE31ESteamNetworkingConnectionStateS1_
__ZN25SteamNetworkingSocketsLib27CSteamNetworkConnectionBase36CheckConnectionStateOrScheduleWakeUpEx
__ZN25SteamNetworkingSocketsLib27CSteamNetworkConnectionBase38ConnectionState_ProblemDetectedLocallyE22ESteamNetConnectionEndPKcz
__ZN25SteamNetworkingSocketsLib27CSteamNetworkConnectionBase5ThinkEx
__ZN25SteamNetworkingSocketsLib27CSteamNetworkConnectionBase8SetStateE31ESteamNetworkingConnectionStatex
__ZN25SteamNetworkingSocketsLib27CSteamNetworkConnectionBaseC2EPNS_23CSteamNetworkingSocketsERNS_19ConnectionScopeLockE
__ZN25SteamNetworkingSocketsLib27CSteamNetworkConnectionBaseD0Ev
__ZN25SteamNetworkingSocketsLib27CSteamNetworkConnectionBaseD1Ev
__ZN25SteamNetworkingSocketsLib27CSteamNetworkConnectionBaseD2Ev
__ZN25SteamNetworkingSocketsLib27CSteamNetworkConnectionPipe12BBeginAcceptEPNS_29CSteamNetworkListenSocketBaseExRNS_19ConnectionScopeLockERA1024_c
__ZN25SteamNetworkingSocketsLib27CSteamNetworkConnectionPipe13FakeRecvStatsExit
__ZN25SteamNetworkingSocketsLib27CSteamNetworkConnectionPipe14SendDataPacketEx
__ZN25SteamNetworkingSocketsLib27CSteamNetworkConnectionPipe16AcceptConnectionEx
__ZN25SteamNetworkingSocketsLib27CSteamNetworkConnectionPipe16DestroyTransportEv
__ZN25SteamNetworkingSocketsLib27CSteamNetworkConnectionPipe19APICreateSocketPairEPNS_23CSteamNetworkingSocketsEPPS0_PK23SteamNetworkingIdentity
__ZN25SteamNetworkingSocketsLib27CSteamNetworkConnectionPipe20FakeSendStatsAndRecvExi
__ZN25SteamNetworkingSocketsLib27CSteamNetworkConnectionPipe20InitConnectionCryptoEx
__ZN25SteamNetworkingSocketsLib27CSteamNetworkConnectionPipe20SendEndToEndStatsMsgENS_18EStatsReplyRequestExPKc
__ZN25SteamNetworkingSocketsLib27CSteamNetworkConnectionPipe22AllowLocalUnsignedCertEv
__ZN25SteamNetworkingSocketsLib27CSteamNetworkConnectionPipe22BSupportsSymmetricModeEv
__ZN25SteamNetworkingSocketsLib27CSteamNetworkConnectionPipe22ConnectionStateChangedE31ESteamNetworkingConnectionState
__ZN25SteamNetworkingSocketsLib27CSteamNetworkConnectionPipe22SendEncryptedDataChunkEPKviRNS_19SendPacketContext_tE
__ZN25SteamNetworkingSocketsLib27CSteamNetworkConnectionPipe23AllowRemoteUnsignedCertEv
__ZN25SteamNetworkingSocketsLib27CSteamNetworkConnectionPipe24CreateLoopbackConnectionEPNS_23CSteamNetworkingSocketsEiPK28SteamNetworkingConfigValue_tPNS_29CSteamNetworkListenSocketBaseERK23SteamNetworkingIdentityRA1024_cRNS_19ConnectionScopeLockE
__ZN25SteamNetworkingSocketsLib27CSteamNetworkConnectionPipe26SendEndToEndConnectRequestEx
__ZN25SteamNetworkingSocketsLib27CSteamNetworkConnectionPipe27_APISendMessageToConnectionEPNS_23CSteamNetworkingMessageExPb
__ZN25SteamNetworkingSocketsLib27CSteamNetworkConnectionPipeC2EPNS_23CSteamNetworkingSocketsERK23SteamNetworkingIdentityRNS_19ConnectionScopeLockEb
__ZN25SteamNetworkingSocketsLib27CSteamNetworkConnectionPipeD0Ev
__ZN25SteamNetworkingSocketsLib27CSteamNetworkConnectionPipeD1Ev
__ZN25SteamNetworkingSocketsLib27CSteamNetworkConnectionPipeD2Ev
__ZN25SteamNetworkingSocketsLib27CertStore_AddCertFromBase64EPKcRA1024_c
__ZN25SteamNetworkingSocketsLib27EnsureDataCenterRoutesValidEv
__ZN25SteamNetworkingSocketsLib27LinkStatsPrintLifetimeToBufEPKcRKNS_30SteamDatagramLinkLifetimeStatsER10CUtlBuffer
__ZN25SteamNetworkingSocketsLib27SNPSegmentCollectorLaneBase13AddUnreliableEPNS_23CSteamNetworkingMessageEi
__ZN25SteamNetworkingSocketsLib27SteamNetworkingMessageQueue13PurgeMessagesEv
__ZN25SteamNetworkingSocketsLib27SteamNetworkingMessageQueue14RemoveMessagesEPP24SteamNetworkingMessage_ti
__ZN25SteamNetworkingSocketsLib27g_ConfigDefault_SendRateMaxE
__ZN25SteamNetworkingSocketsLib27g_ConfigDefault_SendRateMinE
__ZN25SteamNetworkingSocketsLib27g_ConfigDefault_UnencryptedE
__ZN25SteamNetworkingSocketsLib27g_Config_FakePacketDup_RecvE
__ZN25SteamNetworkingSocketsLib27g_Config_FakePacketDup_SendE
__ZN25SteamNetworkingSocketsLib27g_Config_FakePacketLag_RecvE
__ZN25SteamNetworkingSocketsLib27g_Config_FakePacketLag_SendE
__ZN25SteamNetworkingSocketsLib27g_taskListRunWithGlobalLockE
__ZN25SteamNetworkingSocketsLib28CSteamNetworkListenSocketP2P22BSupportsSymmetricModeEv
__ZN25SteamNetworkingSocketsLib28CSteamNetworkListenSocketP2P5BInitEiiPK28SteamNetworkingConfigValue_tRA1024_c
__ZN25SteamNetworkingSocketsLib28CSteamNetworkListenSocketP2PD0Ev
__ZN25SteamNetworkingSocketsLib28CSteamNetworkListenSocketP2PD1Ev
__ZN25SteamNetworkingSocketsLib28CSteamNetworkListenSocketP2PD2Ev
__ZN25SteamNetworkingSocketsLib28CalculatePublicKeyID_Ed25519EPKvm
__ZN25SteamNetworkingSocketsLib28ConnectionConfigDefaultValueINSt3__112basic_stringIcNS1_11char_traitsIcEENS1_9allocatorIcEEEEED1Ev
__ZN25SteamNetworkingSocketsLib28LinkStatsLifetimeMsgToStructERK34CMsgSteamDatagramLinkLifetimeStatsRNS_30SteamDatagramLinkLifetimeStatsE
__ZN25SteamNetworkingSocketsLib28LinkStatsLifetimeStructToMsgERKNS_30SteamDatagramLinkLifetimeStatsER34CMsgSteamDatagramLinkLifetimeStats
__ZN25SteamNetworkingSocketsLib28g_Config_FakePacketLoss_RecvE
__ZN25SteamNetworkingSocketsLib28g_Config_FakePacketLoss_SendE
__ZN25SteamNetworkingSocketsLib28g_Config_PacketTraceMaxBytesE
__ZN25SteamNetworkingSocketsLib28g_vecRestrictToRelayClustersE
__ZN25SteamNetworkingSocketsLib29CSteamNetworkListenSocketBase13APIGetAddressEP21SteamNetworkingIPAddr
__ZN25SteamNetworkingSocketsLib29CSteamNetworkListenSocketBase19BAddChildConnectionEPNS_27CSteamNetworkConnectionBaseERA1024_c
__ZN25SteamNetworkingSocketsLib29CSteamNetworkListenSocketBase22BSupportsSymmetricModeEv
__ZN25SteamNetworkingSocketsLib29CSteamNetworkListenSocketBase23BInitListenSocketCommonEiPK28SteamNetworkingConfigValue_tRA1024_c
__ZN25SteamNetworkingSocketsLib29CSteamNetworkListenSocketBase29AboutToDestroyChildConnectionEPNS_27CSteamNetworkConnectionBaseE
__ZN25SteamNetworkingSocketsLib29CSteamNetworkListenSocketBase7DestroyEv
__ZN25SteamNetworkingSocketsLib29CSteamNetworkListenSocketBaseC2EPNS_23CSteamNetworkingSocketsE
__ZN25SteamNetworkingSocketsLib29CSteamNetworkListenSocketBaseD0Ev
__ZN25SteamNetworkingSocketsLib29CSteamNetworkListenSocketBaseD1Ev
__ZN25SteamNetworkingSocketsLib29CSteamNetworkListenSocketBaseD2Ev
__ZN25SteamNetworkingSocketsLib29IsRouteToAddressProbablyLocalE10CIPAndPort
__ZN25SteamNetworkingSocketsLib29SendEncryptedDataChunkGenericI46CMsgSteamDatagramConnectionStatsClientToRouterNS_31CConnectionTransportToSDRServerEEEiPT0_PKviRNS_19SendPacketContext_tE
__ZN25SteamNetworkingSocketsLib29SendEncryptedDataChunkGenericI49CMsgSteamDatagramConnectionStatsP2PClientToRouterNS_26CConnectionTransportP2PSDREEEiPT0_PKviRNS_19SendPacketContext_tE
__ZN25SteamNetworkingSocketsLib29g_vecRestrictToRelayAddressesE
__ZN25SteamNetworkingSocketsLib29s_pSteamDatagramClientThinkerE
__ZN25SteamNetworkingSocketsLib30BCheckGlobalSpamReplyRateLimitEx
__ZN25SteamNetworkingSocketsLib30BCheckRateLimitReportBadPacketEx
__ZN25SteamNetworkingSocketsLib30CSteamNetworkingUtilsSteamBase10BCheckInitERA1024_c
__ZN25SteamNetworkingSocketsLib30CSteamNetworkingUtilsSteamBase13GetTimeSecureEv
__ZN25SteamNetworkingSocketsLib30CSteamNetworkingUtilsSteamBase14TEST_ResetSelfEv
__ZN25SteamNetworkingSocketsLib30CSteamNetworkingUtilsSteamBase24GetRealIdentityForFakeIPERK21SteamNetworkingIPAddrP23SteamNetworkingIdentity
__ZN25SteamNetworkingSocketsLib30CSteamNetworkingUtilsSteamBase41PostConnectionStateUpdateForDiagnosticsUIE31ESteamNetworkingConnectionStatePNS_27CSteamNetworkConnectionBaseEx
__ZN25SteamNetworkingSocketsLib30CSteamNetworkingUtilsSteamBase5BInitERA1024_c
__ZN25SteamNetworkingSocketsLib30CSteamNetworkingUtilsSteamBase8GetAppIDEv
__ZN25SteamNetworkingSocketsLib30CSteamNetworkingUtilsSteamBaseD0Ev
__ZN25SteamNetworkingSocketsLib30CSteamNetworkingUtilsSteamBaseD1Ev
__ZN25SteamNetworkingSocketsLib30CSteamNetworkingUtilsSteamBaseD2Ev
__ZN25SteamNetworkingSocketsLib30ScheduledMethodThinkerLockableINS_27CConnectionTransportP2PBaseEE5ThinkEx
__ZN25SteamNetworkingSocketsLib30ScheduledMethodThinkerLockableINS_27CConnectionTransportP2PBaseEED0Ev
__ZN25SteamNetworkingSocketsLib30ScheduledMethodThinkerLockableINS_27CConnectionTransportP2PBaseEED1Ev
__ZN25SteamNetworkingSocketsLib30ScheduledMethodThinkerLockableINS_27CConnectionTransportSDRBaseEE5ThinkEx
__ZN25SteamNetworkingSocketsLib30ScheduledMethodThinkerLockableINS_27CConnectionTransportSDRBaseEED0Ev
__ZN25SteamNetworkingSocketsLib30ScheduledMethodThinkerLockableINS_27CConnectionTransportSDRBaseEED1Ev
__ZN25SteamNetworkingSocketsLib30SerializeSDRInlineStatsGenericINS_26CConnectionTransportP2PSDRENS_12RelaySessionENS_24MsgHdrDataClientToRouterE49CMsgSteamDatagramConnectionStatsP2PClientToRouterEEvPT_RNS_20DataPacketSerializerIT1_EERNS_20SDRSendPacketContextIT2_T0_EE
__ZN25SteamNetworkingSocketsLib30SerializeSDRInlineStatsGenericINS_31CConnectionTransportToSDRServerENS_12RelaySessionENS_24MsgHdrDataClientToRouterE46CMsgSteamDatagramConnectionStatsClientToRouterEEvPT_RNS_20DataPacketSerializerIT1_EERNS_20SDRSendPacketContextIT2_T0_EE
__ZN25SteamNetworkingSocketsLib30SteamNetworkingMessagesSession15CheckConnectionEx
__ZN25SteamNetworkingSocketsLib30SteamNetworkingMessagesSession15CloseConnectionEiPKc
__ZN25SteamNetworkingSocketsLib30SteamNetworkingMessagesSession15ReceivedMessageEPNS_23CSteamNetworkingMessageEPNS_27CSteamNetworkConnectionBaseE
__ZN25SteamNetworkingSocketsLib30SteamNetworkingMessagesSession19SetActiveConnectionEPNS_27CSteamNetworkConnectionBaseERNS_19ConnectionScopeLockE
__ZN25SteamNetworkingSocketsLib30SteamNetworkingMessagesSession20UpdateConnectionInfoEv
__ZN25SteamNetworkingSocketsLib30SteamNetworkingMessagesSession28ActiveConnectionStateChangedEv
__ZN25SteamNetworkingSocketsLib30SteamNetworkingMessagesSession5ThinkEx
__ZN25SteamNetworkingSocketsLib30SteamNetworkingMessagesSessionC2ERK23SteamNetworkingIdentityRNS_24CSteamNetworkingMessagesE
__ZN25SteamNetworkingSocketsLib30SteamNetworkingMessagesSessionD0Ev
__ZN25SteamNetworkingSocketsLib30SteamNetworkingMessagesSessionD1Ev
__ZN25SteamNetworkingSocketsLib30SteamNetworkingMessagesSessionD2Ev
__ZN25SteamNetworkingSocketsLib30g_ConfigDefault_MTU_PacketSizeE
__ZN25SteamNetworkingSocketsLib30g_ConfigDefault_SendBufferSizeE
__ZN25SteamNetworkingSocketsLib30g_ConfigDefault_TimeoutInitialE
__ZN25SteamNetworkingSocketsLib30g_Config_Callback_FakeIPResultE
__ZN25SteamNetworkingSocketsLib30g_Config_FakePacketDup_TimeMaxE
__ZN25SteamNetworkingSocketsLib31BParseRelayAuthTicketBytesToMsgEPKviR38CMsgSteamDatagramSignedRelayAuthTicketRA1024_c
__ZN25SteamNetworkingSocketsLib31CConnectionTransportToSDRServer14SendDataPacketEx
__ZN25SteamNetworkingSocketsLib31CConnectionTransportToSDRServer17ThinkFindingRouteEx
__ZN25SteamNetworkingSocketsLib31CConnectionTransportToSDRServer19RecvValidDataPacketERNS_28SDRClientRecvPacketContext_tE
__ZN25SteamNetworkingSocketsLib31CConnectionTransportToSDRServer20ProcessMessage_StatsEPNS_12RelaySessionERK46CMsgSteamDatagramConnectionStatsRouterToClientix
__ZN25SteamNetworkingSocketsLib31CConnectionTransportToSDRServer22SendEncryptedDataChunkEPKviRNS_19SendPacketContext_tE
__ZN25SteamNetworkingSocketsLib31CConnectionTransportToSDRServer23RecvValidEndToEndPacketExPKcPNS_12RelaySessionE
__ZN25SteamNetworkingSocketsLib31CConnectionTransportToSDRServer24ProcessMessage_ConnectOKEPNS_12RelaySessionERK26CMsgSteamDatagramConnectOKix
__ZN25SteamNetworkingSocketsLib31CConnectionTransportToSDRServer25PopulateSendPacketContextERNS_20SDRSendPacketContextI46CMsgSteamDatagramConnectionStatsClientToRouterNS_12RelaySessionEEENS_18EStatsReplyRequestEb
__ZN25SteamNetworkingSocketsLib31CConnectionTransportToSDRServer26BSendStatsMsgToRelayLockedEPNS_12RelaySessionENS_18EStatsReplyRequestEbxPKc
__ZN25SteamNetworkingSocketsLib31CConnectionTransportToSDRServer26SendEndToEndConnectRequestEx
__ZN25SteamNetworkingSocketsLib31CConnectionTransportToSDRServer27GetDetailedConnectionStatusERNS_39SteamNetworkingDetailedConnectionStatusEx
__ZN25SteamNetworkingSocketsLib31CConnectionTransportToSDRServer28TransportPopulateDiagnosticsER33CGameNetworkingUI_ConnectionStatex
__ZN25SteamNetworkingSocketsLib31CConnectionTransportToSDRServer36SDRTransportPopulateClientPingSampleERNSt3__16vectorI42CMsgSteamDatagramClientPingSampleReply_POPNS1_9allocatorIS3_EEEE
__ZN25SteamNetworkingSocketsLib31CConnectionTransportToSDRServer36ThinkSelectServer_SendSessionRequestERNS_11RelayServerERKNS_19RouteQualityMetricsE
__ZN25SteamNetworkingSocketsLib31CConnectionTransportToSDRServer38ThinkSelectServer_SelectActiveSessionsEx
__ZN25SteamNetworkingSocketsLib31CConnectionTransportToSDRServer39ThinkSelectServer_SetRouteMetricsCommonERNS_19RouteQualityMetricsE
__ZN25SteamNetworkingSocketsLib31CConnectionTransportToSDRServer43ProcessMessage_GameserverSessionEstablishedERNS_11RelayServerERK45CMsgSteamDatagramGameserverSessionEstablishedix
__ZN25SteamNetworkingSocketsLib31CConnectionTransportToSDRServer47SDRTransportGuessTimeoutReason_CheckDevOverrideER22ESteamNetConnectionEndRA128_c
__ZN25SteamNetworkingSocketsLib31CConnectionTransportToSDRServer48SDRTransportGuessTimeoutReason_IsClusterRelevantEPKNS_17SharedClusterDataE
__ZN25SteamNetworkingSocketsLib31CConnectionTransportToSDRServer49ThinkSelectServer_SelectClustersAndPursueSessionsEx
__ZN25SteamNetworkingSocketsLib31CConnectionTransportToSDRServer53ThinkSelectServer_SetServerMetricsForSessionSelectionERNS_11RelayServerERNS_27SessionSelectQualityMetricsE
__ZN25SteamNetworkingSocketsLib31CConnectionTransportToSDRServerC2ERNS_26CSteamNetworkConnectionP2PERKNS_21CachedRelayAuthTicketE
__ZN25SteamNetworkingSocketsLib31CConnectionTransportToSDRServerD0Ev
__ZN25SteamNetworkingSocketsLib31CConnectionTransportToSDRServerD1Ev
__ZN25SteamNetworkingSocketsLib31CConnectionTransportToSDRServerD2Ev
__ZN25SteamNetworkingSocketsLib31CSteamNetworkingSocketsCallbackI23SteamServersConnected_tE20GetCallbackSizeBytesEv
__ZN25SteamNetworkingSocketsLib31CSteamNetworkingSocketsCallbackI23SteamServersConnected_tE3RunEPv
__ZN25SteamNetworkingSocketsLib31CSteamNetworkingSocketsCallbackI26SteamServersDisconnected_tE20GetCallbackSizeBytesEv
__ZN25SteamNetworkingSocketsLib31CSteamNetworkingSocketsCallbackI26SteamServersDisconnected_tE3RunEPv
__ZN25SteamNetworkingSocketsLib31CSteamNetworkingSocketsCallbackI27SteamServerConnectFailure_tE20GetCallbackSizeBytesEv
__ZN25SteamNetworkingSocketsLib31CSteamNetworkingSocketsCallbackI27SteamServerConnectFailure_tE3RunEPv
__ZN25SteamNetworkingSocketsLib31CSteamNetworkingSocketsCallbackI38SteamNetworkingSocketsRecvP2PFailure_tE20GetCallbackSizeBytesEv
__ZN25SteamNetworkingSocketsLib31CSteamNetworkingSocketsCallbackI38SteamNetworkingSocketsRecvP2PFailure_tE3RunEPv
__ZN25SteamNetworkingSocketsLib31CSteamNetworkingSocketsCallbackI41SteamNetworkingSocketsRecvP2PRendezvous_tE20GetCallbackSizeBytesEv
__ZN25SteamNetworkingSocketsLib31CSteamNetworkingSocketsCallbackI41SteamNetworkingSocketsRecvP2PRendezvous_tE3RunEPv
__ZN25SteamNetworkingSocketsLib31EstimatePingBetweenTwoLocationsERKNS_34SteamNetworkPingLocationInternal_tES2_
__ZN25SteamNetworkingSocketsLib31SteamDatagramNetworkConfigCerts14AddToCertStoreEv
__ZN25SteamNetworkingSocketsLib31g_ConfigDefault_LogLevel_AckRTTE
__ZN25SteamNetworkingSocketsLib31g_Config_FakePacketReorder_RecvE
__ZN25SteamNetworkingSocketsLib31g_Config_FakePacketReorder_SendE
__ZN25SteamNetworkingSocketsLib31g_Config_FakePacketReorder_TimeE
__ZN25SteamNetworkingSocketsLib31g_Config_LogLevel_SDRRelayPingsE
__ZN25SteamNetworkingSocketsLib31g_Config_SDRClient_SingleSocketE
__ZN25SteamNetworkingSocketsLib31g_mapP2PConnectionsByRemoteInfoE
__ZN25SteamNetworkingSocketsLib32CSteamNetworkingSocketsSteamBase10OnCallbackEP23SteamServersConnected_t
__ZN25SteamNetworkingSocketsLib32CSteamNetworkingSocketsSteamBase10OnCallbackEP26SteamServersDisconnected_t
__ZN25SteamNetworkingSocketsLib32CSteamNetworkingSocketsSteamBase10OnCallbackEP27SteamServerConnectFailure_t
__ZN25SteamNetworkingSocketsLib32CSteamNetworkingSocketsSteamBase10OnCallbackEP38SteamNetworkingSocketsRecvP2PFailure_t
__ZN25SteamNetworkingSocketsLib32CSteamNetworkingSocketsSteamBase10OnCallbackEP41SteamNetworkingSocketsRecvP2PRendezvous_t
__ZN25SteamNetworkingSocketsLib32CSteamNetworkingSocketsSteamBase12OnCallResultEP28SteamNetworkingSocketsCert_tb
__ZN25SteamNetworkingSocketsLib32CSteamNetworkingSocketsSteamBase12OnCallResultEP33SteamNetworkingSerializedFakeIP_tb
__ZN25SteamNetworkingSocketsLib32CSteamNetworkingSocketsSteamBase13CacheIdentityEv
__ZN25SteamNetworkingSocketsLib32CSteamNetworkingSocketsSteamBase13FreeResourcesEv
__ZN25SteamNetworkingSocketsLib32CSteamNetworkingSocketsSteamBase14BInitSteamBaseEiiRA1024_c
__ZN25SteamNetworkingSocketsLib32CSteamNetworkingSocketsSteamBase16GetFakePortIndexERK21SteamNetworkingIPAddr
__ZN25SteamNetworkingSocketsLib32CSteamNetworkingSocketsSteamBase17CreateFakeUDPPortEi
__ZN25SteamNetworkingSocketsLib32CSteamNetworkingSocketsSteamBase18QueueP2PRendezvousE8CSteamIDPKvi
__ZN25SteamNetworkingSocketsLib32CSteamNetworkingSocketsSteamBase19BeginFetchCertAsyncEv
__ZN25SteamNetworkingSocketsLib32CSteamNetworkingSocketsSteamBase20BCertRequestInFlightEv
__ZN25SteamNetworkingSocketsLib32CSteamNetworkingSocketsSteamBase22CheckSetSTUNServerListEv
__ZN25SteamNetworkingSocketsLib32CSteamNetworkingSocketsSteamBase22PersistRelayAuthTicketEPKvi
__ZN25SteamNetworkingSocketsLib32CSteamNetworkingSocketsSteamBase23BeginAsyncRequestFakeIPEi
__ZN25SteamNetworkingSocketsLib32CSteamNetworkingSocketsSteamBase27GetP2P_Transport_ICE_EnableERK23SteamNetworkingIdentityPi
__ZN25SteamNetworkingSocketsLib32CSteamNetworkingSocketsSteamBase31CreateConnectionSignaling_SteamEP23ISteamNetworkingSocketsRK23SteamNetworkingIdentityii
__ZN25SteamNetworkingSocketsLib32CSteamNetworkingSocketsSteamBase43LoadRelayAuthTicketCacheFromPersistentStoreEv
__ZN25SteamNetworkingSocketsLib32CSteamNetworkingSocketsSteamBase9GetFakeIPEiP29SteamNetworkingFakeIPResult_t
__ZN25SteamNetworkingSocketsLib32CSteamNetworkingSocketsSteamBaseC2EbPNS_30CSteamNetworkingUtilsSteamBaseE
__ZN25SteamNetworkingSocketsLib32CSteamNetworkingSocketsSteamBaseD0Ev
__ZN25SteamNetworkingSocketsLib32CSteamNetworkingSocketsSteamBaseD1Ev
__ZN25SteamNetworkingSocketsLib32CSteamNetworkingSocketsSteamBaseD2Ev
__ZN25SteamNetworkingSocketsLib32FindOrCreateServerDataForClusterEi
__ZN25SteamNetworkingSocketsLib32LinkStatsPrintInstantaneousToBufEPKcRKNS_35SteamDatagramLinkInstantaneousStatsER10CUtlBuffer
__ZN25SteamNetworkingSocketsLib32g_ConfigDefault_LocalVirtualPortE
__ZN25SteamNetworkingSocketsLib32g_ConfigDefault_LogLevel_MessageE
__ZN25SteamNetworkingSocketsLib32g_ConfigDefault_SymmetricConnectE
__ZN25SteamNetworkingSocketsLib32g_ConfigDefault_TimeoutConnectedE
__ZN25SteamNetworkingSocketsLib32g_Config_FakeRateLimit_Recv_RateE
__ZN25SteamNetworkingSocketsLib32g_Config_FakeRateLimit_Send_RateE
__ZN25SteamNetworkingSocketsLib33CProcessP2PSignalFromSteamBackend16OnConnectRequestEjRK23SteamNetworkingIdentityi
__ZN25SteamNetworkingSocketsLib33CProcessP2PSignalFromSteamBackend19SendRejectionSignalERK23SteamNetworkingIdentityPKvi
__ZN25SteamNetworkingSocketsLib33CProcessP2PSignalFromSteamBackend3RunEv
__ZN25SteamNetworkingSocketsLib33CProcessP2PSignalFromSteamBackendC2E8CSteamID
__ZN25SteamNetworkingSocketsLib33CProcessP2PSignalFromSteamBackendD0Ev
__ZN25SteamNetworkingSocketsLib33CProcessP2PSignalFromSteamBackendD1Ev
__ZN25SteamNetworkingSocketsLib33CSteamNetworkingSocketsCallResultI22HTTPRequestCompleted_tE20GetCallbackSizeBytesEv
__ZN25SteamNetworkingSocketsLib33CSteamNetworkingSocketsCallResultI22HTTPRequestCompleted_tE3RunEPvby
__ZN25SteamNetworkingSocketsLib33CSteamNetworkingSocketsCallResultI28SteamNetworkingSocketsCert_tE20GetCallbackSizeBytesEv
__ZN25SteamNetworkingSocketsLib33CSteamNetworkingSocketsCallResultI28SteamNetworkingSocketsCert_tE3RunEPvby
__ZN25SteamNetworkingSocketsLib33CSteamNetworkingSocketsCallResultI33SteamNetworkingSerializedFakeIP_tE20GetCallbackSizeBytesEv
__ZN25SteamNetworkingSocketsLib33CSteamNetworkingSocketsCallResultI33SteamNetworkingSerializedFakeIP_tE3RunEPvby
__ZN25SteamNetworkingSocketsLib33CSteamNetworkingUtilsSteamPartner13GetSteamUtilsEv
__ZN25SteamNetworkingSocketsLib33CSteamNetworkingUtilsSteamPartner17CreateHTTPRequestEPKc
__ZN25SteamNetworkingSocketsLib33CSteamNetworkingUtilsSteamPartner22BEnsureSDRNetworkReadyEv
__ZN25SteamNetworkingSocketsLib33CSteamNetworkingUtilsSteamPartner30InternalPostConnectionStateMsgEPKvi
__ZN25SteamNetworkingSocketsLib33CSteamNetworkingUtilsSteamPartnerD0Ev
__ZN25SteamNetworkingSocketsLib33CSteamNetworkingUtilsSteamPartnerD1Ev
__ZN25SteamNetworkingSocketsLib33LinkStatsInstantaneousMsgToStructERK39CMsgSteamDatagramLinkInstantaneousStatsRNS_35SteamDatagramLinkInstantaneousStatsE
__ZN25SteamNetworkingSocketsLib33LinkStatsInstantaneousStructToMsgERKNS_35SteamDatagramLinkInstantaneousStatsER39CMsgSteamDatagramLinkInstantaneousStats
__ZN25SteamNetworkingSocketsLib33g_ConfigDefault_P2P_TURN_PassListE
__ZN25SteamNetworkingSocketsLib33g_ConfigDefault_P2P_TURN_UserListE
__ZN25SteamNetworkingSocketsLib33g_Config_FakeRateLimit_Recv_BurstE
__ZN25SteamNetworkingSocketsLib33g_Config_FakeRateLimit_Send_BurstE
__ZN25SteamNetworkingSocketsLib33g_Config_SDRClient_ForceProxyAddrE
__ZN25SteamNetworkingSocketsLib33g_vecCachedCachedDataCenterRoutesE
__ZN25SteamNetworkingSocketsLib34CProcessP2PFailureFromSteamBackend3RunEv
__ZN25SteamNetworkingSocketsLib34CProcessP2PFailureFromSteamBackendD0Ev
__ZN25SteamNetworkingSocketsLib34CProcessP2PFailureFromSteamBackendD1Ev
__ZN25SteamNetworkingSocketsLib34CSteamNetworkListenSocketDirectUDP13APIGetAddressEP21SteamNetworkingIPAddr
__ZN25SteamNetworkingSocketsLib34CSteamNetworkListenSocketDirectUDP13SendPaddedMsgEhRKN6google8protobuf11MessageLiteE10CIPAndPort
__ZN25SteamNetworkingSocketsLib34CSteamNetworkListenSocketDirectUDP23ReceivedFromUnknownHostERKNS_13RecvPktInfo_tEPS0_
__ZN25SteamNetworkingSocketsLib34CSteamNetworkListenSocketDirectUDP23Received_ConnectRequestERK35CMsgSteamSockets_UDP_ConnectRequestRK10CIPAndPortix
__ZN25SteamNetworkingSocketsLib34CSteamNetworkListenSocketDirectUDP25Received_ChallengeRequestERK37CMsgSteamSockets_UDP_ChallengeRequestRK10CIPAndPortx
__ZN25SteamNetworkingSocketsLib34CSteamNetworkListenSocketDirectUDP25Received_ConnectionClosedERK37CMsgSteamSockets_UDP_ConnectionClosedRK10CIPAndPortx
__ZN25SteamNetworkingSocketsLib34CSteamNetworkListenSocketDirectUDP5BInitERK21SteamNetworkingIPAddriPK28SteamNetworkingConfigValue_tRA1024_c
__ZN25SteamNetworkingSocketsLib34CSteamNetworkListenSocketDirectUDP7SendMsgEhRKN6google8protobuf11MessageLiteERK10CIPAndPort
__ZN25SteamNetworkingSocketsLib34CSteamNetworkListenSocketDirectUDPC1EPNS_23CSteamNetworkingSocketsE
__ZN25SteamNetworkingSocketsLib34CSteamNetworkListenSocketDirectUDPD0Ev
__ZN25SteamNetworkingSocketsLib34CSteamNetworkListenSocketDirectUDPD1Ev
__ZN25SteamNetworkingSocketsLib34CSteamNetworkListenSocketDirectUDPD2Ev
__ZN25SteamNetworkingSocketsLib34SteamNetworkPingLocationInternal_t16EnsureSortedByIDEv
__ZN25SteamNetworkingSocketsLib34SteamNetworkPingLocationInternal_t5ParseEPKc
__ZN25SteamNetworkingSocketsLib34SteamNetworkPingLocationInternal_t5SetupERKNSt3__16vectorINS_20PingLocationMarker_tENS1_9allocatorIS3_EEEE
__ZN25SteamNetworkingSocketsLib34g_ConfigDefault_ConnectionUserDataE
__ZN25SteamNetworkingSocketsLib34g_Config_SDRClient_FakeClusterPingE
__ZN25SteamNetworkingSocketsLib35CSteamNetworkingSocketsCallbackBase10UnregisterEv
__ZN25SteamNetworkingSocketsLib35CSteamNetworkingSocketsCallbackBase3RunEPvby
__ZN25SteamNetworkingSocketsLib35CSteamNetworkingSocketsCallbackBase8RegisterEiib
__ZN25SteamNetworkingSocketsLib35CSteamNetworkingSocketsCallbackBaseD2Ev
__ZN25SteamNetworkingSocketsLib35CSteamNetworkingSocketsSteamPartner5BInitEP12ISteamClientiiRA1024_c
__ZN25SteamNetworkingSocketsLib35CSteamNetworkingSocketsSteamPartnerD0Ev
__ZN25SteamNetworkingSocketsLib35CSteamNetworkingSocketsSteamPartnerD1Ev
__ZN25SteamNetworkingSocketsLib35PopulateSDRSendPacketContextGenericI46CMsgSteamDatagramConnectionStatsClientToRouterNS_31CConnectionTransportToSDRServerENS_12RelaySessionEEEvPT0_RNS_20SDRSendPacketContextIT_T1_EENS_18EStatsReplyRequestEimj
__ZN25SteamNetworkingSocketsLib35PopulateSDRSendPacketContextGenericI49CMsgSteamDatagramConnectionStatsP2PClientToRouterNS_26CConnectionTransportP2PSDRENS_12RelaySessionEEEvPT0_RNS_20SDRSendPacketContextIT_T1_EENS_18EStatsReplyRequestEimj
__ZN25SteamNetworkingSocketsLib35g_ConfigDefault_EnableDiagnosticsUIE
__ZN25SteamNetworkingSocketsLib35g_ConfigDefault_IP_AllowWithoutAuthE
__ZN25SteamNetworkingSocketsLib35g_ConfigDefault_LogLevel_PacketGapsE
__ZN25SteamNetworkingSocketsLib35g_ConfigDefault_P2P_STUN_ServerListE
__ZN25SteamNetworkingSocketsLib35g_ConfigDefault_P2P_TURN_ServerListE
__ZN25SteamNetworkingSocketsLib35g_Config_Callback_AuthStatusChangedE
__ZN25SteamNetworkingSocketsLib35g_nRouteSelectionDataRevisionNumberE
__ZN25SteamNetworkingSocketsLib35g_vecSharedClusterDataInConfigOrderE
__ZN25SteamNetworkingSocketsLib36CP2PConnectionSignaling_SteamBackend10SendSignalEjRK24SteamNetConnectionInfo_tPKvi
__ZN25SteamNetworkingSocketsLib36CP2PConnectionSignaling_SteamBackend7ReleaseEv
__ZN25SteamNetworkingSocketsLib36SteamNetworkingSocketsLowLevelDecRefEv
__ZN25SteamNetworkingSocketsLib36g_Config_SDRClient_ForceRelayClusterE
__ZN25SteamNetworkingSocketsLib37BSteamNetworkingSocketsLowLevelAddRefERA1024_c
__ZN25SteamNetworkingSocketsLib37CSteamNetworkingSocketsCallResultBase3RunEPv
__ZN25SteamNetworkingSocketsLib37CSteamNetworkingSocketsCallResultBase3SetEiiy
__ZN25SteamNetworkingSocketsLib37CSteamNetworkingSocketsCallResultBase6CancelEv
__ZN25SteamNetworkingSocketsLib37CSteamNetworkingSocketsCallResultBaseD2Ev
__ZN25SteamNetworkingSocketsLib37IConnectionTransportP2PICERunWithLock3RunEv
__ZN25SteamNetworkingSocketsLib37SteamNetworkingIdentityFromSignedCertER23SteamNetworkingIdentityRK34CMsgSteamDatagramCertificateSignedRA1024_c
__ZN25SteamNetworkingSocketsLib37g_ConfigDefault_LogLevel_PacketDecodeE
__ZN25SteamNetworkingSocketsLib38g_ConfigDefault_LogLevel_P2PRendezvousE
__ZN25SteamNetworkingSocketsLib38g_bClusterPingDataGoodEnoughForRoutingE
__ZN25SteamNetworkingSocketsLib39SteamNetworkingDetailedConnectionStatus5ClearEv
__ZN25SteamNetworkingSocketsLib39SteamNetworkingDetailedConnectionStatus5PrintEPci
__ZN25SteamNetworkingSocketsLib39g_Config_Callback_MessagesSessionFailedE
__ZN25SteamNetworkingSocketsLib40CSteamNetworkConnectionlocalhostLoopback19APICreateSocketPairEPNS_23CSteamNetworkingSocketsEPPS0_PK23SteamNetworkingIdentity
__ZN25SteamNetworkingSocketsLib40CSteamNetworkConnectionlocalhostLoopback22AllowLocalUnsignedCertEv
__ZN25SteamNetworkingSocketsLib40CSteamNetworkConnectionlocalhostLoopback23AllowRemoteUnsignedCertEv
__ZN25SteamNetworkingSocketsLib40CSteamNetworkConnectionlocalhostLoopbackD0Ev
__ZN25SteamNetworkingSocketsLib40CSteamNetworkConnectionlocalhostLoopbackD1Ev
__ZN25SteamNetworkingSocketsLib40ProcessPendingDestroyClosedRawUDPSocketsEv
__ZN25SteamNetworkingSocketsLib40SteamNetworkingSockets_GetLocalTimestampEv
__ZN25SteamNetworkingSocketsLib40g_ConfigDefault_P2P_Transport_ICE_EnableE
__ZN25SteamNetworkingSocketsLib40g_Config_Callback_MessagesSessionRequestE
__ZN25SteamNetworkingSocketsLib41BSteamNetworkingIdentityFromLegacySteamIDER23SteamNetworkingIdentityyRA1024_c
__ZN25SteamNetworkingSocketsLib41g_ConfigDefault_P2P_Transport_ICE_PenaltyE
__ZN25SteamNetworkingSocketsLib41g_ConfigDefault_P2P_Transport_SDR_PenaltyE
__ZN25SteamNetworkingSocketsLib42BSteamNetworkingIdentityToProtobufInternalERK23SteamNetworkingIdentityPNSt3__112basic_stringIcNS3_11char_traitsIcEENS3_9allocatorIcEEEEP39CMsgSteamNetworkingIdentityLegacyBinaryRA1024_c
__ZN25SteamNetworkingSocketsLib42BSteamNetworkingIdentityToProtobufInternalERK23SteamNetworkingIdentityPNSt3__112basic_stringIcNS3_11char_traitsIcEENS3_9allocatorIcEEEESA_RA1024_c
__ZN25SteamNetworkingSocketsLib42g_szRouteSelectionDataRevisionChangeReasonE
__ZN25SteamNetworkingSocketsLib43g_Config_Callback_CreateConnectionSignalingE
__ZN25SteamNetworkingSocketsLib43g_Config_Callback_RelayNetworkStatusChangedE
__ZN25SteamNetworkingSocketsLib44g_ConfigDefault_SDRClient_DebugTicketAddressE
__ZN25SteamNetworkingSocketsLib45SteamNetworkingSockets_SetDebugOutputFunctionE38ESteamNetworkingSocketsDebugOutputTypePFvS0_PKcE
__ZN25SteamNetworkingSocketsLib45g_Config_SDRClient_MinPingsBeforePingAccurateE
__ZN25SteamNetworkingSocketsLib48BSteamNetworkingIdentityFromLegacyBinaryProtobufER23SteamNetworkingIdentityRK39CMsgSteamNetworkingIdentityLegacyBinaryRA1024_c
__ZN25SteamNetworkingSocketsLib48BSteamNetworkingIdentityFromLegacyBinaryProtobufER23SteamNetworkingIdentityRKNSt3__112basic_stringIcNS2_11char_traitsIcEENS2_9allocatorIcEEEERA1024_c
__ZN25SteamNetworkingSocketsLib48g_ConfigDefault_Callback_ConnectionStatusChangedE
__ZN25SteamNetworkingSocketsLib48g_Config_SDRClient_ConsecutitivePingTimeoutsFailE
__ZN25SteamNetworkingSocketsLib4Cert5SetupERK34CMsgSteamDatagramCertificateSignedR19CECSigningPublicKeyRA1024_c
__ZN25SteamNetworkingSocketsLib4LockINSt3__121recursive_timed_mutexEE8try_lockEPKc
__ZN25SteamNetworkingSocketsLib4LockINSt3__121recursive_timed_mutexEED1Ev
__ZN25SteamNetworkingSocketsLib55g_Config_SDRClient_ConsecutitivePingTimeoutsFailInitialE
__ZN25SteamNetworkingSocketsLib6IndentEPKc
__ZN25SteamNetworkingSocketsLib8IThinker16SetNextThinkTimeEx
__ZN25SteamNetworkingSocketsLib8IThinker23Thinker_ProcessThinkersEv
__ZN25SteamNetworkingSocketsLib8IThinker24InternalSetNextThinkTimeEx
__ZN25SteamNetworkingSocketsLib8IThinker26InternalEnsureMinThinkTimeEx
__ZN25SteamNetworkingSocketsLib8IThinker33Thinker_GetNextScheduledThinkTimeEv
__ZN25SteamNetworkingSocketsLib8IThinkerC2Ev
__ZN25SteamNetworkingSocketsLib8IThinkerD0Ev
__ZN25SteamNetworkingSocketsLib8IThinkerD1Ev
__ZN25SteamNetworkingSocketsLib8IThinkerD2Ev
__ZN25SteamNetworkingSocketsLib9CTaskList8RunTasksEv
__ZN25SteamNetworkingSocketsLib9CTaskList9QueueTaskEPNS_11CQueuedTaskE
__ZN25SteamNetworkingSocketsLib9FakeIPKey5SetupERK21SteamNetworkingIPAddr
__ZN25SteamNetworkingSocketsLib9PublicKey19SlamHardcodedRootCAEv
__ZN25SteamNetworkingSocketsLib9ScopeLockINS_13PollGroupLockEE4LockERS1_PKc
__ZN25SteamNetworkingSocketsLib9ScopeLockINS_13PollGroupLockEE7TryLockERS1_iPKc
__ZN25SteamNetworkingSocketsLib9ScopeLockINS_13PollGroupLockEED2Ev
__ZN25SteamNetworkingSocketsLib9ScopeLockINS_14ConnectionLockEE18_TakeLockOwnershipEPS1_PKciS5_
__ZN25SteamNetworkingSocketsLib9ScopeLockINS_14ConnectionLockEE4LockERS1_PKc
__ZN25SteamNetworkingSocketsLib9ScopeLockINS_14ConnectionLockEE6UnlockEv
__ZN25SteamNetworkingSocketsLib9ScopeLockINS_14ConnectionLockEE7TryLockERS1_iPKc
__ZN25SteamNetworkingSocketsLib9ScopeLockINS_14ConnectionLockEED2Ev
__ZN25SteamNetworkingSocketsLib9ScopeLockINS_17ShortDurationLockEE4LockERS1_PKc
__ZN25SteamNetworkingSocketsLib9ScopeLockINS_17ShortDurationLockEED2Ev
__ZN25SteamNetworkingSocketsLib9ScopeLockINS_9TableLockEED2Ev
__ZN25SteamNetworkingSocketsLib9TableLockC2Ev
__ZN25SteamNetworkingSocketsLib9TableLockD1Ev
__ZN25SteamNetworkingSocketsLibL12s_mapFakeIPsE
__ZN25SteamNetworkingSocketsLibL12s_vecPollFDsE
__ZN25SteamNetworkingSocketsLibL13FindPublicKeyEy
__ZN25SteamNetworkingSocketsLibL13s_bTrustValidE
__ZN25SteamNetworkingSocketsLibL14CheckKillUtilsEv
__ZN25SteamNetworkingSocketsLibL14PrintP2PRoutesERK26CMsgSteamDatagramP2PRoutes
__ZN25SteamNetworkingSocketsLibL14s_bSpewInittedE
__ZN25SteamNetworkingSocketsLibL15s_listFakeIPLRUE
__ZN25SteamNetworkingSocketsLibL15s_mapPublicKeysE
__ZN25SteamNetworkingSocketsLibL15s_pSharedSocketE
__ZN25SteamNetworkingSocketsLibL15s_queueThinkersE
__ZN25SteamNetworkingSocketsLibL15s_vecRawSocketsE
__ZN25SteamNetworkingSocketsLibL16AddThreadLockTagEPKc
__ZN25SteamNetworkingSocketsLibL16SendP2PRejectionEP36ISteamNetworkingSignalingRecvContextR23SteamNetworkingIdentityRK32CMsgSteamNetworkingP2PRendezvousiPKcz
__ZN25SteamNetworkingSocketsLibL16s_sharedPipeLockE
__ZN25SteamNetworkingSocketsLibL16s_systemSpewLockE
__ZN25SteamNetworkingSocketsLibL16s_usecTimeOffsetE
__ZN25SteamNetworkingSocketsLibL17g_pFileSystemSpewE
__ZN25SteamNetworkingSocketsLibL17s_bManualPollModeE
__ZN25SteamNetworkingSocketsLibL17s_mutexGlobalLockE
__ZN25SteamNetworkingSocketsLibL17s_vecHTTPRequestsE
__ZN25SteamNetworkingSocketsLibL18GetThreadDebugInfoEv
__ZN25SteamNetworkingSocketsLibL18OnBeginAvoidServerERNS_11RelayServerE
__ZN25SteamNetworkingSocketsLibL19RoutingTokenDebugIDERKNSt3__112basic_stringIcNS0_11char_traitsIcEENS0_9allocatorIcEEEE
__ZN25SteamNetworkingSocketsLibL19WakeUpAllSDRClientsEv
__ZN25SteamNetworkingSocketsLibL19s_bRecreatePollListE
__ZN25SteamNetworkingSocketsLibL19s_fLockHeldCallbackE
__ZN25SteamNetworkingSocketsLibL19s_mutexFakeIPTablesE
__ZN25SteamNetworkingSocketsLibL19s_mutexThinkerTableE
__ZN25SteamNetworkingSocketsLibL20FindConfigValueEntryE27ESteamNetworkingConfigValue
__ZN25SteamNetworkingSocketsLibL20s_fnRegisterCallbackE
__ZN25SteamNetworkingSocketsLibL20s_packetLagQueueRecvE
__ZN25SteamNetworkingSocketsLibL20s_packetLagQueueSendE
__ZN25SteamNetworkingSocketsLibL20s_usecRouterDowntimeE
__ZN25SteamNetworkingSocketsLibL21CertStore_OneTimeInitEv
__ZN25SteamNetworkingSocketsLibL21FindSessionForMessageERNS_11RelayServerEijiPKcxRNS_19ConnectionScopeLockE
__ZN25SteamNetworkingSocketsLibL21FlushSystemSpewLockedEv
__ZN25SteamNetworkingSocketsLibL21s_hSockWakeThreadReadE
__ZN25SteamNetworkingSocketsLibL21s_vecConfigValueTableE
__ZN25SteamNetworkingSocketsLibL21s_vecDowntimeWarningsE
__ZN25SteamNetworkingSocketsLibL22AssignConfigValueTypedEPx30ESteamNetworkingConfigDataTypePKv
__ZN25SteamNetworkingSocketsLibL22s_fnRegisterCallResultE
__ZN25SteamNetworkingSocketsLibL22s_fnUnregisterCallbackE
__ZN25SteamNetworkingSocketsLibL22s_hSockWakeThreadWriteE
__ZN25SteamNetworkingSocketsLibL22s_pThreadSteamDatagramE
__ZN25SteamNetworkingSocketsLibL22s_usecTimeLastReturnedE
__ZN25SteamNetworkingSocketsLibL23Base64EncodeLower30BitsEj
__ZN25SteamNetworkingSocketsLibL23GetListenSocketByHandleEj
__ZN25SteamNetworkingSocketsLibL23ParsePingAndScoreOffsetEPKcRsS2_
__ZN25SteamNetworkingSocketsLibL23ProcessPacketFromServerERKNS_13RecvPktInfo_tEl
__ZN25SteamNetworkingSocketsLibL23StopSteamDatagramThreadEv
__ZN25SteamNetworkingSocketsLibL23g_pSteamNetworkingUtilsE
__ZN25SteamNetworkingSocketsLibL23s_fLockAcquiredCallbackE
__ZN25SteamNetworkingSocketsLibL24BInternalGetPingLocationERNS_34SteamNetworkPingLocationInternal_tE
__ZN25SteamNetworkingSocketsLibL24CheckClientForSessionMsgINS_26CConnectionTransportP2PSDREEEPT_RNS_11RelayServerEjiPKcxRNS_19ConnectionScopeLockEPPNS_12RelaySessionE
__ZN25SteamNetworkingSocketsLibL24CheckClientForSessionMsgINS_27CConnectionTransportSDRBaseEEEPT_RNS_11RelayServerEjiPKcxRNS_19ConnectionScopeLockEPPNS_12RelaySessionE
__ZN25SteamNetworkingSocketsLibL24CheckClientForSessionMsgINS_31CConnectionTransportToSDRServerEEEPT_RNS_11RelayServerEjiPKcxRNS_19ConnectionScopeLockEPPNS_12RelaySessionE
__ZN25SteamNetworkingSocketsLibL24EvaluateScopeConfigValueINSt3__112basic_stringIcNS1_11char_traitsIcEENS1_9allocatorIcEEEEEEPNS_11ConfigValueIT_EEPNS_22GlobalConfigValueEntryE27ESteamNetworkingConfigScopelRNS_19ConnectionScopeLockE
__ZN25SteamNetworkingSocketsLibL24EvaluateScopeConfigValueIPvEEPNS_11ConfigValueIT_EEPNS_22GlobalConfigValueEntryE27ESteamNetworkingConfigScopelRNS_19ConnectionScopeLockE
__ZN25SteamNetworkingSocketsLibL24EvaluateScopeConfigValueIfEEPNS_11ConfigValueIT_EEPNS_22GlobalConfigValueEntryE27ESteamNetworkingConfigScopelRNS_19ConnectionScopeLockE
__ZN25SteamNetworkingSocketsLibL24EvaluateScopeConfigValueIiEEPNS_11ConfigValueIT_EEPNS_22GlobalConfigValueEntryE27ESteamNetworkingConfigScopelRNS_19ConnectionScopeLockE
__ZN25SteamNetworkingSocketsLibL24EvaluateScopeConfigValueIxEEPNS_11ConfigValueIT_EEPNS_22GlobalConfigValueEntryE27ESteamNetworkingConfigScopelRNS_19ConnectionScopeLockE
__ZN25SteamNetworkingSocketsLibL24FindServerDowntimeWarnigERK10CIPAndPort
__ZN25SteamNetworkingSocketsLibL24OpenRawUDPSocketInternalENS_19CRecvPacketCallbackERA1024_cPK21SteamNetworkingIPAddrPii
__ZN25SteamNetworkingSocketsLibL24s_LastRelayNetworkStatusE
__ZN25SteamNetworkingSocketsLibL24s_bNeedToFlushSystemSpewE
__ZN25SteamNetworkingSocketsLibL24s_fnUnregisterCallResultE
__ZN25SteamNetworkingSocketsLibL25ProcessDeferredOperationsEv
__ZN25SteamNetworkingSocketsLibL25RecursiveEvaluateKeyTrustEPNS_9PublicKeyE
__ZN25SteamNetworkingSocketsLibL25SteamNetworkingThreadProcEv
__ZN25SteamNetworkingSocketsLibL25g_mapSessionsByConnectionE
__ZN25SteamNetworkingSocketsLibL25g_usecSystemLogFileOpenedE
__ZN25SteamNetworkingSocketsLibL25s_pFirstGlobalConfigEntryE
__ZN25SteamNetworkingSocketsLibL26CertStore_EnsureTrustValidEv
__ZN25SteamNetworkingSocketsLibL26s_bConfigValueTableInittedE
__ZN25SteamNetworkingSocketsLibL26s_nLowLevelSupportRefCountE
__ZN25SteamNetworkingSocketsLibL27FindSDRClientByConnectionIDEj
__ZN25SteamNetworkingSocketsLibL27s_time_t_ZeroLocalTimeStampE
__ZN25SteamNetworkingSocketsLibL28DedicatedBoundSocketCallbackERKNS_13RecvPktInfo_tEPNS_21CDedicatedBoundSocketE
__ZN25SteamNetworkingSocketsLibL28OpenUDPSocketBoundToSockAddrEPKvmRA1024_cPii
__ZN25SteamNetworkingSocketsLibL28g_lockNetworkAndCachedRoutesE
__ZN25SteamNetworkingSocketsLibL28s_bPingMeasurementInProgressE
__ZN25SteamNetworkingSocketsLibL29InternalGetConnectionByHandleEjRNS_19ConnectionScopeLockEPKcb
__ZN25SteamNetworkingSocketsLibL29g_pSteamNetworkingSocketsUserE
__ZN25SteamNetworkingSocketsLibL29s_flFakeRateLimit_Recv_tokensE
__ZN25SteamNetworkingSocketsLibL29s_flFakeRateLimit_Send_tokensE
__ZN25SteamNetworkingSocketsLibL29s_usecPingMeasurementFinishedE
__ZN25SteamNetworkingSocketsLibL29s_vecPendingDeleteConnectionsE
__ZN25SteamNetworkingSocketsLibL29s_vecRecentLocalConnectionIDsE
__ZN25SteamNetworkingSocketsLibL30CheckRelayNetworkStatusChangedEv
__ZN25SteamNetworkingSocketsLibL30ProcessPacketFromUnkownAddressERKNS_13RecvPktInfo_tEPv
__ZN25SteamNetworkingSocketsLibL30s_bCachedDataCenterRoutesValidE
__ZN25SteamNetworkingSocketsLibL30s_bRawSocketPendingDestructionE
__ZN25SteamNetworkingSocketsLibL30s_lockPendingDeleteConnectionsE
__ZN25SteamNetworkingSocketsLibL30s_usecLockWaitWarningThresholdE
__ZN25SteamNetworkingSocketsLibL31UpdateFakeRateLimitTokenBucketsEx
__ZN25SteamNetworkingSocketsLibL31s_vecConnectionConfigValueTableE
__ZN25SteamNetworkingSocketsLibL32FindOrCreateServerDataForAddressERK10CIPAndPorti
__ZN25SteamNetworkingSocketsLibL32InvalidateCachedDataCenterRoutesEPKcz
__ZN25SteamNetworkingSocketsLibL32SteamNetworkingUtilsSteamPartnerEv
__ZN25SteamNetworkingSocketsLibL32s_usecWhenGotFirstRelayPingReplyE
__ZN25SteamNetworkingSocketsLibL35FreeMessageDataWithP2PMessageHeaderEP24SteamNetworkingMessage_t
__ZN25SteamNetworkingSocketsLibL35SteamNetworkingSockets_InternalPollEib
__ZN25SteamNetworkingSocketsLibL35g_pSteamNetworkingSocketsGameServerE
__ZN25SteamNetworkingSocketsLibL35s_usecFakeRateLimitBucketUpdateTimeE
__ZN25SteamNetworkingSocketsLibL38k_cbSteamNetworkingSocketsMaxUDPMsgLenE
__ZN25SteamNetworkingSocketsLibL41BShouldShareMoreIPInfoForBetterConnectionEPNS_21CSteamNetworkingUtilsEx
__ZN25SteamNetworkingSocketsLibL42k_cbSteamNetworkingSocketsMinMTUPacketSizeE
__ZN25SteamNetworkingSocketsLibL42s_last_steamdatagram_client_forceproxyaddrE
__ZN25SteamNetworkingSocketsLibL45s_last_steamdatagram_client_fake_cluster_pingE
__ZN25SteamNetworkingSocketsLibL47s_last_steamdatagram_client_force_relay_clusterE
__ZN25SteamNetworkingSocketsLibL50SteamNetworkingIdentityFromLegacyBinaryProtobufMsgER23SteamNetworkingIdentityRK39CMsgSteamNetworkingIdentityLegacyBinaryRA1024_c
__ZN25SteamNetworkingSocketsLibL8InitSpewEv
__ZN25SteamNetworkingSocketsLibL8KillSpewEv
__ZN25SteamNetworkingSocketsLibL8PrintPctERA32_cf
__ZN25SymmetricCryptContextBase4WipeEv
__ZN25SymmetricCryptContextBaseC2Ev
__ZN25SymmetricCryptContextBaseD2Ev
__ZN26CMsgSteamDatagramConnectOK10SharedDtorEv
__ZN26CMsgSteamDatagramConnectOK17default_instance_E
__ZN26CMsgSteamDatagramConnectOK27MergePartialFromCodedStreamEPN6google8protobuf2io16CodedInputStreamE
__ZN26CMsgSteamDatagramConnectOK5ClearEv
__ZN26CMsgSteamDatagramConnectOK8CopyFromERKN6google8protobuf7MessageE
__ZN26CMsgSteamDatagramConnectOK9MergeFromERKN6google8protobuf7MessageE
__ZN26CMsgSteamDatagramConnectOK9MergeFromERKS_
__ZN26CMsgSteamDatagramConnectOKC1Ev
__ZN26CMsgSteamDatagramConnectOKC2Ev
__ZN26CMsgSteamDatagramConnectOKD0Ev
__ZN26CMsgSteamDatagramConnectOKD1Ev
__ZN26CMsgSteamDatagramP2PRoutes17default_instance_E
__ZN26CMsgSteamDatagramP2PRoutes27MergePartialFromCodedStreamEPN6google8protobuf2io16CodedInputStreamE
__ZN26CMsgSteamDatagramP2PRoutes4SwapEPS_
__ZN26CMsgSteamDatagramP2PRoutes5ClearEv
__ZN26CMsgSteamDatagramP2PRoutes8CopyFromERKN6google8protobuf7MessageE
__ZN26CMsgSteamDatagramP2PRoutes8CopyFromERKS_
__ZN26CMsgSteamDatagramP2PRoutes9MergeFromERKN6google8protobuf7MessageE
__ZN26CMsgSteamDatagramP2PRoutes9MergeFromERKS_
__ZN26CMsgSteamDatagramP2PRoutesC1Ev
__ZN26CMsgSteamDatagramP2PRoutesC2Ev
__ZN26CMsgSteamDatagramP2PRoutesD0Ev
__ZN26CMsgSteamDatagramP2PRoutesD1Ev
__ZN26CMsgSteamDatagramP2PRoutesD2Ev
__ZN26CMsgSteamSockets_UDP_Stats17default_instance_E
__ZN26CMsgSteamSockets_UDP_Stats27MergePartialFromCodedStreamEPN6google8protobuf2io16CodedInputStreamE
__ZN26CMsgSteamSockets_UDP_Stats5ClearEv
__ZN26CMsgSteamSockets_UDP_Stats8CopyFromERKN6google8protobuf7MessageE
__ZN26CMsgSteamSockets_UDP_Stats9MergeFromERKN6google8protobuf7MessageE
__ZN26CMsgSteamSockets_UDP_Stats9MergeFromERKS_
__ZN26CMsgSteamSockets_UDP_StatsC1Ev
__ZN26CMsgSteamSockets_UDP_StatsC2Ev
__ZN26CMsgSteamSockets_UDP_StatsD0Ev
__ZN26CMsgSteamSockets_UDP_StatsD1Ev
__ZN26CMsgSteamSockets_UDP_StatsD2Ev
__ZN26SteamDatagramHostedAddress16SetFromStdStringINSt3__112basic_stringIcNS1_11char_traitsIcEENS1_9allocatorIcEEEEEEbRKT_
__ZN27CMsgICERendezvous_Candidate10SharedCtorEv
__ZN27CMsgICERendezvous_Candidate10SharedDtorEv
__ZN27CMsgICERendezvous_Candidate17default_instance_E
__ZN27CMsgICERendezvous_Candidate27MergePartialFromCodedStreamEPN6google8protobuf2io16CodedInputStreamE
__ZN27CMsgICERendezvous_Candidate5ClearEv
__ZN27CMsgICERendezvous_Candidate8CopyFromERKN6google8protobuf7MessageE
__ZN27CMsgICERendezvous_Candidate9MergeFromERKN6google8protobuf7MessageE
__ZN27CMsgICERendezvous_Candidate9MergeFromERKS_
__ZN27CMsgICERendezvous_CandidateC1Ev
__ZN27CMsgICERendezvous_CandidateC2Ev
__ZN27CMsgICERendezvous_CandidateD0Ev
__ZN27CMsgICERendezvous_CandidateD1Ev
__ZN27CMsgSteamDatagramDiagnostic10SharedCtorEv
__ZN27CMsgSteamDatagramDiagnostic10SharedDtorEv
__ZN27CMsgSteamDatagramDiagnostic17default_instance_E
__ZN27CMsgSteamDatagramDiagnostic27MergePartialFromCodedStreamEPN6google8protobuf2io16CodedInputStreamE
__ZN27CMsgSteamDatagramDiagnostic5ClearEv
__ZN27CMsgSteamDatagramDiagnostic8CopyFromERKN6google8protobuf7MessageE
__ZN27CMsgSteamDatagramDiagnostic9MergeFromERKN6google8protobuf7MessageE
__ZN27CMsgSteamDatagramDiagnostic9MergeFromERKS_
__ZN27CMsgSteamDatagramDiagnosticC1Ev
__ZN27CMsgSteamDatagramDiagnosticC2Ev
__ZN27CMsgSteamDatagramDiagnosticD0Ev
__ZN27CMsgSteamDatagramDiagnosticD1Ev
__ZN28CMsgSteamDatagramCertificate10SharedCtorEv
__ZN28CMsgSteamDatagramCertificate10SharedDtorEv
__ZN28CMsgSteamDatagramCertificate17default_instance_E
__ZN28CMsgSteamDatagramCertificate27MergePartialFromCodedStreamEPN6google8protobuf2io16CodedInputStreamE
__ZN28CMsgSteamDatagramCertificate5ClearEv
__ZN28CMsgSteamDatagramCertificate8CopyFromERKN6google8protobuf7MessageE
__ZN28CMsgSteamDatagramCertificate8CopyFromERKS_
__ZN28CMsgSteamDatagramCertificate9MergeFromERKN6google8protobuf7MessageE
__ZN28CMsgSteamDatagramCertificate9MergeFromERKS_
__ZN28CMsgSteamDatagramCertificateC1Ev
__ZN28CMsgSteamDatagramCertificateC2Ev
__ZN28CMsgSteamDatagramCertificateD0Ev
__ZN28CMsgSteamDatagramCertificateD1Ev
__ZN28CMsgSteamDatagramCertificateD2Ev
__ZN28CMsgSteamNetworkingIPAddress10SharedCtorEv
__ZN28CMsgSteamNetworkingIPAddress10SharedDtorEv
__ZN28CMsgSteamNetworkingIPAddress17default_instance_E
__ZN28CMsgSteamNetworkingIPAddress27MergePartialFromCodedStreamEPN6google8protobuf2io16CodedInputStreamE
__ZN28CMsgSteamNetworkingIPAddress5ClearEv
__ZN28CMsgSteamNetworkingIPAddress8CopyFromERKN6google8protobuf7MessageE
__ZN28CMsgSteamNetworkingIPAddress9MergeFromERKN6google8protobuf7MessageE
__ZN28CMsgSteamNetworkingIPAddress9MergeFromERKS_
__ZN28CMsgSteamNetworkingIPAddressC2Ev
__ZN28CMsgSteamNetworkingIPAddressD0Ev
__ZN28CMsgSteamNetworkingIPAddressD1Ev
__ZN29CGameNetworkingUI_GlobalState17default_instance_E
__ZN29CGameNetworkingUI_GlobalState27MergePartialFromCodedStreamEPN6google8protobuf2io16CodedInputStreamE
__ZN29CGameNetworkingUI_GlobalState5ClearEv
__ZN29CGameNetworkingUI_GlobalState8CopyFromERKN6google8protobuf7MessageE
__ZN29CGameNetworkingUI_GlobalState9MergeFromERKN6google8protobuf7MessageE
__ZN29CGameNetworkingUI_GlobalState9MergeFromERKS_
__ZN29CGameNetworkingUI_GlobalStateC2Ev
__ZN29CGameNetworkingUI_GlobalStateD0Ev
__ZN29CGameNetworkingUI_GlobalStateD1Ev
__ZN29CMsgSteamDatagramNoConnection10SharedCtorEv
__ZN29CMsgSteamDatagramNoConnection10SharedDtorEv
__ZN29CMsgSteamDatagramNoConnection17default_instance_E
__ZN29CMsgSteamDatagramNoConnection27MergePartialFromCodedStreamEPN6google8protobuf2io16CodedInputStreamE
__ZN29CMsgSteamDatagramNoConnection5ClearEv
__ZN29CMsgSteamDatagramNoConnection8CopyFromERKN6google8protobuf7MessageE
__ZN29CMsgSteamDatagramNoConnection9MergeFromERKN6google8protobuf7MessageE
__ZN29CMsgSteamDatagramNoConnection9MergeFromERKS_
__ZN29CMsgSteamDatagramNoConnectionC1Ev
__ZN29CMsgSteamDatagramNoConnectionC2Ev
__ZN29CMsgSteamDatagramNoConnectionD0Ev
__ZN29CMsgSteamDatagramNoConnectionD1Ev
__ZN30CMsgSteamSockets_UDP_ConnectOK10SharedCtorEv
__ZN30CMsgSteamSockets_UDP_ConnectOK10SharedDtorEv
__ZN30CMsgSteamSockets_UDP_ConnectOK17default_instance_E
__ZN30CMsgSteamSockets_UDP_ConnectOK27MergePartialFromCodedStreamEPN6google8protobuf2io16CodedInputStreamE
__ZN30CMsgSteamSockets_UDP_ConnectOK5ClearEv
__ZN30CMsgSteamSockets_UDP_ConnectOK8CopyFromERKN6google8protobuf7MessageE
__ZN30CMsgSteamSockets_UDP_ConnectOK9MergeFromERKN6google8protobuf7MessageE
__ZN30CMsgSteamSockets_UDP_ConnectOK9MergeFromERKS_
__ZN30CMsgSteamSockets_UDP_ConnectOKC1Ev
__ZN30CMsgSteamSockets_UDP_ConnectOKC2Ev
__ZN30CMsgSteamSockets_UDP_ConnectOKD0Ev
__ZN30CMsgSteamSockets_UDP_ConnectOKD1Ev
__ZN31CMsgSteamDatagramConnectRequest10SharedDtorEv
__ZN31CMsgSteamDatagramConnectRequest17default_instance_E
__ZN31CMsgSteamDatagramConnectRequest27MergePartialFromCodedStreamEPN6google8protobuf2io16CodedInputStreamE
__ZN31CMsgSteamDatagramConnectRequest5ClearEv
__ZN31CMsgSteamDatagramConnectRequest8CopyFromERKN6google8protobuf7MessageE
__ZN31CMsgSteamDatagramConnectRequest9MergeFromERKN6google8protobuf7MessageE
__ZN31CMsgSteamDatagramConnectRequest9MergeFromERKS_
__ZN31CMsgSteamDatagramConnectRequestC1Ev
__ZN31CMsgSteamDatagramConnectRequestC2Ev
__ZN31CMsgSteamDatagramConnectRequestD0Ev
__ZN31CMsgSteamDatagramConnectRequestD1Ev
__ZN32CMsgSteamDatagramP2PRoutes_Route17default_instance_E
__ZN32CMsgSteamDatagramP2PRoutes_Route27MergePartialFromCodedStreamEPN6google8protobuf2io16CodedInputStreamE
__ZN32CMsgSteamDatagramP2PRoutes_Route5ClearEv
__ZN32CMsgSteamDatagramP2PRoutes_Route8CopyFromERKN6google8protobuf7MessageE
__ZN32CMsgSteamDatagramP2PRoutes_Route9MergeFromERKN6google8protobuf7MessageE
__ZN32CMsgSteamDatagramP2PRoutes_Route9MergeFromERKS_
__ZN32CMsgSteamDatagramP2PRoutes_RouteC2Ev
__ZN32CMsgSteamDatagramP2PRoutes_RouteD0Ev
__ZN32CMsgSteamDatagramP2PRoutes_RouteD1Ev
__ZN32CMsgSteamDatagramRelayAuthTicket10SharedCtorEv
__ZN32CMsgSteamDatagramRelayAuthTicket10SharedDtorEv
__ZN32CMsgSteamDatagramRelayAuthTicket17default_instance_E
__ZN32CMsgSteamDatagramRelayAuthTicket27MergePartialFromCodedStreamEPN6google8protobuf2io16CodedInputStreamE
__ZN32CMsgSteamDatagramRelayAuthTicket5ClearEv
__ZN32CMsgSteamDatagramRelayAuthTicket8CopyFromERKN6google8protobuf7MessageE
__ZN32CMsgSteamDatagramRelayAuthTicket9MergeFromERKN6google8protobuf7MessageE
__ZN32CMsgSteamDatagramRelayAuthTicket9MergeFromERKS_
__ZN32CMsgSteamDatagramRelayAuthTicketC1Ev
__ZN32CMsgSteamDatagramRelayAuthTicketC2Ev
__ZN32CMsgSteamDatagramRelayAuthTicketD0Ev
__ZN32CMsgSteamDatagramRelayAuthTicketD1Ev
__ZN32CMsgSteamDatagramRelayAuthTicketD2Ev
__ZN32CMsgSteamDatagramRouterPingReply17default_instance_E
__ZN32CMsgSteamDatagramRouterPingReply27MergePartialFromCodedStreamEPN6google8protobuf2io16CodedInputStreamE
__ZN32CMsgSteamDatagramRouterPingReply5ClearEv
__ZN32CMsgSteamDatagramRouterPingReply8CopyFromERKN6google8protobuf7MessageE
__ZN32CMsgSteamDatagramRouterPingReply9MergeFromERKN6google8protobuf7MessageE
__ZN32CMsgSteamDatagramRouterPingReply9MergeFromERKS_
__ZN32CMsgSteamDatagramRouterPingReplyC1Ev
__ZN32CMsgSteamDatagramRouterPingReplyC2Ev
__ZN32CMsgSteamDatagramRouterPingReplyD0Ev
__ZN32CMsgSteamDatagramRouterPingReplyD1Ev
__ZN32CMsgSteamDatagramRouterPingReplyD2Ev
__ZN32CMsgSteamNetworkingP2PRendezvous10SharedCtorEv
__ZN32CMsgSteamNetworkingP2PRendezvous10SharedDtorEv
__ZN32CMsgSteamNetworkingP2PRendezvous17default_instance_E
__ZN32CMsgSteamNetworkingP2PRendezvous21InitAsDefaultInstanceEv
__ZN32CMsgSteamNetworkingP2PRendezvous27MergePartialFromCodedStreamEPN6google8protobuf2io16CodedInputStreamE
__ZN32CMsgSteamNetworkingP2PRendezvous5ClearEv
__ZN32CMsgSteamNetworkingP2PRendezvous8CopyFromERKN6google8protobuf7MessageE
__ZN32CMsgSteamNetworkingP2PRendezvous9MergeFromERKN6google8protobuf7MessageE
__ZN32CMsgSteamNetworkingP2PRendezvous9MergeFromERKS_
__ZN32CMsgSteamNetworkingP2PRendezvousC1Ev
__ZN32CMsgSteamNetworkingP2PRendezvousC2Ev
__ZN32CMsgSteamNetworkingP2PRendezvousD0Ev
__ZN32CMsgSteamNetworkingP2PRendezvousD1Ev
__ZN32CMsgSteamNetworkingP2PRendezvousD2Ev
__ZN33CGameNetworkingUI_ConnectionState10SharedCtorEv
__ZN33CGameNetworkingUI_ConnectionState10SharedDtorEv
__ZN33CGameNetworkingUI_ConnectionState17default_instance_E
__ZN33CGameNetworkingUI_ConnectionState21InitAsDefaultInstanceEv
__ZN33CGameNetworkingUI_ConnectionState27MergePartialFromCodedStreamEPN6google8protobuf2io16CodedInputStreamE
__ZN33CGameNetworkingUI_ConnectionState5ClearEv
__ZN33CGameNetworkingUI_ConnectionState8CopyFromERKN6google8protobuf7MessageE
__ZN33CGameNetworkingUI_ConnectionState9MergeFromERKN6google8protobuf7MessageE
__ZN33CGameNetworkingUI_ConnectionState9MergeFromERKS_
__ZN33CGameNetworkingUI_ConnectionStateC1Ev
__ZN33CGameNetworkingUI_ConnectionStateC2Ev
__ZN33CGameNetworkingUI_ConnectionStateD0Ev
__ZN33CGameNetworkingUI_ConnectionStateD1Ev
__ZN33CMsgSteamDatagramConnectionClosed10SharedCtorEv
__ZN33CMsgSteamDatagramConnectionClosed10SharedDtorEv
__ZN33CMsgSteamDatagramConnectionClosed17default_instance_E
__ZN33CMsgSteamDatagramConnectionClosed21InitAsDefaultInstanceEv
__ZN33CMsgSteamDatagramConnectionClosed27MergePartialFromCodedStreamEPN6google8protobuf2io16CodedInputStreamE
__ZN33CMsgSteamDatagramConnectionClosed5ClearEv
__ZN33CMsgSteamDatagramConnectionClosed8CopyFromERKN6google8protobuf7MessageE
__ZN33CMsgSteamDatagramConnectionClosed9MergeFromERKN6google8protobuf7MessageE
__ZN33CMsgSteamDatagramConnectionClosed9MergeFromERKS_
__ZN33CMsgSteamDatagramConnectionClosedC1Ev
__ZN33CMsgSteamDatagramConnectionClosedC2Ev
__ZN33CMsgSteamDatagramConnectionClosedD0Ev
__ZN33CMsgSteamDatagramConnectionClosedD1Ev
__ZN33CMsgSteamDatagramSessionCryptInfo10SharedCtorEv
__ZN33CMsgSteamDatagramSessionCryptInfo10SharedDtorEv
__ZN33CMsgSteamDatagramSessionCryptInfo17default_instance_E
__ZN33CMsgSteamDatagramSessionCryptInfo27MergePartialFromCodedStreamEPN6google8protobuf2io16CodedInputStreamE
__ZN33CMsgSteamDatagramSessionCryptInfo5ClearEv
__ZN33CMsgSteamDatagramSessionCryptInfo8CopyFromERKN6google8protobuf7MessageE
__ZN33CMsgSteamDatagramSessionCryptInfo9MergeFromERKN6google8protobuf7MessageE
__ZN33CMsgSteamDatagramSessionCryptInfo9MergeFromERKS_
__ZN33CMsgSteamDatagramSessionCryptInfoC1Ev
__ZN33CMsgSteamDatagramSessionCryptInfoC2Ev
__ZN33CMsgSteamDatagramSessionCryptInfoD0Ev
__ZN33CMsgSteamDatagramSessionCryptInfoD1Ev
__ZN33CMsgSteamDatagramSessionCryptInfoD2Ev
__ZN33CMsgSteamSockets_UDP_NoConnection17default_instance_E
__ZN33CMsgSteamSockets_UDP_NoConnection27MergePartialFromCodedStreamEPN6google8protobuf2io16CodedInputStreamE
__ZN33CMsgSteamSockets_UDP_NoConnection5ClearEv
__ZN33CMsgSteamSockets_UDP_NoConnection8CopyFromERKN6google8protobuf7MessageE
__ZN33CMsgSteamSockets_UDP_NoConnection9MergeFromERKN6google8protobuf7MessageE
__ZN33CMsgSteamSockets_UDP_NoConnection9MergeFromERKS_
__ZN33CMsgSteamSockets_UDP_NoConnectionC1Ev
__ZN33CMsgSteamSockets_UDP_NoConnectionC2Ev
__ZN33CMsgSteamSockets_UDP_NoConnectionD0Ev
__ZN33CMsgSteamSockets_UDP_NoConnectionD1Ev
__ZN34CMsgSteamDatagramCertificateSigned10SharedCtorEv
__ZN34CMsgSteamDatagramCertificateSigned10SharedDtorEv
__ZN34CMsgSteamDatagramCertificateSigned16default_instanceEv
__ZN34CMsgSteamDatagramCertificateSigned17default_instance_E
__ZN34CMsgSteamDatagramCertificateSigned27MergePartialFromCodedStreamEPN6google8protobuf2io16CodedInputStreamE
__ZN34CMsgSteamDatagramCertificateSigned5ClearEv
__ZN34CMsgSteamDatagramCertificateSigned8CopyFromERKN6google8protobuf7MessageE
__ZN34CMsgSteamDatagramCertificateSigned8CopyFromERKS_
__ZN34CMsgSteamDatagramCertificateSigned9MergeFromERKN6google8protobuf7MessageE
__ZN34CMsgSteamDatagramCertificateSigned9MergeFromERKS_
__ZN34CMsgSteamDatagramCertificateSignedC1Ev
__ZN34CMsgSteamDatagramCertificateSignedC2Ev
__ZN34CMsgSteamDatagramCertificateSignedD0Ev
__ZN34CMsgSteamDatagramCertificateSignedD1Ev
__ZN34CMsgSteamDatagramConnectionQuality10SharedDtorEv
__ZN34CMsgSteamDatagramConnectionQuality16default_instanceEv
__ZN34CMsgSteamDatagramConnectionQuality17default_instance_E
__ZN34CMsgSteamDatagramConnectionQuality21InitAsDefaultInstanceEv
__ZN34CMsgSteamDatagramConnectionQuality27MergePartialFromCodedStreamEPN6google8protobuf2io16CodedInputStreamE
__ZN34CMsgSteamDatagramConnectionQuality5ClearEv
__ZN34CMsgSteamDatagramConnectionQuality8CopyFromERKN6google8protobuf7MessageE
__ZN34CMsgSteamDatagramConnectionQuality9MergeFromERKN6google8protobuf7MessageE
__ZN34CMsgSteamDatagramConnectionQuality9MergeFromERKS_
__ZN34CMsgSteamDatagramConnectionQualityC1Ev
__ZN34CMsgSteamDatagramConnectionQualityC2Ev
__ZN34CMsgSteamDatagramConnectionQualityD0Ev
__ZN34CMsgSteamDatagramConnectionQualityD1Ev
__ZN34CMsgSteamDatagramLinkLifetimeStats17default_instance_E
__ZN34CMsgSteamDatagramLinkLifetimeStats27MergePartialFromCodedStreamEPN6google8protobuf2io16CodedInputStreamE
__ZN34CMsgSteamDatagramLinkLifetimeStats5ClearEv
__ZN34CMsgSteamDatagramLinkLifetimeStats8CopyFromERKN6google8protobuf7MessageE
__ZN34CMsgSteamDatagramLinkLifetimeStats9MergeFromERKN6google8protobuf7MessageE
__ZN34CMsgSteamDatagramLinkLifetimeStats9MergeFromERKS_
__ZN34CMsgSteamDatagramLinkLifetimeStatsC1Ev
__ZN34CMsgSteamDatagramLinkLifetimeStatsC2Ev
__ZN34CMsgSteamDatagramLinkLifetimeStatsD0Ev
__ZN34CMsgSteamDatagramLinkLifetimeStatsD1Ev
__ZN34CMsgSteamDatagramLinkLifetimeStatsD2Ev
__ZN34CMsgSteamDatagramP2PRoutingSummary10SharedDtorEv
__ZN34CMsgSteamDatagramP2PRoutingSummary16default_instanceEv
__ZN34CMsgSteamDatagramP2PRoutingSummary17default_instance_E
__ZN34CMsgSteamDatagramP2PRoutingSummary27MergePartialFromCodedStreamEPN6google8protobuf2io16CodedInputStreamE
__ZN34CMsgSteamDatagramP2PRoutingSummary5ClearEv
__ZN34CMsgSteamDatagramP2PRoutingSummary8CopyFromERKN6google8protobuf7MessageE
__ZN34CMsgSteamDatagramP2PRoutingSummary9MergeFromERKN6google8protobuf7MessageE
__ZN34CMsgSteamDatagramP2PRoutingSummary9MergeFromERKS_
__ZN34CMsgSteamDatagramP2PRoutingSummaryC1Ev
__ZN34CMsgSteamDatagramP2PRoutingSummaryC2Ev
__ZN34CMsgSteamDatagramP2PRoutingSummaryD0Ev
__ZN34CMsgSteamDatagramP2PRoutingSummaryD1Ev
__ZN34CMsgSteamDatagramP2PSessionRequest10SharedCtorEv
__ZN34CMsgSteamDatagramP2PSessionRequest10SharedDtorEv
__ZN34CMsgSteamDatagramP2PSessionRequest17default_instance_E
__ZN34CMsgSteamDatagramP2PSessionRequest27MergePartialFromCodedStreamEPN6google8protobuf2io16CodedInputStreamE
__ZN34CMsgSteamDatagramP2PSessionRequest5ClearEv
__ZN34CMsgSteamDatagramP2PSessionRequest8CopyFromERKN6google8protobuf7MessageE
__ZN34CMsgSteamDatagramP2PSessionRequest9MergeFromERKN6google8protobuf7MessageE
__ZN34CMsgSteamDatagramP2PSessionRequest9MergeFromERKS_
__ZN34CMsgSteamDatagramP2PSessionRequestC1Ev
__ZN34CMsgSteamDatagramP2PSessionRequestC2Ev
__ZN34CMsgSteamDatagramP2PSessionRequestD0Ev
__ZN34CMsgSteamDatagramP2PSessionRequestD1Ev
__ZN35CMsgSteamDatagramCertificateRequest17default_instance_E
__ZN35CMsgSteamDatagramCertificateRequest27MergePartialFromCodedStreamEPN6google8protobuf2io16CodedInputStreamE
__ZN35CMsgSteamDatagramCertificateRequest5ClearEv
__ZN35CMsgSteamDatagramCertificateRequest8CopyFromERKN6google8protobuf7MessageE
__ZN35CMsgSteamDatagramCertificateRequest9MergeFromERKN6google8protobuf7MessageE
__ZN35CMsgSteamDatagramCertificateRequest9MergeFromERKS_
__ZN35CMsgSteamDatagramCertificateRequestC1Ev
__ZN35CMsgSteamDatagramCertificateRequestC2Ev
__ZN35CMsgSteamDatagramCertificateRequestD0Ev
__ZN35CMsgSteamDatagramCertificateRequestD1Ev
__ZN35CMsgSteamDatagramCertificateRequestD2Ev
__ZN35CMsgSteamSockets_UDP_ChallengeReply17default_instance_E
__ZN35CMsgSteamSockets_UDP_ChallengeReply27MergePartialFromCodedStreamEPN6google8protobuf2io16CodedInputStreamE
__ZN35CMsgSteamSockets_UDP_ChallengeReply5ClearEv
__ZN35CMsgSteamSockets_UDP_ChallengeReply8CopyFromERKN6google8protobuf7MessageE
__ZN35CMsgSteamSockets_UDP_ChallengeReply9MergeFromERKN6google8protobuf7MessageE
__ZN35CMsgSteamSockets_UDP_ChallengeReply9MergeFromERKS_
__ZN35CMsgSteamSockets_UDP_ChallengeReplyC1Ev
__ZN35CMsgSteamSockets_UDP_ChallengeReplyC2Ev
__ZN35CMsgSteamSockets_UDP_ChallengeReplyD0Ev
__ZN35CMsgSteamSockets_UDP_ChallengeReplyD1Ev
__ZN35CMsgSteamSockets_UDP_ConnectRequest10SharedCtorEv
__ZN35CMsgSteamSockets_UDP_ConnectRequest10SharedDtorEv
__ZN35CMsgSteamSockets_UDP_ConnectRequest17default_instance_E
__ZN35CMsgSteamSockets_UDP_ConnectRequest27MergePartialFromCodedStreamEPN6google8protobuf2io16CodedInputStreamE
__ZN35CMsgSteamSockets_UDP_ConnectRequest5ClearEv
__ZN35CMsgSteamSockets_UDP_ConnectRequest8CopyFromERKN6google8protobuf7MessageE
__ZN35CMsgSteamSockets_UDP_ConnectRequest9MergeFromERKN6google8protobuf7MessageE
__ZN35CMsgSteamSockets_UDP_ConnectRequest9MergeFromERKS_
__ZN35CMsgSteamSockets_UDP_ConnectRequestC1Ev
__ZN35CMsgSteamSockets_UDP_ConnectRequestC2Ev
__ZN35CMsgSteamSockets_UDP_ConnectRequestD0Ev
__ZN35CMsgSteamSockets_UDP_ConnectRequestD1Ev
__ZN36CMsgSteamNetworkingICESessionSummary16default_instanceEv
__ZN36CMsgSteamNetworkingICESessionSummary17default_instance_E
__ZN36CMsgSteamNetworkingICESessionSummary27MergePartialFromCodedStreamEPN6google8protobuf2io16CodedInputStreamE
__ZN36CMsgSteamNetworkingICESessionSummary5ClearEv
__ZN36CMsgSteamNetworkingICESessionSummary8CopyFromERKN6google8protobuf7MessageE
__ZN36CMsgSteamNetworkingICESessionSummary8CopyFromERKS_
__ZN36CMsgSteamNetworkingICESessionSummary9MergeFromERKN6google8protobuf7MessageE
__ZN36CMsgSteamNetworkingICESessionSummary9MergeFromERKS_
__ZN36CMsgSteamNetworkingICESessionSummaryC1Ev
__ZN36CMsgSteamNetworkingICESessionSummaryC2Ev
__ZN36CMsgSteamNetworkingICESessionSummaryD0Ev
__ZN36CMsgSteamNetworkingICESessionSummaryD1Ev
__ZN37CMsgSteamDatagramNoSessionRelayToPeer17default_instance_E
__ZN37CMsgSteamDatagramNoSessionRelayToPeer27MergePartialFromCodedStreamEPN6google8protobuf2io16CodedInputStreamE
__ZN37CMsgSteamDatagramNoSessionRelayToPeer5ClearEv
__ZN37CMsgSteamDatagramNoSessionRelayToPeer8CopyFromERKN6google8protobuf7MessageE
__ZN37CMsgSteamDatagramNoSessionRelayToPeer9MergeFromERKN6google8protobuf7MessageE
__ZN37CMsgSteamDatagramNoSessionRelayToPeer9MergeFromERKS_
__ZN37CMsgSteamDatagramNoSessionRelayToPeerC2Ev
__ZN37CMsgSteamDatagramNoSessionRelayToPeerD0Ev
__ZN37CMsgSteamDatagramNoSessionRelayToPeerD1Ev
__ZN37CMsgSteamDatagramSignedMessageGeneric10SharedCtorEv
__ZN37CMsgSteamDatagramSignedMessageGeneric10SharedDtorEv
__ZN37CMsgSteamDatagramSignedMessageGeneric17default_instance_E
__ZN37CMsgSteamDatagramSignedMessageGeneric27MergePartialFromCodedStreamEPN6google8protobuf2io16CodedInputStreamE
__ZN37CMsgSteamDatagramSignedMessageGeneric5ClearEv
__ZN37CMsgSteamDatagramSignedMessageGeneric8CopyFromERKN6google8protobuf7MessageE
__ZN37CMsgSteamDatagramSignedMessageGeneric9MergeFromERKN6google8protobuf7MessageE
__ZN37CMsgSteamDatagramSignedMessageGeneric9MergeFromERKS_
__ZN37CMsgSteamDatagramSignedMessageGenericC2Ev
__ZN37CMsgSteamDatagramSignedMessageGenericD0Ev
__ZN37CMsgSteamDatagramSignedMessageGenericD1Ev
__ZN37CMsgSteamSockets_UDP_ChallengeRequest17default_instance_E
__ZN37CMsgSteamSockets_UDP_ChallengeRequest27MergePartialFromCodedStreamEPN6google8protobuf2io16CodedInputStreamE
__ZN37CMsgSteamSockets_UDP_ChallengeRequest5ClearEv
__ZN37CMsgSteamSockets_UDP_ChallengeRequest8CopyFromERKN6google8protobuf7MessageE
__ZN37CMsgSteamSockets_UDP_ChallengeRequest9MergeFromERKN6google8protobuf7MessageE
__ZN37CMsgSteamSockets_UDP_ChallengeRequest9MergeFromERKS_
__ZN37CMsgSteamSockets_UDP_ChallengeRequestC1Ev
__ZN37CMsgSteamSockets_UDP_ChallengeRequestC2Ev
__ZN37CMsgSteamSockets_UDP_ChallengeRequestD0Ev
__ZN37CMsgSteamSockets_UDP_ChallengeRequestD1Ev
__ZN37CMsgSteamSockets_UDP_ConnectionClosed10SharedCtorEv
__ZN37CMsgSteamSockets_UDP_ConnectionClosed10SharedDtorEv
__ZN37CMsgSteamSockets_UDP_ConnectionClosed17default_instance_E
__ZN37CMsgSteamSockets_UDP_ConnectionClosed27MergePartialFromCodedStreamEPN6google8protobuf2io16CodedInputStreamE
__ZN37CMsgSteamSockets_UDP_ConnectionClosed5ClearEv
__ZN37CMsgSteamSockets_UDP_ConnectionClosed8CopyFromERKN6google8protobuf7MessageE
__ZN37CMsgSteamSockets_UDP_ConnectionClosed9MergeFromERKN6google8protobuf7MessageE
__ZN37CMsgSteamSockets_UDP_ConnectionClosed9MergeFromERKS_
__ZN37CMsgSteamSockets_UDP_ConnectionClosedC1Ev
__ZN37CMsgSteamSockets_UDP_ConnectionClosedC2Ev
__ZN37CMsgSteamSockets_UDP_ConnectionClosedD0Ev
__ZN37CMsgSteamSockets_UDP_ConnectionClosedD1Ev
__ZN38CMsgSteamDatagramClientPingSampleReply17default_instance_E
__ZN38CMsgSteamDatagramClientPingSampleReply27MergePartialFromCodedStreamEPN6google8protobuf2io16CodedInputStreamE
__ZN38CMsgSteamDatagramClientPingSampleReply5ClearEv
__ZN38CMsgSteamDatagramClientPingSampleReply8CopyFromERKN6google8protobuf7MessageE
__ZN38CMsgSteamDatagramClientPingSampleReply9MergeFromERKN6google8protobuf7MessageE
__ZN38CMsgSteamDatagramClientPingSampleReply9MergeFromERKS_
__ZN38CMsgSteamDatagramClientPingSampleReplyC1Ev
__ZN38CMsgSteamDatagramClientPingSampleReplyC2Ev
__ZN38CMsgSteamDatagramClientPingSampleReplyD0Ev
__ZN38CMsgSteamDatagramClientPingSampleReplyD1Ev
__ZN38CMsgSteamDatagramClientPingSampleReplyD2Ev
__ZN38CMsgSteamDatagramClientSwitchedPrimary10SharedCtorEv
__ZN38CMsgSteamDatagramClientSwitchedPrimary10SharedDtorEv
__ZN38CMsgSteamDatagramClientSwitchedPrimary17default_instance_E
__ZN38CMsgSteamDatagramClientSwitchedPrimary21InitAsDefaultInstanceEv
__ZN38CMsgSteamDatagramClientSwitchedPrimary27MergePartialFromCodedStreamEPN6google8protobuf2io16CodedInputStreamE
__ZN38CMsgSteamDatagramClientSwitchedPrimary5ClearEv
__ZN38CMsgSteamDatagramClientSwitchedPrimary8CopyFromERKN6google8protobuf7MessageE
__ZN38CMsgSteamDatagramClientSwitchedPrimary9MergeFromERKN6google8protobuf7MessageE
__ZN38CMsgSteamDatagramClientSwitchedPrimary9MergeFromERKS_
__ZN38CMsgSteamDatagramClientSwitchedPrimaryC1Ev
__ZN38CMsgSteamDatagramClientSwitchedPrimaryC2Ev
__ZN38CMsgSteamDatagramClientSwitchedPrimaryD0Ev
__ZN38CMsgSteamDatagramClientSwitchedPrimaryD1Ev
__ZN38CMsgSteamDatagramP2PSessionEstablished10SharedCtorEv
__ZN38CMsgSteamDatagramP2PSessionEstablished10SharedDtorEv
__ZN38CMsgSteamDatagramP2PSessionEstablished17default_instance_E
__ZN38CMsgSteamDatagramP2PSessionEstablished27MergePartialFromCodedStreamEPN6google8protobuf2io16CodedInputStreamE
__ZN38CMsgSteamDatagramP2PSessionEstablished5ClearEv
__ZN38CMsgSteamDatagramP2PSessionEstablished8CopyFromERKN6google8protobuf7MessageE
__ZN38CMsgSteamDatagramP2PSessionEstablished9MergeFromERKN6google8protobuf7MessageE
__ZN38CMsgSteamDatagramP2PSessionEstablished9MergeFromERKS_
__ZN38CMsgSteamDatagramP2PSessionEstablishedC1Ev
__ZN38CMsgSteamDatagramP2PSessionEstablishedC2Ev
__ZN38CMsgSteamDatagramP2PSessionEstablishedD0Ev
__ZN38CMsgSteamDatagramP2PSessionEstablishedD1Ev
__ZN38CMsgSteamDatagramP2PSessionRequestBody10SharedCtorEv
__ZN38CMsgSteamDatagramP2PSessionRequestBody10SharedDtorEv
__ZN38CMsgSteamDatagramP2PSessionRequestBody17default_instance_E
__ZN38CMsgSteamDatagramP2PSessionRequestBody27MergePartialFromCodedStreamEPN6google8protobuf2io16CodedInputStreamE
__ZN38CMsgSteamDatagramP2PSessionRequestBody5ClearEv
__ZN38CMsgSteamDatagramP2PSessionRequestBody8CopyFromERKN6google8protobuf7MessageE
__ZN38CMsgSteamDatagramP2PSessionRequestBody9MergeFromERKN6google8protobuf7MessageE
__ZN38CMsgSteamDatagramP2PSessionRequestBody9MergeFromERKS_
__ZN38CMsgSteamDatagramP2PSessionRequestBodyC1Ev
__ZN38CMsgSteamDatagramP2PSessionRequestBodyC2Ev
__ZN38CMsgSteamDatagramP2PSessionRequestBodyD0Ev
__ZN38CMsgSteamDatagramP2PSessionRequestBodyD1Ev
__ZN38CMsgSteamDatagramSignedRelayAuthTicket10SharedCtorEv
__ZN38CMsgSteamDatagramSignedRelayAuthTicket10SharedDtorEv
__ZN38CMsgSteamDatagramSignedRelayAuthTicket17default_instance_E
__ZN38CMsgSteamDatagramSignedRelayAuthTicket27MergePartialFromCodedStreamEPN6google8protobuf2io16CodedInputStreamE
__ZN38CMsgSteamDatagramSignedRelayAuthTicket5ClearEv
__ZN38CMsgSteamDatagramSignedRelayAuthTicket8CopyFromERKN6google8protobuf7MessageE
__ZN38CMsgSteamDatagramSignedRelayAuthTicket9MergeFromERKN6google8protobuf7MessageE
__ZN38CMsgSteamDatagramSignedRelayAuthTicket9MergeFromERKS_
__ZN38CMsgSteamDatagramSignedRelayAuthTicketC1Ev
__ZN38CMsgSteamDatagramSignedRelayAuthTicketC2Ev
__ZN38CMsgSteamDatagramSignedRelayAuthTicketD0Ev
__ZN38CMsgSteamDatagramSignedRelayAuthTicketD1Ev
__ZN38CMsgSteamDatagramSignedRelayAuthTicketD2Ev
__ZN39CMsgSteamDatagramLinkInstantaneousStats17default_instance_E
__ZN39CMsgSteamDatagramLinkInstantaneousStats27MergePartialFromCodedStreamEPN6google8protobuf2io16CodedInputStreamE
__ZN39CMsgSteamDatagramLinkInstantaneousStats5ClearEv
__ZN39CMsgSteamDatagramLinkInstantaneousStats8CopyFromERKN6google8protobuf7MessageE
__ZN39CMsgSteamDatagramLinkInstantaneousStats9MergeFromERKN6google8protobuf7MessageE
__ZN39CMsgSteamDatagramLinkInstantaneousStats9MergeFromERKS_
__ZN39CMsgSteamDatagramLinkInstantaneousStatsC1Ev
__ZN39CMsgSteamDatagramLinkInstantaneousStatsC2Ev
__ZN39CMsgSteamDatagramLinkInstantaneousStatsD0Ev
__ZN39CMsgSteamDatagramLinkInstantaneousStatsD1Ev
__ZN39CMsgSteamDatagramNoSessionRelayToClient17default_instance_E
__ZN39CMsgSteamDatagramNoSessionRelayToClient27MergePartialFromCodedStreamEPN6google8protobuf2io16CodedInputStreamE
__ZN39CMsgSteamDatagramNoSessionRelayToClient5ClearEv
__ZN39CMsgSteamDatagramNoSessionRelayToClient8CopyFromERKN6google8protobuf7MessageE
__ZN39CMsgSteamDatagramNoSessionRelayToClient9MergeFromERKN6google8protobuf7MessageE
__ZN39CMsgSteamDatagramNoSessionRelayToClient9MergeFromERKS_
__ZN39CMsgSteamDatagramNoSessionRelayToClientC1Ev
__ZN39CMsgSteamDatagramNoSessionRelayToClientC2Ev
__ZN39CMsgSteamDatagramNoSessionRelayToClientD0Ev
__ZN39CMsgSteamDatagramNoSessionRelayToClientD1Ev
__ZN39CMsgSteamDatagramP2PRoutes_RelayCluster10SharedCtorEv
__ZN39CMsgSteamDatagramP2PRoutes_RelayCluster10SharedDtorEv
__ZN39CMsgSteamDatagramP2PRoutes_RelayCluster17default_instance_E
__ZN39CMsgSteamDatagramP2PRoutes_RelayCluster27MergePartialFromCodedStreamEPN6google8protobuf2io16CodedInputStreamE
__ZN39CMsgSteamDatagramP2PRoutes_RelayCluster5ClearEv
__ZN39CMsgSteamDatagramP2PRoutes_RelayCluster8CopyFromERKN6google8protobuf7MessageE
__ZN39CMsgSteamDatagramP2PRoutes_RelayCluster9MergeFromERKN6google8protobuf7MessageE
__ZN39CMsgSteamDatagramP2PRoutes_RelayCluster9MergeFromERKS_
__ZN39CMsgSteamDatagramP2PRoutes_RelayClusterC2Ev
__ZN39CMsgSteamDatagramP2PRoutes_RelayClusterD0Ev
__ZN39CMsgSteamDatagramP2PRoutes_RelayClusterD1Ev
__ZN39CMsgSteamDatagramSessionCryptInfoSigned10SharedCtorEv
__ZN39CMsgSteamDatagramSessionCryptInfoSigned10SharedDtorEv
__ZN39CMsgSteamDatagramSessionCryptInfoSigned16default_instanceEv
__ZN39CMsgSteamDatagramSessionCryptInfoSigned17default_instance_E
__ZN39CMsgSteamDatagramSessionCryptInfoSigned27MergePartialFromCodedStreamEPN6google8protobuf2io16CodedInputStreamE
__ZN39CMsgSteamDatagramSessionCryptInfoSigned5ClearEv
__ZN39CMsgSteamDatagramSessionCryptInfoSigned8CopyFromERKN6google8protobuf7MessageE
__ZN39CMsgSteamDatagramSessionCryptInfoSigned8CopyFromERKS_
__ZN39CMsgSteamDatagramSessionCryptInfoSigned9MergeFromERKN6google8protobuf7MessageE
__ZN39CMsgSteamDatagramSessionCryptInfoSigned9MergeFromERKS_
__ZN39CMsgSteamDatagramSessionCryptInfoSignedC1Ev
__ZN39CMsgSteamDatagramSessionCryptInfoSignedC2Ev
__ZN39CMsgSteamDatagramSessionCryptInfoSignedD0Ev
__ZN39CMsgSteamDatagramSessionCryptInfoSignedD1Ev
__ZN39CMsgSteamNetworkingIdentityLegacyBinary10SharedCtorEv
__ZN39CMsgSteamNetworkingIdentityLegacyBinary10SharedDtorEv
__ZN39CMsgSteamNetworkingIdentityLegacyBinary16default_instanceEv
__ZN39CMsgSteamNetworkingIdentityLegacyBinary17default_instance_E
__ZN39CMsgSteamNetworkingIdentityLegacyBinary27MergePartialFromCodedStreamEPN6google8protobuf2io16CodedInputStreamE
__ZN39CMsgSteamNetworkingIdentityLegacyBinary5ClearEv
__ZN39CMsgSteamNetworkingIdentityLegacyBinary8CopyFromERKN6google8protobuf7MessageE
__ZN39CMsgSteamNetworkingIdentityLegacyBinary9MergeFromERKN6google8protobuf7MessageE
__ZN39CMsgSteamNetworkingIdentityLegacyBinary9MergeFromERKS_
__ZN39CMsgSteamNetworkingIdentityLegacyBinaryC1Ev
__ZN39CMsgSteamNetworkingIdentityLegacyBinaryC2Ev
__ZN39CMsgSteamNetworkingIdentityLegacyBinaryD0Ev
__ZN39CMsgSteamNetworkingIdentityLegacyBinaryD1Ev
__ZN39CMsgSteamNetworkingP2PSDRRoutingSummary17default_instance_E
__ZN39CMsgSteamNetworkingP2PSDRRoutingSummary27MergePartialFromCodedStreamEPN6google8protobuf2io16CodedInputStreamE
__ZN39CMsgSteamNetworkingP2PSDRRoutingSummary5ClearEv
__ZN39CMsgSteamNetworkingP2PSDRRoutingSummary8CopyFromERKN6google8protobuf7MessageE
__ZN39CMsgSteamNetworkingP2PSDRRoutingSummary8CopyFromERKS_
__ZN39CMsgSteamNetworkingP2PSDRRoutingSummary9MergeFromERKN6google8protobuf7MessageE
__ZN39CMsgSteamNetworkingP2PSDRRoutingSummary9MergeFromERKS_
__ZN39CMsgSteamNetworkingP2PSDRRoutingSummaryC1Ev
__ZN39CMsgSteamNetworkingP2PSDRRoutingSummaryC2Ev
__ZN39CMsgSteamNetworkingP2PSDRRoutingSummaryD0Ev
__ZN39CMsgSteamNetworkingP2PSDRRoutingSummaryD1Ev
__ZN40CMsgSteamDatagramCachedCredentialsForApp10SharedCtorEv
__ZN40CMsgSteamDatagramCachedCredentialsForApp10SharedDtorEv
__ZN40CMsgSteamDatagramCachedCredentialsForApp17default_instance_E
__ZN40CMsgSteamDatagramCachedCredentialsForApp27MergePartialFromCodedStreamEPN6google8protobuf2io16CodedInputStreamE
__ZN40CMsgSteamDatagramCachedCredentialsForApp5ClearEv
__ZN40CMsgSteamDatagramCachedCredentialsForApp8CopyFromERKN6google8protobuf7MessageE
__ZN40CMsgSteamDatagramCachedCredentialsForApp9MergeFromERKN6google8protobuf7MessageE
__ZN40CMsgSteamDatagramCachedCredentialsForApp9MergeFromERKS_
__ZN40CMsgSteamDatagramCachedCredentialsForAppC2Ev
__ZN40CMsgSteamDatagramCachedCredentialsForAppD0Ev
__ZN40CMsgSteamDatagramCachedCredentialsForAppD1Ev
__ZN40CMsgSteamDatagramCachedCredentialsForAppD2Ev
__ZN40CMsgSteamDatagramClientPingSampleRequest17default_instance_E
__ZN40CMsgSteamDatagramClientPingSampleRequest27MergePartialFromCodedStreamEPN6google8protobuf2io16CodedInputStreamE
__ZN40CMsgSteamDatagramClientPingSampleRequest5ClearEv
__ZN40CMsgSteamDatagramClientPingSampleRequest8CopyFromERKN6google8protobuf7MessageE
__ZN40CMsgSteamDatagramClientPingSampleRequest9MergeFromERKN6google8protobuf7MessageE
__ZN40CMsgSteamDatagramClientPingSampleRequest9MergeFromERKS_
__ZN40CMsgSteamDatagramClientPingSampleRequestC1Ev
__ZN40CMsgSteamDatagramClientPingSampleRequestC2Ev
__ZN40CMsgSteamDatagramClientPingSampleRequestD0Ev
__ZN40CMsgSteamDatagramClientPingSampleRequestD1Ev
__ZN40CMsgSteamDatagramGameserverPingReplyData10SharedCtorEv
__ZN40CMsgSteamDatagramGameserverPingReplyData10SharedDtorEv
__ZN40CMsgSteamDatagramGameserverPingReplyData17default_instance_E
__ZN40CMsgSteamDatagramGameserverPingReplyData27MergePartialFromCodedStreamEPN6google8protobuf2io16CodedInputStreamE
__ZN40CMsgSteamDatagramGameserverPingReplyData5ClearEv
__ZN40CMsgSteamDatagramGameserverPingReplyData8CopyFromERKN6google8protobuf7MessageE
__ZN40CMsgSteamDatagramGameserverPingReplyData9MergeFromERKN6google8protobuf7MessageE
__ZN40CMsgSteamDatagramGameserverPingReplyData9MergeFromERKS_
__ZN40CMsgSteamDatagramGameserverPingReplyDataC2Ev
__ZN40CMsgSteamDatagramGameserverPingReplyDataD0Ev
__ZN40CMsgSteamDatagramGameserverPingReplyDataD1Ev
__ZN41CMsgSteamDatagramGameserverSessionRequest10SharedCtorEv
__ZN41CMsgSteamDatagramGameserverSessionRequest10SharedDtorEv
__ZN41CMsgSteamDatagramGameserverSessionRequest17default_instance_E
__ZN41CMsgSteamDatagramGameserverSessionRequest27MergePartialFromCodedStreamEPN6google8protobuf2io16CodedInputStreamE
__ZN41CMsgSteamDatagramGameserverSessionRequest5ClearEv
__ZN41CMsgSteamDatagramGameserverSessionRequest8CopyFromERKN6google8protobuf7MessageE
__ZN41CMsgSteamDatagramGameserverSessionRequest9MergeFromERKN6google8protobuf7MessageE
__ZN41CMsgSteamDatagramGameserverSessionRequest9MergeFromERKS_
__ZN41CMsgSteamDatagramGameserverSessionRequestC1Ev
__ZN41CMsgSteamDatagramGameserverSessionRequestC2Ev
__ZN41CMsgSteamDatagramGameserverSessionRequestD0Ev
__ZN41CMsgSteamDatagramGameserverSessionRequestD1Ev
__ZN42CMsgSteamDatagramClientPingSampleReply_POP17default_instance_E
__ZN42CMsgSteamDatagramClientPingSampleReply_POP27MergePartialFromCodedStreamEPN6google8protobuf2io16CodedInputStreamE
__ZN42CMsgSteamDatagramClientPingSampleReply_POP5ClearEv
__ZN42CMsgSteamDatagramClientPingSampleReply_POP8CopyFromERKN6google8protobuf7MessageE
__ZN42CMsgSteamDatagramClientPingSampleReply_POP8CopyFromERKS_
__ZN42CMsgSteamDatagramClientPingSampleReply_POP9MergeFromERKN6google8protobuf7MessageE
__ZN42CMsgSteamDatagramClientPingSampleReply_POP9MergeFromERKS_
__ZN42CMsgSteamDatagramClientPingSampleReply_POPC1ERKS_
__ZN42CMsgSteamDatagramClientPingSampleReply_POPC1Ev
__ZN42CMsgSteamDatagramClientPingSampleReply_POPC2ERKS_
__ZN42CMsgSteamDatagramClientPingSampleReply_POPC2Ev
__ZN42CMsgSteamDatagramClientPingSampleReply_POPD0Ev
__ZN42CMsgSteamDatagramClientPingSampleReply_POPD1Ev
__ZN42CMsgSteamDatagramGameserverPingRequestBody10SharedCtorEv
__ZN42CMsgSteamDatagramGameserverPingRequestBody10SharedDtorEv
__ZN42CMsgSteamDatagramGameserverPingRequestBody17default_instance_E
__ZN42CMsgSteamDatagramGameserverPingRequestBody27MergePartialFromCodedStreamEPN6google8protobuf2io16CodedInputStreamE
__ZN42CMsgSteamDatagramGameserverPingRequestBody5ClearEv
__ZN42CMsgSteamDatagramGameserverPingRequestBody8CopyFromERKN6google8protobuf7MessageE
__ZN42CMsgSteamDatagramGameserverPingRequestBody9MergeFromERKN6google8protobuf7MessageE
__ZN42CMsgSteamDatagramGameserverPingRequestBody9MergeFromERKS_
__ZN42CMsgSteamDatagramGameserverPingRequestBodyC2Ev
__ZN42CMsgSteamDatagramGameserverPingRequestBodyD0Ev
__ZN42CMsgSteamDatagramGameserverPingRequestBodyD1Ev
__ZN42CMsgSteamDatagramGameserverPingRequestBodyD2Ev
__ZN42CMsgSteamDatagramP2PBadRouteRouterToClient10SharedCtorEv
__ZN42CMsgSteamDatagramP2PBadRouteRouterToClient10SharedDtorEv
__ZN42CMsgSteamDatagramP2PBadRouteRouterToClient17default_instance_E
__ZN42CMsgSteamDatagramP2PBadRouteRouterToClient27MergePartialFromCodedStreamEPN6google8protobuf2io16CodedInputStreamE
__ZN42CMsgSteamDatagramP2PBadRouteRouterToClient5ClearEv
__ZN42CMsgSteamDatagramP2PBadRouteRouterToClient8CopyFromERKN6google8protobuf7MessageE
__ZN42CMsgSteamDatagramP2PBadRouteRouterToClient9MergeFromERKN6google8protobuf7MessageE
__ZN42CMsgSteamDatagramP2PBadRouteRouterToClient9MergeFromERKS_
__ZN42CMsgSteamDatagramP2PBadRouteRouterToClientC1Ev
__ZN42CMsgSteamDatagramP2PBadRouteRouterToClientC2Ev
__ZN42CMsgSteamDatagramP2PBadRouteRouterToClientD0Ev
__ZN42CMsgSteamDatagramP2PBadRouteRouterToClientD1Ev
__ZN42CMsgSteamDatagramSetSecondaryAddressResult10SharedCtorEv
__ZN42CMsgSteamDatagramSetSecondaryAddressResult10SharedDtorEv
__ZN42CMsgSteamDatagramSetSecondaryAddressResult17default_instance_E
__ZN42CMsgSteamDatagramSetSecondaryAddressResult27MergePartialFromCodedStreamEPN6google8protobuf2io16CodedInputStreamE
__ZN42CMsgSteamDatagramSetSecondaryAddressResult5ClearEv
__ZN42CMsgSteamDatagramSetSecondaryAddressResult8CopyFromERKN6google8protobuf7MessageE
__ZN42CMsgSteamDatagramSetSecondaryAddressResult9MergeFromERKN6google8protobuf7MessageE
__ZN42CMsgSteamDatagramSetSecondaryAddressResult9MergeFromERKS_
__ZN42CMsgSteamDatagramSetSecondaryAddressResultC2Ev
__ZN42CMsgSteamDatagramSetSecondaryAddressResultD0Ev
__ZN42CMsgSteamDatagramSetSecondaryAddressResultD1Ev
__ZN42CMsgSteamNetworkingP2PRendezvous_ConnectOK10SharedDtorEv
__ZN42CMsgSteamNetworkingP2PRendezvous_ConnectOK17default_instance_E
__ZN42CMsgSteamNetworkingP2PRendezvous_ConnectOK27MergePartialFromCodedStreamEPN6google8protobuf2io16CodedInputStreamE
__ZN42CMsgSteamNetworkingP2PRendezvous_ConnectOK5ClearEv
__ZN42CMsgSteamNetworkingP2PRendezvous_ConnectOK8CopyFromERKN6google8protobuf7MessageE
__ZN42CMsgSteamNetworkingP2PRendezvous_ConnectOK9MergeFromERKN6google8protobuf7MessageE
__ZN42CMsgSteamNetworkingP2PRendezvous_ConnectOK9MergeFromERKS_
__ZN42CMsgSteamNetworkingP2PRendezvous_ConnectOKC1Ev
__ZN42CMsgSteamNetworkingP2PRendezvous_ConnectOKC2Ev
__ZN42CMsgSteamNetworkingP2PRendezvous_ConnectOKD0Ev
__ZN42CMsgSteamNetworkingP2PRendezvous_ConnectOKD1Ev
__ZN43CMsgSteamDatagramGameCoordinatorServerLogin10SharedCtorEv
__ZN43CMsgSteamDatagramGameCoordinatorServerLogin10SharedDtorEv
__ZN43CMsgSteamDatagramGameCoordinatorServerLogin17default_instance_E
__ZN43CMsgSteamDatagramGameCoordinatorServerLogin27MergePartialFromCodedStreamEPN6google8protobuf2io16CodedInputStreamE
__ZN43CMsgSteamDatagramGameCoordinatorServerLogin5ClearEv
__ZN43CMsgSteamDatagramGameCoordinatorServerLogin8CopyFromERKN6google8protobuf7MessageE
__ZN43CMsgSteamDatagramGameCoordinatorServerLogin9MergeFromERKN6google8protobuf7MessageE
__ZN43CMsgSteamDatagramGameCoordinatorServerLogin9MergeFromERKS_
__ZN43CMsgSteamDatagramGameCoordinatorServerLoginC2Ev
__ZN43CMsgSteamDatagramGameCoordinatorServerLoginD0Ev
__ZN43CMsgSteamDatagramGameCoordinatorServerLoginD1Ev
__ZN43CMsgSteamDatagramRelayAuthTicket_ExtraField10SharedCtorEv
__ZN43CMsgSteamDatagramRelayAuthTicket_ExtraField10SharedDtorEv
__ZN43CMsgSteamDatagramRelayAuthTicket_ExtraField17default_instance_E
__ZN43CMsgSteamDatagramRelayAuthTicket_ExtraField27MergePartialFromCodedStreamEPN6google8protobuf2io16CodedInputStreamE
__ZN43CMsgSteamDatagramRelayAuthTicket_ExtraField5ClearEv
__ZN43CMsgSteamDatagramRelayAuthTicket_ExtraField8CopyFromERKN6google8protobuf7MessageE
__ZN43CMsgSteamDatagramRelayAuthTicket_ExtraField9MergeFromERKN6google8protobuf7MessageE
__ZN43CMsgSteamDatagramRelayAuthTicket_ExtraField9MergeFromERKS_
__ZN43CMsgSteamDatagramRelayAuthTicket_ExtraFieldC2Ev
__ZN43CMsgSteamDatagramRelayAuthTicket_ExtraFieldD0Ev
__ZN43CMsgSteamDatagramRelayAuthTicket_ExtraFieldD1Ev
__ZN43CMsgSteamDatagramRouterPingReply_AltAddress10SharedCtorEv
__ZN43CMsgSteamDatagramRouterPingReply_AltAddress10SharedDtorEv
__ZN43CMsgSteamDatagramRouterPingReply_AltAddress17default_instance_E
__ZN43CMsgSteamDatagramRouterPingReply_AltAddress27MergePartialFromCodedStreamEPN6google8protobuf2io16CodedInputStreamE
__ZN43CMsgSteamDatagramRouterPingReply_AltAddress5ClearEv
__ZN43CMsgSteamDatagramRouterPingReply_AltAddress8CopyFromERKN6google8protobuf7MessageE
__ZN43CMsgSteamDatagramRouterPingReply_AltAddress9MergeFromERKN6google8protobuf7MessageE
__ZN43CMsgSteamDatagramRouterPingReply_AltAddress9MergeFromERKS_
__ZN43CMsgSteamDatagramRouterPingReply_AltAddressC2Ev
__ZN43CMsgSteamDatagramRouterPingReply_AltAddressD0Ev
__ZN43CMsgSteamDatagramRouterPingReply_AltAddressD1Ev
__ZN43CMsgSteamDatagramSetSecondaryAddressRequest10SharedCtorEv
__ZN43CMsgSteamDatagramSetSecondaryAddressRequest10SharedDtorEv
__ZN43CMsgSteamDatagramSetSecondaryAddressRequest17default_instance_E
__ZN43CMsgSteamDatagramSetSecondaryAddressRequest27MergePartialFromCodedStreamEPN6google8protobuf2io16CodedInputStreamE
__ZN43CMsgSteamDatagramSetSecondaryAddressRequest5ClearEv
__ZN43CMsgSteamDatagramSetSecondaryAddressRequest8CopyFromERKN6google8protobuf7MessageE
__ZN43CMsgSteamDatagramSetSecondaryAddressRequest9MergeFromERKN6google8protobuf7MessageE
__ZN43CMsgSteamDatagramSetSecondaryAddressRequest9MergeFromERKS_
__ZN43CMsgSteamDatagramSetSecondaryAddressRequestC2Ev
__ZN43CMsgSteamDatagramSetSecondaryAddressRequestD0Ev
__ZN43CMsgSteamDatagramSetSecondaryAddressRequestD1Ev
__ZN45CMsgSteamDatagramGameserverSessionEstablished10SharedCtorEv
__ZN45CMsgSteamDatagramGameserverSessionEstablished10SharedDtorEv
__ZN45CMsgSteamDatagramGameserverSessionEstablished17default_instance_E
__ZN45CMsgSteamDatagramGameserverSessionEstablished27MergePartialFromCodedStreamEPN6google8protobuf2io16CodedInputStreamE
__ZN45CMsgSteamDatagramGameserverSessionEstablished5ClearEv
__ZN45CMsgSteamDatagramGameserverSessionEstablished8CopyFromERKN6google8protobuf7MessageE
__ZN45CMsgSteamDatagramGameserverSessionEstablished9MergeFromERKN6google8protobuf7MessageE
__ZN45CMsgSteamDatagramGameserverSessionEstablished9MergeFromERKS_
__ZN45CMsgSteamDatagramGameserverSessionEstablishedC1Ev
__ZN45CMsgSteamDatagramGameserverSessionEstablishedC2Ev
__ZN45CMsgSteamDatagramGameserverSessionEstablishedD0Ev
__ZN45CMsgSteamDatagramGameserverSessionEstablishedD1Ev
__ZN45CMsgSteamDatagramHostedServerAddressPlaintext10SharedCtorEv
__ZN45CMsgSteamDatagramHostedServerAddressPlaintext10SharedDtorEv
__ZN45CMsgSteamDatagramHostedServerAddressPlaintext17default_instance_E
__ZN45CMsgSteamDatagramHostedServerAddressPlaintext27MergePartialFromCodedStreamEPN6google8protobuf2io16CodedInputStreamE
__ZN45CMsgSteamDatagramHostedServerAddressPlaintext5ClearEv
__ZN45CMsgSteamDatagramHostedServerAddressPlaintext8CopyFromERKN6google8protobuf7MessageE
__ZN45CMsgSteamDatagramHostedServerAddressPlaintext9MergeFromERKN6google8protobuf7MessageE
__ZN45CMsgSteamDatagramHostedServerAddressPlaintext9MergeFromERKS_
__ZN45CMsgSteamDatagramHostedServerAddressPlaintextC2Ev
__ZN45CMsgSteamDatagramHostedServerAddressPlaintextD0Ev
__ZN45CMsgSteamDatagramHostedServerAddressPlaintextD1Ev
__ZN46CMsgSteamDatagramConnectionStatsClientToRouter10SharedDtorEv
__ZN46CMsgSteamDatagramConnectionStatsClientToRouter17default_instance_E
__ZN46CMsgSteamDatagramConnectionStatsClientToRouter27MergePartialFromCodedStreamEPN6google8protobuf2io16CodedInputStreamE
__ZN46CMsgSteamDatagramConnectionStatsClientToRouter5ClearEv
__ZN46CMsgSteamDatagramConnectionStatsClientToRouter8CopyFromERKN6google8protobuf7MessageE
__ZN46CMsgSteamDatagramConnectionStatsClientToRouter9MergeFromERKN6google8protobuf7MessageE
__ZN46CMsgSteamDatagramConnectionStatsClientToRouter9MergeFromERKS_
__ZN46CMsgSteamDatagramConnectionStatsClientToRouterC1Ev
__ZN46CMsgSteamDatagramConnectionStatsClientToRouterC2Ev
__ZN46CMsgSteamDatagramConnectionStatsClientToRouterD0Ev
__ZN46CMsgSteamDatagramConnectionStatsClientToRouterD1Ev
__ZN46CMsgSteamDatagramConnectionStatsClientToRouterD2Ev
__ZN46CMsgSteamDatagramConnectionStatsRouterToClient10SharedDtorEv
__ZN46CMsgSteamDatagramConnectionStatsRouterToClient17default_instance_E
__ZN46CMsgSteamDatagramConnectionStatsRouterToClient27MergePartialFromCodedStreamEPN6google8protobuf2io16CodedInputStreamE
__ZN46CMsgSteamDatagramConnectionStatsRouterToClient5ClearEv
__ZN46CMsgSteamDatagramConnectionStatsRouterToClient8CopyFromERKN6google8protobuf7MessageE
__ZN46CMsgSteamDatagramConnectionStatsRouterToClient9MergeFromERKN6google8protobuf7MessageE
__ZN46CMsgSteamDatagramConnectionStatsRouterToClient9MergeFromERKS_
__ZN46CMsgSteamDatagramConnectionStatsRouterToClientC1Ev
__ZN46CMsgSteamDatagramConnectionStatsRouterToClientC2Ev
__ZN46CMsgSteamDatagramConnectionStatsRouterToClientD0Ev
__ZN46CMsgSteamDatagramConnectionStatsRouterToClientD1Ev
__ZN46CMsgSteamDatagramConnectionStatsRouterToClientD2Ev
__ZN46CMsgSteamDatagramConnectionStatsRouterToServer10SharedCtorEv
__ZN46CMsgSteamDatagramConnectionStatsRouterToServer10SharedDtorEv
__ZN46CMsgSteamDatagramConnectionStatsRouterToServer17default_instance_E
__ZN46CMsgSteamDatagramConnectionStatsRouterToServer27MergePartialFromCodedStreamEPN6google8protobuf2io16CodedInputStreamE
__ZN46CMsgSteamDatagramConnectionStatsRouterToServer5ClearEv
__ZN46CMsgSteamDatagramConnectionStatsRouterToServer8CopyFromERKN6google8protobuf7MessageE
__ZN46CMsgSteamDatagramConnectionStatsRouterToServer9MergeFromERKN6google8protobuf7MessageE
__ZN46CMsgSteamDatagramConnectionStatsRouterToServer9MergeFromERKS_
__ZN46CMsgSteamDatagramConnectionStatsRouterToServerC2Ev
__ZN46CMsgSteamDatagramConnectionStatsRouterToServerD0Ev
__ZN46CMsgSteamDatagramConnectionStatsRouterToServerD1Ev
__ZN46CMsgSteamDatagramConnectionStatsRouterToServerD2Ev
__ZN46CMsgSteamDatagramConnectionStatsServerToRouter10SharedDtorEv
__ZN46CMsgSteamDatagramConnectionStatsServerToRouter17default_instance_E
__ZN46CMsgSteamDatagramConnectionStatsServerToRouter27MergePartialFromCodedStreamEPN6google8protobuf2io16CodedInputStreamE
__ZN46CMsgSteamDatagramConnectionStatsServerToRouter5ClearEv
__ZN46CMsgSteamDatagramConnectionStatsServerToRouter8CopyFromERKN6google8protobuf7MessageE
__ZN46CMsgSteamDatagramConnectionStatsServerToRouter9MergeFromERKN6google8protobuf7MessageE
__ZN46CMsgSteamDatagramConnectionStatsServerToRouter9MergeFromERKS_
__ZN46CMsgSteamDatagramConnectionStatsServerToRouterC2Ev
__ZN46CMsgSteamDatagramConnectionStatsServerToRouterD0Ev
__ZN46CMsgSteamDatagramConnectionStatsServerToRouterD1Ev
__ZN46CMsgSteamDatagramConnectionStatsServerToRouterD2Ev
__ZN46CMsgSteamDatagramGameserverPingRequestEnvelope10SharedCtorEv
__ZN46CMsgSteamDatagramGameserverPingRequestEnvelope10SharedDtorEv
__ZN46CMsgSteamDatagramGameserverPingRequestEnvelope17default_instance_E
__ZN46CMsgSteamDatagramGameserverPingRequestEnvelope27MergePartialFromCodedStreamEPN6google8protobuf2io16CodedInputStreamE
__ZN46CMsgSteamDatagramGameserverPingRequestEnvelope5ClearEv
__ZN46CMsgSteamDatagramGameserverPingRequestEnvelope8CopyFromERKN6google8protobuf7MessageE
__ZN46CMsgSteamDatagramGameserverPingRequestEnvelope9MergeFromERKN6google8protobuf7MessageE
__ZN46CMsgSteamDatagramGameserverPingRequestEnvelope9MergeFromERKS_
__ZN46CMsgSteamDatagramGameserverPingRequestEnvelopeC2Ev
__ZN46CMsgSteamDatagramGameserverPingRequestEnvelopeD0Ev
__ZN46CMsgSteamDatagramGameserverPingRequestEnvelopeD1Ev
__ZN47CMsgSteamDatagramRouterPingReply_RouteException17default_instance_E
__ZN47CMsgSteamDatagramRouterPingReply_RouteException27MergePartialFromCodedStreamEPN6google8protobuf2io16CodedInputStreamE
__ZN47CMsgSteamDatagramRouterPingReply_RouteException5ClearEv
__ZN47CMsgSteamDatagramRouterPingReply_RouteException8CopyFromERKN6google8protobuf7MessageE
__ZN47CMsgSteamDatagramRouterPingReply_RouteException9MergeFromERKN6google8protobuf7MessageE
__ZN47CMsgSteamDatagramRouterPingReply_RouteException9MergeFromERKS_
__ZN47CMsgSteamDatagramRouterPingReply_RouteExceptionC2Ev
__ZN47CMsgSteamDatagramRouterPingReply_RouteExceptionD0Ev
__ZN47CMsgSteamDatagramRouterPingReply_RouteExceptionD1Ev
__ZN47CMsgSteamNetworkingP2PRendezvous_ConnectRequest10SharedCtorEv
__ZN47CMsgSteamNetworkingP2PRendezvous_ConnectRequest10SharedDtorEv
__ZN47CMsgSteamNetworkingP2PRendezvous_ConnectRequest17default_instance_E
__ZN47CMsgSteamNetworkingP2PRendezvous_ConnectRequest21InitAsDefaultInstanceEv
__ZN47CMsgSteamNetworkingP2PRendezvous_ConnectRequest27MergePartialFromCodedStreamEPN6google8protobuf2io16CodedInputStreamE
__ZN47CMsgSteamNetworkingP2PRendezvous_ConnectRequest5ClearEv
__ZN47CMsgSteamNetworkingP2PRendezvous_ConnectRequest8CopyFromERKN6google8protobuf7MessageE
__ZN47CMsgSteamNetworkingP2PRendezvous_ConnectRequest9MergeFromERKN6google8protobuf7MessageE
__ZN47CMsgSteamNetworkingP2PRendezvous_ConnectRequest9MergeFromERKS_
__ZN47CMsgSteamNetworkingP2PRendezvous_ConnectRequestC1Ev
__ZN47CMsgSteamNetworkingP2PRendezvous_ConnectRequestC2Ev
__ZN47CMsgSteamNetworkingP2PRendezvous_ConnectRequestD0Ev
__ZN47CMsgSteamNetworkingP2PRendezvous_ConnectRequestD1Ev
__ZN48CMsgSteamNetworkingP2PRendezvous_ReliableMessage17default_instance_E
__ZN48CMsgSteamNetworkingP2PRendezvous_ReliableMessage27MergePartialFromCodedStreamEPN6google8protobuf2io16CodedInputStreamE
__ZN48CMsgSteamNetworkingP2PRendezvous_ReliableMessage5ClearEv
__ZN48CMsgSteamNetworkingP2PRendezvous_ReliableMessage8CopyFromERKN6google8protobuf7MessageE
__ZN48CMsgSteamNetworkingP2PRendezvous_ReliableMessage8CopyFromERKS_
__ZN48CMsgSteamNetworkingP2PRendezvous_ReliableMessage9MergeFromERKN6google8protobuf7MessageE
__ZN48CMsgSteamNetworkingP2PRendezvous_ReliableMessage9MergeFromERKS_
__ZN48CMsgSteamNetworkingP2PRendezvous_ReliableMessageC1ERKS_
__ZN48CMsgSteamNetworkingP2PRendezvous_ReliableMessageC1Ev
__ZN48CMsgSteamNetworkingP2PRendezvous_ReliableMessageC2ERKS_
__ZN48CMsgSteamNetworkingP2PRendezvous_ReliableMessageC2Ev
__ZN48CMsgSteamNetworkingP2PRendezvous_ReliableMessageD0Ev
__ZN48CMsgSteamNetworkingP2PRendezvous_ReliableMessageD1Ev
__ZN48CMsgSteamNetworkingP2PRendezvous_ReliableMessageD2Ev
__ZN49CMsgSteamDatagramConnectionStatsP2PClientToRouter10SharedCtorEv
__ZN49CMsgSteamDatagramConnectionStatsP2PClientToRouter10SharedDtorEv
__ZN49CMsgSteamDatagramConnectionStatsP2PClientToRouter17default_instance_E
__ZN49CMsgSteamDatagramConnectionStatsP2PClientToRouter27MergePartialFromCodedStreamEPN6google8protobuf2io16CodedInputStreamE
__ZN49CMsgSteamDatagramConnectionStatsP2PClientToRouter5ClearEv
__ZN49CMsgSteamDatagramConnectionStatsP2PClientToRouter8CopyFromERKN6google8protobuf7MessageE
__ZN49CMsgSteamDatagramConnectionStatsP2PClientToRouter9MergeFromERKN6google8protobuf7MessageE
__ZN49CMsgSteamDatagramConnectionStatsP2PClientToRouter9MergeFromERKS_
__ZN49CMsgSteamDatagramConnectionStatsP2PClientToRouterC1Ev
__ZN49CMsgSteamDatagramConnectionStatsP2PClientToRouterC2Ev
__ZN49CMsgSteamDatagramConnectionStatsP2PClientToRouterD0Ev
__ZN49CMsgSteamDatagramConnectionStatsP2PClientToRouterD1Ev
__ZN49CMsgSteamDatagramConnectionStatsP2PClientToRouterD2Ev
__ZN49CMsgSteamDatagramConnectionStatsP2PRouterToClient10SharedCtorEv
__ZN49CMsgSteamDatagramConnectionStatsP2PRouterToClient10SharedDtorEv
__ZN49CMsgSteamDatagramConnectionStatsP2PRouterToClient17default_instance_E
__ZN49CMsgSteamDatagramConnectionStatsP2PRouterToClient27MergePartialFromCodedStreamEPN6google8protobuf2io16CodedInputStreamE
__ZN49CMsgSteamDatagramConnectionStatsP2PRouterToClient5ClearEv
__ZN49CMsgSteamDatagramConnectionStatsP2PRouterToClient8CopyFromERKN6google8protobuf7MessageE
__ZN49CMsgSteamDatagramConnectionStatsP2PRouterToClient9MergeFromERKN6google8protobuf7MessageE
__ZN49CMsgSteamDatagramConnectionStatsP2PRouterToClient9MergeFromERKS_
__ZN49CMsgSteamDatagramConnectionStatsP2PRouterToClientC1Ev
__ZN49CMsgSteamDatagramConnectionStatsP2PRouterToClientC2Ev
__ZN49CMsgSteamDatagramConnectionStatsP2PRouterToClientD0Ev
__ZN49CMsgSteamDatagramConnectionStatsP2PRouterToClientD1Ev
__ZN49CMsgSteamDatagramConnectionStatsP2PRouterToClientD2Ev
__ZN49CMsgSteamDatagramSignedGameCoordinatorServerLogin10SharedCtorEv
__ZN49CMsgSteamDatagramSignedGameCoordinatorServerLogin10SharedDtorEv
__ZN49CMsgSteamDatagramSignedGameCoordinatorServerLogin17default_instance_E
__ZN49CMsgSteamDatagramSignedGameCoordinatorServerLogin27MergePartialFromCodedStreamEPN6google8protobuf2io16CodedInputStreamE
__ZN49CMsgSteamDatagramSignedGameCoordinatorServerLogin5ClearEv
__ZN49CMsgSteamDatagramSignedGameCoordinatorServerLogin8CopyFromERKN6google8protobuf7MessageE
__ZN49CMsgSteamDatagramSignedGameCoordinatorServerLogin9MergeFromERKN6google8protobuf7MessageE
__ZN49CMsgSteamDatagramSignedGameCoordinatorServerLogin9MergeFromERKS_
__ZN49CMsgSteamDatagramSignedGameCoordinatorServerLoginC2Ev
__ZN49CMsgSteamDatagramSignedGameCoordinatorServerLoginD0Ev
__ZN49CMsgSteamDatagramSignedGameCoordinatorServerLoginD1Ev
__ZN49CMsgSteamNetworkingP2PRendezvous_ConnectionClosed10SharedCtorEv
__ZN49CMsgSteamNetworkingP2PRendezvous_ConnectionClosed10SharedDtorEv
__ZN49CMsgSteamNetworkingP2PRendezvous_ConnectionClosed17default_instance_E
__ZN49CMsgSteamNetworkingP2PRendezvous_ConnectionClosed27MergePartialFromCodedStreamEPN6google8protobuf2io16CodedInputStreamE
__ZN49CMsgSteamNetworkingP2PRendezvous_ConnectionClosed5ClearEv
__ZN49CMsgSteamNetworkingP2PRendezvous_ConnectionClosed8CopyFromERKN6google8protobuf7MessageE
__ZN49CMsgSteamNetworkingP2PRendezvous_ConnectionClosed9MergeFromERKN6google8protobuf7MessageE
__ZN49CMsgSteamNetworkingP2PRendezvous_ConnectionClosed9MergeFromERKS_
__ZN49CMsgSteamNetworkingP2PRendezvous_ConnectionClosedC1Ev
__ZN49CMsgSteamNetworkingP2PRendezvous_ConnectionClosedC2Ev
__ZN49CMsgSteamNetworkingP2PRendezvous_ConnectionClosedD0Ev
__ZN49CMsgSteamNetworkingP2PRendezvous_ConnectionClosedD1Ev
__ZN4vstd12small_vectorIN25SteamNetworkingSocketsLib15SSNPSenderState13PriorityClassELi4EE5clearEv
__ZN4vstd12small_vectorIN25SteamNetworkingSocketsLib15SSNPSenderState13PriorityClassELi4EE6resizeEm
__ZN4vstd12small_vectorIN25SteamNetworkingSocketsLib15SSNPSenderState13PriorityClassELi4EE7reserveEm
__ZN4vstd12small_vectorIN25SteamNetworkingSocketsLib17SNPEncodedSegmentELi16EE5clearEv
__ZN4vstd12small_vectorIN25SteamNetworkingSocketsLib17SNPEncodedSegmentELi16EE6resizeEm
__ZN4vstd12small_vectorIN25SteamNetworkingSocketsLib17SNPEncodedSegmentELi16EE7reserveEm
__ZN4vstd12small_vectorIN25SteamNetworkingSocketsLib19SNPSegmentCollectorILb0ELb0EE10TaggedLaneELi3EE5clearEv
__ZN4vstd12small_vectorIN25SteamNetworkingSocketsLib19SNPSegmentCollectorILb0ELb0EE10TaggedLaneELi3EE6resizeEm
__ZN4vstd12small_vectorIN25SteamNetworkingSocketsLib19SNPSegmentCollectorILb0ELb0EE10TaggedLaneELi3EE7reserveEm
__ZN4vstd12small_vectorIN25SteamNetworkingSocketsLib19SNPSegmentCollectorILb1ELb0EE10TaggedLaneELi3EE5clearEv
__ZN4vstd12small_vectorIN25SteamNetworkingSocketsLib19SNPSegmentCollectorILb1ELb0EE10TaggedLaneELi3EE6resizeEm
__ZN4vstd12small_vectorIN25SteamNetworkingSocketsLib19SNPSegmentCollectorILb1ELb0EE10TaggedLaneELi3EE7reserveEm
__ZN4vstd12small_vectorIN25SteamNetworkingSocketsLib9PacketAckELi32EE5clearEv
__ZN4vstd12small_vectorIN25SteamNetworkingSocketsLib9PacketAckELi32EE6resizeEm
__ZN4vstd12small_vectorIN25SteamNetworkingSocketsLib9PacketAckELi32EE7reserveEm
__ZN4vstd12small_vectorIPN25SteamNetworkingSocketsLib27CConnectionTransportP2PBaseELi3EE5clearEv
__ZN4vstd12small_vectorIPN25SteamNetworkingSocketsLib27CConnectionTransportP2PBaseELi3EE7reserveEm
__ZN4vstd12small_vectorIPN25SteamNetworkingSocketsLib27CConnectionTransportP2PBaseELi3EE9push_backERKS3_
__ZN4vstd12small_vectorIPN25SteamNetworkingSocketsLib27CSteamNetworkConnectionBaseELi2EE5clearEv
__ZN4vstd12small_vectorIPN25SteamNetworkingSocketsLib27CSteamNetworkConnectionBaseELi2EE7reserveEm
__ZN4vstd12small_vectorIPN25SteamNetworkingSocketsLib27CSteamNetworkConnectionBaseELi2EE9push_backERKS3_
__ZN4vstd12small_vectorIiLi4EE5clearEv
__ZN4vstd12small_vectorIiLi4EE7reserveEm
__ZN4vstd12small_vectorIiLi4EE9push_backERKi
__ZN4vstd12small_vectorIjLi8EE5clearEv
__ZN4vstd12small_vectorIjLi8EE6assignEPKjS3_
__ZN4vstd12small_vectorIjLi8EE7reserveEm
__ZN4vstd12small_vectorIjLi8EE9push_backERKj
__ZN4vstd12small_vectorIjLi8EEC2ERKS1_
__ZN4vstd12small_vectorIjLi8EEaSEOS1_
__ZN4vstd12small_vectorItLi2EE5clearEv
__ZN4vstd12small_vectorItLi2EE7reserveEm
__ZN4vstd12small_vectorItLi2EE9push_backERKt
__ZN4vstd12small_vectorItLi2EEC2ERKS1_
__ZN51CMsgSteamNetworkingP2PRendezvous_ApplicationMessage10SharedCtorEv
__ZN51CMsgSteamNetworkingP2PRendezvous_ApplicationMessage10SharedDtorEv
__ZN51CMsgSteamNetworkingP2PRendezvous_ApplicationMessage17default_instance_E
__ZN51CMsgSteamNetworkingP2PRendezvous_ApplicationMessage27MergePartialFromCodedStreamEPN6google8protobuf2io16CodedInputStreamE
__ZN51CMsgSteamNetworkingP2PRendezvous_ApplicationMessage5ClearEv
__ZN51CMsgSteamNetworkingP2PRendezvous_ApplicationMessage8CopyFromERKN6google8protobuf7MessageE
__ZN51CMsgSteamNetworkingP2PRendezvous_ApplicationMessage9MergeFromERKN6google8protobuf7MessageE
__ZN51CMsgSteamNetworkingP2PRendezvous_ApplicationMessage9MergeFromERKS_
__ZN51CMsgSteamNetworkingP2PRendezvous_ApplicationMessageC1Ev
__ZN51CMsgSteamNetworkingP2PRendezvous_ApplicationMessageC2Ev
__ZN51CMsgSteamNetworkingP2PRendezvous_ApplicationMessageD0Ev
__ZN51CMsgSteamNetworkingP2PRendezvous_ApplicationMessageD1Ev
__ZN52CMsgSteamDatagramClientSwitchedPrimary_RouterQuality17default_instance_E
__ZN52CMsgSteamDatagramClientSwitchedPrimary_RouterQuality27MergePartialFromCodedStreamEPN6google8protobuf2io16CodedInputStreamE
__ZN52CMsgSteamDatagramClientSwitchedPrimary_RouterQuality5ClearEv
__ZN52CMsgSteamDatagramClientSwitchedPrimary_RouterQuality8CopyFromERKN6google8protobuf7MessageE
__ZN52CMsgSteamDatagramClientSwitchedPrimary_RouterQuality9MergeFromERKN6google8protobuf7MessageE
__ZN52CMsgSteamDatagramClientSwitchedPrimary_RouterQuality9MergeFromERKS_
__ZN52CMsgSteamDatagramClientSwitchedPrimary_RouterQualityC1Ev
__ZN52CMsgSteamDatagramClientSwitchedPrimary_RouterQualityC2Ev
__ZN52CMsgSteamDatagramClientSwitchedPrimary_RouterQualityD0Ev
__ZN52CMsgSteamDatagramClientSwitchedPrimary_RouterQualityD1Ev
__ZN53CMsgSteamDatagramClientPingSampleReply_POP_AltAddress10SharedCtorEv
__ZN53CMsgSteamDatagramClientPingSampleReply_POP_AltAddress10SharedDtorEv
__ZN53CMsgSteamDatagramClientPingSampleReply_POP_AltAddress17default_instance_E
__ZN53CMsgSteamDatagramClientPingSampleReply_POP_AltAddress27MergePartialFromCodedStreamEPN6google8protobuf2io16CodedInputStreamE
__ZN53CMsgSteamDatagramClientPingSampleReply_POP_AltAddress5ClearEv
__ZN53CMsgSteamDatagramClientPingSampleReply_POP_AltAddress8CopyFromERKN6google8protobuf7MessageE
__ZN53CMsgSteamDatagramClientPingSampleReply_POP_AltAddress9MergeFromERKN6google8protobuf7MessageE
__ZN53CMsgSteamDatagramClientPingSampleReply_POP_AltAddress9MergeFromERKS_
__ZN53CMsgSteamDatagramClientPingSampleReply_POP_AltAddressC2Ev
__ZN53CMsgSteamDatagramClientPingSampleReply_POP_AltAddressD0Ev
__ZN53CMsgSteamDatagramClientPingSampleReply_POP_AltAddressD1Ev
__ZN55CMsgSteamDatagramClientPingSampleReply_LegacyDataCenter17default_instance_E
__ZN55CMsgSteamDatagramClientPingSampleReply_LegacyDataCenter27MergePartialFromCodedStreamEPN6google8protobuf2io16CodedInputStreamE
__ZN55CMsgSteamDatagramClientPingSampleReply_LegacyDataCenter5ClearEv
__ZN55CMsgSteamDatagramClientPingSampleReply_LegacyDataCenter8CopyFromERKN6google8protobuf7MessageE
__ZN55CMsgSteamDatagramClientPingSampleReply_LegacyDataCenter9MergeFromERKN6google8protobuf7MessageE
__ZN55CMsgSteamDatagramClientPingSampleReply_LegacyDataCenter9MergeFromERKS_
__ZN55CMsgSteamDatagramClientPingSampleReply_LegacyDataCenterC2Ev
__ZN55CMsgSteamDatagramClientPingSampleReply_LegacyDataCenterD0Ev
__ZN55CMsgSteamDatagramClientPingSampleReply_LegacyDataCenterD1Ev
__ZN6google8protobuf10ReflectionD2Ev
__ZN6google8protobuf10SimpleDtoaEd
__ZN6google8protobuf10SimpleFtoaEf
__ZN6google8protobuf10SimpleItoaEi
__ZN6google8protobuf10SimpleItoaEj
__ZN6google8protobuf10SimpleItoaEx
__ZN6google8protobuf10SimpleItoaEy
__ZN6google8protobuf10TextFormat13ParseInfoTree12CreateNestedEPKNS0_15FieldDescriptorE
__ZN6google8protobuf10TextFormat13ParseInfoTree14RecordLocationEPKNS0_15FieldDescriptorENS1_13ParseLocationE
__ZN6google8protobuf10TextFormat13PrintToStringERKNS0_7MessageEPNSt3__112basic_stringIcNS5_11char_traitsIcEENS5_9allocatorIcEEEE
__ZN6google8protobuf10TextFormat17FieldValuePrinterD0Ev
__ZN6google8protobuf10TextFormat17FieldValuePrinterD1Ev
__ZN6google8protobuf10TextFormat23PrintFieldValueToStringERKNS0_7MessageEPKNS0_15FieldDescriptorEiPNSt3__112basic_stringIcNS8_11char_traitsIcEENS8_9allocatorIcEEEE
__ZN6google8protobuf10TextFormat6FinderD2Ev
__ZN6google8protobuf10TextFormat6Parser10ParserImpl10TryConsumeERKNSt3__112basic_stringIcNS4_11char_traitsIcEENS4_9allocatorIcEEEE
__ZN6google8protobuf10TextFormat6Parser10ParserImpl11ReportErrorEiiRKNSt3__112basic_stringIcNS4_11char_traitsIcEENS4_9allocatorIcEEEE
__ZN6google8protobuf10TextFormat6Parser10ParserImpl12ConsumeFieldEPNS0_7MessageE
__ZN6google8protobuf10TextFormat6Parser10ParserImpl13ConsumeDoubleEPd
__ZN6google8protobuf10TextFormat6Parser10ParserImpl13ConsumeStringEPNSt3__112basic_stringIcNS4_11char_traitsIcEENS4_9allocatorIcEEEE
__ZN6google8protobuf10TextFormat6Parser10ParserImpl13ReportWarningEiiRKNSt3__112basic_stringIcNS4_11char_traitsIcEENS4_9allocatorIcEEEE
__ZN6google8protobuf10TextFormat6Parser10ParserImpl14ConsumeMessageEPNS0_7MessageENSt3__112basic_stringIcNS6_11char_traitsIcEENS6_9allocatorIcEEEE
__ZN6google8protobuf10TextFormat6Parser10ParserImpl14SkipFieldValueEv
__ZN6google8protobuf10TextFormat6Parser10ParserImpl16SkipFieldMessageEv
__ZN6google8protobuf10TextFormat6Parser10ParserImpl17ConsumeFieldValueEPNS0_7MessageEPKNS0_10ReflectionEPKNS0_15FieldDescriptorE
__ZN6google8protobuf10TextFormat6Parser10ParserImpl17ConsumeIdentifierEPNSt3__112basic_stringIcNS4_11char_traitsIcEENS4_9allocatorIcEEEE
__ZN6google8protobuf10TextFormat6Parser10ParserImpl19ConsumeFieldMessageEPNS0_7MessageEPKNS0_10ReflectionEPKNS0_15FieldDescriptorE
__ZN6google8protobuf10TextFormat6Parser10ParserImpl20ConsumeSignedIntegerEPxy
__ZN6google8protobuf10TextFormat6Parser10ParserImpl20ParserErrorCollector10AddWarningEiiRKNSt3__112basic_stringIcNS5_11char_traitsIcEENS5_9allocatorIcEEEE
__ZN6google8protobuf10TextFormat6Parser10ParserImpl20ParserErrorCollector8AddErrorEiiRKNSt3__112basic_stringIcNS5_11char_traitsIcEENS5_9allocatorIcEEEE
__ZN6google8protobuf10TextFormat6Parser10ParserImpl20ParserErrorCollectorD0Ev
__ZN6google8protobuf10TextFormat6Parser10ParserImpl20ParserErrorCollectorD1Ev
__ZN6google8protobuf10TextFormat6Parser10ParserImpl22ConsumeUnsignedIntegerEPyy
__ZN6google8protobuf10TextFormat6Parser10ParserImpl29ConsumeUnsignedDecimalIntegerEPyy
__ZN6google8protobuf10TextFormat6Parser10ParserImpl7ConsumeERKNSt3__112basic_stringIcNS4_11char_traitsIcEENS4_9allocatorIcEEEE
__ZN6google8protobuf10TextFormat6Parser10ParserImpl9LookingAtERKNSt3__112basic_stringIcNS4_11char_traitsIcEENS4_9allocatorIcEEEE
__ZN6google8protobuf10TextFormat6Parser10ParserImpl9SkipFieldEv
__ZN6google8protobuf10TextFormat6Parser10ParserImplC2EPKNS0_10DescriptorEPNS0_2io19ZeroCopyInputStreamEPNS7_14ErrorCollectorEPNS1_6FinderEPNS1_13ParseInfoTreeENS3_23SingularOverwritePolicyEbbbbb
__ZN6google8protobuf10TextFormat6Parser14MergeUsingImplEPNS0_2io19ZeroCopyInputStreamEPNS0_7MessageEPNS2_10ParserImplE
__ZN6google8protobuf10TextFormat6Parser15ParseFromStringERKNSt3__112basic_stringIcNS3_11char_traitsIcEENS3_9allocatorIcEEEEPNS0_7MessageE
__ZN6google8protobuf10TextFormat6Parser5ParseEPNS0_2io19ZeroCopyInputStreamEPNS0_7MessageE
__ZN6google8protobuf10TextFormat6ParserC1Ev
__ZN6google8protobuf10TextFormat6ParserD1Ev
__ZN6google8protobuf10TextFormat7Printer13TextGenerator5PrintEPKci
__ZN6google8protobuf10TextFormat7Printer13TextGenerator5WriteEPKci
__ZN6google8protobuf10TextFormat7Printer13TextGenerator7OutdentEv
__ZN6google8protobuf10TextFormat7Printer13TextGeneratorC2EPNS0_2io20ZeroCopyOutputStreamEi
__ZN6google8protobuf10TextFormat7Printer13TextGeneratorD2Ev
__ZN6google8protobuf10TextFormat7Printer24SetUseUtf8StringEscapingEb
__ZN6google8protobuf10TextFormat7PrinterC1Ev
__ZN6google8protobuf10TextFormat7PrinterC2Ev
__ZN6google8protobuf10TextFormat7PrinterD1Ev
__ZN6google8protobuf10TextFormat7PrinterD2Ev
__ZN6google8protobuf11EnumOptions16default_instanceEv
__ZN6google8protobuf11EnumOptions17default_instance_E
__ZN6google8protobuf11EnumOptions27MergePartialFromCodedStreamEPNS0_2io16CodedInputStreamE
__ZN6google8protobuf11EnumOptions5ClearEv
__ZN6google8protobuf11EnumOptions8CopyFromERKNS0_7MessageE
__ZN6google8protobuf11EnumOptions8CopyFromERKS1_
__ZN6google8protobuf11EnumOptions9MergeFromERKNS0_7MessageE
__ZN6google8protobuf11EnumOptions9MergeFromERKS1_
__ZN6google8protobuf11EnumOptionsC1Ev
__ZN6google8protobuf11EnumOptionsC2Ev
__ZN6google8protobuf11EnumOptionsD0Ev
__ZN6google8protobuf11EnumOptionsD1Ev
__ZN6google8protobuf11EnumOptionsD2Ev
__ZN6google8protobuf11FileOptions10SharedCtorEv
__ZN6google8protobuf11FileOptions10SharedDtorEv
__ZN6google8protobuf11FileOptions16default_instanceEv
__ZN6google8protobuf11FileOptions17default_instance_E
__ZN6google8protobuf11FileOptions27MergePartialFromCodedStreamEPNS0_2io16CodedInputStreamE
__ZN6google8protobuf11FileOptions5ClearEv
__ZN6google8protobuf11FileOptions8CopyFromERKNS0_7MessageE
__ZN6google8protobuf11FileOptions8CopyFromERKS1_
__ZN6google8protobuf11FileOptions9MergeFromERKNS0_7MessageE
__ZN6google8protobuf11FileOptions9MergeFromERKS1_
__ZN6google8protobuf11FileOptionsC1Ev
__ZN6google8protobuf11FileOptionsC2Ev
__ZN6google8protobuf11FileOptionsD0Ev
__ZN6google8protobuf11FileOptionsD1Ev
__ZN6google8protobuf11FileOptionsD2Ev
__ZN6google8protobuf11MessageLite14ParseFromArrayEPKvi
__ZN6google8protobuf11MessageLite15ParseFromStringERKNSt3__112basic_stringIcNS2_11char_traitsIcEENS2_9allocatorIcEEEE
__ZN6google8protobuf11MessageLiteD2Ev
__ZN6google8protobuf11safe_strtofEPKcPf
__ZN6google8protobuf12FieldOptions10SharedCtorEv
__ZN6google8protobuf12FieldOptions10SharedDtorEv
__ZN6google8protobuf12FieldOptions16default_instanceEv
__ZN6google8protobuf12FieldOptions17default_instance_E
__ZN6google8protobuf12FieldOptions27MergePartialFromCodedStreamEPNS0_2io16CodedInputStreamE
__ZN6google8protobuf12FieldOptions5ClearEv
__ZN6google8protobuf12FieldOptions8CopyFromERKNS0_7MessageE
__ZN6google8protobuf12FieldOptions8CopyFromERKS1_
__ZN6google8protobuf12FieldOptions9MergeFromERKNS0_7MessageE
__ZN6google8protobuf12FieldOptions9MergeFromERKS1_
__ZN6google8protobuf12FieldOptionsC1Ev
__ZN6google8protobuf12FieldOptionsC2Ev
__ZN6google8protobuf12FieldOptionsD0Ev
__ZN6google8protobuf12FieldOptionsD1Ev
__ZN6google8protobuf12FieldOptionsD2Ev
__ZN6google8protobuf12StringPrintfEPKcz
__ZN6google8protobuf12UnknownField6DeleteEv
__ZN6google8protobuf12UnknownField8DeepCopyEv
__ZN6google8protobuf12_GLOBAL__N_115RetrieveOptionsEiRKNS0_7MessageEPNSt3__16vectorINS5_12basic_stringIcNS5_11char_traitsIcEENS5_9allocatorIcEEEENSA_ISC_EEEE
__ZN6google8protobuf12_GLOBAL__N_115generated_pool_E
__ZN6google8protobuf12_GLOBAL__N_117FormatLineOptionsEiRKNS0_7MessageEPNSt3__112basic_stringIcNS5_11char_traitsIcEENS5_9allocatorIcEEEE
__ZN6google8protobuf12_GLOBAL__N_118OptionsToInterpretC1ERKNSt3__112basic_stringIcNS3_11char_traitsIcEENS3_9allocatorIcEEEESB_PKNS0_7MessageEPSC_
__ZN6google8protobuf12_GLOBAL__N_119DeleteGeneratedPoolEv
__ZN6google8protobuf12_GLOBAL__N_119generated_database_E
__ZN6google8protobuf12_GLOBAL__N_120generated_pool_init_E
__ZN6google8protobuf12_GLOBAL__N_122FormatBracketedOptionsEiRKNS0_7MessageEPNSt3__112basic_stringIcNS5_11char_traitsIcEENS5_9allocatorIcEEEE
__ZN6google8protobuf12_GLOBAL__N_122protobuf_RegisterTypesERKNSt3__112basic_stringIcNS2_11char_traitsIcEENS2_9allocatorIcEEEE
__ZN6google8protobuf12_GLOBAL__N_123AggregateErrorCollector10AddWarningEiiRKNSt3__112basic_stringIcNS3_11char_traitsIcEENS3_9allocatorIcEEEE
__ZN6google8protobuf12_GLOBAL__N_123AggregateErrorCollector8AddErrorEiiRKNSt3__112basic_stringIcNS3_11char_traitsIcEENS3_9allocatorIcEEEE
__ZN6google8protobuf12_GLOBAL__N_123AggregateErrorCollectorD0Ev
__ZN6google8protobuf12_GLOBAL__N_123AggregateErrorCollectorD1Ev
__ZN6google8protobuf12_GLOBAL__N_123EnumOptions_descriptor_E
__ZN6google8protobuf12_GLOBAL__N_123EnumOptions_reflection_E
__ZN6google8protobuf12_GLOBAL__N_123FileOptions_descriptor_E
__ZN6google8protobuf12_GLOBAL__N_123FileOptions_reflection_E
__ZN6google8protobuf12_GLOBAL__N_123GeneratedMessageFactory12GetPrototypeEPKNS0_10DescriptorE
__ZN6google8protobuf12_GLOBAL__N_123GeneratedMessageFactoryD0Ev
__ZN6google8protobuf12_GLOBAL__N_123GeneratedMessageFactoryD1Ev
__ZN6google8protobuf12_GLOBAL__N_124ByteSizeConsistencyErrorEiii
__ZN6google8protobuf12_GLOBAL__N_124FieldOptions_descriptor_E
__ZN6google8protobuf12_GLOBAL__N_124FieldOptions_reflection_E
__ZN6google8protobuf12_GLOBAL__N_125MethodOptions_descriptor_E
__ZN6google8protobuf12_GLOBAL__N_125MethodOptions_reflection_E
__ZN6google8protobuf12_GLOBAL__N_126InitializationErrorMessageEPKcRKNS0_11MessageLiteE
__ZN6google8protobuf12_GLOBAL__N_126MessageOptions_descriptor_E
__ZN6google8protobuf12_GLOBAL__N_126MessageOptions_reflection_E
__ZN6google8protobuf12_GLOBAL__N_126ServiceOptions_descriptor_E
__ZN6google8protobuf12_GLOBAL__N_126ServiceOptions_reflection_E
__ZN6google8protobuf12_GLOBAL__N_126SourceCodeInfo_descriptor_E
__ZN6google8protobuf12_GLOBAL__N_126SourceCodeInfo_reflection_E
__ZN6google8protobuf12_GLOBAL__N_126generated_message_factory_E
__ZN6google8protobuf12_GLOBAL__N_127DescriptorProto_descriptor_E
__ZN6google8protobuf12_GLOBAL__N_127DescriptorProto_reflection_E
__ZN6google8protobuf12_GLOBAL__N_127InitGeneratedMessageFactoryEv
__ZN6google8protobuf12_GLOBAL__N_128EnumValueOptions_descriptor_E
__ZN6google8protobuf12_GLOBAL__N_128EnumValueOptions_reflection_E
__ZN6google8protobuf12_GLOBAL__N_129FieldValuePrinterUtf8EscapingD0Ev
__ZN6google8protobuf12_GLOBAL__N_129FieldValuePrinterUtf8EscapingD1Ev
__ZN6google8protobuf12_GLOBAL__N_129FileDescriptorSet_descriptor_E
__ZN6google8protobuf12_GLOBAL__N_129FileDescriptorSet_reflection_E
__ZN6google8protobuf12_GLOBAL__N_130FieldOptions_CType_descriptor_E
__ZN6google8protobuf12_GLOBAL__N_131EnumDescriptorProto_descriptor_E
__ZN6google8protobuf12_GLOBAL__N_131EnumDescriptorProto_reflection_E
__ZN6google8protobuf12_GLOBAL__N_131FileDescriptorProto_descriptor_E
__ZN6google8protobuf12_GLOBAL__N_131FileDescriptorProto_reflection_E
__ZN6google8protobuf12_GLOBAL__N_131ShutdownGeneratedMessageFactoryEv
__ZN6google8protobuf12_GLOBAL__N_131UninterpretedOption_descriptor_E
__ZN6google8protobuf12_GLOBAL__N_131UninterpretedOption_reflection_E
__ZN6google8protobuf12_GLOBAL__N_132FieldDescriptorProto_descriptor_E
__ZN6google8protobuf12_GLOBAL__N_132FieldDescriptorProto_reflection_E
__ZN6google8protobuf12_GLOBAL__N_132OneofDescriptorProto_descriptor_E
__ZN6google8protobuf12_GLOBAL__N_132OneofDescriptorProto_reflection_E
__ZN6google8protobuf12_GLOBAL__N_132protobuf_AssignDescriptors_once_E
__ZN6google8protobuf12_GLOBAL__N_133MethodDescriptorProto_descriptor_E
__ZN6google8protobuf12_GLOBAL__N_133MethodDescriptorProto_reflection_E
__ZN6google8protobuf12_GLOBAL__N_134ServiceDescriptorProto_descriptor_E
__ZN6google8protobuf12_GLOBAL__N_134ServiceDescriptorProto_reflection_E
__ZN6google8protobuf12_GLOBAL__N_135SourceCodeInfo_Location_descriptor_E
__ZN6google8protobuf12_GLOBAL__N_135SourceCodeInfo_Location_reflection_E
__ZN6google8protobuf12_GLOBAL__N_136EnumValueDescriptorProto_descriptor_E
__ZN6google8protobuf12_GLOBAL__N_136EnumValueDescriptorProto_reflection_E
__ZN6google8protobuf12_GLOBAL__N_136FileOptions_OptimizeMode_descriptor_E
__ZN6google8protobuf12_GLOBAL__N_136generated_message_factory_once_init_E
__ZN6google8protobuf12_GLOBAL__N_137FieldDescriptorProto_Type_descriptor_E
__ZN6google8protobuf12_GLOBAL__N_138FieldDescriptorProto_Label_descriptor_E
__ZN6google8protobuf12_GLOBAL__N_140UninterpretedOption_NamePart_descriptor_E
__ZN6google8protobuf12_GLOBAL__N_140UninterpretedOption_NamePart_reflection_E
__ZN6google8protobuf12_GLOBAL__N_142DescriptorProto_ExtensionRange_descriptor_E
__ZN6google8protobuf12_GLOBAL__N_142DescriptorProto_ExtensionRange_reflection_E
__ZN6google8protobuf12_GLOBAL__N_1L11kNullSymbolE
__ZN6google8protobuf12_GLOBAL__N_1L17InitGeneratedPoolEv
__ZN6google8protobuf13FindPtrOrNullINS0_8hash_mapINSt3__14pairIPKvPKcEEPKNS0_15FieldDescriptorENS0_12_GLOBAL__N_121PointerStringPairHashENSD_22PointerStringPairEqualEEEEENT_10value_type11second_typeERKSH_RKNSH_10value_type10first_typeE
__ZN6google8protobuf13FloatToBufferEfPc
__ZN6google8protobuf13MethodOptions16default_instanceEv
__ZN6google8protobuf13MethodOptions17default_instance_E
__ZN6google8protobuf13MethodOptions27MergePartialFromCodedStreamEPNS0_2io16CodedInputStreamE
__ZN6google8protobuf13MethodOptions5ClearEv
__ZN6google8protobuf13MethodOptions8CopyFromERKNS0_7MessageE
__ZN6google8protobuf13MethodOptions8CopyFromERKS1_
__ZN6google8protobuf13MethodOptions9MergeFromERKNS0_7MessageE
__ZN6google8protobuf13MethodOptions9MergeFromERKS1_
__ZN6google8protobuf13MethodOptionsC1Ev
__ZN6google8protobuf13MethodOptionsC2Ev
__ZN6google8protobuf13MethodOptionsD0Ev
__ZN6google8protobuf13MethodOptionsD1Ev
__ZN6google8protobuf13MethodOptionsD2Ev
__ZN6google8protobuf13RepeatedFieldIbE10RemoveLastEv
__ZN6google8protobuf13RepeatedFieldIbE3AddERKb
__ZN6google8protobuf13RepeatedFieldIbE3SetEiRKb
__ZN6google8protobuf13RepeatedFieldIbE7ReserveEi
__ZN6google8protobuf13RepeatedFieldIbE9MergeFromERKS2_
__ZN6google8protobuf13RepeatedFieldIdE10RemoveLastEv
__ZN6google8protobuf13RepeatedFieldIdE3AddERKd
__ZN6google8protobuf13RepeatedFieldIdE3SetEiRKd
__ZN6google8protobuf13RepeatedFieldIdE7ReserveEi
__ZN6google8protobuf13RepeatedFieldIdE9MergeFromERKS2_
__ZN6google8protobuf13RepeatedFieldIfE10RemoveLastEv
__ZN6google8protobuf13RepeatedFieldIfE3AddERKf
__ZN6google8protobuf13RepeatedFieldIfE3SetEiRKf
__ZN6google8protobuf13RepeatedFieldIfE7ReserveEi
__ZN6google8protobuf13RepeatedFieldIfE9MergeFromERKS2_
__ZN6google8protobuf13RepeatedFieldIiE10RemoveLastEv
__ZN6google8protobuf13RepeatedFieldIiE18AddAlreadyReservedERKi
__ZN6google8protobuf13RepeatedFieldIiE3AddERKi
__ZN6google8protobuf13RepeatedFieldIiE3SetEiRKi
__ZN6google8protobuf13RepeatedFieldIiE7ReserveEi
__ZN6google8protobuf13RepeatedFieldIiE9MergeFromERKS2_
__ZN6google8protobuf13RepeatedFieldIjE10RemoveLastEv
__ZN6google8protobuf13RepeatedFieldIjE3AddERKj
__ZN6google8protobuf13RepeatedFieldIjE3SetEiRKj
__ZN6google8protobuf13RepeatedFieldIjE7ReserveEi
__ZN6google8protobuf13RepeatedFieldIjE9MergeFromERKS2_
__ZN6google8protobuf13RepeatedFieldIxE10RemoveLastEv
__ZN6google8protobuf13RepeatedFieldIxE3AddERKx
__ZN6google8protobuf13RepeatedFieldIxE3SetEiRKx
__ZN6google8protobuf13RepeatedFieldIxE7ReserveEi
__ZN6google8protobuf13RepeatedFieldIxE9MergeFromERKS2_
__ZN6google8protobuf13RepeatedFieldIyE10RemoveLastEv
__ZN6google8protobuf13RepeatedFieldIyE3AddERKy
__ZN6google8protobuf13RepeatedFieldIyE3SetEiRKy
__ZN6google8protobuf13RepeatedFieldIyE7ReserveEi
__ZN6google8protobuf13RepeatedFieldIyE9MergeFromERKS2_
__ZN6google8protobuf13StringAppendFEPNSt3__112basic_stringIcNS1_11char_traitsIcEENS1_9allocatorIcEEEEPKcz
__ZN6google8protobuf13StringAppendVEPNSt3__112basic_stringIcNS1_11char_traitsIcEENS1_9allocatorIcEEEEPKcP13__va_list_tag
__ZN6google8protobuf14DescriptorPool14generated_poolEv
__ZN6google8protobuf14DescriptorPool24InternalAddGeneratedFileEPKvi
__ZN6google8protobuf14DescriptorPool6Tables10CheckPointC2EPKS2_
__ZN6google8protobuf14DescriptorPool6Tables12AddExtensionEPKNS0_15FieldDescriptorE
__ZN6google8protobuf14DescriptorPool6Tables13AddCheckpointEv
__ZN6google8protobuf14DescriptorPool6Tables13AllocateBytesEi
__ZN6google8protobuf14DescriptorPool6Tables14AllocateStringERKNSt3__112basic_stringIcNS3_11char_traitsIcEENS3_9allocatorIcEEEE
__ZN6google8protobuf14DescriptorPool6Tables15AllocateMessageINS0_11EnumOptionsEEEPT_S6_
__ZN6google8protobuf14DescriptorPool6Tables15AllocateMessageINS0_11FileOptionsEEEPT_S6_
__ZN6google8protobuf14DescriptorPool6Tables15AllocateMessageINS0_12FieldOptionsEEEPT_S6_
__ZN6google8protobuf14DescriptorPool6Tables15AllocateMessageINS0_13MethodOptionsEEEPT_S6_
__ZN6google8protobuf14DescriptorPool6Tables15AllocateMessageINS0_14MessageOptionsEEEPT_S6_
__ZN6google8protobuf14DescriptorPool6Tables15AllocateMessageINS0_14ServiceOptionsEEEPT_S6_
__ZN6google8protobuf14DescriptorPool6Tables15AllocateMessageINS0_14SourceCodeInfoEEEPT_S6_
__ZN6google8protobuf14DescriptorPool6Tables15AllocateMessageINS0_16EnumValueOptionsEEEPT_S6_
__ZN6google8protobuf14DescriptorPool6Tables16FindByNameHelperEPKS1_RKNSt3__112basic_stringIcNS5_11char_traitsIcEENS5_9allocatorIcEEEE
__ZN6google8protobuf14DescriptorPool6Tables18AllocateFileTablesEv
__ZN6google8protobuf14DescriptorPool6Tables19ClearLastCheckpointEv
__ZN6google8protobuf14DescriptorPool6Tables24RollbackToLastCheckpointEv
__ZN6google8protobuf14DescriptorPool6Tables7AddFileEPKNS0_14FileDescriptorE
__ZN6google8protobuf14DescriptorPool6Tables9AddSymbolERKNSt3__112basic_stringIcNS3_11char_traitsIcEENS3_9allocatorIcEEEENS0_12_GLOBAL__N_16SymbolE
__ZN6google8protobuf14DescriptorPool6TablesD2Ev
__ZN6google8protobuf14DescriptorPoolC2EPNS0_18DescriptorDatabaseEPNS1_14ErrorCollectorE
__ZN6google8protobuf14DescriptorPoolD2Ev
__ZN6google8protobuf14DoubleToBufferEdPc
__ZN6google8protobuf14DynamicMessage19CrossLinkPrototypesEv
__ZN6google8protobuf14DynamicMessage8TypeInfoD2Ev
__ZN6google8protobuf14DynamicMessageC2EPKNS1_8TypeInfoE
__ZN6google8protobuf14DynamicMessageD0Ev
__ZN6google8protobuf14DynamicMessageD1Ev
__ZN6google8protobuf14DynamicMessageD2Ev
__ZN6google8protobuf14FatalExceptionC2EPKciRKNSt3__112basic_stringIcNS4_11char_traitsIcEENS4_9allocatorIcEEEE
__ZN6google8protobuf14FatalExceptionD0Ev
__ZN6google8protobuf14FatalExceptionD1Ev
__ZN6google8protobuf14MessageFactory17generated_factoryEv
__ZN6google8protobuf14MessageFactory29InternalRegisterGeneratedFileEPKcPFvRKNSt3__112basic_stringIcNS4_11char_traitsIcEENS4_9allocatorIcEEEEE
__ZN6google8protobuf14MessageFactory32InternalRegisterGeneratedMessageEPKNS0_10DescriptorEPKNS0_7MessageE
__ZN6google8protobuf14MessageFactoryD2Ev
__ZN6google8protobuf14MessageOptions16default_instanceEv
__ZN6google8protobuf14MessageOptions17default_instance_E
__ZN6google8protobuf14MessageOptions27MergePartialFromCodedStreamEPNS0_2io16CodedInputStreamE
__ZN6google8protobuf14MessageOptions5ClearEv
__ZN6google8protobuf14MessageOptions8CopyFromERKNS0_7MessageE
__ZN6google8protobuf14MessageOptions8CopyFromERKS1_
__ZN6google8protobuf14MessageOptions9MergeFromERKNS0_7MessageE
__ZN6google8protobuf14MessageOptions9MergeFromERKS1_
__ZN6google8protobuf14MessageOptionsC1Ev
__ZN6google8protobuf14MessageOptionsC2Ev
__ZN6google8protobuf14MessageOptionsD0Ev
__ZN6google8protobuf14MessageOptionsD1Ev
__ZN6google8protobuf14MessageOptionsD2Ev
__ZN6google8protobuf14ServiceOptions16default_instanceEv
__ZN6google8protobuf14ServiceOptions17default_instance_E
__ZN6google8protobuf14ServiceOptions27MergePartialFromCodedStreamEPNS0_2io16CodedInputStreamE
__ZN6google8protobuf14ServiceOptions5ClearEv
__ZN6google8protobuf14ServiceOptions8CopyFromERKNS0_7MessageE
__ZN6google8protobuf14ServiceOptions8CopyFromERKS1_
__ZN6google8protobuf14ServiceOptions9MergeFromERKNS0_7MessageE
__ZN6google8protobuf14ServiceOptions9MergeFromERKS1_
__ZN6google8protobuf14ServiceOptionsC1Ev
__ZN6google8protobuf14ServiceOptionsC2Ev
__ZN6google8protobuf14ServiceOptionsD0Ev
__ZN6google8protobuf14ServiceOptionsD1Ev
__ZN6google8protobuf14ServiceOptionsD2Ev
__ZN6google8protobuf14SourceCodeInfo16default_instanceEv
__ZN6google8protobuf14SourceCodeInfo17default_instance_E
__ZN6google8protobuf14SourceCodeInfo27MergePartialFromCodedStreamEPNS0_2io16CodedInputStreamE
__ZN6google8protobuf14SourceCodeInfo5ClearEv
__ZN6google8protobuf14SourceCodeInfo8CopyFromERKNS0_7MessageE
__ZN6google8protobuf14SourceCodeInfo8CopyFromERKS1_
__ZN6google8protobuf14SourceCodeInfo9MergeFromERKNS0_7MessageE
__ZN6google8protobuf14SourceCodeInfo9MergeFromERKS1_
__ZN6google8protobuf14SourceCodeInfoC1Ev
__ZN6google8protobuf14SourceCodeInfoC2Ev
__ZN6google8protobuf14SourceCodeInfoD0Ev
__ZN6google8protobuf14SourceCodeInfoD1Ev
__ZN6google8protobuf15CEscapeInternalEPKciPcibb
__ZN6google8protobuf15DelocalizeRadixEPc
__ZN6google8protobuf15DescriptorProto10SharedCtorEv
__ZN6google8protobuf15DescriptorProto10SharedDtorEv
__ZN6google8protobuf15DescriptorProto17default_instance_E
__ZN6google8protobuf15DescriptorProto27MergePartialFromCodedStreamEPNS0_2io16CodedInputStreamE
__ZN6google8protobuf15DescriptorProto5ClearEv
__ZN6google8protobuf15DescriptorProto8CopyFromERKNS0_7MessageE
__ZN6google8protobuf15DescriptorProto9MergeFromERKNS0_7MessageE
__ZN6google8protobuf15DescriptorProto9MergeFromERKS1_
__ZN6google8protobuf15DescriptorProtoC2Ev
__ZN6google8protobuf15DescriptorProtoD0Ev
__ZN6google8protobuf15DescriptorProtoD1Ev
__ZN6google8protobuf15DescriptorProtoD2Ev
__ZN6google8protobuf15FieldDescriptor11kTypeToNameE
__ZN6google8protobuf15FieldDescriptor12kLabelToNameE
__ZN6google8protobuf15FieldDescriptor17kTypeToCppTypeMapE
__ZN6google8protobuf15STLDeleteValuesINSt3__13mapIPKNS0_15FieldDescriptorEPKNS0_10TextFormat17FieldValuePrinterENS2_4lessIS6_EENS2_9allocatorINS2_4pairIKS6_SA_EEEEEEEEvPT_
__ZN6google8protobuf15UnknownFieldSet10AddFixed32Eij
__ZN6google8protobuf15UnknownFieldSet10AddFixed64Eiy
__ZN6google8protobuf15UnknownFieldSet13ClearFallbackEv
__ZN6google8protobuf15UnknownFieldSet14ParseFromArrayEPKvi
__ZN6google8protobuf15UnknownFieldSet18AddLengthDelimitedEi
__ZN6google8protobuf15UnknownFieldSet20MergeFromCodedStreamEPNS0_2io16CodedInputStreamE
__ZN6google8protobuf15UnknownFieldSet20ParseFromCodedStreamEPNS0_2io16CodedInputStreamE
__ZN6google8protobuf15UnknownFieldSet23ParseFromZeroCopyStreamEPNS0_2io19ZeroCopyInputStreamE
__ZN6google8protobuf15UnknownFieldSet8AddFieldERKNS0_12UnknownFieldE
__ZN6google8protobuf15UnknownFieldSet8AddGroupEi
__ZN6google8protobuf15UnknownFieldSet9AddVarintEiy
__ZN6google8protobuf15UnknownFieldSet9MergeFromERKS1_
__ZN6google8protobuf15UnknownFieldSetC1Ev
__ZN6google8protobuf15UnknownFieldSetD1Ev
__ZN6google8protobuf15UnknownFieldSetD2Ev
__ZN6google8protobuf16EnumValueOptions16default_instanceEv
__ZN6google8protobuf16EnumValueOptions17default_instance_E
__ZN6google8protobuf16EnumValueOptions27MergePartialFromCodedStreamEPNS0_2io16CodedInputStreamE
__ZN6google8protobuf16EnumValueOptions5ClearEv
__ZN6google8protobuf16EnumValueOptions8CopyFromERKNS0_7MessageE
__ZN6google8protobuf16EnumValueOptions8CopyFromERKS1_
__ZN6google8protobuf16EnumValueOptions9MergeFromERKNS0_7MessageE
__ZN6google8protobuf16EnumValueOptions9MergeFromERKS1_
__ZN6google8protobuf16EnumValueOptionsC1Ev
__ZN6google8protobuf16EnumValueOptionsC2Ev
__ZN6google8protobuf16EnumValueOptionsD0Ev
__ZN6google8protobuf16EnumValueOptionsD1Ev
__ZN6google8protobuf16EnumValueOptionsD2Ev
__ZN6google8protobuf16RepeatedPtrFieldINS0_19UninterpretedOptionEE3AddEv
__ZN6google8protobuf16RepeatedPtrFieldINSt3__112basic_stringIcNS2_11char_traitsIcEENS2_9allocatorIcEEEEED2Ev
__ZN6google8protobuf17DescriptorBuilder10AddPackageERKNSt3__112basic_stringIcNS2_11char_traitsIcEENS2_9allocatorIcEEEERKNS0_7MessageEPKNS0_14FileDescriptorE
__ZN6google8protobuf17DescriptorBuilder10AddWarningERKNSt3__112basic_stringIcNS2_11char_traitsIcEENS2_9allocatorIcEEEERKNS0_7MessageENS0_14DescriptorPool14ErrorCollector13ErrorLocationESA_
__ZN6google8protobuf17DescriptorBuilder10BuildOneofERKNS0_20OneofDescriptorProtoEPNS0_10DescriptorEPNS0_15OneofDescriptorE
__ZN6google8protobuf17DescriptorBuilder10FindSymbolERKNSt3__112basic_stringIcNS2_11char_traitsIcEENS2_9allocatorIcEEEE
__ZN6google8protobuf17DescriptorBuilder11BuildMethodERKNS0_21MethodDescriptorProtoEPKNS0_17ServiceDescriptorEPNS0_16MethodDescriptorE
__ZN6google8protobuf17DescriptorBuilder11IsInPackageEPKNS0_14FileDescriptorERKNSt3__112basic_stringIcNS5_11char_traitsIcEENS5_9allocatorIcEEEE
__ZN6google8protobuf17DescriptorBuilder12BuildMessageERKNS0_15DescriptorProtoEPKNS0_10DescriptorEPS5_
__ZN6google8protobuf17DescriptorBuilder12BuildServiceERKNS0_22ServiceDescriptorProtoEPKvPNS0_17ServiceDescriptorE
__ZN6google8protobuf17DescriptorBuilder12LookupSymbolERKNSt3__112basic_stringIcNS2_11char_traitsIcEENS2_9allocatorIcEEEESA_NS1_15PlaceholderTypeENS1_11ResolveModeE
__ZN6google8protobuf17DescriptorBuilder13CrossLinkEnumEPNS0_14EnumDescriptorERKNS0_19EnumDescriptorProtoE
__ZN6google8protobuf17DescriptorBuilder13CrossLinkFileEPNS0_14FileDescriptorERKNS0_19FileDescriptorProtoE
__ZN6google8protobuf17DescriptorBuilder14AddImportErrorERKNS0_19FileDescriptorProtoEi
__ZN6google8protobuf17DescriptorBuilder14BuildEnumValueERKNS0_24EnumValueDescriptorProtoEPKNS0_14EnumDescriptorEPNS0_19EnumValueDescriptorE
__ZN6google8protobuf17DescriptorBuilder14CrossLinkFieldEPNS0_15FieldDescriptorERKNS0_20FieldDescriptorProtoE
__ZN6google8protobuf17DescriptorBuilder14ValidateMapKeyEPNS0_15FieldDescriptorERKNS0_20FieldDescriptorProtoE
__ZN6google8protobuf17DescriptorBuilder15AllocateOptionsERKNS0_11FileOptionsEPNS0_14FileDescriptorE
__ZN6google8protobuf17DescriptorBuilder15CrossLinkMethodEPNS0_16MethodDescriptorERKNS0_21MethodDescriptorProtoE
__ZN6google8protobuf17DescriptorBuilder16CrossLinkMessageEPNS0_10DescriptorERKNS0_15DescriptorProtoE
__ZN6google8protobuf17DescriptorBuilder16CrossLinkServiceEPNS0_17ServiceDescriptorERKNS0_22ServiceDescriptorProtoE
__ZN6google8protobuf17DescriptorBuilder17OptionInterpreter14SetOptionValueEPKNS0_15FieldDescriptorEPNS0_15UnknownFieldSetE
__ZN6google8protobuf17DescriptorBuilder17OptionInterpreter18SetAggregateOptionEPKNS0_15FieldDescriptorEPNS0_15UnknownFieldSetE
__ZN6google8protobuf17DescriptorBuilder17OptionInterpreter20ExamineIfOptionIsSetENSt3__111__wrap_iterIPKPKNS0_15FieldDescriptorEEESA_S7_RKNS3_12basic_stringIcNS3_11char_traitsIcEENS3_9allocatorIcEEEERKNS0_15UnknownFieldSetE
__ZN6google8protobuf17DescriptorBuilder17OptionInterpreter21AggregateOptionFinderD0Ev
__ZN6google8protobuf17DescriptorBuilder17OptionInterpreter21AggregateOptionFinderD1Ev
__ZN6google8protobuf17DescriptorBuilder17OptionInterpreter21InterpretSingleOptionEPNS0_7MessageE
__ZN6google8protobuf17DescriptorBuilder17OptionInterpreter22AddWithoutInterpretingERKNS0_19UninterpretedOptionEPNS0_7MessageE
__ZN6google8protobuf17DescriptorBuilder17OptionInterpreter8SetInt32EiiNS0_15FieldDescriptor4TypeEPNS0_15UnknownFieldSetE
__ZN6google8protobuf17DescriptorBuilder17OptionInterpreter8SetInt64EixNS0_15FieldDescriptor4TypeEPNS0_15UnknownFieldSetE
__ZN6google8protobuf17DescriptorBuilder17OptionInterpreter9SetUInt32EijNS0_15FieldDescriptor4TypeEPNS0_15UnknownFieldSetE
__ZN6google8protobuf17DescriptorBuilder17OptionInterpreter9SetUInt64EiyNS0_15FieldDescriptor4TypeEPNS0_15UnknownFieldSetE
__ZN6google8protobuf17DescriptorBuilder17OptionInterpreterC2EPS1_
__ZN6google8protobuf17DescriptorBuilder18AddNotDefinedErrorERKNSt3__112basic_stringIcNS2_11char_traitsIcEENS2_9allocatorIcEEEERKNS0_7MessageENS0_14DescriptorPool14ErrorCollector13ErrorLocationESA_
__ZN6google8protobuf17DescriptorBuilder18NewPlaceholderFileERKNSt3__112basic_stringIcNS2_11char_traitsIcEENS2_9allocatorIcEEEE
__ZN6google8protobuf17DescriptorBuilder18ValidateSymbolNameERKNSt3__112basic_stringIcNS2_11char_traitsIcEENS2_9allocatorIcEEEESA_RKNS0_7MessageE
__ZN6google8protobuf17DescriptorBuilder19AddTwiceListedErrorERKNS0_19FileDescriptorProtoEi
__ZN6google8protobuf17DescriptorBuilder19AllocateOptionsImplINS0_10DescriptorEEEvRKNSt3__112basic_stringIcNS4_11char_traitsIcEENS4_9allocatorIcEEEESC_RKNT_11OptionsTypeEPSD_
__ZN6google8protobuf17DescriptorBuilder19AllocateOptionsImplINS0_14EnumDescriptorEEEvRKNSt3__112basic_stringIcNS4_11char_traitsIcEENS4_9allocatorIcEEEESC_RKNT_11OptionsTypeEPSD_
__ZN6google8protobuf17DescriptorBuilder19AllocateOptionsImplINS0_14FileDescriptorEEEvRKNSt3__112basic_stringIcNS4_11char_traitsIcEENS4_9allocatorIcEEEESC_RKNT_11OptionsTypeEPSD_
__ZN6google8protobuf17DescriptorBuilder19AllocateOptionsImplINS0_15FieldDescriptorEEEvRKNSt3__112basic_stringIcNS4_11char_traitsIcEENS4_9allocatorIcEEEESC_RKNT_11OptionsTypeEPSD_
__ZN6google8protobuf17DescriptorBuilder19AllocateOptionsImplINS0_16MethodDescriptorEEEvRKNSt3__112basic_stringIcNS4_11char_traitsIcEENS4_9allocatorIcEEEESC_RKNT_11OptionsTypeEPSD_
__ZN6google8protobuf17DescriptorBuilder19AllocateOptionsImplINS0_17ServiceDescriptorEEEvRKNSt3__112basic_stringIcNS4_11char_traitsIcEENS4_9allocatorIcEEEESC_RKNT_11OptionsTypeEPSD_
__ZN6google8protobuf17DescriptorBuilder19AllocateOptionsImplINS0_19EnumValueDescriptorEEEvRKNSt3__112basic_stringIcNS4_11char_traitsIcEENS4_9allocatorIcEEEESC_RKNT_11OptionsTypeEPSD_
__ZN6google8protobuf17DescriptorBuilder19BuildExtensionRangeERKNS0_30DescriptorProto_ExtensionRangeEPKNS0_10DescriptorEPNS5_14ExtensionRangeE
__ZN6google8protobuf17DescriptorBuilder19LogUnusedDependencyEPKNS0_14FileDescriptorE
__ZN6google8protobuf17DescriptorBuilder19ValidateEnumOptionsEPNS0_14EnumDescriptorERKNS0_19EnumDescriptorProtoE
__ZN6google8protobuf17DescriptorBuilder19ValidateFileOptionsEPNS0_14FileDescriptorERKNS0_19FileDescriptorProtoE
__ZN6google8protobuf17DescriptorBuilder20ValidateFieldOptionsEPNS0_15FieldDescriptorERKNS0_20FieldDescriptorProtoE
__ZN6google8protobuf17DescriptorBuilder21BuildFieldOrExtensionERKNS0_20FieldDescriptorProtoEPKNS0_10DescriptorEPNS0_15FieldDescriptorEb
__ZN6google8protobuf17DescriptorBuilder21ValidateQualifiedNameERKNSt3__112basic_stringIcNS2_11char_traitsIcEENS2_9allocatorIcEEEE
__ZN6google8protobuf17DescriptorBuilder22ValidateMessageOptionsEPNS0_10DescriptorERKNS0_15DescriptorProtoE
__ZN6google8protobuf17DescriptorBuilder22ValidateServiceOptionsEPNS0_17ServiceDescriptorERKNS0_22ServiceDescriptorProtoE
__ZN6google8protobuf17DescriptorBuilder23AddRecursiveImportErrorERKNS0_19FileDescriptorProtoEi
__ZN6google8protobuf17DescriptorBuilder24RecordPublicDependenciesEPKNS0_14FileDescriptorE
__ZN6google8protobuf17DescriptorBuilder25LookupSymbolNoPlaceholderERKNSt3__112basic_stringIcNS2_11char_traitsIcEENS2_9allocatorIcEEEESA_NS1_11ResolveModeE
__ZN6google8protobuf17DescriptorBuilder32FindSymbolNotEnforcingDepsHelperEPKNS0_14DescriptorPoolERKNSt3__112basic_stringIcNS5_11char_traitsIcEENS5_9allocatorIcEEEE
__ZN6google8protobuf17DescriptorBuilder8AddErrorERKNSt3__112basic_stringIcNS2_11char_traitsIcEENS2_9allocatorIcEEEERKNS0_7MessageENS0_14DescriptorPool14ErrorCollector13ErrorLocationEPKc
__ZN6google8protobuf17DescriptorBuilder8AddErrorERKNSt3__112basic_stringIcNS2_11char_traitsIcEENS2_9allocatorIcEEEERKNS0_7MessageENS0_14DescriptorPool14ErrorCollector13ErrorLocationESA_
__ZN6google8protobuf17DescriptorBuilder9AddSymbolERKNSt3__112basic_stringIcNS2_11char_traitsIcEENS2_9allocatorIcEEEEPKvSA_RKNS0_7MessageENS0_12_GLOBAL__N_16SymbolE
__ZN6google8protobuf17DescriptorBuilder9BuildEnumERKNS0_19EnumDescriptorProtoEPKNS0_10DescriptorEPNS0_14EnumDescriptorE
__ZN6google8protobuf17DescriptorBuilder9BuildFileERKNS0_19FileDescriptorProtoE
__ZN6google8protobuf17DescriptorBuilderC2EPKNS0_14DescriptorPoolEPNS2_6TablesEPNS2_14ErrorCollectorE
__ZN6google8protobuf17DescriptorBuilderD2Ev
__ZN6google8protobuf17FastHex32ToBufferEjPc
__ZN6google8protobuf17FastHex64ToBufferEyPc
__ZN6google8protobuf17FastInt32ToBufferEiPc
__ZN6google8protobuf17FastInt64ToBufferExPc
__ZN6google8protobuf17FileDescriptorSet17default_instance_E
__ZN6google8protobuf17FileDescriptorSet27MergePartialFromCodedStreamEPNS0_2io16CodedInputStreamE
__ZN6google8protobuf17FileDescriptorSet5ClearEv
__ZN6google8protobuf17FileDescriptorSet8CopyFromERKNS0_7MessageE
__ZN6google8protobuf17FileDescriptorSet9MergeFromERKNS0_7MessageE
__ZN6google8protobuf17FileDescriptorSet9MergeFromERKS1_
__ZN6google8protobuf17FileDescriptorSetC2Ev
__ZN6google8protobuf17FileDescriptorSetD0Ev
__ZN6google8protobuf17FileDescriptorSetD1Ev
__ZN6google8protobuf17STLDeleteElementsINSt3__16vectorIPNS0_20FileDescriptorTablesENS2_9allocatorIS5_EEEEEEvPT_
__ZN6google8protobuf17STLDeleteElementsINSt3__16vectorIPNS0_7MessageENS2_9allocatorIS5_EEEEEEvPT_
__ZN6google8protobuf17STLDeleteElementsINSt3__16vectorIPNS2_12basic_stringIcNS2_11char_traitsIcEENS2_9allocatorIcEEEENS7_ISA_EEEEEEvPT_
__ZN6google8protobuf18GoogleOnceInitImplEPlPNS0_7ClosureE
__ZN6google8protobuf18InsertIfNotPresentINS0_8hash_mapINSt3__14pairIPKvPKcEEPKNS0_15FieldDescriptorENS0_12_GLOBAL__N_121PointerStringPairHashENSD_22PointerStringPairEqualEEEEEbPT_RKNSH_10value_type10first_typeERKNSH_10value_type11second_typeE
__ZN6google8protobuf18InsertIfNotPresentINSt3__13mapINS2_12basic_stringIcNS2_11char_traitsIcEENS2_9allocatorIcEEEENS2_4pairIPKviEENS2_4lessIS9_EENS7_INSA_IKS9_SD_EEEEEEEEbPT_RKNSK_10value_type10first_typeERKNSK_10value_type11second_typeE
__ZN6google8protobuf18InsertIfNotPresentINSt3__13mapINS2_4pairINS2_12basic_stringIcNS2_11char_traitsIcEENS2_9allocatorIcEEEEiEENS4_IPKviEENS2_4lessISB_EENS8_INS4_IKSB_SE_EEEEEEEEbPT_RKNSL_10value_type10first_typeERKNSL_10value_type11second_typeE
__ZN6google8protobuf19EnumDescriptorProto10SharedCtorEv
__ZN6google8protobuf19EnumDescriptorProto10SharedDtorEv
__ZN6google8protobuf19EnumDescriptorProto17default_instance_E
__ZN6google8protobuf19EnumDescriptorProto27MergePartialFromCodedStreamEPNS0_2io16CodedInputStreamE
__ZN6google8protobuf19EnumDescriptorProto5ClearEv
__ZN6google8protobuf19EnumDescriptorProto8CopyFromERKNS0_7MessageE
__ZN6google8protobuf19EnumDescriptorProto9MergeFromERKNS0_7MessageE
__ZN6google8protobuf19EnumDescriptorProto9MergeFromERKS1_
__ZN6google8protobuf19EnumDescriptorProtoC2Ev
__ZN6google8protobuf19EnumDescriptorProtoD0Ev
__ZN6google8protobuf19EnumDescriptorProtoD1Ev
__ZN6google8protobuf19EnumDescriptorProtoD2Ev
__ZN6google8protobuf19FileDescriptorProto10SharedCtorEv
__ZN6google8protobuf19FileDescriptorProto10SharedDtorEv
__ZN6google8protobuf19FileDescriptorProto17default_instance_E
__ZN6google8protobuf19FileDescriptorProto21InitAsDefaultInstanceEv
__ZN6google8protobuf19FileDescriptorProto27MergePartialFromCodedStreamEPNS0_2io16CodedInputStreamE
__ZN6google8protobuf19FileDescriptorProto5ClearEv
__ZN6google8protobuf19FileDescriptorProto8CopyFromERKNS0_7MessageE
__ZN6google8protobuf19FileDescriptorProto9MergeFromERKNS0_7MessageE
__ZN6google8protobuf19FileDescriptorProto9MergeFromERKS1_
__ZN6google8protobuf19FileDescriptorProtoC1Ev
__ZN6google8protobuf19FileDescriptorProtoC2Ev
__ZN6google8protobuf19FileDescriptorProtoD0Ev
__ZN6google8protobuf19FileDescriptorProtoD1Ev
__ZN6google8protobuf19FileDescriptorProtoD2Ev
__ZN6google8protobuf19UninterpretedOption10SharedCtorEv
__ZN6google8protobuf19UninterpretedOption10SharedDtorEv
__ZN6google8protobuf19UninterpretedOption17default_instance_E
__ZN6google8protobuf19UninterpretedOption27MergePartialFromCodedStreamEPNS0_2io16CodedInputStreamE
__ZN6google8protobuf19UninterpretedOption5ClearEv
__ZN6google8protobuf19UninterpretedOption8CopyFromERKNS0_7MessageE
__ZN6google8protobuf19UninterpretedOption9MergeFromERKNS0_7MessageE
__ZN6google8protobuf19UninterpretedOption9MergeFromERKS1_
__ZN6google8protobuf19UninterpretedOptionC2Ev
__ZN6google8protobuf19UninterpretedOptionD0Ev
__ZN6google8protobuf19UninterpretedOptionD1Ev
__ZN6google8protobuf19UninterpretedOptionD2Ev
__ZN6google8protobuf20FieldDescriptorProto10SharedCtorEv
__ZN6google8protobuf20FieldDescriptorProto10SharedDtorEv
__ZN6google8protobuf20FieldDescriptorProto17default_instance_E
__ZN6google8protobuf20FieldDescriptorProto27MergePartialFromCodedStreamEPNS0_2io16CodedInputStreamE
__ZN6google8protobuf20FieldDescriptorProto5ClearEv
__ZN6google8protobuf20FieldDescriptorProto8CopyFromERKNS0_7MessageE
__ZN6google8protobuf20FieldDescriptorProto9MergeFromERKNS0_7MessageE
__ZN6google8protobuf20FieldDescriptorProto9MergeFromERKS1_
__ZN6google8protobuf20FieldDescriptorProtoC2Ev
__ZN6google8protobuf20FieldDescriptorProtoD0Ev
__ZN6google8protobuf20FieldDescriptorProtoD1Ev
__ZN6google8protobuf20FieldDescriptorProtoD2Ev
__ZN6google8protobuf20FileDescriptorTables16AddFieldByNumberEPKNS0_15FieldDescriptorE
__ZN6google8protobuf20FileDescriptorTables19AddAliasUnderParentEPKvRKNSt3__112basic_stringIcNS4_11char_traitsIcEENS4_9allocatorIcEEEENS0_12_GLOBAL__N_16SymbolE
__ZN6google8protobuf20FileDescriptorTables20AddEnumValueByNumberEPKNS0_19EnumValueDescriptorE
__ZN6google8protobuf20FileDescriptorTables23AddFieldByStylizedNamesEPKNS0_15FieldDescriptorE
__ZN6google8protobuf20FileDescriptorTables6kEmptyE
__ZN6google8protobuf20FileDescriptorTablesD1Ev
__ZN6google8protobuf20FileDescriptorTablesD2Ev
__ZN6google8protobuf20OneofDescriptorProto10SharedCtorEv
__ZN6google8protobuf20OneofDescriptorProto10SharedDtorEv
__ZN6google8protobuf20OneofDescriptorProto17default_instance_E
__ZN6google8protobuf20OneofDescriptorProto27MergePartialFromCodedStreamEPNS0_2io16CodedInputStreamE
__ZN6google8protobuf20OneofDescriptorProto5ClearEv
__ZN6google8protobuf20OneofDescriptorProto8CopyFromERKNS0_7MessageE
__ZN6google8protobuf20OneofDescriptorProto9MergeFromERKNS0_7MessageE
__ZN6google8protobuf20OneofDescriptorProto9MergeFromERKS1_
__ZN6google8protobuf20OneofDescriptorProtoC1Ev
__ZN6google8protobuf20OneofDescriptorProtoC2Ev
__ZN6google8protobuf20OneofDescriptorProtoD0Ev
__ZN6google8protobuf20OneofDescriptorProtoD1Ev
__ZN6google8protobuf20OneofDescriptorProtoD2Ev
__ZN6google8protobuf21DynamicMessageFactory12GetPrototypeEPKNS0_10DescriptorE
__ZN6google8protobuf21DynamicMessageFactory18GetPrototypeNoLockEPKNS0_10DescriptorE
__ZN6google8protobuf21DynamicMessageFactory29ConstructDefaultOneofInstanceEPKNS0_10DescriptorEPKiPv
__ZN6google8protobuf21DynamicMessageFactoryC1Ev
__ZN6google8protobuf21DynamicMessageFactoryC2Ev
__ZN6google8protobuf21DynamicMessageFactoryD0Ev
__ZN6google8protobuf21DynamicMessageFactoryD1Ev
__ZN6google8protobuf21DynamicMessageFactoryD2Ev
__ZN6google8protobuf21MethodDescriptorProto10SharedCtorEv
__ZN6google8protobuf21MethodDescriptorProto10SharedDtorEv
__ZN6google8protobuf21MethodDescriptorProto17default_instance_E
__ZN6google8protobuf21MethodDescriptorProto27MergePartialFromCodedStreamEPNS0_2io16CodedInputStreamE
__ZN6google8protobuf21MethodDescriptorProto5ClearEv
__ZN6google8protobuf21MethodDescriptorProto8CopyFromERKNS0_7MessageE
__ZN6google8protobuf21MethodDescriptorProto9MergeFromERKNS0_7MessageE
__ZN6google8protobuf21MethodDescriptorProto9MergeFromERKS1_
__ZN6google8protobuf21MethodDescriptorProtoC1Ev
__ZN6google8protobuf21MethodDescriptorProtoC2Ev
__ZN6google8protobuf21MethodDescriptorProtoD0Ev
__ZN6google8protobuf21MethodDescriptorProtoD1Ev
__ZN6google8protobuf21MethodDescriptorProtoD2Ev
__ZN6google8protobuf21UnescapeCEscapeStringERKNSt3__112basic_stringIcNS1_11char_traitsIcEENS1_9allocatorIcEEEE
__ZN6google8protobuf22FastUInt32ToBufferLeftEjPc
__ZN6google8protobuf22FastUInt64ToBufferLeftEyPc
__ZN6google8protobuf22ServiceDescriptorProto10SharedCtorEv
__ZN6google8protobuf22ServiceDescriptorProto10SharedDtorEv
__ZN6google8protobuf22ServiceDescriptorProto17default_instance_E
__ZN6google8protobuf22ServiceDescriptorProto27MergePartialFromCodedStreamEPNS0_2io16CodedInputStreamE
__ZN6google8protobuf22ServiceDescriptorProto5ClearEv
__ZN6google8protobuf22ServiceDescriptorProto8CopyFromERKNS0_7MessageE
__ZN6google8protobuf22ServiceDescriptorProto9MergeFromERKNS0_7MessageE
__ZN6google8protobuf22ServiceDescriptorProto9MergeFromERKS1_
__ZN6google8protobuf22ServiceDescriptorProtoC2Ev
__ZN6google8protobuf22ServiceDescriptorProtoD0Ev
__ZN6google8protobuf22ServiceDescriptorProtoD1Ev
__ZN6google8protobuf22ServiceDescriptorProtoD2Ev
__ZN6google8protobuf23SourceCodeInfo_Location10SharedCtorEv
__ZN6google8protobuf23SourceCodeInfo_Location10SharedDtorEv
__ZN6google8protobuf23SourceCodeInfo_Location17default_instance_E
__ZN6google8protobuf23SourceCodeInfo_Location27MergePartialFromCodedStreamEPNS0_2io16CodedInputStreamE
__ZN6google8protobuf23SourceCodeInfo_Location5ClearEv
__ZN6google8protobuf23SourceCodeInfo_Location8CopyFromERKNS0_7MessageE
__ZN6google8protobuf23SourceCodeInfo_Location9MergeFromERKNS0_7MessageE
__ZN6google8protobuf23SourceCodeInfo_Location9MergeFromERKS1_
__ZN6google8protobuf23SourceCodeInfo_LocationC2Ev
__ZN6google8protobuf23SourceCodeInfo_LocationD0Ev
__ZN6google8protobuf23SourceCodeInfo_LocationD1Ev
__ZN6google8protobuf23SourceCodeInfo_LocationD2Ev
__ZN6google8protobuf24EnumValueDescriptorProto10SharedCtorEv
__ZN6google8protobuf24EnumValueDescriptorProto10SharedDtorEv
__ZN6google8protobuf24EnumValueDescriptorProto17default_instance_E
__ZN6google8protobuf24EnumValueDescriptorProto27MergePartialFromCodedStreamEPNS0_2io16CodedInputStreamE
__ZN6google8protobuf24EnumValueDescriptorProto5ClearEv
__ZN6google8protobuf24EnumValueDescriptorProto8CopyFromERKNS0_7MessageE
__ZN6google8protobuf24EnumValueDescriptorProto9MergeFromERKNS0_7MessageE
__ZN6google8protobuf24EnumValueDescriptorProto9MergeFromERKS1_
__ZN6google8protobuf24EnumValueDescriptorProtoC1Ev
__ZN6google8protobuf24EnumValueDescriptorProtoC2Ev
__ZN6google8protobuf24EnumValueDescriptorProtoD0Ev
__ZN6google8protobuf24EnumValueDescriptorProtoD1Ev
__ZN6google8protobuf24EnumValueDescriptorProtoD2Ev
__ZN6google8protobuf24SimpleDescriptorDatabase15DescriptorIndexINSt3__14pairIPKviEEE10FindSymbolERKNS3_12basic_stringIcNS3_11char_traitsIcEENS3_9allocatorIcEEEE
__ZN6google8protobuf24SimpleDescriptorDatabase15DescriptorIndexINSt3__14pairIPKviEEE11IsSubSymbolERKNS3_12basic_stringIcNS3_11char_traitsIcEENS3_9allocatorIcEEEESG_
__ZN6google8protobuf24SimpleDescriptorDatabase15DescriptorIndexINSt3__14pairIPKviEEE12AddExtensionERKNS0_20FieldDescriptorProtoES7_
__ZN6google8protobuf24SimpleDescriptorDatabase15DescriptorIndexINSt3__14pairIPKviEEE13FindExtensionERKNS3_12basic_stringIcNS3_11char_traitsIcEENS3_9allocatorIcEEEEi
__ZN6google8protobuf24SimpleDescriptorDatabase15DescriptorIndexINSt3__14pairIPKviEEE18ValidateSymbolNameERKNS3_12basic_stringIcNS3_11char_traitsIcEENS3_9allocatorIcEEEE
__ZN6google8protobuf24SimpleDescriptorDatabase15DescriptorIndexINSt3__14pairIPKviEEE19AddNestedExtensionsERKNS0_15DescriptorProtoES7_
__ZN6google8protobuf24SimpleDescriptorDatabase15DescriptorIndexINSt3__14pairIPKviEEE19FindLastLessOrEqualERKNS3_12basic_stringIcNS3_11char_traitsIcEENS3_9allocatorIcEEEE
__ZN6google8protobuf24SimpleDescriptorDatabase15DescriptorIndexINSt3__14pairIPKviEEE23FindAllExtensionNumbersERKNS3_12basic_stringIcNS3_11char_traitsIcEENS3_9allocatorIcEEEEPNS3_6vectorIiNSC_IiEEEE
__ZN6google8protobuf24SimpleDescriptorDatabase15DescriptorIndexINSt3__14pairIPKviEEE7AddFileERKNS0_19FileDescriptorProtoES7_
__ZN6google8protobuf24SimpleDescriptorDatabase15DescriptorIndexINSt3__14pairIPKviEEE9AddSymbolERKNS3_12basic_stringIcNS3_11char_traitsIcEENS3_9allocatorIcEEEES7_
__ZN6google8protobuf24UnescapeCEscapeSequencesEPKcPcPNSt3__16vectorINS4_12basic_stringIcNS4_11char_traitsIcEENS4_9allocatorIcEEEENS9_ISB_EEEE
__ZN6google8protobuf25EncodedDescriptorDatabase14FindFileByNameERKNSt3__112basic_stringIcNS2_11char_traitsIcEENS2_9allocatorIcEEEEPNS0_19FileDescriptorProtoE
__ZN6google8protobuf25EncodedDescriptorDatabase23FindAllExtensionNumbersERKNSt3__112basic_stringIcNS2_11char_traitsIcEENS2_9allocatorIcEEEEPNS2_6vectorIiNS6_IiEEEE
__ZN6google8protobuf25EncodedDescriptorDatabase24FindFileContainingSymbolERKNSt3__112basic_stringIcNS2_11char_traitsIcEENS2_9allocatorIcEEEEPNS0_19FileDescriptorProtoE
__ZN6google8protobuf25EncodedDescriptorDatabase27FindFileContainingExtensionERKNSt3__112basic_stringIcNS2_11char_traitsIcEENS2_9allocatorIcEEEEiPNS0_19FileDescriptorProtoE
__ZN6google8protobuf25EncodedDescriptorDatabase3AddEPKvi
__ZN6google8protobuf25EncodedDescriptorDatabaseC1Ev
__ZN6google8protobuf25EncodedDescriptorDatabaseD0Ev
__ZN6google8protobuf25EncodedDescriptorDatabaseD1Ev
__ZN6google8protobuf25EncodedDescriptorDatabaseD2Ev
__ZN6google8protobuf26STLDeleteContainerPointersINSt3__111__wrap_iterIPPNS0_20FileDescriptorTablesEEEEEvT_S8_
__ZN6google8protobuf26STLDeleteContainerPointersINSt3__111__wrap_iterIPPNS2_12basic_stringIcNS2_11char_traitsIcEENS2_9allocatorIcEEEEEEEEvT_SD_
__ZN6google8protobuf28UninterpretedOption_NamePart10SharedCtorEv
__ZN6google8protobuf28UninterpretedOption_NamePart10SharedDtorEv
__ZN6google8protobuf28UninterpretedOption_NamePart17default_instance_E
__ZN6google8protobuf28UninterpretedOption_NamePart27MergePartialFromCodedStreamEPNS0_2io16CodedInputStreamE
__ZN6google8protobuf28UninterpretedOption_NamePart5ClearEv
__ZN6google8protobuf28UninterpretedOption_NamePart8CopyFromERKNS0_7MessageE
__ZN6google8protobuf28UninterpretedOption_NamePart9MergeFromERKNS0_7MessageE
__ZN6google8protobuf28UninterpretedOption_NamePart9MergeFromERKS1_
__ZN6google8protobuf28UninterpretedOption_NamePartC2Ev
__ZN6google8protobuf28UninterpretedOption_NamePartD0Ev
__ZN6google8protobuf28UninterpretedOption_NamePartD1Ev
__ZN6google8protobuf28UninterpretedOption_NamePartD2Ev
__ZN6google8protobuf2io14ErrorCollectorD2Ev
__ZN6google8protobuf2io14NoLocaleStrtodEPKcPPc
__ZN6google8protobuf2io16ArrayInputStream4NextEPPKvPi
__ZN6google8protobuf2io16ArrayInputStream4SkipEi
__ZN6google8protobuf2io16ArrayInputStream6BackUpEi
__ZN6google8protobuf2io16ArrayInputStreamC1EPKvii
__ZN6google8protobuf2io16ArrayInputStreamD0Ev
__ZN6google8protobuf2io16ArrayInputStreamD1Ev
__ZN6google8protobuf2io16CodedInputStream10ReadStringEPNSt3__112basic_stringIcNS3_11char_traitsIcEENS3_9allocatorIcEEEEi
__ZN6google8protobuf2io16CodedInputStream11ReadTagSlowEv
__ZN6google8protobuf2io16CodedInputStream15ReadTagFallbackEv
__ZN6google8protobuf2io16CodedInputStream16ReadVarint64SlowEPy
__ZN6google8protobuf2io16CodedInputStream18ReadStringFallbackEPNSt3__112basic_stringIcNS3_11char_traitsIcEENS3_9allocatorIcEEEEi
__ZN6google8protobuf2io16CodedInputStream20ReadVarint32FallbackEPj
__ZN6google8protobuf2io16CodedInputStream20ReadVarint64FallbackEPy
__ZN6google8protobuf2io16CodedInputStream24default_recursion_limit_E
__ZN6google8protobuf2io16CodedInputStream25PrintTotalBytesLimitErrorEv
__ZN6google8protobuf2io16CodedInputStream26ReadLittleEndian32FallbackEPj
__ZN6google8protobuf2io16CodedInputStream26ReadLittleEndian64FallbackEPy
__ZN6google8protobuf2io16CodedInputStream28BackUpInputToCurrentPositionEv
__ZN6google8protobuf2io16CodedInputStream4SkipEi
__ZN6google8protobuf2io16CodedInputStream7ReadRawEPvi
__ZN6google8protobuf2io16CodedInputStream7RefreshEv
__ZN6google8protobuf2io16CodedInputStream8PopLimitEi
__ZN6google8protobuf2io16CodedInputStream9PushLimitEi
__ZN6google8protobuf2io16CodedInputStreamD1Ev
__ZN6google8protobuf2io16CodedInputStreamD2Ev
__ZN6google8protobuf2io17ArrayOutputStream4NextEPPvPi
__ZN6google8protobuf2io17ArrayOutputStream6BackUpEi
__ZN6google8protobuf2io17ArrayOutputStreamC1EPvii
__ZN6google8protobuf2io17ArrayOutputStreamD0Ev
__ZN6google8protobuf2io17ArrayOutputStreamD1Ev
__ZN6google8protobuf2io17CodedOutputStream12VarintSize64Ey
__ZN6google8protobuf2io17CodedOutputStream13WriteVarint32Ej
__ZN6google8protobuf2io17CodedOutputStream13WriteVarint64Ey
__ZN6google8protobuf2io17CodedOutputStream15WriteAliasedRawEPKvi
__ZN6google8protobuf2io17CodedOutputStream19WriteLittleEndian32Ej
__ZN6google8protobuf2io17CodedOutputStream19WriteLittleEndian64Ey
__ZN6google8protobuf2io17CodedOutputStream20VarintSize32FallbackEj
__ZN6google8protobuf2io17CodedOutputStream20WriteVarint64ToArrayEyPh
__ZN6google8protobuf2io17CodedOutputStream26WriteStringWithSizeToArrayERKNSt3__112basic_stringIcNS3_11char_traitsIcEENS3_9allocatorIcEEEEPh
__ZN6google8protobuf2io17CodedOutputStream28WriteVarint32FallbackToArrayEjPh
__ZN6google8protobuf2io17CodedOutputStream7RefreshEv
__ZN6google8protobuf2io17CodedOutputStream8WriteRawEPKvi
__ZN6google8protobuf2io17CodedOutputStreamC1EPNS1_20ZeroCopyOutputStreamE
__ZN6google8protobuf2io17CodedOutputStreamD1Ev
__ZN6google8protobuf2io17CodedOutputStreamD2Ev
__ZN6google8protobuf2io18StringOutputStream4NextEPPvPi
__ZN6google8protobuf2io18StringOutputStream6BackUpEi
__ZN6google8protobuf2io18StringOutputStreamC1EPNSt3__112basic_stringIcNS3_11char_traitsIcEENS3_9allocatorIcEEEE
__ZN6google8protobuf2io18StringOutputStreamD0Ev
__ZN6google8protobuf2io18StringOutputStreamD1Ev
__ZN6google8protobuf2io19ZeroCopyInputStreamD2Ev
__ZN6google8protobuf2io20ZeroCopyOutputStream15WriteAliasedRawEPKvi
__ZN6google8protobuf2io20ZeroCopyOutputStreamD2Ev
__ZN6google8protobuf2io9Tokenizer10ParseFloatERKNSt3__112basic_stringIcNS3_11char_traitsIcEENS3_9allocatorIcEEEE
__ZN6google8protobuf2io9Tokenizer12IsIdentifierERKNSt3__112basic_stringIcNS3_11char_traitsIcEENS3_9allocatorIcEEEE
__ZN6google8protobuf2io9Tokenizer12ParseIntegerERKNSt3__112basic_stringIcNS3_11char_traitsIcEENS3_9allocatorIcEEEEyPy
__ZN6google8protobuf2io9Tokenizer13ConsumeNumberEbb
__ZN6google8protobuf2io9Tokenizer13ConsumeStringEc
__ZN6google8protobuf2io9Tokenizer17ParseStringAppendERKNSt3__112basic_stringIcNS3_11char_traitsIcEENS3_9allocatorIcEEEEPS9_
__ZN6google8protobuf2io9Tokenizer18ConsumeLineCommentEPNSt3__112basic_stringIcNS3_11char_traitsIcEENS3_9allocatorIcEEEE
__ZN6google8protobuf2io9Tokenizer19ConsumeBlockCommentEPNSt3__112basic_stringIcNS3_11char_traitsIcEENS3_9allocatorIcEEEE
__ZN6google8protobuf2io9Tokenizer22TryConsumeCommentStartEv
__ZN6google8protobuf2io9Tokenizer4NextEv
__ZN6google8protobuf2io9Tokenizer7RefreshEv
__ZN6google8protobuf2io9Tokenizer8NextCharEv
__ZN6google8protobuf2io9TokenizerC1EPNS1_19ZeroCopyInputStreamEPNS1_14ErrorCollectorE
__ZN6google8protobuf2io9TokenizerC2EPNS1_19ZeroCopyInputStreamEPNS1_14ErrorCollectorE
__ZN6google8protobuf2io9TokenizerD1Ev
__ZN6google8protobuf2io9TokenizerD2Ev
__ZN6google8protobuf2ioL13ReadHexDigitsEPKciPj
__ZN6google8protobuf30DescriptorProto_ExtensionRange17default_instance_E
__ZN6google8protobuf30DescriptorProto_ExtensionRange27MergePartialFromCodedStreamEPNS0_2io16CodedInputStreamE
__ZN6google8protobuf30DescriptorProto_ExtensionRange5ClearEv
__ZN6google8protobuf30DescriptorProto_ExtensionRange8CopyFromERKNS0_7MessageE
__ZN6google8protobuf30DescriptorProto_ExtensionRange9MergeFromERKNS0_7MessageE
__ZN6google8protobuf30DescriptorProto_ExtensionRange9MergeFromERKS1_
__ZN6google8protobuf30DescriptorProto_ExtensionRangeC1Ev
__ZN6google8protobuf30DescriptorProto_ExtensionRangeC2Ev
__ZN6google8protobuf30DescriptorProto_ExtensionRangeD0Ev
__ZN6google8protobuf30DescriptorProto_ExtensionRangeD1Ev
__ZN6google8protobuf33FieldDescriptorProto_Type_IsValidEi
__ZN6google8protobuf34FieldDescriptorProto_Label_IsValidEi
__ZN6google8protobuf4JoinINSt3__111__wrap_iterIPKNS2_12basic_stringIcNS2_11char_traitsIcEENS2_9allocatorIcEEEEEEEEvT_SD_PKcPS9_
__ZN6google8protobuf4JoinINSt3__16vectorINS2_12basic_stringIcNS2_11char_traitsIcEENS2_9allocatorIcEEEENS7_IS9_EEEEEES9_RKT_PKc
__ZN6google8protobuf55protobuf_AddDesc_google_2fprotobuf_2fdescriptor_2eprotoEv
__ZN6google8protobuf58protobuf_AssignDesc_google_2fprotobuf_2fdescriptor_2eprotoEv
__ZN6google8protobuf60protobuf_ShutdownFile_google_2fprotobuf_2fdescriptor_2eprotoEv
__ZN6google8protobuf6StrCatIA2_cNSt3__112basic_stringIcNS3_11char_traitsIcEENS3_9allocatorIcEEEES2_EES9_RKT_RKT0_RKT1_
__ZN6google8protobuf6ghtonlEj
__ZN6google8protobuf7CEscapeERKNSt3__112basic_stringIcNS1_11char_traitsIcEENS1_9allocatorIcEEEE
__ZN6google8protobuf7Message20DiscardUnknownFieldsEv
__ZN6google8protobuf7Message21CheckTypeAndMergeFromERKNS0_11MessageLiteE
__ZN6google8protobuf7Message27MergePartialFromCodedStreamEPNS0_2io16CodedInputStreamE
__ZN6google8protobuf7Message5ClearEv
__ZN6google8protobuf7Message8CopyFromERKS1_
__ZN6google8protobuf7Message9MergeFromERKS1_
__ZN6google8protobuf7MessageD2Ev
__ZN6google8protobuf7strings10SubstituteEPKcRKNS1_8internal13SubstituteArgES7_S7_S7_S7_S7_S7_S7_S7_S7_
__ZN6google8protobuf7strings15Utf8SafeCEscapeERKNSt3__112basic_stringIcNS2_11char_traitsIcEENS2_9allocatorIcEEEE
__ZN6google8protobuf7strings19SubstituteAndAppendEPNSt3__112basic_stringIcNS2_11char_traitsIcEENS2_9allocatorIcEEEEPKcRKNS1_8internal13SubstituteArgESF_SF_SF_SF_SF_SF_SF_SF_SF_
__ZN6google8protobuf8internal10LogMessage6FinishEv
__ZN6google8protobuf8internal10LogMessageC1ENS0_8LogLevelEPKci
__ZN6google8protobuf8internal10LogMessageD1Ev
__ZN6google8protobuf8internal10LogMessagelsEPKc
__ZN6google8protobuf8internal10LogMessagelsERKNSt3__112basic_stringIcNS3_11char_traitsIcEENS3_9allocatorIcEEEE
__ZN6google8protobuf8internal10LogMessagelsEi
__ZN6google8protobuf8internal10OnShutdownEPFvvE
__ZN6google8protobuf8internal10WireFormat11SkipMessageEPNS0_2io16CodedInputStreamEPNS0_15UnknownFieldSetE
__ZN6google8protobuf8internal10WireFormat13FieldByteSizeEPKNS0_15FieldDescriptorERKNS0_7MessageE
__ZN6google8protobuf8internal10WireFormat18ParseAndMergeFieldEjPKNS0_15FieldDescriptorEPNS0_7MessageEPNS0_2io16CodedInputStreamE
__ZN6google8protobuf8internal10WireFormat19SkipMessageSetFieldEPNS0_2io16CodedInputStreamEjPNS0_15UnknownFieldSetE
__ZN6google8protobuf8internal10WireFormat20ParseAndMergePartialEPNS0_2io16CodedInputStreamEPNS0_7MessageE
__ZN6google8protobuf8internal10WireFormat21FieldDataOnlyByteSizeEPKNS0_15FieldDescriptorERKNS0_7MessageE
__ZN6google8protobuf8internal10WireFormat22MessageSetItemByteSizeEPKNS0_15FieldDescriptorERKNS0_7MessageE
__ZN6google8protobuf8internal10WireFormat22SerializeUnknownFieldsERKNS0_15UnknownFieldSetEPNS0_2io17CodedOutputStreamE
__ZN6google8protobuf8internal10WireFormat24ComputeUnknownFieldsSizeERKNS0_15UnknownFieldSetE
__ZN6google8protobuf8internal10WireFormat24SerializeWithCachedSizesERKNS0_7MessageEiPNS0_2io17CodedOutputStreamE
__ZN6google8protobuf8internal10WireFormat24VerifyUTF8StringFallbackEPKciNS2_9OperationES4_
__ZN6google8protobuf8internal10WireFormat27ParseAndMergeMessageSetItemEPNS0_2io16CodedInputStreamEPNS0_7MessageE
__ZN6google8protobuf8internal10WireFormat28ParseAndMergeMessageSetFieldEjPKNS0_15FieldDescriptorEPNS0_7MessageEPNS0_2io16CodedInputStreamE
__ZN6google8protobuf8internal10WireFormat29SerializeFieldWithCachedSizesEPKNS0_15FieldDescriptorERKNS0_7MessageEPNS0_2io17CodedOutputStreamE
__ZN6google8protobuf8internal10WireFormat29SerializeUnknownFieldsToArrayERKNS0_15UnknownFieldSetEPh
__ZN6google8protobuf8internal10WireFormat31SerializeUnknownMessageSetItemsERKNS0_15UnknownFieldSetEPNS0_2io17CodedOutputStreamE
__ZN6google8protobuf8internal10WireFormat33ComputeUnknownMessageSetItemsSizeERKNS0_15UnknownFieldSetE
__ZN6google8protobuf8internal10WireFormat38SerializeMessageSetItemWithCachedSizesEPKNS0_15FieldDescriptorERKNS0_7MessageEPNS0_2io17CodedOutputStreamE
__ZN6google8protobuf8internal10WireFormat8ByteSizeERKNS0_7MessageE
__ZN6google8protobuf8internal10WireFormat9SkipFieldEPNS0_2io16CodedInputStreamEjPNS0_15UnknownFieldSetE
__ZN6google8protobuf8internal10scoped_ptrINS0_14DescriptorPool6TablesEED2Ev
__ZN6google8protobuf8internal10scoped_ptrINS0_15UnknownFieldSetEE5resetEPS3_
__ZN6google8protobuf8internal10scoped_ptrINS0_15UnknownFieldSetEED2Ev
__ZN6google8protobuf8internal10scoped_ptrINS0_21DynamicMessageFactory12PrototypeMapEED2Ev
__ZN6google8protobuf8internal11LogFinisheraSERNS1_10LogMessageE
__ZN6google8protobuf8internal12ExtensionSet10AddMessageEPKNS0_15FieldDescriptorEPNS0_14MessageFactoryE
__ZN6google8protobuf8internal12ExtensionSet10AddMessageEihRKNS0_11MessageLiteEPKNS0_15FieldDescriptorE
__ZN6google8protobuf8internal12ExtensionSet10ParseFieldEjPNS0_2io16CodedInputStreamEPKNS0_7MessageEPNS0_15UnknownFieldSetE
__ZN6google8protobuf8internal12ExtensionSet10ParseFieldEjPNS0_2io16CodedInputStreamEPNS1_15ExtensionFinderEPNS1_12FieldSkipperE
__ZN6google8protobuf8internal12ExtensionSet10RemoveLastEi
__ZN6google8protobuf8internal12ExtensionSet11ReleaseLastEi
__ZN6google8protobuf8internal12ExtensionSet12SwapElementsEiii
__ZN6google8protobuf8internal12ExtensionSet13MutableStringEihPKNS0_15FieldDescriptorE
__ZN6google8protobuf8internal12ExtensionSet13SwapExtensionEPS2_i
__ZN6google8protobuf8internal12ExtensionSet14ClearExtensionEi
__ZN6google8protobuf8internal12ExtensionSet14MutableMessageEPKNS0_15FieldDescriptorEPNS0_14MessageFactoryE
__ZN6google8protobuf8internal12ExtensionSet14MutableMessageEihRKNS0_11MessageLiteEPKNS0_15FieldDescriptorE
__ZN6google8protobuf8internal12ExtensionSet14ReleaseMessageEPKNS0_15FieldDescriptorEPNS0_14MessageFactoryE
__ZN6google8protobuf8internal12ExtensionSet15SetRepeatedBoolEiib
__ZN6google8protobuf8internal12ExtensionSet15SetRepeatedEnumEiii
__ZN6google8protobuf8internal12ExtensionSet16SetRepeatedFloatEiif
__ZN6google8protobuf8internal12ExtensionSet16SetRepeatedInt32Eiii
__ZN6google8protobuf8internal12ExtensionSet16SetRepeatedInt64Eiix
__ZN6google8protobuf8internal12ExtensionSet17MaybeNewExtensionEiPKNS0_15FieldDescriptorEPPNS2_9ExtensionE
__ZN6google8protobuf8internal12ExtensionSet17SetRepeatedDoubleEiid
__ZN6google8protobuf8internal12ExtensionSet17SetRepeatedUInt32Eiij
__ZN6google8protobuf8internal12ExtensionSet17SetRepeatedUInt64Eiiy
__ZN6google8protobuf8internal12ExtensionSet19SetAllocatedMessageEihPKNS0_15FieldDescriptorEPNS0_11MessageLiteE
__ZN6google8protobuf8internal12ExtensionSet21MutableRepeatedStringEii
__ZN6google8protobuf8internal12ExtensionSet22MutableRepeatedMessageEii
__ZN6google8protobuf8internal12ExtensionSet23MutableRawRepeatedFieldEihbPKNS0_15FieldDescriptorE
__ZN6google8protobuf8internal12ExtensionSet27ParseFieldWithExtensionInfoEibRKNS1_13ExtensionInfoEPNS0_2io16CodedInputStreamEPNS1_12FieldSkipperE
__ZN6google8protobuf8internal12ExtensionSet32FindExtensionInfoFromFieldNumberEiiPNS1_15ExtensionFinderEPNS1_13ExtensionInfoEPb
__ZN6google8protobuf8internal12ExtensionSet4SwapEPS2_
__ZN6google8protobuf8internal12ExtensionSet5ClearEv
__ZN6google8protobuf8internal12ExtensionSet7AddBoolEihbbPKNS0_15FieldDescriptorE
__ZN6google8protobuf8internal12ExtensionSet7AddEnumEihbiPKNS0_15FieldDescriptorE
__ZN6google8protobuf8internal12ExtensionSet7SetBoolEihbPKNS0_15FieldDescriptorE
__ZN6google8protobuf8internal12ExtensionSet7SetEnumEihiPKNS0_15FieldDescriptorE
__ZN6google8protobuf8internal12ExtensionSet8AddFloatEihbfPKNS0_15FieldDescriptorE
__ZN6google8protobuf8internal12ExtensionSet8AddInt32EihbiPKNS0_15FieldDescriptorE
__ZN6google8protobuf8internal12ExtensionSet8AddInt64EihbxPKNS0_15FieldDescriptorE
__ZN6google8protobuf8internal12ExtensionSet8SetFloatEihfPKNS0_15FieldDescriptorE
__ZN6google8protobuf8internal12ExtensionSet8SetInt32EihiPKNS0_15FieldDescriptorE
__ZN6google8protobuf8internal12ExtensionSet8SetInt64EihxPKNS0_15FieldDescriptorE
__ZN6google8protobuf8internal12ExtensionSet9AddDoubleEihbdPKNS0_15FieldDescriptorE
__ZN6google8protobuf8internal12ExtensionSet9AddStringEihPKNS0_15FieldDescriptorE
__ZN6google8protobuf8internal12ExtensionSet9AddUInt32EihbjPKNS0_15FieldDescriptorE
__ZN6google8protobuf8internal12ExtensionSet9AddUInt64EihbyPKNS0_15FieldDescriptorE
__ZN6google8protobuf8internal12ExtensionSet9Extension4FreeEv
__ZN6google8protobuf8internal12ExtensionSet9Extension5ClearEv
__ZN6google8protobuf8internal12ExtensionSet9MergeFromERKS2_
__ZN6google8protobuf8internal12ExtensionSet9SetDoubleEihdPKNS0_15FieldDescriptorE
__ZN6google8protobuf8internal12ExtensionSet9SetUInt32EihjPKNS0_15FieldDescriptorE
__ZN6google8protobuf8internal12ExtensionSet9SetUInt64EihyPKNS0_15FieldDescriptorE
__ZN6google8protobuf8internal12ExtensionSetC1Ev
__ZN6google8protobuf8internal12ExtensionSetD1Ev
__ZN6google8protobuf8internal12ExtensionSetD2Ev
__ZN6google8protobuf8internal12_GLOBAL__N_114cpptype_names_E
__ZN6google8protobuf8internal12_GLOBAL__N_126ReportReflectionUsageErrorEPKNS0_10DescriptorEPKNS0_15FieldDescriptorEPKcSA_
__ZN6google8protobuf8internal12_GLOBAL__N_19registry_E
__ZN6google8protobuf8internal12_GLOBAL__N_1L30ReportReflectionUsageTypeErrorEPKNS0_10DescriptorEPKNS0_15FieldDescriptorEPKcNS6_7CppTypeE
__ZN6google8protobuf8internal12_GLOBAL__N_1L34ReportReflectionUsageEnumTypeErrorEPKNS0_10DescriptorEPKNS0_15FieldDescriptorEPKcPKNS0_19EnumValueDescriptorE
__ZN6google8protobuf8internal13ReflectionOps13IsInitializedERKNS0_7MessageE
__ZN6google8protobuf8internal13ReflectionOps20DiscardUnknownFieldsEPNS0_7MessageE
__ZN6google8protobuf8internal13ReflectionOps24FindInitializationErrorsERKNS0_7MessageERKNSt3__112basic_stringIcNS6_11char_traitsIcEENS6_9allocatorIcEEEEPNS6_6vectorISC_NSA_ISC_EEEE
__ZN6google8protobuf8internal13ReflectionOps4CopyERKNS0_7MessageEPS3_
__ZN6google8protobuf8internal13ReflectionOps5ClearEPNS0_7MessageE
__ZN6google8protobuf8internal13ReflectionOps5MergeERKNS0_7MessageEPS3_
__ZN6google8protobuf8internal13VerifyVersionEiiPKc
__ZN6google8protobuf8internal13VersionStringEi
__ZN6google8protobuf8internal13empty_string_E
__ZN6google8protobuf8internal14MutexLockMaybeD2Ev
__ZN6google8protobuf8internal14WireFormatLite10ReadStringEPNS0_2io16CodedInputStreamEPNSt3__112basic_stringIcNS6_11char_traitsIcEENS6_9allocatorIcEEEE
__ZN6google8protobuf8internal14WireFormatLite10WriteBytesEiRKNSt3__112basic_stringIcNS3_11char_traitsIcEENS3_9allocatorIcEEEEPNS0_2io17CodedOutputStreamE
__ZN6google8protobuf8internal14WireFormatLite10WriteFloatEifPNS0_2io17CodedOutputStreamE
__ZN6google8protobuf8internal14WireFormatLite10WriteGroupEiRKNS0_11MessageLiteEPNS0_2io17CodedOutputStreamE
__ZN6google8protobuf8internal14WireFormatLite10WriteInt32EiiPNS0_2io17CodedOutputStreamE
__ZN6google8protobuf8internal14WireFormatLite10WriteInt64EixPNS0_2io17CodedOutputStreamE
__ZN6google8protobuf8internal14WireFormatLite11WriteDoubleEidPNS0_2io17CodedOutputStreamE
__ZN6google8protobuf8internal14WireFormatLite11WriteSInt32EiiPNS0_2io17CodedOutputStreamE
__ZN6google8protobuf8internal14WireFormatLite11WriteSInt64EixPNS0_2io17CodedOutputStreamE
__ZN6google8protobuf8internal14WireFormatLite11WriteStringEiRKNSt3__112basic_stringIcNS3_11char_traitsIcEENS3_9allocatorIcEEEEPNS0_2io17CodedOutputStreamE
__ZN6google8protobuf8internal14WireFormatLite11WriteUInt32EijPNS0_2io17CodedOutputStreamE
__ZN6google8protobuf8internal14WireFormatLite11WriteUInt64EiyPNS0_2io17CodedOutputStreamE
__ZN6google8protobuf8internal14WireFormatLite12WriteFixed32EijPNS0_2io17CodedOutputStreamE
__ZN6google8protobuf8internal14WireFormatLite12WriteFixed64EiyPNS0_2io17CodedOutputStreamE
__ZN6google8protobuf8internal14WireFormatLite12WriteMessageEiRKNS0_11MessageLiteEPNS0_2io17CodedOutputStreamE
__ZN6google8protobuf8internal14WireFormatLite13WriteSFixed32EiiPNS0_2io17CodedOutputStreamE
__ZN6google8protobuf8internal14WireFormatLite13WriteSFixed64EixPNS0_2io17CodedOutputStreamE
__ZN6google8protobuf8internal14WireFormatLite21kWireTypeForFieldTypeE
__ZN6google8protobuf8internal14WireFormatLite22ReadPackedEnumNoInlineEPNS0_2io16CodedInputStreamEPFbiEPNS0_13RepeatedFieldIiEE
__ZN6google8protobuf8internal14WireFormatLite22WriteBytesMaybeAliasedEiRKNSt3__112basic_stringIcNS3_11char_traitsIcEENS3_9allocatorIcEEEEPNS0_2io17CodedOutputStreamE
__ZN6google8protobuf8internal14WireFormatLite22kFieldTypeToCppTypeMapE
__ZN6google8protobuf8internal14WireFormatLite23WriteStringMaybeAliasedEiRKNSt3__112basic_stringIcNS3_11char_traitsIcEENS3_9allocatorIcEEEEPNS0_2io17CodedOutputStreamE
__ZN6google8protobuf8internal14WireFormatLite23kMessageSetItemTagsSizeE
__ZN6google8protobuf8internal14WireFormatLite24WriteMessageMaybeToArrayEiRKNS0_11MessageLiteEPNS0_2io17CodedOutputStreamE
__ZN6google8protobuf8internal14WireFormatLite27ReadPackedPrimitiveNoInlineIiLNS2_9FieldTypeE5EEEbPNS0_2io16CodedInputStreamEPNS0_13RepeatedFieldIT_EE
__ZN6google8protobuf8internal14WireFormatLite27ReadPackedPrimitiveNoInlineIjLNS2_9FieldTypeE13EEEbPNS0_2io16CodedInputStreamEPNS0_13RepeatedFieldIT_EE
__ZN6google8protobuf8internal14WireFormatLite27ReadPackedPrimitiveNoInlineIjLNS2_9FieldTypeE7EEEbPNS0_2io16CodedInputStreamEPNS0_13RepeatedFieldIT_EE
__ZN6google8protobuf8internal14WireFormatLite27ReadPackedPrimitiveNoInlineIyLNS2_9FieldTypeE4EEEbPNS0_2io16CodedInputStreamEPNS0_13RepeatedFieldIT_EE
__ZN6google8protobuf8internal14WireFormatLite29ReadRepeatedPrimitiveNoInlineIiLNS2_9FieldTypeE5EEEbijPNS0_2io16CodedInputStreamEPNS0_13RepeatedFieldIT_EE
__ZN6google8protobuf8internal14WireFormatLite29ReadRepeatedPrimitiveNoInlineIjLNS2_9FieldTypeE13EEEbijPNS0_2io16CodedInputStreamEPNS0_13RepeatedFieldIT_EE
__ZN6google8protobuf8internal14WireFormatLite29ReadRepeatedPrimitiveNoInlineIjLNS2_9FieldTypeE7EEEbijPNS0_2io16CodedInputStreamEPNS0_13RepeatedFieldIT_EE
__ZN6google8protobuf8internal14WireFormatLite9ReadBytesEPNS0_2io16CodedInputStreamEPNSt3__112basic_stringIcNS6_11char_traitsIcEENS6_9allocatorIcEEEE
__ZN6google8protobuf8internal14WireFormatLite9WriteBoolEibPNS0_2io17CodedOutputStreamE
__ZN6google8protobuf8internal14WireFormatLite9WriteEnumEiiPNS0_2io17CodedOutputStreamE
__ZN6google8protobuf8internal15ExtensionFinderD2Ev
__ZN6google8protobuf8internal15InitEmptyStringEv
__ZN6google8protobuf8internal15UTF8GenericScanEPKNS1_19UTF8StateMachineObjEPKciPi
__ZN6google8protobuf8internal16FunctionClosure03RunEv
__ZN6google8protobuf8internal16FunctionClosure0D0Ev
__ZN6google8protobuf8internal16FunctionClosure0D1Ev
__ZN6google8protobuf8internal17AllAreInitializedINS0_16RepeatedPtrFieldINS0_15DescriptorProtoEEEEEbRKT_
__ZN6google8protobuf8internal17AllAreInitializedINS0_16RepeatedPtrFieldINS0_19EnumDescriptorProtoEEEEEbRKT_
__ZN6google8protobuf8internal17AllAreInitializedINS0_16RepeatedPtrFieldINS0_19FileDescriptorProtoEEEEEbRKT_
__ZN6google8protobuf8internal17AllAreInitializedINS0_16RepeatedPtrFieldINS0_19UninterpretedOptionEEEEEbRKT_
__ZN6google8protobuf8internal17AllAreInitializedINS0_16RepeatedPtrFieldINS0_20FieldDescriptorProtoEEEEEbRKT_
__ZN6google8protobuf8internal17AllAreInitializedINS0_16RepeatedPtrFieldINS0_21MethodDescriptorProtoEEEEEbRKT_
__ZN6google8protobuf8internal17AllAreInitializedINS0_16RepeatedPtrFieldINS0_22ServiceDescriptorProtoEEEEEbRKT_
__ZN6google8protobuf8internal17AllAreInitializedINS0_16RepeatedPtrFieldINS0_24EnumValueDescriptorProtoEEEEEbRKT_
__ZN6google8protobuf8internal17AllAreInitializedINS0_16RepeatedPtrFieldINS0_28UninterpretedOption_NamePartEEEEEbRKT_
__ZN6google8protobuf8internal17DefaultLogHandlerENS0_8LogLevelEPKciRKNSt3__112basic_stringIcNS5_11char_traitsIcEENS5_9allocatorIcEEEE
__ZN6google8protobuf8internal17DeleteEmptyStringEv
__ZN6google8protobuf8internal17StringTypeHandler9SpaceUsedERKNSt3__112basic_stringIcNS3_11char_traitsIcEENS3_9allocatorIcEEEE
__ZN6google8protobuf8internal18GenericTypeHandlerI28CMsgSteamNetworkingIPAddressE3NewEv
__ZN6google8protobuf8internal18GenericTypeHandlerI32CMsgSteamDatagramP2PRoutes_RouteE3NewEv
__ZN6google8protobuf8internal18GenericTypeHandlerI33CGameNetworkingUI_ConnectionStateE3NewEv
__ZN6google8protobuf8internal18GenericTypeHandlerI34CMsgSteamDatagramCertificateSignedE3NewEv
__ZN6google8protobuf8internal18GenericTypeHandlerI39CMsgSteamDatagramP2PRoutes_RelayClusterE3NewEv
__ZN6google8protobuf8internal18GenericTypeHandlerI42CMsgSteamDatagramClientPingSampleReply_POPE3NewEv
__ZN6google8protobuf8internal18GenericTypeHandlerI43CMsgSteamDatagramRelayAuthTicket_ExtraFieldE3NewEv
__ZN6google8protobuf8internal18GenericTypeHandlerI43CMsgSteamDatagramRouterPingReply_AltAddressE3NewEv
__ZN6google8protobuf8internal18GenericTypeHandlerI47CMsgSteamDatagramRouterPingReply_RouteExceptionE3NewEv
__ZN6google8protobuf8internal18GenericTypeHandlerI48CMsgSteamNetworkingP2PRendezvous_ReliableMessageE3NewEv
__ZN6google8protobuf8internal18GenericTypeHandlerI51CMsgSteamNetworkingP2PRendezvous_ApplicationMessageE3NewEv
__ZN6google8protobuf8internal18GenericTypeHandlerI53CMsgSteamDatagramClientPingSampleReply_POP_AltAddressE3NewEv
__ZN6google8protobuf8internal18GenericTypeHandlerI55CMsgSteamDatagramClientPingSampleReply_LegacyDataCenterE3NewEv
__ZN6google8protobuf8internal18GenericTypeHandlerINS0_15DescriptorProtoEE3NewEv
__ZN6google8protobuf8internal18GenericTypeHandlerINS0_19EnumDescriptorProtoEE3NewEv
__ZN6google8protobuf8internal18GenericTypeHandlerINS0_19FileDescriptorProtoEE3NewEv
__ZN6google8protobuf8internal18GenericTypeHandlerINS0_19UninterpretedOptionEE3NewEv
__ZN6google8protobuf8internal18GenericTypeHandlerINS0_20FieldDescriptorProtoEE3NewEv
__ZN6google8protobuf8internal18GenericTypeHandlerINS0_20OneofDescriptorProtoEE3NewEv
__ZN6google8protobuf8internal18GenericTypeHandlerINS0_21MethodDescriptorProtoEE3NewEv
__ZN6google8protobuf8internal18GenericTypeHandlerINS0_22ServiceDescriptorProtoEE3NewEv
__ZN6google8protobuf8internal18GenericTypeHandlerINS0_23SourceCodeInfo_LocationEE3NewEv
__ZN6google8protobuf8internal18GenericTypeHandlerINS0_24EnumValueDescriptorProtoEE3NewEv
__ZN6google8protobuf8internal18GenericTypeHandlerINS0_28UninterpretedOption_NamePartEE3NewEv
__ZN6google8protobuf8internal18GenericTypeHandlerINS0_30DescriptorProto_ExtensionRangeEE3NewEv
__ZN6google8protobuf8internal18shutdown_functionsE
__ZN6google8protobuf8internal20InitLogSilencerCountEv
__ZN6google8protobuf8internal20RepeatedPtrFieldBase12AddAllocatedINS0_16RepeatedPtrFieldINS0_11MessageLiteEE11TypeHandlerEEEvPNT_4TypeE
__ZN6google8protobuf8internal20RepeatedPtrFieldBase12AddAllocatedINS1_18GenericTypeHandlerINS0_7MessageEEEEEvPNT_4TypeE
__ZN6google8protobuf8internal20RepeatedPtrFieldBase4SwapEPS2_
__ZN6google8protobuf8internal20RepeatedPtrFieldBase5ClearINS0_16RepeatedPtrFieldI28CMsgSteamNetworkingIPAddressE11TypeHandlerEEEvv
__ZN6google8protobuf8internal20RepeatedPtrFieldBase5ClearINS0_16RepeatedPtrFieldI32CMsgSteamDatagramP2PRoutes_RouteE11TypeHandlerEEEvv
__ZN6google8protobuf8internal20RepeatedPtrFieldBase5ClearINS0_16RepeatedPtrFieldI33CGameNetworkingUI_ConnectionStateE11TypeHandlerEEEvv
__ZN6google8protobuf8internal20RepeatedPtrFieldBase5ClearINS0_16RepeatedPtrFieldI34CMsgSteamDatagramCertificateSignedE11TypeHandlerEEEvv
__ZN6google8protobuf8internal20RepeatedPtrFieldBase5ClearINS0_16RepeatedPtrFieldI39CMsgSteamDatagramP2PRoutes_RelayClusterE11TypeHandlerEEEvv
__ZN6google8protobuf8internal20RepeatedPtrFieldBase5ClearINS0_16RepeatedPtrFieldI42CMsgSteamDatagramClientPingSampleReply_POPE11TypeHandlerEEEvv
__ZN6google8protobuf8internal20RepeatedPtrFieldBase5ClearINS0_16RepeatedPtrFieldI43CMsgSteamDatagramRelayAuthTicket_ExtraFieldE11TypeHandlerEEEvv
__ZN6google8protobuf8internal20RepeatedPtrFieldBase5ClearINS0_16RepeatedPtrFieldI43CMsgSteamDatagramRouterPingReply_AltAddressE11TypeHandlerEEEvv
__ZN6google8protobuf8internal20RepeatedPtrFieldBase5ClearINS0_16RepeatedPtrFieldI47CMsgSteamDatagramRouterPingReply_RouteExceptionE11TypeHandlerEEEvv
__ZN6google8protobuf8internal20RepeatedPtrFieldBase5ClearINS0_16RepeatedPtrFieldI48CMsgSteamNetworkingP2PRendezvous_ReliableMessageE11TypeHandlerEEEvv
__ZN6google8protobuf8internal20RepeatedPtrFieldBase5ClearINS0_16RepeatedPtrFieldI51CMsgSteamNetworkingP2PRendezvous_ApplicationMessageE11TypeHandlerEEEvv
__ZN6google8protobuf8internal20RepeatedPtrFieldBase5ClearINS0_16RepeatedPtrFieldI53CMsgSteamDatagramClientPingSampleReply_POP_AltAddressE11TypeHandlerEEEvv
__ZN6google8protobuf8internal20RepeatedPtrFieldBase5ClearINS0_16RepeatedPtrFieldI55CMsgSteamDatagramClientPingSampleReply_LegacyDataCenterE11TypeHandlerEEEvv
__ZN6google8protobuf8internal20RepeatedPtrFieldBase5ClearINS0_16RepeatedPtrFieldINS0_11MessageLiteEE11TypeHandlerEEEvv
__ZN6google8protobuf8internal20RepeatedPtrFieldBase5ClearINS0_16RepeatedPtrFieldINS0_15DescriptorProtoEE11TypeHandlerEEEvv
__ZN6google8protobuf8internal20RepeatedPtrFieldBase5ClearINS0_16RepeatedPtrFieldINS0_19EnumDescriptorProtoEE11TypeHandlerEEEvv
__ZN6google8protobuf8internal20RepeatedPtrFieldBase5ClearINS0_16RepeatedPtrFieldINS0_19FileDescriptorProtoEE11TypeHandlerEEEvv
__ZN6google8protobuf8internal20RepeatedPtrFieldBase5ClearINS0_16RepeatedPtrFieldINS0_19UninterpretedOptionEE11TypeHandlerEEEvv
__ZN6google8protobuf8internal20RepeatedPtrFieldBase5ClearINS0_16RepeatedPtrFieldINS0_20FieldDescriptorProtoEE11TypeHandlerEEEvv
__ZN6google8protobuf8internal20RepeatedPtrFieldBase5ClearINS0_16RepeatedPtrFieldINS0_20OneofDescriptorProtoEE11TypeHandlerEEEvv
__ZN6google8protobuf8internal20RepeatedPtrFieldBase5ClearINS0_16RepeatedPtrFieldINS0_21MethodDescriptorProtoEE11TypeHandlerEEEvv
__ZN6google8protobuf8internal20RepeatedPtrFieldBase5ClearINS0_16RepeatedPtrFieldINS0_22ServiceDescriptorProtoEE11TypeHandlerEEEvv
__ZN6google8protobuf8internal20RepeatedPtrFieldBase5ClearINS0_16RepeatedPtrFieldINS0_23SourceCodeInfo_LocationEE11TypeHandlerEEEvv
__ZN6google8protobuf8internal20RepeatedPtrFieldBase5ClearINS0_16RepeatedPtrFieldINS0_24EnumValueDescriptorProtoEE11TypeHandlerEEEvv
__ZN6google8protobuf8internal20RepeatedPtrFieldBase5ClearINS0_16RepeatedPtrFieldINS0_28UninterpretedOption_NamePartEE11TypeHandlerEEEvv
__ZN6google8protobuf8internal20RepeatedPtrFieldBase5ClearINS0_16RepeatedPtrFieldINS0_30DescriptorProto_ExtensionRangeEE11TypeHandlerEEEvv
__ZN6google8protobuf8internal20RepeatedPtrFieldBase5ClearINS0_16RepeatedPtrFieldINSt3__112basic_stringIcNS5_11char_traitsIcEENS5_9allocatorIcEEEEE11TypeHandlerEEEvv
__ZN6google8protobuf8internal20RepeatedPtrFieldBase5ClearINS1_18GenericTypeHandlerINS0_7MessageEEEEEvv
__ZN6google8protobuf8internal20RepeatedPtrFieldBase7DestroyINS0_16RepeatedPtrFieldI28CMsgSteamNetworkingIPAddressE11TypeHandlerEEEvv
__ZN6google8protobuf8internal20RepeatedPtrFieldBase7DestroyINS0_16RepeatedPtrFieldI32CMsgSteamDatagramP2PRoutes_RouteE11TypeHandlerEEEvv
__ZN6google8protobuf8internal20RepeatedPtrFieldBase7DestroyINS0_16RepeatedPtrFieldI33CGameNetworkingUI_ConnectionStateE11TypeHandlerEEEvv
__ZN6google8protobuf8internal20RepeatedPtrFieldBase7DestroyINS0_16RepeatedPtrFieldI34CMsgSteamDatagramCertificateSignedE11TypeHandlerEEEvv
__ZN6google8protobuf8internal20RepeatedPtrFieldBase7DestroyINS0_16RepeatedPtrFieldI39CMsgSteamDatagramP2PRoutes_RelayClusterE11TypeHandlerEEEvv
__ZN6google8protobuf8internal20RepeatedPtrFieldBase7DestroyINS0_16RepeatedPtrFieldI42CMsgSteamDatagramClientPingSampleReply_POPE11TypeHandlerEEEvv
__ZN6google8protobuf8internal20RepeatedPtrFieldBase7DestroyINS0_16RepeatedPtrFieldI43CMsgSteamDatagramRelayAuthTicket_ExtraFieldE11TypeHandlerEEEvv
__ZN6google8protobuf8internal20RepeatedPtrFieldBase7DestroyINS0_16RepeatedPtrFieldI43CMsgSteamDatagramRouterPingReply_AltAddressE11TypeHandlerEEEvv
__ZN6google8protobuf8internal20RepeatedPtrFieldBase7DestroyINS0_16RepeatedPtrFieldI47CMsgSteamDatagramRouterPingReply_RouteExceptionE11TypeHandlerEEEvv
__ZN6google8protobuf8internal20RepeatedPtrFieldBase7DestroyINS0_16RepeatedPtrFieldI48CMsgSteamNetworkingP2PRendezvous_ReliableMessageE11TypeHandlerEEEvv
__ZN6google8protobuf8internal20RepeatedPtrFieldBase7DestroyINS0_16RepeatedPtrFieldI51CMsgSteamNetworkingP2PRendezvous_ApplicationMessageE11TypeHandlerEEEvv
__ZN6google8protobuf8internal20RepeatedPtrFieldBase7DestroyINS0_16RepeatedPtrFieldI53CMsgSteamDatagramClientPingSampleReply_POP_AltAddressE11TypeHandlerEEEvv
__ZN6google8protobuf8internal20RepeatedPtrFieldBase7DestroyINS0_16RepeatedPtrFieldI55CMsgSteamDatagramClientPingSampleReply_LegacyDataCenterE11TypeHandlerEEEvv
__ZN6google8protobuf8internal20RepeatedPtrFieldBase7DestroyINS0_16RepeatedPtrFieldINS0_11MessageLiteEE11TypeHandlerEEEvv
__ZN6google8protobuf8internal20RepeatedPtrFieldBase7DestroyINS0_16RepeatedPtrFieldINS0_15DescriptorProtoEE11TypeHandlerEEEvv
__ZN6google8protobuf8internal20RepeatedPtrFieldBase7DestroyINS0_16RepeatedPtrFieldINS0_19EnumDescriptorProtoEE11TypeHandlerEEEvv
__ZN6google8protobuf8internal20RepeatedPtrFieldBase7DestroyINS0_16RepeatedPtrFieldINS0_19FileDescriptorProtoEE11TypeHandlerEEEvv
__ZN6google8protobuf8internal20RepeatedPtrFieldBase7DestroyINS0_16RepeatedPtrFieldINS0_19UninterpretedOptionEE11TypeHandlerEEEvv
__ZN6google8protobuf8internal20RepeatedPtrFieldBase7DestroyINS0_16RepeatedPtrFieldINS0_20FieldDescriptorProtoEE11TypeHandlerEEEvv
__ZN6google8protobuf8internal20RepeatedPtrFieldBase7DestroyINS0_16RepeatedPtrFieldINS0_20OneofDescriptorProtoEE11TypeHandlerEEEvv
__ZN6google8protobuf8internal20RepeatedPtrFieldBase7DestroyINS0_16RepeatedPtrFieldINS0_21MethodDescriptorProtoEE11TypeHandlerEEEvv
__ZN6google8protobuf8internal20RepeatedPtrFieldBase7DestroyINS0_16RepeatedPtrFieldINS0_22ServiceDescriptorProtoEE11TypeHandlerEEEvv
__ZN6google8protobuf8internal20RepeatedPtrFieldBase7DestroyINS0_16RepeatedPtrFieldINS0_23SourceCodeInfo_LocationEE11TypeHandlerEEEvv
__ZN6google8protobuf8internal20RepeatedPtrFieldBase7DestroyINS0_16RepeatedPtrFieldINS0_24EnumValueDescriptorProtoEE11TypeHandlerEEEvv
__ZN6google8protobuf8internal20RepeatedPtrFieldBase7DestroyINS0_16RepeatedPtrFieldINS0_28UninterpretedOption_NamePartEE11TypeHandlerEEEvv
__ZN6google8protobuf8internal20RepeatedPtrFieldBase7DestroyINS0_16RepeatedPtrFieldINS0_30DescriptorProto_ExtensionRangeEE11TypeHandlerEEEvv
__ZN6google8protobuf8internal20RepeatedPtrFieldBase7DestroyINS0_16RepeatedPtrFieldINS0_7MessageEE11TypeHandlerEEEvv
__ZN6google8protobuf8internal20RepeatedPtrFieldBase7DestroyINS0_16RepeatedPtrFieldINSt3__112basic_stringIcNS5_11char_traitsIcEENS5_9allocatorIcEEEEE11TypeHandlerEEEvv
__ZN6google8protobuf8internal20RepeatedPtrFieldBase7DestroyINS0_16RepeatedPtrFieldIPNS0_11MessageLiteEE11TypeHandlerEEEvv
__ZN6google8protobuf8internal20RepeatedPtrFieldBase7ReserveEi
__ZN6google8protobuf8internal20RepeatedPtrFieldBase9MergeFromINS0_16RepeatedPtrFieldINS0_15DescriptorProtoEE11TypeHandlerEEEvRKS2_
__ZN6google8protobuf8internal20RepeatedPtrFieldBase9MergeFromINS0_16RepeatedPtrFieldINS0_19EnumDescriptorProtoEE11TypeHandlerEEEvRKS2_
__ZN6google8protobuf8internal20RepeatedPtrFieldBase9MergeFromINS0_16RepeatedPtrFieldINS0_19FileDescriptorProtoEE11TypeHandlerEEEvRKS2_
__ZN6google8protobuf8internal20RepeatedPtrFieldBase9MergeFromINS0_16RepeatedPtrFieldINS0_19UninterpretedOptionEE11TypeHandlerEEEvRKS2_
__ZN6google8protobuf8internal20RepeatedPtrFieldBase9MergeFromINS0_16RepeatedPtrFieldINS0_20FieldDescriptorProtoEE11TypeHandlerEEEvRKS2_
__ZN6google8protobuf8internal20RepeatedPtrFieldBase9MergeFromINS0_16RepeatedPtrFieldINS0_20OneofDescriptorProtoEE11TypeHandlerEEEvRKS2_
__ZN6google8protobuf8internal20RepeatedPtrFieldBase9MergeFromINS0_16RepeatedPtrFieldINS0_21MethodDescriptorProtoEE11TypeHandlerEEEvRKS2_
__ZN6google8protobuf8internal20RepeatedPtrFieldBase9MergeFromINS0_16RepeatedPtrFieldINS0_22ServiceDescriptorProtoEE11TypeHandlerEEEvRKS2_
__ZN6google8protobuf8internal20RepeatedPtrFieldBase9MergeFromINS0_16RepeatedPtrFieldINS0_23SourceCodeInfo_LocationEE11TypeHandlerEEEvRKS2_
__ZN6google8protobuf8internal20RepeatedPtrFieldBase9MergeFromINS0_16RepeatedPtrFieldINS0_24EnumValueDescriptorProtoEE11TypeHandlerEEEvRKS2_
__ZN6google8protobuf8internal20RepeatedPtrFieldBase9MergeFromINS0_16RepeatedPtrFieldINS0_28UninterpretedOption_NamePartEE11TypeHandlerEEEvRKS2_
__ZN6google8protobuf8internal20RepeatedPtrFieldBase9MergeFromINS0_16RepeatedPtrFieldINS0_30DescriptorProto_ExtensionRangeEE11TypeHandlerEEEvRKS2_
__ZN6google8protobuf8internal20RepeatedPtrFieldBase9MergeFromINS0_16RepeatedPtrFieldINSt3__112basic_stringIcNS5_11char_traitsIcEENS5_9allocatorIcEEEEE11TypeHandlerEEEvRKS2_
__ZN6google8protobuf8internal21InitShutdownFunctionsEv
__ZN6google8protobuf8internal21StringTypeHandlerBase3NewEv
__ZN6google8protobuf8internal21StringTypeHandlerBase6DeleteEPNSt3__112basic_stringIcNS3_11char_traitsIcEENS3_9allocatorIcEEEE
__ZN6google8protobuf8internal22DeleteLogSilencerCountEv
__ZN6google8protobuf8internal23IsStructurallyValidUTF8EPKci
__ZN6google8protobuf8internal23empty_string_once_init_E
__ZN6google8protobuf8internal23shutdown_functions_initE
__ZN6google8protobuf8internal24GeneratedExtensionFinder4FindEiPNS1_13ExtensionInfoE
__ZN6google8protobuf8internal24GeneratedExtensionFinderD0Ev
__ZN6google8protobuf8internal24GeneratedExtensionFinderD1Ev
__ZN6google8protobuf8internal24InitLogSilencerCountOnceEv
__ZN6google8protobuf8internal24RepeatedStringTypeTraits23default_repeated_field_E
__ZN6google8protobuf8internal24UTF8GenericScanFastAsciiEPKNS1_19UTF8StateMachineObjEPKciPi
__ZN6google8protobuf8internal24log_silencer_count_init_E
__ZN6google8protobuf8internal24shutdown_functions_mutexE
__ZN6google8protobuf8internal26GeneratedMessageReflectionC1EPKNS0_10DescriptorEPKNS0_7MessageEPKiiiiPKNS0_14DescriptorPoolEPNS0_14MessageFactoryEi
__ZN6google8protobuf8internal26GeneratedMessageReflectionC1EPKNS0_10DescriptorEPKNS0_7MessageEPKiiiiPKviPKNS0_14DescriptorPoolEPNS0_14MessageFactoryEi
__ZN6google8protobuf8internal26GeneratedMessageReflectionC2EPKNS0_10DescriptorEPKNS0_7MessageEPKiiiiPKNS0_14DescriptorPoolEPNS0_14MessageFactoryEi
__ZN6google8protobuf8internal26GeneratedMessageReflectionC2EPKNS0_10DescriptorEPKNS0_7MessageEPKiiiiPKviPKNS0_14DescriptorPoolEPNS0_14MessageFactoryEi
__ZN6google8protobuf8internal26GeneratedMessageReflectionD0Ev
__ZN6google8protobuf8internal26GeneratedMessageReflectionD1Ev
__ZN6google8protobuf8internal27UnknownFieldSetFieldSkipper11SkipMessageEPNS0_2io16CodedInputStreamE
__ZN6google8protobuf8internal27UnknownFieldSetFieldSkipper15SkipUnknownEnumEii
__ZN6google8protobuf8internal27UnknownFieldSetFieldSkipper9SkipFieldEPNS0_2io16CodedInputStreamEj
__ZN6google8protobuf8internal27UnknownFieldSetFieldSkipperD0Ev
__ZN6google8protobuf8internal27UnknownFieldSetFieldSkipperD1Ev
__ZN6google8protobuf8internal28DestroyDefaultRepeatedFieldsEv
__ZN6google8protobuf8internal28StringSpaceUsedExcludingSelfERKNSt3__112basic_stringIcNS2_11char_traitsIcEENS2_9allocatorIcEEEE
__ZN6google8protobuf8internal29DescriptorPoolExtensionFinder4FindEiPNS1_13ExtensionInfoE
__ZN6google8protobuf8internal29DescriptorPoolExtensionFinderD0Ev
__ZN6google8protobuf8internal29DescriptorPoolExtensionFinderD1Ev
__ZN6google8protobuf8internal31InitializeDefaultRepeatedFieldsEv
__ZN6google8protobuf8internal32RepeatedMessageGenericTypeTraits23default_repeated_field_E
__ZN6google8protobuf8internal34RepeatedPrimitiveGenericTypeTraits28default_repeated_field_bool_E
__ZN6google8protobuf8internal34RepeatedPrimitiveGenericTypeTraits29default_repeated_field_float_E
__ZN6google8protobuf8internal34RepeatedPrimitiveGenericTypeTraits29default_repeated_field_int32_E
__ZN6google8protobuf8internal34RepeatedPrimitiveGenericTypeTraits29default_repeated_field_int64_E
__ZN6google8protobuf8internal34RepeatedPrimitiveGenericTypeTraits30default_repeated_field_double_E
__ZN6google8protobuf8internal34RepeatedPrimitiveGenericTypeTraits30default_repeated_field_uint32_E
__ZN6google8protobuf8internal34RepeatedPrimitiveGenericTypeTraits30default_repeated_field_uint64_E
__ZN6google8protobuf8internal5Mutex10AssertHeldEv
__ZN6google8protobuf8internal5Mutex4LockEv
__ZN6google8protobuf8internal5Mutex6UnlockEv
__ZN6google8protobuf8internal5MutexC1Ev
__ZN6google8protobuf8internal5MutexD1Ev
__ZN6google8protobuf8internal5MutexD2Ev
__ZN6google8protobuf8internal9MutexLockD2Ev
__ZN6google8protobuf8internalL12log_handler_E
__ZN6google8protobuf8internalL16SubMessagePrefixERKNSt3__112basic_stringIcNS2_11char_traitsIcEENS2_9allocatorIcEEEEPKNS0_15FieldDescriptorEi
__ZN6google8protobuf8internalL19log_silencer_count_E
__ZN6google8protobuf8internalL23utf8acceptnonsurrogatesE
__ZN6google8protobuf8internalL25log_silencer_count_mutex_E
__ZN6google8protobuf8internalL27ValidateEnumUsingDescriptorEPKvi
__ZN6google8protobuf8internalL27utf8acceptnonsurrogates_objE
__ZN6google8protobuf8internalL28utf8acceptnonsurrogates_fastE
__ZN6google8protobuf8internalL34utf8acceptnonsurrogates_remap_baseE
__ZN6google8protobuf8internalL36utf8acceptnonsurrogates_remap_stringE
__ZN6google8protobuf8safe_intENSt3__112basic_stringIcNS1_11char_traitsIcEENS1_9allocatorIcEEEEPi
__ZN6google8protobufL16two_ASCII_digitsE
__ZN7CCrypto12Base64DecodeEPKcjPvPjb
__ZN7CCrypto13DecodePEMBodyEPKcjR10CUtlBufferS1_
__ZN7CCrypto13LocatePEMBodyEPKcPjS1_
__ZN7CCrypto15GenerateHMAC256EPKhjS1_jPA32_h
__ZN7CCrypto17DecodeBase64ToBufEPKcjR10CUtlBuffer
__ZN7CCrypto18PerformKeyExchangeERK24CECKeyExchangePrivateKeyRK23CECKeyExchangePublicKeyPA32_h
__ZN7CCrypto19GenerateRandomBlockEPvi
__ZN7CCrypto20GenerateSHA256DigestEPKvmPA32_h
__ZN7CCrypto22GenerateSigningKeyPairEP19CECSigningPublicKeyP20CECSigningPrivateKey
__ZN7CCrypto26GenerateKeyExchangeKeyPairEP23CECKeyExchangePublicKeyP24CECKeyExchangePrivateKey
__ZN7CCrypto4InitEv
__ZN7CCrypto7SipHashEPKvmRA2_Ky
__ZN7CCrypto9HexDecodeEPKcPvPj
__ZN8picojson16_parse_codepointINSt3__112basic_stringIcNS1_11char_traitsIcEENS1_9allocatorIcEEEENS1_11__wrap_iterIPKcEEEEbRT_RNS_5inputIT0_EE
__ZN8picojson21default_parse_context10set_numberEd
__ZN8picojson21default_parse_context12parse_stringINSt3__111__wrap_iterIPKcEEEEbRNS_5inputIT_EE
__ZN8picojson21default_parse_context16parse_array_itemINSt3__111__wrap_iterIPKcEEEEbRNS_5inputIT_EEm
__ZN8picojson21default_parse_context17parse_array_startEv
__ZN8picojson21default_parse_context17parse_object_itemINSt3__111__wrap_iterIPKcEEEEbRNS_5inputIT_EERKNS2_12basic_stringIcNS2_11char_traitsIcEENS2_9allocatorIcEEEE
__ZN8picojson21default_parse_context18parse_object_startEv
__ZN8picojson5inputINSt3__111__wrap_iterIPKcEEE4getcEv
__ZN8picojson5inputINSt3__111__wrap_iterIPKcEEE5matchERKNS1_12basic_stringIcNS1_11char_traitsIcEENS1_9allocatorIcEEEE
__ZN8picojson5inputINSt3__111__wrap_iterIPKcEEE6expectEi
__ZN8picojson6_parseINS_21default_parse_contextENSt3__111__wrap_iterIPKcEEEEbRT_RNS_5inputIT0_EE
__ZNK10CIPAddress10IsLoopbackEv
__ZNK10CIPAddress12IsMappedIPv4Ev
__ZNK10CIPAddress13IsReservedAdrEv
__ZNK10CIPAddress5HasIPEv
__ZNK10CIPAddress7GetIPV6EPh
__ZNK10CIPAddress8ToStringEPcjPKt
__ZNK10CIPAddresseqERKS_
__ZNK10CIPAndPort10CompareAdrERKS_b
__ZNK10CIPAndPort13ToSockadrIPV6EPvm
__ZNK10CIPAndPort7IsValidEv
__ZNK10CIPAndPort8ToStringEPcjb
__ZNK10CIPAndPort9ToSockadrEPvm
__ZNK11CUtlHashMapI10CIPAndPortPN25SteamNetworkingSocketsLib11RelayServerENSt3__18equal_toIS0_EENS0_4HashEE12FindInBucketEiRKS0_
__ZNK11CUtlHashMapI10CIPAndPortPN25SteamNetworkingSocketsLib11RelayServerENSt3__18equal_toIS0_EENS0_4HashEE4FindERKS0_
__ZNK11CUtlHashMapI10CIPAndPortPN25SteamNetworkingSocketsLib11RelayServerENSt3__18equal_toIS0_EENS0_4HashEE5RangeINS8_20MutableValueIteratorEE5beginEv
__ZNK11CUtlHashMapI10CIPAndPortPN25SteamNetworkingSocketsLib13CSharedSocket10RemoteHostENSt3__18equal_toIS0_EENS0_4HashEE12FindInBucketEiRKS0_
__ZNK11CUtlHashMapI10CIPAndPortPN25SteamNetworkingSocketsLib13CSharedSocket10RemoteHostENSt3__18equal_toIS0_EENS0_4HashEE4FindERKS0_
__ZNK11CUtlHashMapI21SteamNetworkingIPAddrPN25SteamNetworkingSocketsLib14FakeUDPSessionENSt3__18equal_toIS0_EENS1_25SteamNetworkingIPAddrHashEE12FindInBucketEiRKS0_
__ZNK11CUtlHashMapI21SteamNetworkingIPAddrPN25SteamNetworkingSocketsLib14FakeUDPSessionENSt3__18equal_toIS0_EENS1_25SteamNetworkingIPAddrHashEE4FindERKS0_
__ZNK11CUtlHashMapI23SteamNetworkingIdentityPN25SteamNetworkingSocketsLib30SteamNetworkingMessagesSessionENSt3__18equal_toIS0_EENS1_27SteamNetworkingIdentityHashEE12FindInBucketEiRKS0_
__ZNK11CUtlHashMapI23SteamNetworkingIdentityPN25SteamNetworkingSocketsLib30SteamNetworkingMessagesSessionENSt3__18equal_toIS0_EENS1_27SteamNetworkingIdentityHashEE4FindERKS0_
__ZNK11CUtlHashMapIN25SteamNetworkingSocketsLib21RemoteConnectionKey_tEPNS0_26CSteamNetworkConnectionP2PENSt3__18equal_toIS1_EENS1_4HashEE12FindInBucketEiRKS1_
__ZNK11CUtlHashMapIN25SteamNetworkingSocketsLib21RemoteConnectionKey_tEPNS0_26CSteamNetworkConnectionP2PENSt3__18equal_toIS1_EENS1_4HashEE4FindERKS1_
__ZNK11CUtlHashMapIN25SteamNetworkingSocketsLib21RemoteConnectionKey_tEPNS0_27CSteamNetworkConnectionBaseENSt3__18equal_toIS1_EENS1_4HashEE12FindInBucketEiRKS1_
__ZNK11CUtlHashMapIN25SteamNetworkingSocketsLib21RemoteConnectionKey_tEPNS0_27CSteamNetworkConnectionBaseENSt3__18equal_toIS1_EENS1_4HashEE4FindERKS1_
__ZNK11CUtlHashMapIN25SteamNetworkingSocketsLib9FakeIPKeyENS0_10FakeIPDataENSt3__18equal_toIS1_EENS1_4HashEE12FindInBucketEiRKS1_
__ZNK11CUtlHashMapIN25SteamNetworkingSocketsLib9FakeIPKeyENS0_10FakeIPDataENSt3__18equal_toIS1_EENS1_4HashEE4FindERKS1_
__ZNK11CUtlHashMapIiPN25SteamNetworkingSocketsLib17CMessagesEndPointENSt3__18equal_toIiEENS3_4hashIiEEE4FindERKi
__ZNK11CUtlHashMapIiPN25SteamNetworkingSocketsLib24CSteamNetworkingMessages7ChannelENSt3__18equal_toIiEENS4_4hashIiEEE4FindERKi
__ZNK11CUtlHashMapIiPN25SteamNetworkingSocketsLib28CSteamNetworkListenSocketP2PENSt3__18equal_toIiEENS3_4hashIiEEE4FindERKi
__ZNK11CUtlHashMapIibNSt3__18equal_toIiEENS0_4hashIiEEE4FindERKi
__ZNK11CUtlHashMapIjN25SteamNetworkingSocketsLib17SharedClusterData14DataCenterPingENSt3__18equal_toIjEENS3_4hashIjEEE4FindERKj
__ZNK11CUtlHashMapIjPN25SteamNetworkingSocketsLib17SharedClusterDataENSt3__18equal_toIjEENS3_4hashIjEEE4FindERKj
__ZNK11CUtlHashMapIjPN25SteamNetworkingSocketsLib17SharedClusterDataENSt3__18equal_toIjEENS3_4hashIjEEE5RangeINS8_20MutableValueIteratorEE5beginEv
__ZNK11CUtlHashMapIjPN25SteamNetworkingSocketsLib24CMessagesEndPointSessionENSt3__18equal_toIjEENS3_4hashIjEEE4FindERKj
__ZNK11CUtlHashMapItPN25SteamNetworkingSocketsLib27CSteamNetworkConnectionBaseENSt3__18equal_toItEENS0_8IdentityItEEE4FindERKt
__ZNK11CUtlHashMapItPN25SteamNetworkingSocketsLib27CSteamNetworkConnectionBaseENSt3__18equal_toItEENS0_8IdentityItEEE5RangeINS8_20MutableValueIteratorEE5beginEv
__ZNK11CUtlHashMapIyNSt3__110unique_ptrIN25SteamNetworkingSocketsLib9PublicKeyENS0_14default_deleteIS3_EEEENS0_8equal_toIyEENS0_4hashIyEEE4FindERKy
__ZNK11CUtlHashMapIyNSt3__110unique_ptrIN25SteamNetworkingSocketsLib9PublicKeyENS0_14default_deleteIS3_EEEENS0_8equal_toIyEENS0_4hashIyEEE5RangeINSB_19MutableItemIteratorEE5beginEv
__ZNK11CUtlHashMapIyNSt3__110unique_ptrIN25SteamNetworkingSocketsLib9PublicKeyENS0_14default_deleteIS3_EEEENS0_8equal_toIyEENS0_4hashIyEEE5RangeINSB_20MutableValueIteratorEE5beginEv
__ZNK14CCryptoKeyBase21GetRawDataAsStdStringEPNSt3__112basic_stringIcNS0_11char_traitsIcEENS0_9allocatorIcEEEE
__ZNK14CCryptoKeyBaseeqERKS_
__ZNK14CUtlMemoryBase12NumAllocatedEv
__ZNK14CUtlMemoryBase21IsExternallyAllocatedEv
__ZNK14CUtlMemoryBase5CountEv
__ZNK15CEC25519KeyBase10GetRawDataEPv
__ZNK15CEC25519KeyBase7IsValidEv
__ZNK17CMsgICERendezvous11GetMetadataEv
__ZNK17CMsgICERendezvous13GetCachedSizeEv
__ZNK17CMsgICERendezvous13IsInitializedEv
__ZNK17CMsgICERendezvous13SetCachedSizeEi
__ZNK17CMsgICERendezvous24SerializeWithCachedSizesEPN6google8protobuf2io17CodedOutputStreamE
__ZNK17CMsgICERendezvous31SerializeWithCachedSizesToArrayEPh
__ZNK17CMsgICERendezvous3NewEv
__ZNK17CMsgICERendezvous8ByteSizeEv
__ZNK19CECSigningPublicKey15VerifySignatureEPKvmRA64_Kh
__ZNK19PercentileGeneratorIhLi1000EE13GetPercentileEf
__ZNK19PercentileGeneratorIiLi1000EE13GetPercentileEf
__ZNK19PercentileGeneratorItLi1000EE13GetPercentileEf
__ZNK20CECSigningPrivateKey17GenerateSignatureEPKvmPA64_h
__ZNK22CEC25519PrivateKeyBase12GetPublicKeyEP21CEC25519PublicKeyBase
__ZNK22CEC25519PrivateKeyBase16MatchesPublicKeyERK21CEC25519PublicKeyBase
__ZNK22CMsgICERendezvous_Auth11GetMetadataEv
__ZNK22CMsgICERendezvous_Auth13GetCachedSizeEv
__ZNK22CMsgICERendezvous_Auth13IsInitializedEv
__ZNK22CMsgICERendezvous_Auth13SetCachedSizeEi
__ZNK22CMsgICERendezvous_Auth24SerializeWithCachedSizesEPN6google8protobuf2io17CodedOutputStreamE
__ZNK22CMsgICERendezvous_Auth31SerializeWithCachedSizesToArrayEPh
__ZNK22CMsgICERendezvous_Auth3NewEv
__ZNK22CMsgICERendezvous_Auth8ByteSizeEv
__ZNK24CCryptoKeyBase_RawBuffer10GetRawDataEPv
__ZNK24CCryptoKeyBase_RawBuffer7IsValidEv
__ZNK25CGameNetworkingUI_Message11GetMetadataEv
__ZNK25CGameNetworkingUI_Message13GetCachedSizeEv
__ZNK25CGameNetworkingUI_Message13IsInitializedEv
__ZNK25CGameNetworkingUI_Message13SetCachedSizeEi
__ZNK25CGameNetworkingUI_Message24SerializeWithCachedSizesEPN6google8protobuf2io17CodedOutputStreamE
__ZNK25CGameNetworkingUI_Message31SerializeWithCachedSizesToArrayEPh
__ZNK25CGameNetworkingUI_Message3NewEv
__ZNK25CGameNetworkingUI_Message8ByteSizeEv
__ZNK25SteamNetworkingSocketsLib11PingTracker23WorstPingInRecentSampleEv
__ZNK25SteamNetworkingSocketsLib11RelayServer16FindAltTransportERK10CIPAndPort
__ZNK25SteamNetworkingSocketsLib11RelayServer31CalculatePingMSFromWireSendTimeEjxPKc
__ZNK25SteamNetworkingSocketsLib13LockDebugInfo26_AssertHeldByCurrentThreadEPKciS2_
__ZNK25SteamNetworkingSocketsLib15FakeIPReference7GetInfoEP23SteamNetworkingIdentityP21SteamNetworkingIPAddr
__ZNK25SteamNetworkingSocketsLib15SSNPSenderState18DebugCheckReliableEv
__ZNK25SteamNetworkingSocketsLib15SSNPSenderState27DebugCheckInFlightPacketMapEv
__ZNK25SteamNetworkingSocketsLib16ILockableThinkerINS_14ConnectionLockEE7TryLockEv
__ZNK25SteamNetworkingSocketsLib17CP2PRouteSelector11FindClusterEj
__ZNK25SteamNetworkingSocketsLib17CP2PRouteSelector15MarkItemsToSendERNS0_20MessageToPeerBuilderERA1024_c
__ZNK25SteamNetworkingSocketsLib17CP2PRouteSelector17InitMessageToPeerERNS0_20MessageToPeerBuilderE
__ZNK25SteamNetworkingSocketsLib17CP2PRouteSelector20CheckOldMessageValidERNS0_20MessageToPeerBuilderERK26CMsgSteamDatagramP2PRoutesxRA1024_c
__ZNK25SteamNetworkingSocketsLib17CP2PRouteSelector5Route13InteriorScoreEv
__ZNK25SteamNetworkingSocketsLib17CP2PRouteSelector9FindRouteEii
__ZNK25SteamNetworkingSocketsLib17CRawUDPSocketImpl20BSendRawPacketGatherEiPK5iovecRK10CIPAndPort
__ZNK25SteamNetworkingSocketsLib17CRawUDPSocketImpl8TracePktEbRK10CIPAndPortiPK5iovec
__ZNK25SteamNetworkingSocketsLib17CertAuthParameterIjLj4294967295EE7HasItemEj
__ZNK25SteamNetworkingSocketsLib17SSNPReceiverState20DebugCheckPackGapMapEv
__ZNK25SteamNetworkingSocketsLib17SharedClusterData18FindDataCenterPingEj
__ZNK25SteamNetworkingSocketsLib17SharedClusterData19GetPingToDataCenterEjRNS_12EPingQualityERiNS_19EDataCenterPingTypeE
__ZNK25SteamNetworkingSocketsLib17SharedClusterData19SelectRandomAddressEv
__ZNK25SteamNetworkingSocketsLib17SharedClusterData23FindRecentFailedAddressERK10CIPAndPort
__ZNK25SteamNetworkingSocketsLib18PingTrackerBucketsILi17ELx1000000EE29GetPingRangeFromRecentBucketsERiS2_x
__ZNK25SteamNetworkingSocketsLib19PingTrackerDetailed16GetLifetimeStatsERNS_30SteamDatagramLinkLifetimeStatsE
__ZNK25SteamNetworkingSocketsLib20CConnectionTransport30BCanSendEndToEndConnectRequestEv
__ZNK25SteamNetworkingSocketsLib20CConnectionTransport31TransportPopulateConnectionInfoER24SteamNetConnectionInfo_t
__ZNK25SteamNetworkingSocketsLib20LinkStatsTrackerBase12GetLinkStatsERNS_22SteamDatagramLinkStatsEx
__ZNK25SteamNetworkingSocketsLib20LinkStatsTrackerBase16GetLifetimeStatsERNS_30SteamDatagramLinkLifetimeStatsE
__ZNK25SteamNetworkingSocketsLib20LinkStatsTrackerBase26RecvPktNumStateDebugStringEv
__ZNK25SteamNetworkingSocketsLib20SteamDatagramNetwork11FindPOPByIDEj
__ZNK25SteamNetworkingSocketsLib20SteamDatagramNetwork13FindPOPByCodeEPKc
__ZNK25SteamNetworkingSocketsLib20SteamDatagramNetwork17GetCanonicalPOPIDEj
__ZNK25SteamNetworkingSocketsLib20SteamDatagramNetwork19MapToCanonicalPOPIDEj
__ZNK25SteamNetworkingSocketsLib20SteamDatagramNetwork21FindPOPByCodeNoLookupEPKc
__ZNK25SteamNetworkingSocketsLib20SteamDatagramNetwork21FindRelayPOPByAddressERK10CIPAndPortPi
__ZNK25SteamNetworkingSocketsLib20SteamDatagramNetwork3POP22GetRelayAddressAtIndexEi
__ZNK25SteamNetworkingSocketsLib23CConnectionTransportUDP20BCanSendEndToEndDataEv
__ZNK25SteamNetworkingSocketsLib23CConnectionTransportUDP30BCanSendEndToEndConnectRequestEv
__ZNK25SteamNetworkingSocketsLib23CConnectionTransportUDP31TransportPopulateConnectionInfoER24SteamNetConnectionInfo_t
__ZNK25SteamNetworkingSocketsLib23CSteamNetworkingSockets16BCertHasIdentityEv
__ZNK25SteamNetworkingSocketsLib23CSteamNetworkingSockets25GetSecondsUntilCertExpiryEv
__ZNK25SteamNetworkingSocketsLib24LinkStatsTrackerEndToEnd16GetLifetimeStatsERNS_30SteamDatagramLinkLifetimeStatsE
__ZNK25SteamNetworkingSocketsLib24LinkStatsTrackerEndToEnd8DescribeEv
__ZNK25SteamNetworkingSocketsLib24SNPSendReliableSegment_t5beginEv
__ZNK25SteamNetworkingSocketsLib26CConnectionTransportP2PICE20BCanSendEndToEndDataEv
__ZNK25SteamNetworkingSocketsLib26CConnectionTransportP2PICE31TransportPopulateConnectionInfoER24SteamNetConnectionInfo_t
__ZNK25SteamNetworkingSocketsLib26CConnectionTransportP2PSDR23SDRTRansportGetPingTypeEv
__ZNK25SteamNetworkingSocketsLib26CConnectionTransportP2PSDR31TransportPopulateConnectionInfoER24SteamNetConnectionInfo_t
__ZNK25SteamNetworkingSocketsLib26CSteamNetworkConnectionP2P28GetConnectionTypeDescriptionERA80_c
__ZNK25SteamNetworkingSocketsLib26CSteamNetworkConnectionP2P39GetConnectionTypeDescription_GetP2PTypeERA80_c
__ZNK25SteamNetworkingSocketsLib26CSteamNetworkConnectionUDP28GetConnectionTypeDescriptionERA80_c
__ZNK25SteamNetworkingSocketsLib27CConnectionTransportP2PBase21CalcTotalTimeSelectedEx
__ZNK25SteamNetworkingSocketsLib27CConnectionTransportSDRBase18DebugDescribeRelayERKNS_11RelayServerE
__ZNK25SteamNetworkingSocketsLib27CConnectionTransportSDRBase20BCanSendEndToEndDataEv
__ZNK25SteamNetworkingSocketsLib27CConnectionTransportSDRBase21BHasAllWantedSessionsEv
__ZNK25SteamNetworkingSocketsLib27CConnectionTransportSDRBase31TransportPopulateConnectionInfoER24SteamNetConnectionInfo_t
__ZNK25SteamNetworkingSocketsLib27CSteamNetworkConnectionBase22ConnectionPopulateInfoER24SteamNetConnectionInfo_t
__ZNK25SteamNetworkingSocketsLib27CSteamNetworkConnectionBase27SNP_BHasAnyBufferedRecvDataEv
__ZNK25SteamNetworkingSocketsLib27CSteamNetworkConnectionBase32SNP_TimeWhenWantToSendNextPacketEv
__ZNK25SteamNetworkingSocketsLib27CSteamNetworkConnectionPipe20BCanSendEndToEndDataEv
__ZNK25SteamNetworkingSocketsLib27CSteamNetworkConnectionPipe28GetConnectionTypeDescriptionERA80_c
__ZNK25SteamNetworkingSocketsLib27CSteamNetworkConnectionPipe30BCanSendEndToEndConnectRequestEv
__ZNK25SteamNetworkingSocketsLib27CSteamNetworkConnectionPipe31TransportPopulateConnectionInfoER24SteamNetConnectionInfo_t
__ZNK25SteamNetworkingSocketsLib27SessionSelectQualityMetrics9DebugInfoEv
__ZNK25SteamNetworkingSocketsLib27SteamNetworkingMessageQueue14AssertLockHeldEv
__ZNK25SteamNetworkingSocketsLib30ScheduledMethodThinkerLockableINS_27CConnectionTransportP2PBaseEE7TryLockEv
__ZNK25SteamNetworkingSocketsLib30ScheduledMethodThinkerLockableINS_27CConnectionTransportSDRBaseEE7TryLockEv
__ZNK25SteamNetworkingSocketsLib31CConnectionTransportToSDRServer23SDRTRansportGetPingTypeEv
__ZNK25SteamNetworkingSocketsLib31CConnectionTransportToSDRServer30BCanSendEndToEndConnectRequestEv
__ZNK25SteamNetworkingSocketsLib31CConnectionTransportToSDRServer31TransportPopulateConnectionInfoER24SteamNetConnectionInfo_t
__ZNK25SteamNetworkingSocketsLib34LinkStatsTrackerClientRelaySession8DescribeEv
__ZNK25SteamNetworkingSocketsLib34SteamNetworkPingLocationInternal_t8ToStringEPci
__ZNK25SteamNetworkingSocketsLib8IThinker7TryLockEv
__ZNK25SteamNetworkingSocketsLib9PacketAck15MicrosecondsAgeEx
__ZNK25SteamNetworkingSocketsLib9PublicKey14CalculateKeyIDEv
__ZNK26CMsgSteamDatagramConnectOK11GetMetadataEv
__ZNK26CMsgSteamDatagramConnectOK13GetCachedSizeEv
__ZNK26CMsgSteamDatagramConnectOK13IsInitializedEv
__ZNK26CMsgSteamDatagramConnectOK13SetCachedSizeEi
__ZNK26CMsgSteamDatagramConnectOK24SerializeWithCachedSizesEPN6google8protobuf2io17CodedOutputStreamE
__ZNK26CMsgSteamDatagramConnectOK31SerializeWithCachedSizesToArrayEPh
__ZNK26CMsgSteamDatagramConnectOK3NewEv
__ZNK26CMsgSteamDatagramConnectOK8ByteSizeEv
__ZNK26CMsgSteamDatagramP2PRoutes11GetMetadataEv
__ZNK26CMsgSteamDatagramP2PRoutes13GetCachedSizeEv
__ZNK26CMsgSteamDatagramP2PRoutes13IsInitializedEv
__ZNK26CMsgSteamDatagramP2PRoutes13SetCachedSizeEi
__ZNK26CMsgSteamDatagramP2PRoutes24SerializeWithCachedSizesEPN6google8protobuf2io17CodedOutputStreamE
__ZNK26CMsgSteamDatagramP2PRoutes31SerializeWithCachedSizesToArrayEPh
__ZNK26CMsgSteamDatagramP2PRoutes3NewEv
__ZNK26CMsgSteamDatagramP2PRoutes8ByteSizeEv
__ZNK26CMsgSteamSockets_UDP_Stats11GetMetadataEv
__ZNK26CMsgSteamSockets_UDP_Stats13GetCachedSizeEv
__ZNK26CMsgSteamSockets_UDP_Stats13IsInitializedEv
__ZNK26CMsgSteamSockets_UDP_Stats13SetCachedSizeEi
__ZNK26CMsgSteamSockets_UDP_Stats24SerializeWithCachedSizesEPN6google8protobuf2io17CodedOutputStreamE
__ZNK26CMsgSteamSockets_UDP_Stats31SerializeWithCachedSizesToArrayEPh
__ZNK26CMsgSteamSockets_UDP_Stats3NewEv
__ZNK26CMsgSteamSockets_UDP_Stats8ByteSizeEv
__ZNK26SteamDatagramHostedAddress8GetPopIDEv
__ZNK27CMsgICERendezvous_Candidate11GetMetadataEv
__ZNK27CMsgICERendezvous_Candidate13GetCachedSizeEv
__ZNK27CMsgICERendezvous_Candidate13IsInitializedEv
__ZNK27CMsgICERendezvous_Candidate13SetCachedSizeEi
__ZNK27CMsgICERendezvous_Candidate24SerializeWithCachedSizesEPN6google8protobuf2io17CodedOutputStreamE
__ZNK27CMsgICERendezvous_Candidate31SerializeWithCachedSizesToArrayEPh
__ZNK27CMsgICERendezvous_Candidate3NewEv
__ZNK27CMsgICERendezvous_Candidate8ByteSizeEv
__ZNK27CMsgSteamDatagramDiagnostic11GetMetadataEv
__ZNK27CMsgSteamDatagramDiagnostic13GetCachedSizeEv
__ZNK27CMsgSteamDatagramDiagnostic13IsInitializedEv
__ZNK27CMsgSteamDatagramDiagnostic13SetCachedSizeEi
__ZNK27CMsgSteamDatagramDiagnostic24SerializeWithCachedSizesEPN6google8protobuf2io17CodedOutputStreamE
__ZNK27CMsgSteamDatagramDiagnostic31SerializeWithCachedSizesToArrayEPh
__ZNK27CMsgSteamDatagramDiagnostic3NewEv
__ZNK27CMsgSteamDatagramDiagnostic8ByteSizeEv
__ZNK28CMsgSteamDatagramCertificate11GetMetadataEv
__ZNK28CMsgSteamDatagramCertificate13GetCachedSizeEv
__ZNK28CMsgSteamDatagramCertificate13IsInitializedEv
__ZNK28CMsgSteamDatagramCertificate13SetCachedSizeEi
__ZNK28CMsgSteamDatagramCertificate24SerializeWithCachedSizesEPN6google8protobuf2io17CodedOutputStreamE
__ZNK28CMsgSteamDatagramCertificate31SerializeWithCachedSizesToArrayEPh
__ZNK28CMsgSteamDatagramCertificate3NewEv
__ZNK28CMsgSteamDatagramCertificate8ByteSizeEv
__ZNK28CMsgSteamNetworkingIPAddress11GetMetadataEv
__ZNK28CMsgSteamNetworkingIPAddress13GetCachedSizeEv
__ZNK28CMsgSteamNetworkingIPAddress13IsInitializedEv
__ZNK28CMsgSteamNetworkingIPAddress13SetCachedSizeEi
__ZNK28CMsgSteamNetworkingIPAddress24SerializeWithCachedSizesEPN6google8protobuf2io17CodedOutputStreamE
__ZNK28CMsgSteamNetworkingIPAddress31SerializeWithCachedSizesToArrayEPh
__ZNK28CMsgSteamNetworkingIPAddress3NewEv
__ZNK28CMsgSteamNetworkingIPAddress8ByteSizeEv
__ZNK29CGameNetworkingUI_GlobalState11GetMetadataEv
__ZNK29CGameNetworkingUI_GlobalState13GetCachedSizeEv
__ZNK29CGameNetworkingUI_GlobalState13IsInitializedEv
__ZNK29CGameNetworkingUI_GlobalState13SetCachedSizeEi
__ZNK29CGameNetworkingUI_GlobalState24SerializeWithCachedSizesEPN6google8protobuf2io17CodedOutputStreamE
__ZNK29CGameNetworkingUI_GlobalState31SerializeWithCachedSizesToArrayEPh
__ZNK29CGameNetworkingUI_GlobalState3NewEv
__ZNK29CGameNetworkingUI_GlobalState8ByteSizeEv
__ZNK29CMsgSteamDatagramNoConnection11GetMetadataEv
__ZNK29CMsgSteamDatagramNoConnection13GetCachedSizeEv
__ZNK29CMsgSteamDatagramNoConnection13IsInitializedEv
__ZNK29CMsgSteamDatagramNoConnection13SetCachedSizeEi
__ZNK29CMsgSteamDatagramNoConnection24SerializeWithCachedSizesEPN6google8protobuf2io17CodedOutputStreamE
__ZNK29CMsgSteamDatagramNoConnection31SerializeWithCachedSizesToArrayEPh
__ZNK29CMsgSteamDatagramNoConnection3NewEv
__ZNK29CMsgSteamDatagramNoConnection8ByteSizeEv
__ZNK30CMsgSteamSockets_UDP_ConnectOK11GetMetadataEv
__ZNK30CMsgSteamSockets_UDP_ConnectOK13GetCachedSizeEv
__ZNK30CMsgSteamSockets_UDP_ConnectOK13IsInitializedEv
__ZNK30CMsgSteamSockets_UDP_ConnectOK13SetCachedSizeEi
__ZNK30CMsgSteamSockets_UDP_ConnectOK24SerializeWithCachedSizesEPN6google8protobuf2io17CodedOutputStreamE
__ZNK30CMsgSteamSockets_UDP_ConnectOK31SerializeWithCachedSizesToArrayEPh
__ZNK30CMsgSteamSockets_UDP_ConnectOK3NewEv
__ZNK30CMsgSteamSockets_UDP_ConnectOK8ByteSizeEv
__ZNK31CMsgSteamDatagramConnectRequest11GetMetadataEv
__ZNK31CMsgSteamDatagramConnectRequest13GetCachedSizeEv
__ZNK31CMsgSteamDatagramConnectRequest13IsInitializedEv
__ZNK31CMsgSteamDatagramConnectRequest13SetCachedSizeEi
__ZNK31CMsgSteamDatagramConnectRequest24SerializeWithCachedSizesEPN6google8protobuf2io17CodedOutputStreamE
__ZNK31CMsgSteamDatagramConnectRequest31SerializeWithCachedSizesToArrayEPh
__ZNK31CMsgSteamDatagramConnectRequest3NewEv
__ZNK31CMsgSteamDatagramConnectRequest8ByteSizeEv
__ZNK32CMsgSteamDatagramP2PRoutes_Route11GetMetadataEv
__ZNK32CMsgSteamDatagramP2PRoutes_Route13GetCachedSizeEv
__ZNK32CMsgSteamDatagramP2PRoutes_Route13IsInitializedEv
__ZNK32CMsgSteamDatagramP2PRoutes_Route13SetCachedSizeEi
__ZNK32CMsgSteamDatagramP2PRoutes_Route24SerializeWithCachedSizesEPN6google8protobuf2io17CodedOutputStreamE
__ZNK32CMsgSteamDatagramP2PRoutes_Route31SerializeWithCachedSizesToArrayEPh
__ZNK32CMsgSteamDatagramP2PRoutes_Route3NewEv
__ZNK32CMsgSteamDatagramP2PRoutes_Route8ByteSizeEv
__ZNK32CMsgSteamDatagramRelayAuthTicket11GetMetadataEv
__ZNK32CMsgSteamDatagramRelayAuthTicket13GetCachedSizeEv
__ZNK32CMsgSteamDatagramRelayAuthTicket13IsInitializedEv
__ZNK32CMsgSteamDatagramRelayAuthTicket13SetCachedSizeEi
__ZNK32CMsgSteamDatagramRelayAuthTicket24SerializeWithCachedSizesEPN6google8protobuf2io17CodedOutputStreamE
__ZNK32CMsgSteamDatagramRelayAuthTicket31SerializeWithCachedSizesToArrayEPh
__ZNK32CMsgSteamDatagramRelayAuthTicket3NewEv
__ZNK32CMsgSteamDatagramRelayAuthTicket8ByteSizeEv
__ZNK32CMsgSteamDatagramRouterPingReply11GetMetadataEv
__ZNK32CMsgSteamDatagramRouterPingReply13GetCachedSizeEv
__ZNK32CMsgSteamDatagramRouterPingReply13IsInitializedEv
__ZNK32CMsgSteamDatagramRouterPingReply13SetCachedSizeEi
__ZNK32CMsgSteamDatagramRouterPingReply24SerializeWithCachedSizesEPN6google8protobuf2io17CodedOutputStreamE
__ZNK32CMsgSteamDatagramRouterPingReply31SerializeWithCachedSizesToArrayEPh
__ZNK32CMsgSteamDatagramRouterPingReply3NewEv
__ZNK32CMsgSteamDatagramRouterPingReply8ByteSizeEv
__ZNK32CMsgSteamNetworkingP2PRendezvous11GetMetadataEv
__ZNK32CMsgSteamNetworkingP2PRendezvous13GetCachedSizeEv
__ZNK32CMsgSteamNetworkingP2PRendezvous13IsInitializedEv
__ZNK32CMsgSteamNetworkingP2PRendezvous13SetCachedSizeEi
__ZNK32CMsgSteamNetworkingP2PRendezvous24SerializeWithCachedSizesEPN6google8protobuf2io17CodedOutputStreamE
__ZNK32CMsgSteamNetworkingP2PRendezvous31SerializeWithCachedSizesToArrayEPh
__ZNK32CMsgSteamNetworkingP2PRendezvous3NewEv
__ZNK32CMsgSteamNetworkingP2PRendezvous8ByteSizeEv
__ZNK33CGameNetworkingUI_ConnectionState11GetMetadataEv
__ZNK33CGameNetworkingUI_ConnectionState13GetCachedSizeEv
__ZNK33CGameNetworkingUI_ConnectionState13IsInitializedEv
__ZNK33CGameNetworkingUI_ConnectionState13SetCachedSizeEi
__ZNK33CGameNetworkingUI_ConnectionState24SerializeWithCachedSizesEPN6google8protobuf2io17CodedOutputStreamE
__ZNK33CGameNetworkingUI_ConnectionState31SerializeWithCachedSizesToArrayEPh
__ZNK33CGameNetworkingUI_ConnectionState3NewEv
__ZNK33CGameNetworkingUI_ConnectionState8ByteSizeEv
__ZNK33CMsgSteamDatagramConnectionClosed11GetMetadataEv
__ZNK33CMsgSteamDatagramConnectionClosed13GetCachedSizeEv
__ZNK33CMsgSteamDatagramConnectionClosed13IsInitializedEv
__ZNK33CMsgSteamDatagramConnectionClosed13SetCachedSizeEi
__ZNK33CMsgSteamDatagramConnectionClosed24SerializeWithCachedSizesEPN6google8protobuf2io17CodedOutputStreamE
__ZNK33CMsgSteamDatagramConnectionClosed31SerializeWithCachedSizesToArrayEPh
__ZNK33CMsgSteamDatagramConnectionClosed3NewEv
__ZNK33CMsgSteamDatagramConnectionClosed8ByteSizeEv
__ZNK33CMsgSteamDatagramSessionCryptInfo11GetMetadataEv
__ZNK33CMsgSteamDatagramSessionCryptInfo13GetCachedSizeEv
__ZNK33CMsgSteamDatagramSessionCryptInfo13IsInitializedEv
__ZNK33CMsgSteamDatagramSessionCryptInfo13SetCachedSizeEi
__ZNK33CMsgSteamDatagramSessionCryptInfo24SerializeWithCachedSizesEPN6google8protobuf2io17CodedOutputStreamE
__ZNK33CMsgSteamDatagramSessionCryptInfo31SerializeWithCachedSizesToArrayEPh
__ZNK33CMsgSteamDatagramSessionCryptInfo3NewEv
__ZNK33CMsgSteamDatagramSessionCryptInfo8ByteSizeEv
__ZNK33CMsgSteamSockets_UDP_NoConnection11GetMetadataEv
__ZNK33CMsgSteamSockets_UDP_NoConnection13GetCachedSizeEv
__ZNK33CMsgSteamSockets_UDP_NoConnection13IsInitializedEv
__ZNK33CMsgSteamSockets_UDP_NoConnection13SetCachedSizeEi
__ZNK33CMsgSteamSockets_UDP_NoConnection24SerializeWithCachedSizesEPN6google8protobuf2io17CodedOutputStreamE
__ZNK33CMsgSteamSockets_UDP_NoConnection31SerializeWithCachedSizesToArrayEPh
__ZNK33CMsgSteamSockets_UDP_NoConnection3NewEv
__ZNK33CMsgSteamSockets_UDP_NoConnection8ByteSizeEv
__ZNK34CMsgSteamDatagramCertificateSigned11GetMetadataEv
__ZNK34CMsgSteamDatagramCertificateSigned13GetCachedSizeEv
__ZNK34CMsgSteamDatagramCertificateSigned13IsInitializedEv
__ZNK34CMsgSteamDatagramCertificateSigned13SetCachedSizeEi
__ZNK34CMsgSteamDatagramCertificateSigned24SerializeWithCachedSizesEPN6google8protobuf2io17CodedOutputStreamE
__ZNK34CMsgSteamDatagramCertificateSigned31SerializeWithCachedSizesToArrayEPh
__ZNK34CMsgSteamDatagramCertificateSigned3NewEv
__ZNK34CMsgSteamDatagramCertificateSigned8ByteSizeEv
__ZNK34CMsgSteamDatagramConnectionQuality11GetMetadataEv
__ZNK34CMsgSteamDatagramConnectionQuality13GetCachedSizeEv
__ZNK34CMsgSteamDatagramConnectionQuality13IsInitializedEv
__ZNK34CMsgSteamDatagramConnectionQuality13SetCachedSizeEi
__ZNK34CMsgSteamDatagramConnectionQuality24SerializeWithCachedSizesEPN6google8protobuf2io17CodedOutputStreamE
__ZNK34CMsgSteamDatagramConnectionQuality31SerializeWithCachedSizesToArrayEPh
__ZNK34CMsgSteamDatagramConnectionQuality3NewEv
__ZNK34CMsgSteamDatagramConnectionQuality8ByteSizeEv
__ZNK34CMsgSteamDatagramLinkLifetimeStats11GetMetadataEv
__ZNK34CMsgSteamDatagramLinkLifetimeStats13GetCachedSizeEv
__ZNK34CMsgSteamDatagramLinkLifetimeStats13IsInitializedEv
__ZNK34CMsgSteamDatagramLinkLifetimeStats13SetCachedSizeEi
__ZNK34CMsgSteamDatagramLinkLifetimeStats24SerializeWithCachedSizesEPN6google8protobuf2io17CodedOutputStreamE
__ZNK34CMsgSteamDatagramLinkLifetimeStats31SerializeWithCachedSizesToArrayEPh
__ZNK34CMsgSteamDatagramLinkLifetimeStats3NewEv
__ZNK34CMsgSteamDatagramLinkLifetimeStats8ByteSizeEv
__ZNK34CMsgSteamDatagramP2PRoutingSummary11GetMetadataEv
__ZNK34CMsgSteamDatagramP2PRoutingSummary13GetCachedSizeEv
__ZNK34CMsgSteamDatagramP2PRoutingSummary13IsInitializedEv
__ZNK34CMsgSteamDatagramP2PRoutingSummary13SetCachedSizeEi
__ZNK34CMsgSteamDatagramP2PRoutingSummary24SerializeWithCachedSizesEPN6google8protobuf2io17CodedOutputStreamE
__ZNK34CMsgSteamDatagramP2PRoutingSummary31SerializeWithCachedSizesToArrayEPh
__ZNK34CMsgSteamDatagramP2PRoutingSummary3NewEv
__ZNK34CMsgSteamDatagramP2PRoutingSummary8ByteSizeEv
__ZNK34CMsgSteamDatagramP2PSessionRequest11GetMetadataEv
__ZNK34CMsgSteamDatagramP2PSessionRequest13GetCachedSizeEv
__ZNK34CMsgSteamDatagramP2PSessionRequest13IsInitializedEv
__ZNK34CMsgSteamDatagramP2PSessionRequest13SetCachedSizeEi
__ZNK34CMsgSteamDatagramP2PSessionRequest24SerializeWithCachedSizesEPN6google8protobuf2io17CodedOutputStreamE
__ZNK34CMsgSteamDatagramP2PSessionRequest31SerializeWithCachedSizesToArrayEPh
__ZNK34CMsgSteamDatagramP2PSessionRequest3NewEv
__ZNK34CMsgSteamDatagramP2PSessionRequest8ByteSizeEv
__ZNK35CMsgSteamDatagramCertificateRequest11GetMetadataEv
__ZNK35CMsgSteamDatagramCertificateRequest13GetCachedSizeEv
__ZNK35CMsgSteamDatagramCertificateRequest13IsInitializedEv
__ZNK35CMsgSteamDatagramCertificateRequest13SetCachedSizeEi
__ZNK35CMsgSteamDatagramCertificateRequest24SerializeWithCachedSizesEPN6google8protobuf2io17CodedOutputStreamE
__ZNK35CMsgSteamDatagramCertificateRequest31SerializeWithCachedSizesToArrayEPh
__ZNK35CMsgSteamDatagramCertificateRequest3NewEv
__ZNK35CMsgSteamDatagramCertificateRequest8ByteSizeEv
__ZNK35CMsgSteamSockets_UDP_ChallengeReply11GetMetadataEv
__ZNK35CMsgSteamSockets_UDP_ChallengeReply13GetCachedSizeEv
__ZNK35CMsgSteamSockets_UDP_ChallengeReply13IsInitializedEv
__ZNK35CMsgSteamSockets_UDP_ChallengeReply13SetCachedSizeEi
__ZNK35CMsgSteamSockets_UDP_ChallengeReply24SerializeWithCachedSizesEPN6google8protobuf2io17CodedOutputStreamE
__ZNK35CMsgSteamSockets_UDP_ChallengeReply31SerializeWithCachedSizesToArrayEPh
__ZNK35CMsgSteamSockets_UDP_ChallengeReply3NewEv
__ZNK35CMsgSteamSockets_UDP_ChallengeReply8ByteSizeEv
__ZNK35CMsgSteamSockets_UDP_ConnectRequest11GetMetadataEv
__ZNK35CMsgSteamSockets_UDP_ConnectRequest13GetCachedSizeEv
__ZNK35CMsgSteamSockets_UDP_ConnectRequest13IsInitializedEv
__ZNK35CMsgSteamSockets_UDP_ConnectRequest13SetCachedSizeEi
__ZNK35CMsgSteamSockets_UDP_ConnectRequest24SerializeWithCachedSizesEPN6google8protobuf2io17CodedOutputStreamE
__ZNK35CMsgSteamSockets_UDP_ConnectRequest31SerializeWithCachedSizesToArrayEPh
__ZNK35CMsgSteamSockets_UDP_ConnectRequest3NewEv
__ZNK35CMsgSteamSockets_UDP_ConnectRequest8ByteSizeEv
__ZNK36CMsgSteamNetworkingICESessionSummary11GetMetadataEv
__ZNK36CMsgSteamNetworkingICESessionSummary13GetCachedSizeEv
__ZNK36CMsgSteamNetworkingICESessionSummary13IsInitializedEv
__ZNK36CMsgSteamNetworkingICESessionSummary13SetCachedSizeEi
__ZNK36CMsgSteamNetworkingICESessionSummary24SerializeWithCachedSizesEPN6google8protobuf2io17CodedOutputStreamE
__ZNK36CMsgSteamNetworkingICESessionSummary31SerializeWithCachedSizesToArrayEPh
__ZNK36CMsgSteamNetworkingICESessionSummary3NewEv
__ZNK36CMsgSteamNetworkingICESessionSummary8ByteSizeEv
__ZNK37CMsgSteamDatagramNoSessionRelayToPeer11GetMetadataEv
__ZNK37CMsgSteamDatagramNoSessionRelayToPeer13GetCachedSizeEv
__ZNK37CMsgSteamDatagramNoSessionRelayToPeer13IsInitializedEv
__ZNK37CMsgSteamDatagramNoSessionRelayToPeer13SetCachedSizeEi
__ZNK37CMsgSteamDatagramNoSessionRelayToPeer24SerializeWithCachedSizesEPN6google8protobuf2io17CodedOutputStreamE
__ZNK37CMsgSteamDatagramNoSessionRelayToPeer31SerializeWithCachedSizesToArrayEPh
__ZNK37CMsgSteamDatagramNoSessionRelayToPeer3NewEv
__ZNK37CMsgSteamDatagramNoSessionRelayToPeer8ByteSizeEv
__ZNK37CMsgSteamDatagramSignedMessageGeneric11GetMetadataEv
__ZNK37CMsgSteamDatagramSignedMessageGeneric13GetCachedSizeEv
__ZNK37CMsgSteamDatagramSignedMessageGeneric13IsInitializedEv
__ZNK37CMsgSteamDatagramSignedMessageGeneric13SetCachedSizeEi
__ZNK37CMsgSteamDatagramSignedMessageGeneric24SerializeWithCachedSizesEPN6google8protobuf2io17CodedOutputStreamE
__ZNK37CMsgSteamDatagramSignedMessageGeneric31SerializeWithCachedSizesToArrayEPh
__ZNK37CMsgSteamDatagramSignedMessageGeneric3NewEv
__ZNK37CMsgSteamDatagramSignedMessageGeneric8ByteSizeEv
__ZNK37CMsgSteamSockets_UDP_ChallengeRequest11GetMetadataEv
__ZNK37CMsgSteamSockets_UDP_ChallengeRequest13GetCachedSizeEv
__ZNK37CMsgSteamSockets_UDP_ChallengeRequest13IsInitializedEv
__ZNK37CMsgSteamSockets_UDP_ChallengeRequest13SetCachedSizeEi
__ZNK37CMsgSteamSockets_UDP_ChallengeRequest24SerializeWithCachedSizesEPN6google8protobuf2io17CodedOutputStreamE
__ZNK37CMsgSteamSockets_UDP_ChallengeRequest31SerializeWithCachedSizesToArrayEPh
__ZNK37CMsgSteamSockets_UDP_ChallengeRequest3NewEv
__ZNK37CMsgSteamSockets_UDP_ChallengeRequest8ByteSizeEv
__ZNK37CMsgSteamSockets_UDP_ConnectionClosed11GetMetadataEv
__ZNK37CMsgSteamSockets_UDP_ConnectionClosed13GetCachedSizeEv
__ZNK37CMsgSteamSockets_UDP_ConnectionClosed13IsInitializedEv
__ZNK37CMsgSteamSockets_UDP_ConnectionClosed13SetCachedSizeEi
__ZNK37CMsgSteamSockets_UDP_ConnectionClosed24SerializeWithCachedSizesEPN6google8protobuf2io17CodedOutputStreamE
__ZNK37CMsgSteamSockets_UDP_ConnectionClosed31SerializeWithCachedSizesToArrayEPh
__ZNK37CMsgSteamSockets_UDP_ConnectionClosed3NewEv
__ZNK37CMsgSteamSockets_UDP_ConnectionClosed8ByteSizeEv
__ZNK38CMsgSteamDatagramClientPingSampleReply11GetMetadataEv
__ZNK38CMsgSteamDatagramClientPingSampleReply13GetCachedSizeEv
__ZNK38CMsgSteamDatagramClientPingSampleReply13IsInitializedEv
__ZNK38CMsgSteamDatagramClientPingSampleReply13SetCachedSizeEi
__ZNK38CMsgSteamDatagramClientPingSampleReply24SerializeWithCachedSizesEPN6google8protobuf2io17CodedOutputStreamE
__ZNK38CMsgSteamDatagramClientPingSampleReply31SerializeWithCachedSizesToArrayEPh
__ZNK38CMsgSteamDatagramClientPingSampleReply3NewEv
__ZNK38CMsgSteamDatagramClientPingSampleReply8ByteSizeEv
__ZNK38CMsgSteamDatagramClientSwitchedPrimary11GetMetadataEv
__ZNK38CMsgSteamDatagramClientSwitchedPrimary13GetCachedSizeEv
__ZNK38CMsgSteamDatagramClientSwitchedPrimary13IsInitializedEv
__ZNK38CMsgSteamDatagramClientSwitchedPrimary13SetCachedSizeEi
__ZNK38CMsgSteamDatagramClientSwitchedPrimary24SerializeWithCachedSizesEPN6google8protobuf2io17CodedOutputStreamE
__ZNK38CMsgSteamDatagramClientSwitchedPrimary31SerializeWithCachedSizesToArrayEPh
__ZNK38CMsgSteamDatagramClientSwitchedPrimary3NewEv
__ZNK38CMsgSteamDatagramClientSwitchedPrimary8ByteSizeEv
__ZNK38CMsgSteamDatagramP2PSessionEstablished11GetMetadataEv
__ZNK38CMsgSteamDatagramP2PSessionEstablished13GetCachedSizeEv
__ZNK38CMsgSteamDatagramP2PSessionEstablished13IsInitializedEv
__ZNK38CMsgSteamDatagramP2PSessionEstablished13SetCachedSizeEi
__ZNK38CMsgSteamDatagramP2PSessionEstablished24SerializeWithCachedSizesEPN6google8protobuf2io17CodedOutputStreamE
__ZNK38CMsgSteamDatagramP2PSessionEstablished31SerializeWithCachedSizesToArrayEPh
__ZNK38CMsgSteamDatagramP2PSessionEstablished3NewEv
__ZNK38CMsgSteamDatagramP2PSessionEstablished8ByteSizeEv
__ZNK38CMsgSteamDatagramP2PSessionRequestBody11GetMetadataEv
__ZNK38CMsgSteamDatagramP2PSessionRequestBody13GetCachedSizeEv
__ZNK38CMsgSteamDatagramP2PSessionRequestBody13IsInitializedEv
__ZNK38CMsgSteamDatagramP2PSessionRequestBody13SetCachedSizeEi
__ZNK38CMsgSteamDatagramP2PSessionRequestBody24SerializeWithCachedSizesEPN6google8protobuf2io17CodedOutputStreamE
__ZNK38CMsgSteamDatagramP2PSessionRequestBody31SerializeWithCachedSizesToArrayEPh
__ZNK38CMsgSteamDatagramP2PSessionRequestBody3NewEv
__ZNK38CMsgSteamDatagramP2PSessionRequestBody8ByteSizeEv
__ZNK38CMsgSteamDatagramSignedRelayAuthTicket11GetMetadataEv
__ZNK38CMsgSteamDatagramSignedRelayAuthTicket13GetCachedSizeEv
__ZNK38CMsgSteamDatagramSignedRelayAuthTicket13IsInitializedEv
__ZNK38CMsgSteamDatagramSignedRelayAuthTicket13SetCachedSizeEi
__ZNK38CMsgSteamDatagramSignedRelayAuthTicket24SerializeWithCachedSizesEPN6google8protobuf2io17CodedOutputStreamE
__ZNK38CMsgSteamDatagramSignedRelayAuthTicket31SerializeWithCachedSizesToArrayEPh
__ZNK38CMsgSteamDatagramSignedRelayAuthTicket3NewEv
__ZNK38CMsgSteamDatagramSignedRelayAuthTicket8ByteSizeEv
__ZNK39CMsgSteamDatagramLinkInstantaneousStats11GetMetadataEv
__ZNK39CMsgSteamDatagramLinkInstantaneousStats13GetCachedSizeEv
__ZNK39CMsgSteamDatagramLinkInstantaneousStats13IsInitializedEv
__ZNK39CMsgSteamDatagramLinkInstantaneousStats13SetCachedSizeEi
__ZNK39CMsgSteamDatagramLinkInstantaneousStats24SerializeWithCachedSizesEPN6google8protobuf2io17CodedOutputStreamE
__ZNK39CMsgSteamDatagramLinkInstantaneousStats31SerializeWithCachedSizesToArrayEPh
__ZNK39CMsgSteamDatagramLinkInstantaneousStats3NewEv
__ZNK39CMsgSteamDatagramLinkInstantaneousStats8ByteSizeEv
__ZNK39CMsgSteamDatagramNoSessionRelayToClient11GetMetadataEv
__ZNK39CMsgSteamDatagramNoSessionRelayToClient13GetCachedSizeEv
__ZNK39CMsgSteamDatagramNoSessionRelayToClient13IsInitializedEv
__ZNK39CMsgSteamDatagramNoSessionRelayToClient13SetCachedSizeEi
__ZNK39CMsgSteamDatagramNoSessionRelayToClient24SerializeWithCachedSizesEPN6google8protobuf2io17CodedOutputStreamE
__ZNK39CMsgSteamDatagramNoSessionRelayToClient31SerializeWithCachedSizesToArrayEPh
__ZNK39CMsgSteamDatagramNoSessionRelayToClient3NewEv
__ZNK39CMsgSteamDatagramNoSessionRelayToClient8ByteSizeEv
__ZNK39CMsgSteamDatagramP2PRoutes_RelayCluster11GetMetadataEv
__ZNK39CMsgSteamDatagramP2PRoutes_RelayCluster13GetCachedSizeEv
__ZNK39CMsgSteamDatagramP2PRoutes_RelayCluster13IsInitializedEv
__ZNK39CMsgSteamDatagramP2PRoutes_RelayCluster13SetCachedSizeEi
__ZNK39CMsgSteamDatagramP2PRoutes_RelayCluster24SerializeWithCachedSizesEPN6google8protobuf2io17CodedOutputStreamE
__ZNK39CMsgSteamDatagramP2PRoutes_RelayCluster31SerializeWithCachedSizesToArrayEPh
__ZNK39CMsgSteamDatagramP2PRoutes_RelayCluster3NewEv
__ZNK39CMsgSteamDatagramP2PRoutes_RelayCluster8ByteSizeEv
__ZNK39CMsgSteamDatagramSessionCryptInfoSigned11GetMetadataEv
__ZNK39CMsgSteamDatagramSessionCryptInfoSigned13GetCachedSizeEv
__ZNK39CMsgSteamDatagramSessionCryptInfoSigned13IsInitializedEv
__ZNK39CMsgSteamDatagramSessionCryptInfoSigned13SetCachedSizeEi
__ZNK39CMsgSteamDatagramSessionCryptInfoSigned24SerializeWithCachedSizesEPN6google8protobuf2io17CodedOutputStreamE
__ZNK39CMsgSteamDatagramSessionCryptInfoSigned31SerializeWithCachedSizesToArrayEPh
__ZNK39CMsgSteamDatagramSessionCryptInfoSigned3NewEv
__ZNK39CMsgSteamDatagramSessionCryptInfoSigned8ByteSizeEv
__ZNK39CMsgSteamNetworkingIdentityLegacyBinary11GetMetadataEv
__ZNK39CMsgSteamNetworkingIdentityLegacyBinary13GetCachedSizeEv
__ZNK39CMsgSteamNetworkingIdentityLegacyBinary13IsInitializedEv
__ZNK39CMsgSteamNetworkingIdentityLegacyBinary13SetCachedSizeEi
__ZNK39CMsgSteamNetworkingIdentityLegacyBinary24SerializeWithCachedSizesEPN6google8protobuf2io17CodedOutputStreamE
__ZNK39CMsgSteamNetworkingIdentityLegacyBinary31SerializeWithCachedSizesToArrayEPh
__ZNK39CMsgSteamNetworkingIdentityLegacyBinary3NewEv
__ZNK39CMsgSteamNetworkingIdentityLegacyBinary8ByteSizeEv
__ZNK39CMsgSteamNetworkingP2PSDRRoutingSummary11GetMetadataEv
__ZNK39CMsgSteamNetworkingP2PSDRRoutingSummary13GetCachedSizeEv
__ZNK39CMsgSteamNetworkingP2PSDRRoutingSummary13IsInitializedEv
__ZNK39CMsgSteamNetworkingP2PSDRRoutingSummary13SetCachedSizeEi
__ZNK39CMsgSteamNetworkingP2PSDRRoutingSummary24SerializeWithCachedSizesEPN6google8protobuf2io17CodedOutputStreamE
__ZNK39CMsgSteamNetworkingP2PSDRRoutingSummary31SerializeWithCachedSizesToArrayEPh
__ZNK39CMsgSteamNetworkingP2PSDRRoutingSummary3NewEv
__ZNK39CMsgSteamNetworkingP2PSDRRoutingSummary8ByteSizeEv
__ZNK40CMsgSteamDatagramCachedCredentialsForApp11GetMetadataEv
__ZNK40CMsgSteamDatagramCachedCredentialsForApp13GetCachedSizeEv
__ZNK40CMsgSteamDatagramCachedCredentialsForApp13IsInitializedEv
__ZNK40CMsgSteamDatagramCachedCredentialsForApp13SetCachedSizeEi
__ZNK40CMsgSteamDatagramCachedCredentialsForApp24SerializeWithCachedSizesEPN6google8protobuf2io17CodedOutputStreamE
__ZNK40CMsgSteamDatagramCachedCredentialsForApp31SerializeWithCachedSizesToArrayEPh
__ZNK40CMsgSteamDatagramCachedCredentialsForApp3NewEv
__ZNK40CMsgSteamDatagramCachedCredentialsForApp8ByteSizeEv
__ZNK40CMsgSteamDatagramClientPingSampleRequest11GetMetadataEv
__ZNK40CMsgSteamDatagramClientPingSampleRequest13GetCachedSizeEv
__ZNK40CMsgSteamDatagramClientPingSampleRequest13IsInitializedEv
__ZNK40CMsgSteamDatagramClientPingSampleRequest13SetCachedSizeEi
__ZNK40CMsgSteamDatagramClientPingSampleRequest24SerializeWithCachedSizesEPN6google8protobuf2io17CodedOutputStreamE
__ZNK40CMsgSteamDatagramClientPingSampleRequest31SerializeWithCachedSizesToArrayEPh
__ZNK40CMsgSteamDatagramClientPingSampleRequest3NewEv
__ZNK40CMsgSteamDatagramClientPingSampleRequest8ByteSizeEv
__ZNK40CMsgSteamDatagramGameserverPingReplyData11GetMetadataEv
__ZNK40CMsgSteamDatagramGameserverPingReplyData13GetCachedSizeEv
__ZNK40CMsgSteamDatagramGameserverPingReplyData13IsInitializedEv
__ZNK40CMsgSteamDatagramGameserverPingReplyData13SetCachedSizeEi
__ZNK40CMsgSteamDatagramGameserverPingReplyData24SerializeWithCachedSizesEPN6google8protobuf2io17CodedOutputStreamE
__ZNK40CMsgSteamDatagramGameserverPingReplyData31SerializeWithCachedSizesToArrayEPh
__ZNK40CMsgSteamDatagramGameserverPingReplyData3NewEv
__ZNK40CMsgSteamDatagramGameserverPingReplyData8ByteSizeEv
__ZNK41CMsgSteamDatagramGameserverSessionRequest11GetMetadataEv
__ZNK41CMsgSteamDatagramGameserverSessionRequest13GetCachedSizeEv
__ZNK41CMsgSteamDatagramGameserverSessionRequest13IsInitializedEv
__ZNK41CMsgSteamDatagramGameserverSessionRequest13SetCachedSizeEi
__ZNK41CMsgSteamDatagramGameserverSessionRequest24SerializeWithCachedSizesEPN6google8protobuf2io17CodedOutputStreamE
__ZNK41CMsgSteamDatagramGameserverSessionRequest31SerializeWithCachedSizesToArrayEPh
__ZNK41CMsgSteamDatagramGameserverSessionRequest3NewEv
__ZNK41CMsgSteamDatagramGameserverSessionRequest8ByteSizeEv
__ZNK42CMsgSteamDatagramClientPingSampleReply_POP11GetMetadataEv
__ZNK42CMsgSteamDatagramClientPingSampleReply_POP13GetCachedSizeEv
__ZNK42CMsgSteamDatagramClientPingSampleReply_POP13IsInitializedEv
__ZNK42CMsgSteamDatagramClientPingSampleReply_POP13SetCachedSizeEi
__ZNK42CMsgSteamDatagramClientPingSampleReply_POP24SerializeWithCachedSizesEPN6google8protobuf2io17CodedOutputStreamE
__ZNK42CMsgSteamDatagramClientPingSampleReply_POP31SerializeWithCachedSizesToArrayEPh
__ZNK42CMsgSteamDatagramClientPingSampleReply_POP3NewEv
__ZNK42CMsgSteamDatagramClientPingSampleReply_POP8ByteSizeEv
__ZNK42CMsgSteamDatagramGameserverPingRequestBody11GetMetadataEv
__ZNK42CMsgSteamDatagramGameserverPingRequestBody13GetCachedSizeEv
__ZNK42CMsgSteamDatagramGameserverPingRequestBody13IsInitializedEv
__ZNK42CMsgSteamDatagramGameserverPingRequestBody13SetCachedSizeEi
__ZNK42CMsgSteamDatagramGameserverPingRequestBody24SerializeWithCachedSizesEPN6google8protobuf2io17CodedOutputStreamE
__ZNK42CMsgSteamDatagramGameserverPingRequestBody31SerializeWithCachedSizesToArrayEPh
__ZNK42CMsgSteamDatagramGameserverPingRequestBody3NewEv
__ZNK42CMsgSteamDatagramGameserverPingRequestBody8ByteSizeEv
__ZNK42CMsgSteamDatagramP2PBadRouteRouterToClient11GetMetadataEv
__ZNK42CMsgSteamDatagramP2PBadRouteRouterToClient13GetCachedSizeEv
__ZNK42CMsgSteamDatagramP2PBadRouteRouterToClient13IsInitializedEv
__ZNK42CMsgSteamDatagramP2PBadRouteRouterToClient13SetCachedSizeEi
__ZNK42CMsgSteamDatagramP2PBadRouteRouterToClient24SerializeWithCachedSizesEPN6google8protobuf2io17CodedOutputStreamE
__ZNK42CMsgSteamDatagramP2PBadRouteRouterToClient31SerializeWithCachedSizesToArrayEPh
__ZNK42CMsgSteamDatagramP2PBadRouteRouterToClient3NewEv
__ZNK42CMsgSteamDatagramP2PBadRouteRouterToClient8ByteSizeEv
__ZNK42CMsgSteamDatagramSetSecondaryAddressResult11GetMetadataEv
__ZNK42CMsgSteamDatagramSetSecondaryAddressResult13GetCachedSizeEv
__ZNK42CMsgSteamDatagramSetSecondaryAddressResult13IsInitializedEv
__ZNK42CMsgSteamDatagramSetSecondaryAddressResult13SetCachedSizeEi
__ZNK42CMsgSteamDatagramSetSecondaryAddressResult24SerializeWithCachedSizesEPN6google8protobuf2io17CodedOutputStreamE
__ZNK42CMsgSteamDatagramSetSecondaryAddressResult31SerializeWithCachedSizesToArrayEPh
__ZNK42CMsgSteamDatagramSetSecondaryAddressResult3NewEv
__ZNK42CMsgSteamDatagramSetSecondaryAddressResult8ByteSizeEv
__ZNK42CMsgSteamNetworkingP2PRendezvous_ConnectOK11GetMetadataEv
__ZNK42CMsgSteamNetworkingP2PRendezvous_ConnectOK13GetCachedSizeEv
__ZNK42CMsgSteamNetworkingP2PRendezvous_ConnectOK13IsInitializedEv
__ZNK42CMsgSteamNetworkingP2PRendezvous_ConnectOK13SetCachedSizeEi
__ZNK42CMsgSteamNetworkingP2PRendezvous_ConnectOK24SerializeWithCachedSizesEPN6google8protobuf2io17CodedOutputStreamE
__ZNK42CMsgSteamNetworkingP2PRendezvous_ConnectOK31SerializeWithCachedSizesToArrayEPh
__ZNK42CMsgSteamNetworkingP2PRendezvous_ConnectOK3NewEv
__ZNK42CMsgSteamNetworkingP2PRendezvous_ConnectOK8ByteSizeEv
__ZNK43CMsgSteamDatagramGameCoordinatorServerLogin11GetMetadataEv
__ZNK43CMsgSteamDatagramGameCoordinatorServerLogin13GetCachedSizeEv
__ZNK43CMsgSteamDatagramGameCoordinatorServerLogin13IsInitializedEv
__ZNK43CMsgSteamDatagramGameCoordinatorServerLogin13SetCachedSizeEi
__ZNK43CMsgSteamDatagramGameCoordinatorServerLogin24SerializeWithCachedSizesEPN6google8protobuf2io17CodedOutputStreamE
__ZNK43CMsgSteamDatagramGameCoordinatorServerLogin31SerializeWithCachedSizesToArrayEPh
__ZNK43CMsgSteamDatagramGameCoordinatorServerLogin3NewEv
__ZNK43CMsgSteamDatagramGameCoordinatorServerLogin8ByteSizeEv
__ZNK43CMsgSteamDatagramRelayAuthTicket_ExtraField11GetMetadataEv
__ZNK43CMsgSteamDatagramRelayAuthTicket_ExtraField13GetCachedSizeEv
__ZNK43CMsgSteamDatagramRelayAuthTicket_ExtraField13IsInitializedEv
__ZNK43CMsgSteamDatagramRelayAuthTicket_ExtraField13SetCachedSizeEi
__ZNK43CMsgSteamDatagramRelayAuthTicket_ExtraField24SerializeWithCachedSizesEPN6google8protobuf2io17CodedOutputStreamE
__ZNK43CMsgSteamDatagramRelayAuthTicket_ExtraField31SerializeWithCachedSizesToArrayEPh
__ZNK43CMsgSteamDatagramRelayAuthTicket_ExtraField3NewEv
__ZNK43CMsgSteamDatagramRelayAuthTicket_ExtraField8ByteSizeEv
__ZNK43CMsgSteamDatagramRouterPingReply_AltAddress11GetMetadataEv
__ZNK43CMsgSteamDatagramRouterPingReply_AltAddress13GetCachedSizeEv
__ZNK43CMsgSteamDatagramRouterPingReply_AltAddress13IsInitializedEv
__ZNK43CMsgSteamDatagramRouterPingReply_AltAddress13SetCachedSizeEi
__ZNK43CMsgSteamDatagramRouterPingReply_AltAddress24SerializeWithCachedSizesEPN6google8protobuf2io17CodedOutputStreamE
__ZNK43CMsgSteamDatagramRouterPingReply_AltAddress31SerializeWithCachedSizesToArrayEPh
__ZNK43CMsgSteamDatagramRouterPingReply_AltAddress3NewEv
__ZNK43CMsgSteamDatagramRouterPingReply_AltAddress8ByteSizeEv
__ZNK43CMsgSteamDatagramSetSecondaryAddressRequest11GetMetadataEv
__ZNK43CMsgSteamDatagramSetSecondaryAddressRequest13GetCachedSizeEv
__ZNK43CMsgSteamDatagramSetSecondaryAddressRequest13IsInitializedEv
__ZNK43CMsgSteamDatagramSetSecondaryAddressRequest13SetCachedSizeEi
__ZNK43CMsgSteamDatagramSetSecondaryAddressRequest24SerializeWithCachedSizesEPN6google8protobuf2io17CodedOutputStreamE
__ZNK43CMsgSteamDatagramSetSecondaryAddressRequest31SerializeWithCachedSizesToArrayEPh
__ZNK43CMsgSteamDatagramSetSecondaryAddressRequest3NewEv
__ZNK43CMsgSteamDatagramSetSecondaryAddressRequest8ByteSizeEv
__ZNK45CMsgSteamDatagramGameserverSessionEstablished11GetMetadataEv
__ZNK45CMsgSteamDatagramGameserverSessionEstablished13GetCachedSizeEv
__ZNK45CMsgSteamDatagramGameserverSessionEstablished13IsInitializedEv
__ZNK45CMsgSteamDatagramGameserverSessionEstablished13SetCachedSizeEi
__ZNK45CMsgSteamDatagramGameserverSessionEstablished24SerializeWithCachedSizesEPN6google8protobuf2io17CodedOutputStreamE
__ZNK45CMsgSteamDatagramGameserverSessionEstablished31SerializeWithCachedSizesToArrayEPh
__ZNK45CMsgSteamDatagramGameserverSessionEstablished3NewEv
__ZNK45CMsgSteamDatagramGameserverSessionEstablished8ByteSizeEv
__ZNK45CMsgSteamDatagramHostedServerAddressPlaintext11GetMetadataEv
__ZNK45CMsgSteamDatagramHostedServerAddressPlaintext13GetCachedSizeEv
__ZNK45CMsgSteamDatagramHostedServerAddressPlaintext13IsInitializedEv
__ZNK45CMsgSteamDatagramHostedServerAddressPlaintext13SetCachedSizeEi
__ZNK45CMsgSteamDatagramHostedServerAddressPlaintext24SerializeWithCachedSizesEPN6google8protobuf2io17CodedOutputStreamE
__ZNK45CMsgSteamDatagramHostedServerAddressPlaintext31SerializeWithCachedSizesToArrayEPh
__ZNK45CMsgSteamDatagramHostedServerAddressPlaintext3NewEv
__ZNK45CMsgSteamDatagramHostedServerAddressPlaintext8ByteSizeEv
__ZNK46CMsgSteamDatagramConnectionStatsClientToRouter11GetMetadataEv
__ZNK46CMsgSteamDatagramConnectionStatsClientToRouter13GetCachedSizeEv
__ZNK46CMsgSteamDatagramConnectionStatsClientToRouter13IsInitializedEv
__ZNK46CMsgSteamDatagramConnectionStatsClientToRouter13SetCachedSizeEi
__ZNK46CMsgSteamDatagramConnectionStatsClientToRouter24SerializeWithCachedSizesEPN6google8protobuf2io17CodedOutputStreamE
__ZNK46CMsgSteamDatagramConnectionStatsClientToRouter31SerializeWithCachedSizesToArrayEPh
__ZNK46CMsgSteamDatagramConnectionStatsClientToRouter3NewEv
__ZNK46CMsgSteamDatagramConnectionStatsClientToRouter8ByteSizeEv
__ZNK46CMsgSteamDatagramConnectionStatsRouterToClient11GetMetadataEv
__ZNK46CMsgSteamDatagramConnectionStatsRouterToClient13GetCachedSizeEv
__ZNK46CMsgSteamDatagramConnectionStatsRouterToClient13IsInitializedEv
__ZNK46CMsgSteamDatagramConnectionStatsRouterToClient13SetCachedSizeEi
__ZNK46CMsgSteamDatagramConnectionStatsRouterToClient24SerializeWithCachedSizesEPN6google8protobuf2io17CodedOutputStreamE
__ZNK46CMsgSteamDatagramConnectionStatsRouterToClient31SerializeWithCachedSizesToArrayEPh
__ZNK46CMsgSteamDatagramConnectionStatsRouterToClient3NewEv
__ZNK46CMsgSteamDatagramConnectionStatsRouterToClient8ByteSizeEv
__ZNK46CMsgSteamDatagramConnectionStatsRouterToServer11GetMetadataEv
__ZNK46CMsgSteamDatagramConnectionStatsRouterToServer13GetCachedSizeEv
__ZNK46CMsgSteamDatagramConnectionStatsRouterToServer13IsInitializedEv
__ZNK46CMsgSteamDatagramConnectionStatsRouterToServer13SetCachedSizeEi
__ZNK46CMsgSteamDatagramConnectionStatsRouterToServer24SerializeWithCachedSizesEPN6google8protobuf2io17CodedOutputStreamE
__ZNK46CMsgSteamDatagramConnectionStatsRouterToServer31SerializeWithCachedSizesToArrayEPh
__ZNK46CMsgSteamDatagramConnectionStatsRouterToServer3NewEv
__ZNK46CMsgSteamDatagramConnectionStatsRouterToServer8ByteSizeEv
__ZNK46CMsgSteamDatagramConnectionStatsServerToRouter11GetMetadataEv
__ZNK46CMsgSteamDatagramConnectionStatsServerToRouter13GetCachedSizeEv
__ZNK46CMsgSteamDatagramConnectionStatsServerToRouter13IsInitializedEv
__ZNK46CMsgSteamDatagramConnectionStatsServerToRouter13SetCachedSizeEi
__ZNK46CMsgSteamDatagramConnectionStatsServerToRouter24SerializeWithCachedSizesEPN6google8protobuf2io17CodedOutputStreamE
__ZNK46CMsgSteamDatagramConnectionStatsServerToRouter31SerializeWithCachedSizesToArrayEPh
__ZNK46CMsgSteamDatagramConnectionStatsServerToRouter3NewEv
__ZNK46CMsgSteamDatagramConnectionStatsServerToRouter8ByteSizeEv
__ZNK46CMsgSteamDatagramGameserverPingRequestEnvelope11GetMetadataEv
__ZNK46CMsgSteamDatagramGameserverPingRequestEnvelope13GetCachedSizeEv
__ZNK46CMsgSteamDatagramGameserverPingRequestEnvelope13IsInitializedEv
__ZNK46CMsgSteamDatagramGameserverPingRequestEnvelope13SetCachedSizeEi
__ZNK46CMsgSteamDatagramGameserverPingRequestEnvelope24SerializeWithCachedSizesEPN6google8protobuf2io17CodedOutputStreamE
__ZNK46CMsgSteamDatagramGameserverPingRequestEnvelope31SerializeWithCachedSizesToArrayEPh
__ZNK46CMsgSteamDatagramGameserverPingRequestEnvelope3NewEv
__ZNK46CMsgSteamDatagramGameserverPingRequestEnvelope8ByteSizeEv
__ZNK47CMsgSteamDatagramRouterPingReply_RouteException11GetMetadataEv
__ZNK47CMsgSteamDatagramRouterPingReply_RouteException13GetCachedSizeEv
__ZNK47CMsgSteamDatagramRouterPingReply_RouteException13IsInitializedEv
__ZNK47CMsgSteamDatagramRouterPingReply_RouteException13SetCachedSizeEi
__ZNK47CMsgSteamDatagramRouterPingReply_RouteException24SerializeWithCachedSizesEPN6google8protobuf2io17CodedOutputStreamE
__ZNK47CMsgSteamDatagramRouterPingReply_RouteException31SerializeWithCachedSizesToArrayEPh
__ZNK47CMsgSteamDatagramRouterPingReply_RouteException3NewEv
__ZNK47CMsgSteamDatagramRouterPingReply_RouteException8ByteSizeEv
__ZNK47CMsgSteamNetworkingP2PRendezvous_ConnectRequest11GetMetadataEv
__ZNK47CMsgSteamNetworkingP2PRendezvous_ConnectRequest13GetCachedSizeEv
__ZNK47CMsgSteamNetworkingP2PRendezvous_ConnectRequest13IsInitializedEv
__ZNK47CMsgSteamNetworkingP2PRendezvous_ConnectRequest13SetCachedSizeEi
__ZNK47CMsgSteamNetworkingP2PRendezvous_ConnectRequest24SerializeWithCachedSizesEPN6google8protobuf2io17CodedOutputStreamE
__ZNK47CMsgSteamNetworkingP2PRendezvous_ConnectRequest31SerializeWithCachedSizesToArrayEPh
__ZNK47CMsgSteamNetworkingP2PRendezvous_ConnectRequest3NewEv
__ZNK47CMsgSteamNetworkingP2PRendezvous_ConnectRequest8ByteSizeEv
__ZNK48CMsgSteamNetworkingP2PRendezvous_ReliableMessage11GetMetadataEv
__ZNK48CMsgSteamNetworkingP2PRendezvous_ReliableMessage13GetCachedSizeEv
__ZNK48CMsgSteamNetworkingP2PRendezvous_ReliableMessage13IsInitializedEv
__ZNK48CMsgSteamNetworkingP2PRendezvous_ReliableMessage13SetCachedSizeEi
__ZNK48CMsgSteamNetworkingP2PRendezvous_ReliableMessage24SerializeWithCachedSizesEPN6google8protobuf2io17CodedOutputStreamE
__ZNK48CMsgSteamNetworkingP2PRendezvous_ReliableMessage31SerializeWithCachedSizesToArrayEPh
__ZNK48CMsgSteamNetworkingP2PRendezvous_ReliableMessage3NewEv
__ZNK48CMsgSteamNetworkingP2PRendezvous_ReliableMessage8ByteSizeEv
__ZNK49CMsgSteamDatagramConnectionStatsP2PClientToRouter11GetMetadataEv
__ZNK49CMsgSteamDatagramConnectionStatsP2PClientToRouter13GetCachedSizeEv
__ZNK49CMsgSteamDatagramConnectionStatsP2PClientToRouter13IsInitializedEv
__ZNK49CMsgSteamDatagramConnectionStatsP2PClientToRouter13SetCachedSizeEi
__ZNK49CMsgSteamDatagramConnectionStatsP2PClientToRouter24SerializeWithCachedSizesEPN6google8protobuf2io17CodedOutputStreamE
__ZNK49CMsgSteamDatagramConnectionStatsP2PClientToRouter31SerializeWithCachedSizesToArrayEPh
__ZNK49CMsgSteamDatagramConnectionStatsP2PClientToRouter3NewEv
__ZNK49CMsgSteamDatagramConnectionStatsP2PClientToRouter8ByteSizeEv
__ZNK49CMsgSteamDatagramConnectionStatsP2PRouterToClient11GetMetadataEv
__ZNK49CMsgSteamDatagramConnectionStatsP2PRouterToClient13GetCachedSizeEv
__ZNK49CMsgSteamDatagramConnectionStatsP2PRouterToClient13IsInitializedEv
__ZNK49CMsgSteamDatagramConnectionStatsP2PRouterToClient13SetCachedSizeEi
__ZNK49CMsgSteamDatagramConnectionStatsP2PRouterToClient24SerializeWithCachedSizesEPN6google8protobuf2io17CodedOutputStreamE
__ZNK49CMsgSteamDatagramConnectionStatsP2PRouterToClient31SerializeWithCachedSizesToArrayEPh
__ZNK49CMsgSteamDatagramConnectionStatsP2PRouterToClient3NewEv
__ZNK49CMsgSteamDatagramConnectionStatsP2PRouterToClient8ByteSizeEv
__ZNK49CMsgSteamDatagramSignedGameCoordinatorServerLogin11GetMetadataEv
__ZNK49CMsgSteamDatagramSignedGameCoordinatorServerLogin13GetCachedSizeEv
__ZNK49CMsgSteamDatagramSignedGameCoordinatorServerLogin13IsInitializedEv
__ZNK49CMsgSteamDatagramSignedGameCoordinatorServerLogin13SetCachedSizeEi
__ZNK49CMsgSteamDatagramSignedGameCoordinatorServerLogin24SerializeWithCachedSizesEPN6google8protobuf2io17CodedOutputStreamE
__ZNK49CMsgSteamDatagramSignedGameCoordinatorServerLogin31SerializeWithCachedSizesToArrayEPh
__ZNK49CMsgSteamDatagramSignedGameCoordinatorServerLogin3NewEv
__ZNK49CMsgSteamDatagramSignedGameCoordinatorServerLogin8ByteSizeEv
__ZNK49CMsgSteamNetworkingP2PRendezvous_ConnectionClosed11GetMetadataEv
__ZNK49CMsgSteamNetworkingP2PRendezvous_ConnectionClosed13GetCachedSizeEv
__ZNK49CMsgSteamNetworkingP2PRendezvous_ConnectionClosed13IsInitializedEv
__ZNK49CMsgSteamNetworkingP2PRendezvous_ConnectionClosed13SetCachedSizeEi
__ZNK49CMsgSteamNetworkingP2PRendezvous_ConnectionClosed24SerializeWithCachedSizesEPN6google8protobuf2io17CodedOutputStreamE
__ZNK49CMsgSteamNetworkingP2PRendezvous_ConnectionClosed31SerializeWithCachedSizesToArrayEPh
__ZNK49CMsgSteamNetworkingP2PRendezvous_ConnectionClosed3NewEv
__ZNK49CMsgSteamNetworkingP2PRendezvous_ConnectionClosed8ByteSizeEv
__ZNK51CMsgSteamNetworkingP2PRendezvous_ApplicationMessage11GetMetadataEv
__ZNK51CMsgSteamNetworkingP2PRendezvous_ApplicationMessage13GetCachedSizeEv
__ZNK51CMsgSteamNetworkingP2PRendezvous_ApplicationMessage13IsInitializedEv
__ZNK51CMsgSteamNetworkingP2PRendezvous_ApplicationMessage13SetCachedSizeEi
__ZNK51CMsgSteamNetworkingP2PRendezvous_ApplicationMessage24SerializeWithCachedSizesEPN6google8protobuf2io17CodedOutputStreamE
__ZNK51CMsgSteamNetworkingP2PRendezvous_ApplicationMessage31SerializeWithCachedSizesToArrayEPh
__ZNK51CMsgSteamNetworkingP2PRendezvous_ApplicationMessage3NewEv
__ZNK51CMsgSteamNetworkingP2PRendezvous_ApplicationMessage8ByteSizeEv
__ZNK52CMsgSteamDatagramClientSwitchedPrimary_RouterQuality11GetMetadataEv
__ZNK52CMsgSteamDatagramClientSwitchedPrimary_RouterQuality13GetCachedSizeEv
__ZNK52CMsgSteamDatagramClientSwitchedPrimary_RouterQuality13IsInitializedEv
__ZNK52CMsgSteamDatagramClientSwitchedPrimary_RouterQuality13SetCachedSizeEi
__ZNK52CMsgSteamDatagramClientSwitchedPrimary_RouterQuality24SerializeWithCachedSizesEPN6google8protobuf2io17CodedOutputStreamE
__ZNK52CMsgSteamDatagramClientSwitchedPrimary_RouterQuality31SerializeWithCachedSizesToArrayEPh
__ZNK52CMsgSteamDatagramClientSwitchedPrimary_RouterQuality3NewEv
__ZNK52CMsgSteamDatagramClientSwitchedPrimary_RouterQuality8ByteSizeEv
__ZNK53CMsgSteamDatagramClientPingSampleReply_POP_AltAddress11GetMetadataEv
__ZNK53CMsgSteamDatagramClientPingSampleReply_POP_AltAddress13GetCachedSizeEv
__ZNK53CMsgSteamDatagramClientPingSampleReply_POP_AltAddress13IsInitializedEv
__ZNK53CMsgSteamDatagramClientPingSampleReply_POP_AltAddress13SetCachedSizeEi
__ZNK53CMsgSteamDatagramClientPingSampleReply_POP_AltAddress24SerializeWithCachedSizesEPN6google8protobuf2io17CodedOutputStreamE
__ZNK53CMsgSteamDatagramClientPingSampleReply_POP_AltAddress31SerializeWithCachedSizesToArrayEPh
__ZNK53CMsgSteamDatagramClientPingSampleReply_POP_AltAddress3NewEv
__ZNK53CMsgSteamDatagramClientPingSampleReply_POP_AltAddress8ByteSizeEv
__ZNK55CMsgSteamDatagramClientPingSampleReply_LegacyDataCenter11GetMetadataEv
__ZNK55CMsgSteamDatagramClientPingSampleReply_LegacyDataCenter13GetCachedSizeEv
__ZNK55CMsgSteamDatagramClientPingSampleReply_LegacyDataCenter13IsInitializedEv
__ZNK55CMsgSteamDatagramClientPingSampleReply_LegacyDataCenter13SetCachedSizeEi
__ZNK55CMsgSteamDatagramClientPingSampleReply_LegacyDataCenter24SerializeWithCachedSizesEPN6google8protobuf2io17CodedOutputStreamE
__ZNK55CMsgSteamDatagramClientPingSampleReply_LegacyDataCenter31SerializeWithCachedSizesToArrayEPh
__ZNK55CMsgSteamDatagramClientPingSampleReply_LegacyDataCenter3NewEv
__ZNK55CMsgSteamDatagramClientPingSampleReply_LegacyDataCenter8ByteSizeEv
__ZNK6google8protobuf10Descriptor11DebugStringEiPNSt3__112basic_stringIcNS2_11char_traitsIcEENS2_9allocatorIcEEEE
__ZNK6google8protobuf10Descriptor15FindFieldByNameERKNSt3__112basic_stringIcNS2_11char_traitsIcEENS2_9allocatorIcEEEE
__ZNK6google8protobuf10Descriptor17FindFieldByNumberEi
__ZNK6google8protobuf10Descriptor24FindFieldByLowercaseNameERKNSt3__112basic_stringIcNS2_11char_traitsIcEENS2_9allocatorIcEEEE
__ZNK6google8protobuf10Descriptor34FindExtensionRangeContainingNumberEi
__ZNK6google8protobuf10Descriptor6CopyToEPNS0_15DescriptorProtoE
__ZNK6google8protobuf10TextFormat17FieldValuePrinter10PrintBytesERKNSt3__112basic_stringIcNS3_11char_traitsIcEENS3_9allocatorIcEEEE
__ZNK6google8protobuf10TextFormat17FieldValuePrinter10PrintFloatEf
__ZNK6google8protobuf10TextFormat17FieldValuePrinter10PrintInt32Ei
__ZNK6google8protobuf10TextFormat17FieldValuePrinter10PrintInt64Ex
__ZNK6google8protobuf10TextFormat17FieldValuePrinter11PrintDoubleEd
__ZNK6google8protobuf10TextFormat17FieldValuePrinter11PrintStringERKNSt3__112basic_stringIcNS3_11char_traitsIcEENS3_9allocatorIcEEEE
__ZNK6google8protobuf10TextFormat17FieldValuePrinter11PrintUInt32Ej
__ZNK6google8protobuf10TextFormat17FieldValuePrinter11PrintUInt64Ey
__ZNK6google8protobuf10TextFormat17FieldValuePrinter14PrintFieldNameERKNS0_7MessageEPKNS0_10ReflectionEPKNS0_15FieldDescriptorE
__ZNK6google8protobuf10TextFormat17FieldValuePrinter15PrintMessageEndERKNS0_7MessageEiib
__ZNK6google8protobuf10TextFormat17FieldValuePrinter17PrintMessageStartERKNS0_7MessageEiib
__ZNK6google8protobuf10TextFormat17FieldValuePrinter9PrintBoolEb
__ZNK6google8protobuf10TextFormat17FieldValuePrinter9PrintEnumEiRKNSt3__112basic_stringIcNS3_11char_traitsIcEENS3_9allocatorIcEEEE
__ZNK6google8protobuf10TextFormat7Printer10PrintFieldERKNS0_7MessageEPKNS0_10ReflectionEPKNS0_15FieldDescriptorERNS2_13TextGeneratorE
__ZNK6google8protobuf10TextFormat7Printer13PrintToStringERKNS0_7MessageEPNSt3__112basic_stringIcNS6_11char_traitsIcEENS6_9allocatorIcEEEE
__ZNK6google8protobuf10TextFormat7Printer14PrintFieldNameERKNS0_7MessageEPKNS0_10ReflectionEPKNS0_15FieldDescriptorERNS2_13TextGeneratorE
__ZNK6google8protobuf10TextFormat7Printer15PrintFieldValueERKNS0_7MessageEPKNS0_10ReflectionEPKNS0_15FieldDescriptorEiRNS2_13TextGeneratorE
__ZNK6google8protobuf10TextFormat7Printer18PrintUnknownFieldsERKNS0_15UnknownFieldSetERNS2_13TextGeneratorE
__ZNK6google8protobuf10TextFormat7Printer23PrintFieldValueToStringERKNS0_7MessageEPKNS0_15FieldDescriptorEiPNSt3__112basic_stringIcNS9_11char_traitsIcEENS9_9allocatorIcEEEE
__ZNK6google8protobuf10TextFormat7Printer23PrintShortRepeatedFieldERKNS0_7MessageEPKNS0_10ReflectionEPKNS0_15FieldDescriptorERNS2_13TextGeneratorE
__ZNK6google8protobuf10TextFormat7Printer5PrintERKNS0_7MessageEPNS0_2io20ZeroCopyOutputStreamE
__ZNK6google8protobuf10TextFormat7Printer5PrintERKNS0_7MessageERNS2_13TextGeneratorE
__ZNK6google8protobuf11EnumOptions11GetMetadataEv
__ZNK6google8protobuf11EnumOptions13GetCachedSizeEv
__ZNK6google8protobuf11EnumOptions13IsInitializedEv
__ZNK6google8protobuf11EnumOptions13SetCachedSizeEi
__ZNK6google8protobuf11EnumOptions24SerializeWithCachedSizesEPNS0_2io17CodedOutputStreamE
__ZNK6google8protobuf11EnumOptions31SerializeWithCachedSizesToArrayEPh
__ZNK6google8protobuf11EnumOptions3NewEv
__ZNK6google8protobuf11EnumOptions8ByteSizeEv
__ZNK6google8protobuf11FileOptions11GetMetadataEv
__ZNK6google8protobuf11FileOptions13GetCachedSizeEv
__ZNK6google8protobuf11FileOptions13IsInitializedEv
__ZNK6google8protobuf11FileOptions13SetCachedSizeEi
__ZNK6google8protobuf11FileOptions24SerializeWithCachedSizesEPNS0_2io17CodedOutputStreamE
__ZNK6google8protobuf11FileOptions31SerializeWithCachedSizesToArrayEPh
__ZNK6google8protobuf11FileOptions3NewEv
__ZNK6google8protobuf11FileOptions8ByteSizeEv
__ZNK6google8protobuf11MessageLite14AppendToStringEPNSt3__112basic_stringIcNS2_11char_traitsIcEENS2_9allocatorIcEEEE
__ZNK6google8protobuf11MessageLite17SerializeAsStringEv
__ZNK6google8protobuf11MessageLite17SerializeToStringEPNSt3__112basic_stringIcNS2_11char_traitsIcEENS2_9allocatorIcEEEE
__ZNK6google8protobuf11MessageLite21AppendPartialToStringEPNSt3__112basic_stringIcNS2_11char_traitsIcEENS2_9allocatorIcEEEE
__ZNK6google8protobuf11MessageLite31SerializeWithCachedSizesToArrayEPh
__ZNK6google8protobuf12FieldOptions11GetMetadataEv
__ZNK6google8protobuf12FieldOptions13GetCachedSizeEv
__ZNK6google8protobuf12FieldOptions13IsInitializedEv
__ZNK6google8protobuf12FieldOptions13SetCachedSizeEi
__ZNK6google8protobuf12FieldOptions24SerializeWithCachedSizesEPNS0_2io17CodedOutputStreamE
__ZNK6google8protobuf12FieldOptions31SerializeWithCachedSizesToArrayEPh
__ZNK6google8protobuf12FieldOptions3NewEv
__ZNK6google8protobuf12FieldOptions8ByteSizeEv
__ZNK6google8protobuf12UnknownField29SerializeLengthDelimitedNoTagEPNS0_2io17CodedOutputStreamE
__ZNK6google8protobuf12_GLOBAL__N_116FieldIndexSorterclEPKNS0_15FieldDescriptorES5_
__ZNK6google8protobuf12_GLOBAL__N_129FieldValuePrinterUtf8Escaping10PrintBytesERKNSt3__112basic_stringIcNS3_11char_traitsIcEENS3_9allocatorIcEEEE
__ZNK6google8protobuf12_GLOBAL__N_129FieldValuePrinterUtf8Escaping11PrintStringERKNSt3__112basic_stringIcNS3_11char_traitsIcEENS3_9allocatorIcEEEE
__ZNK6google8protobuf12_GLOBAL__N_16Symbol7GetFileEv
__ZNK6google8protobuf13MethodOptions11GetMetadataEv
__ZNK6google8protobuf13MethodOptions13GetCachedSizeEv
__ZNK6google8protobuf13MethodOptions13IsInitializedEv
__ZNK6google8protobuf13MethodOptions13SetCachedSizeEi
__ZNK6google8protobuf13MethodOptions24SerializeWithCachedSizesEPNS0_2io17CodedOutputStreamE
__ZNK6google8protobuf13MethodOptions31SerializeWithCachedSizesToArrayEPh
__ZNK6google8protobuf13MethodOptions3NewEv
__ZNK6google8protobuf13MethodOptions8ByteSizeEv
__ZNK6google8protobuf13RepeatedFieldIbE3GetEi
__ZNK6google8protobuf13RepeatedFieldIdE3GetEi
__ZNK6google8protobuf13RepeatedFieldIfE3GetEi
__ZNK6google8protobuf13RepeatedFieldIiE3GetEi
__ZNK6google8protobuf13RepeatedFieldIjE3GetEi
__ZNK6google8protobuf13RepeatedFieldIxE3GetEi
__ZNK6google8protobuf13RepeatedFieldIyE3GetEi
__ZNK6google8protobuf14DescriptorPool14FindFileByNameERKNSt3__112basic_stringIcNS2_11char_traitsIcEENS2_9allocatorIcEEEE
__ZNK6google8protobuf14DescriptorPool19FindExtensionByNameERKNSt3__112basic_stringIcNS2_11char_traitsIcEENS2_9allocatorIcEEEE
__ZNK6google8protobuf14DescriptorPool21BuildFileFromDatabaseERKNS0_19FileDescriptorProtoE
__ZNK6google8protobuf14DescriptorPool21FindExtensionByNumberEPKNS0_10DescriptorEi
__ZNK6google8protobuf14DescriptorPool21FindMessageTypeByNameERKNSt3__112basic_stringIcNS2_11char_traitsIcEENS2_9allocatorIcEEEE
__ZNK6google8protobuf14DescriptorPool22IsSubSymbolOfBuiltTypeERKNSt3__112basic_stringIcNS2_11char_traitsIcEENS2_9allocatorIcEEEE
__ZNK6google8protobuf14DescriptorPool29TryFindFileInFallbackDatabaseERKNSt3__112basic_stringIcNS2_11char_traitsIcEENS2_9allocatorIcEEEE
__ZNK6google8protobuf14DescriptorPool31TryFindSymbolInFallbackDatabaseERKNSt3__112basic_stringIcNS2_11char_traitsIcEENS2_9allocatorIcEEEE
__ZNK6google8protobuf14DescriptorPool34TryFindExtensionInFallbackDatabaseEPKNS0_10DescriptorEi
__ZNK6google8protobuf14DynamicMessage11GetMetadataEv
__ZNK6google8protobuf14DynamicMessage13GetCachedSizeEv
__ZNK6google8protobuf14DynamicMessage13SetCachedSizeEi
__ZNK6google8protobuf14DynamicMessage3NewEv
__ZNK6google8protobuf14EnumDescriptor11DebugStringEiPNSt3__112basic_stringIcNS2_11char_traitsIcEENS2_9allocatorIcEEEE
__ZNK6google8protobuf14EnumDescriptor15FindValueByNameERKNSt3__112basic_stringIcNS2_11char_traitsIcEENS2_9allocatorIcEEEE
__ZNK6google8protobuf14EnumDescriptor17FindValueByNumberEi
__ZNK6google8protobuf14EnumDescriptor6CopyToEPNS0_19EnumDescriptorProtoE
__ZNK6google8protobuf14FatalException4whatEv
__ZNK6google8protobuf14FileDescriptor6CopyToEPNS0_19FileDescriptorProtoE
__ZNK6google8protobuf14MessageOptions11GetMetadataEv
__ZNK6google8protobuf14MessageOptions13GetCachedSizeEv
__ZNK6google8protobuf14MessageOptions13IsInitializedEv
__ZNK6google8protobuf14MessageOptions13SetCachedSizeEi
__ZNK6google8protobuf14MessageOptions24SerializeWithCachedSizesEPNS0_2io17CodedOutputStreamE
__ZNK6google8protobuf14MessageOptions31SerializeWithCachedSizesToArrayEPh
__ZNK6google8protobuf14MessageOptions3NewEv
__ZNK6google8protobuf14MessageOptions8ByteSizeEv
__ZNK6google8protobuf14ServiceOptions11GetMetadataEv
__ZNK6google8protobuf14ServiceOptions13GetCachedSizeEv
__ZNK6google8protobuf14ServiceOptions13IsInitializedEv
__ZNK6google8protobuf14ServiceOptions13SetCachedSizeEi
__ZNK6google8protobuf14ServiceOptions24SerializeWithCachedSizesEPNS0_2io17CodedOutputStreamE
__ZNK6google8protobuf14ServiceOptions31SerializeWithCachedSizesToArrayEPh
__ZNK6google8protobuf14ServiceOptions3NewEv
__ZNK6google8protobuf14ServiceOptions8ByteSizeEv
__ZNK6google8protobuf14SourceCodeInfo11GetMetadataEv
__ZNK6google8protobuf14SourceCodeInfo13GetCachedSizeEv
__ZNK6google8protobuf14SourceCodeInfo13IsInitializedEv
__ZNK6google8protobuf14SourceCodeInfo13SetCachedSizeEi
__ZNK6google8protobuf14SourceCodeInfo24SerializeWithCachedSizesEPNS0_2io17CodedOutputStreamE
__ZNK6google8protobuf14SourceCodeInfo31SerializeWithCachedSizesToArrayEPh
__ZNK6google8protobuf14SourceCodeInfo3NewEv
__ZNK6google8protobuf14SourceCodeInfo8ByteSizeEv
__ZNK6google8protobuf15DescriptorProto11GetMetadataEv
__ZNK6google8protobuf15DescriptorProto13GetCachedSizeEv
__ZNK6google8protobuf15DescriptorProto13IsInitializedEv
__ZNK6google8protobuf15DescriptorProto13SetCachedSizeEi
__ZNK6google8protobuf15DescriptorProto24SerializeWithCachedSizesEPNS0_2io17CodedOutputStreamE
__ZNK6google8protobuf15DescriptorProto31SerializeWithCachedSizesToArrayEPh
__ZNK6google8protobuf15DescriptorProto3NewEv
__ZNK6google8protobuf15DescriptorProto8ByteSizeEv
__ZNK6google8protobuf15FieldDescriptor11DebugStringEiNS1_14PrintLabelFlagEPNSt3__112basic_stringIcNS3_11char_traitsIcEENS3_9allocatorIcEEEE
__ZNK6google8protobuf15FieldDescriptor11DebugStringEv
__ZNK6google8protobuf15FieldDescriptor20DefaultValueAsStringEb
__ZNK6google8protobuf15FieldDescriptor6CopyToEPNS0_20FieldDescriptorProtoE
__ZNK6google8protobuf15FieldDescriptor9is_packedEv
__ZNK6google8protobuf15OneofDescriptor11DebugStringEiPNSt3__112basic_stringIcNS2_11char_traitsIcEENS2_9allocatorIcEEEE
__ZNK6google8protobuf15OneofDescriptor6CopyToEPNS0_20OneofDescriptorProtoE
__ZNK6google8protobuf15UnknownFieldSet22SpaceUsedExcludingSelfEv
__ZNK6google8protobuf16EnumValueOptions11GetMetadataEv
__ZNK6google8protobuf16EnumValueOptions13GetCachedSizeEv
__ZNK6google8protobuf16EnumValueOptions13IsInitializedEv
__ZNK6google8protobuf16EnumValueOptions13SetCachedSizeEi
__ZNK6google8protobuf16EnumValueOptions24SerializeWithCachedSizesEPNS0_2io17CodedOutputStreamE
__ZNK6google8protobuf16EnumValueOptions31SerializeWithCachedSizesToArrayEPh
__ZNK6google8protobuf16EnumValueOptions3NewEv
__ZNK6google8protobuf16EnumValueOptions8ByteSizeEv
__ZNK6google8protobuf16MethodDescriptor6CopyToEPNS0_21MethodDescriptorProtoE
__ZNK6google8protobuf16RepeatedPtrFieldINSt3__112basic_stringIcNS2_11char_traitsIcEENS2_9allocatorIcEEEEE22SpaceUsedExcludingSelfEv
__ZNK6google8protobuf17DescriptorBuilder17OptionInterpreter21AggregateOptionFinder13FindExtensionEPNS0_7MessageERKNSt3__112basic_stringIcNS6_11char_traitsIcEENS6_9allocatorIcEEEE
__ZNK6google8protobuf17FileDescriptorSet11GetMetadataEv
__ZNK6google8protobuf17FileDescriptorSet13GetCachedSizeEv
__ZNK6google8protobuf17FileDescriptorSet13IsInitializedEv
__ZNK6google8protobuf17FileDescriptorSet13SetCachedSizeEi
__ZNK6google8protobuf17FileDescriptorSet24SerializeWithCachedSizesEPNS0_2io17CodedOutputStreamE
__ZNK6google8protobuf17FileDescriptorSet31SerializeWithCachedSizesToArrayEPh
__ZNK6google8protobuf17FileDescriptorSet3NewEv
__ZNK6google8protobuf17FileDescriptorSet8ByteSizeEv
__ZNK6google8protobuf17ServiceDescriptor6CopyToEPNS0_22ServiceDescriptorProtoE
__ZNK6google8protobuf19EnumDescriptorProto11GetMetadataEv
__ZNK6google8protobuf19EnumDescriptorProto13GetCachedSizeEv
__ZNK6google8protobuf19EnumDescriptorProto13IsInitializedEv
__ZNK6google8protobuf19EnumDescriptorProto13SetCachedSizeEi
__ZNK6google8protobuf19EnumDescriptorProto24SerializeWithCachedSizesEPNS0_2io17CodedOutputStreamE
__ZNK6google8protobuf19EnumDescriptorProto31SerializeWithCachedSizesToArrayEPh
__ZNK6google8protobuf19EnumDescriptorProto3NewEv
__ZNK6google8protobuf19EnumDescriptorProto8ByteSizeEv
__ZNK6google8protobuf19EnumValueDescriptor11DebugStringEiPNSt3__112basic_stringIcNS2_11char_traitsIcEENS2_9allocatorIcEEEE
__ZNK6google8protobuf19EnumValueDescriptor6CopyToEPNS0_24EnumValueDescriptorProtoE
__ZNK6google8protobuf19FileDescriptorProto11GetMetadataEv
__ZNK6google8protobuf19FileDescriptorProto13GetCachedSizeEv
__ZNK6google8protobuf19FileDescriptorProto13IsInitializedEv
__ZNK6google8protobuf19FileDescriptorProto13SetCachedSizeEi
__ZNK6google8protobuf19FileDescriptorProto24SerializeWithCachedSizesEPNS0_2io17CodedOutputStreamE
__ZNK6google8protobuf19FileDescriptorProto31SerializeWithCachedSizesToArrayEPh
__ZNK6google8protobuf19FileDescriptorProto3NewEv
__ZNK6google8protobuf19FileDescriptorProto8ByteSizeEv
__ZNK6google8protobuf19UninterpretedOption11GetMetadataEv
__ZNK6google8protobuf19UninterpretedOption13GetCachedSizeEv
__ZNK6google8protobuf19UninterpretedOption13IsInitializedEv
__ZNK6google8protobuf19UninterpretedOption13SetCachedSizeEi
__ZNK6google8protobuf19UninterpretedOption24SerializeWithCachedSizesEPNS0_2io17CodedOutputStreamE
__ZNK6google8protobuf19UninterpretedOption31SerializeWithCachedSizesToArrayEPh
__ZNK6google8protobuf19UninterpretedOption3NewEv
__ZNK6google8protobuf19UninterpretedOption8ByteSizeEv
__ZNK6google8protobuf20FieldDescriptorProto11GetMetadataEv
__ZNK6google8protobuf20FieldDescriptorProto13GetCachedSizeEv
__ZNK6google8protobuf20FieldDescriptorProto13IsInitializedEv
__ZNK6google8protobuf20FieldDescriptorProto13SetCachedSizeEi
__ZNK6google8protobuf20FieldDescriptorProto24SerializeWithCachedSizesEPNS0_2io17CodedOutputStreamE
__ZNK6google8protobuf20FieldDescriptorProto31SerializeWithCachedSizesToArrayEPh
__ZNK6google8protobuf20FieldDescriptorProto3NewEv
__ZNK6google8protobuf20FieldDescriptorProto8ByteSizeEv
__ZNK6google8protobuf20OneofDescriptorProto11GetMetadataEv
__ZNK6google8protobuf20OneofDescriptorProto13GetCachedSizeEv
__ZNK6google8protobuf20OneofDescriptorProto13IsInitializedEv
__ZNK6google8protobuf20OneofDescriptorProto13SetCachedSizeEi
__ZNK6google8protobuf20OneofDescriptorProto24SerializeWithCachedSizesEPNS0_2io17CodedOutputStreamE
__ZNK6google8protobuf20OneofDescriptorProto31SerializeWithCachedSizesToArrayEPh
__ZNK6google8protobuf20OneofDescriptorProto3NewEv
__ZNK6google8protobuf20OneofDescriptorProto8ByteSizeEv
__ZNK6google8protobuf21MethodDescriptorProto11GetMetadataEv
__ZNK6google8protobuf21MethodDescriptorProto13GetCachedSizeEv
__ZNK6google8protobuf21MethodDescriptorProto13IsInitializedEv
__ZNK6google8protobuf21MethodDescriptorProto13SetCachedSizeEi
__ZNK6google8protobuf21MethodDescriptorProto24SerializeWithCachedSizesEPNS0_2io17CodedOutputStreamE
__ZNK6google8protobuf21MethodDescriptorProto31SerializeWithCachedSizesToArrayEPh
__ZNK6google8protobuf21MethodDescriptorProto3NewEv
__ZNK6google8protobuf21MethodDescriptorProto8ByteSizeEv
__ZNK6google8protobuf22ServiceDescriptorProto11GetMetadataEv
__ZNK6google8protobuf22ServiceDescriptorProto13GetCachedSizeEv
__ZNK6google8protobuf22ServiceDescriptorProto13IsInitializedEv
__ZNK6google8protobuf22ServiceDescriptorProto13SetCachedSizeEi
__ZNK6google8protobuf22ServiceDescriptorProto24SerializeWithCachedSizesEPNS0_2io17CodedOutputStreamE
__ZNK6google8protobuf22ServiceDescriptorProto31SerializeWithCachedSizesToArrayEPh
__ZNK6google8protobuf22ServiceDescriptorProto3NewEv
__ZNK6google8protobuf22ServiceDescriptorProto8ByteSizeEv
__ZNK6google8protobuf23SourceCodeInfo_Location11GetMetadataEv
__ZNK6google8protobuf23SourceCodeInfo_Location13GetCachedSizeEv
__ZNK6google8protobuf23SourceCodeInfo_Location13IsInitializedEv
__ZNK6google8protobuf23SourceCodeInfo_Location13SetCachedSizeEi
__ZNK6google8protobuf23SourceCodeInfo_Location24SerializeWithCachedSizesEPNS0_2io17CodedOutputStreamE
__ZNK6google8protobuf23SourceCodeInfo_Location31SerializeWithCachedSizesToArrayEPh
__ZNK6google8protobuf23SourceCodeInfo_Location3NewEv
__ZNK6google8protobuf23SourceCodeInfo_Location8ByteSizeEv
__ZNK6google8protobuf24EnumValueDescriptorProto11GetMetadataEv
__ZNK6google8protobuf24EnumValueDescriptorProto13GetCachedSizeEv
__ZNK6google8protobuf24EnumValueDescriptorProto13IsInitializedEv
__ZNK6google8protobuf24EnumValueDescriptorProto13SetCachedSizeEi
__ZNK6google8protobuf24EnumValueDescriptorProto24SerializeWithCachedSizesEPNS0_2io17CodedOutputStreamE
__ZNK6google8protobuf24EnumValueDescriptorProto31SerializeWithCachedSizesToArrayEPh
__ZNK6google8protobuf24EnumValueDescriptorProto3NewEv
__ZNK6google8protobuf24EnumValueDescriptorProto8ByteSizeEv
__ZNK6google8protobuf28UninterpretedOption_NamePart11GetMetadataEv
__ZNK6google8protobuf28UninterpretedOption_NamePart13GetCachedSizeEv
__ZNK6google8protobuf28UninterpretedOption_NamePart13IsInitializedEv
__ZNK6google8protobuf28UninterpretedOption_NamePart13SetCachedSizeEi
__ZNK6google8protobuf28UninterpretedOption_NamePart24SerializeWithCachedSizesEPNS0_2io17CodedOutputStreamE
__ZNK6google8protobuf28UninterpretedOption_NamePart31SerializeWithCachedSizesToArrayEPh
__ZNK6google8protobuf28UninterpretedOption_NamePart3NewEv
__ZNK6google8protobuf28UninterpretedOption_NamePart8ByteSizeEv
__ZNK6google8protobuf2io16ArrayInputStream9ByteCountEv
__ZNK6google8protobuf2io16CodedInputStream15BytesUntilLimitEv
__ZNK6google8protobuf2io16CodedInputStream25BytesUntilTotalBytesLimitEv
__ZNK6google8protobuf2io17ArrayOutputStream9ByteCountEv
__ZNK6google8protobuf2io18StringOutputStream9ByteCountEv
__ZNK6google8protobuf2io20ZeroCopyOutputStream14AllowsAliasingEv
__ZNK6google8protobuf30DescriptorProto_ExtensionRange11GetMetadataEv
__ZNK6google8protobuf30DescriptorProto_ExtensionRange13GetCachedSizeEv
__ZNK6google8protobuf30DescriptorProto_ExtensionRange13IsInitializedEv
__ZNK6google8protobuf30DescriptorProto_ExtensionRange13SetCachedSizeEi
__ZNK6google8protobuf30DescriptorProto_ExtensionRange24SerializeWithCachedSizesEPNS0_2io17CodedOutputStreamE
__ZNK6google8protobuf30DescriptorProto_ExtensionRange31SerializeWithCachedSizesToArrayEPh
__ZNK6google8protobuf30DescriptorProto_ExtensionRange3NewEv
__ZNK6google8protobuf30DescriptorProto_ExtensionRange8ByteSizeEv
__ZNK6google8protobuf7Message11DebugStringEv
__ZNK6google8protobuf7Message11GetTypeNameEv
__ZNK6google8protobuf7Message13GetReflectionEv
__ZNK6google8protobuf7Message13IsInitializedEv
__ZNK6google8protobuf7Message16ShortDebugStringEv
__ZNK6google8protobuf7Message24FindInitializationErrorsEPNSt3__16vectorINS2_12basic_stringIcNS2_11char_traitsIcEENS2_9allocatorIcEEEENS7_IS9_EEEE
__ZNK6google8protobuf7Message24SerializeWithCachedSizesEPNS0_2io17CodedOutputStreamE
__ZNK6google8protobuf7Message25InitializationErrorStringEv
__ZNK6google8protobuf7Message8ByteSizeEv
__ZNK6google8protobuf7Message9SpaceUsedEv
__ZNK6google8protobuf8internal12ExtensionSet10GetMessageEiPKNS0_10DescriptorEPNS0_14MessageFactoryE
__ZNK6google8protobuf8internal12ExtensionSet12AppendToListEPKNS0_10DescriptorEPKNS0_14DescriptorPoolEPNSt3__16vectorIPKNS0_15FieldDescriptorENS9_9allocatorISD_EEEE
__ZNK6google8protobuf8internal12ExtensionSet13ExtensionSizeEi
__ZNK6google8protobuf8internal12ExtensionSet13IsInitializedEv
__ZNK6google8protobuf8internal12ExtensionSet15GetRepeatedBoolEii
__ZNK6google8protobuf8internal12ExtensionSet15GetRepeatedEnumEii
__ZNK6google8protobuf8internal12ExtensionSet16GetRepeatedFloatEii
__ZNK6google8protobuf8internal12ExtensionSet16GetRepeatedInt32Eii
__ZNK6google8protobuf8internal12ExtensionSet16GetRepeatedInt64Eii
__ZNK6google8protobuf8internal12ExtensionSet17GetRepeatedDoubleEii
__ZNK6google8protobuf8internal12ExtensionSet17GetRepeatedStringEii
__ZNK6google8protobuf8internal12ExtensionSet17GetRepeatedUInt32Eii
__ZNK6google8protobuf8internal12ExtensionSet17GetRepeatedUInt64Eii
__ZNK6google8protobuf8internal12ExtensionSet18GetRepeatedMessageEii
__ZNK6google8protobuf8internal12ExtensionSet22SpaceUsedExcludingSelfEv
__ZNK6google8protobuf8internal12ExtensionSet24SerializeWithCachedSizesEiiPNS0_2io17CodedOutputStreamE
__ZNK6google8protobuf8internal12ExtensionSet31SerializeWithCachedSizesToArrayEiiPh
__ZNK6google8protobuf8internal12ExtensionSet3HasEi
__ZNK6google8protobuf8internal12ExtensionSet7GetBoolEib
__ZNK6google8protobuf8internal12ExtensionSet7GetEnumEii
__ZNK6google8protobuf8internal12ExtensionSet8ByteSizeEv
__ZNK6google8protobuf8internal12ExtensionSet8GetFloatEif
__ZNK6google8protobuf8internal12ExtensionSet8GetInt32Eii
__ZNK6google8protobuf8internal12ExtensionSet8GetInt64Eix
__ZNK6google8protobuf8internal12ExtensionSet9Extension22SpaceUsedExcludingSelfEv
__ZNK6google8protobuf8internal12ExtensionSet9Extension29SerializeFieldWithCachedSizesEiPNS0_2io17CodedOutputStreamE
__ZNK6google8protobuf8internal12ExtensionSet9Extension36SerializeFieldWithCachedSizesToArrayEiPh
__ZNK6google8protobuf8internal12ExtensionSet9Extension7GetSizeEv
__ZNK6google8protobuf8internal12ExtensionSet9Extension8ByteSizeEi
__ZNK6google8protobuf8internal12ExtensionSet9GetDoubleEid
__ZNK6google8protobuf8internal12ExtensionSet9GetStringEiRKNSt3__112basic_stringIcNS3_11char_traitsIcEENS3_9allocatorIcEEEE
__ZNK6google8protobuf8internal12ExtensionSet9GetUInt32Eij
__ZNK6google8protobuf8internal12ExtensionSet9GetUInt64Eiy
__ZNK6google8protobuf8internal12scoped_arrayIiEixEl
__ZNK6google8protobuf8internal26GeneratedMessageReflection10AddMessageEPNS0_7MessageEPKNS0_15FieldDescriptorEPNS0_14MessageFactoryE
__ZNK6google8protobuf8internal26GeneratedMessageReflection10ClearFieldEPNS0_7MessageEPKNS0_15FieldDescriptorE
__ZNK6google8protobuf8internal26GeneratedMessageReflection10ClearOneofEPNS0_7MessageEPKNS0_15OneofDescriptorE
__ZNK6google8protobuf8internal26GeneratedMessageReflection10GetMessageERKNS0_7MessageEPKNS0_15FieldDescriptorEPNS0_14MessageFactoryE
__ZNK6google8protobuf8internal26GeneratedMessageReflection10ListFieldsERKNS0_7MessageEPNSt3__16vectorIPKNS0_15FieldDescriptorENS6_9allocatorISA_EEEE
__ZNK6google8protobuf8internal26GeneratedMessageReflection10RemoveLastEPNS0_7MessageEPKNS0_15FieldDescriptorE
__ZNK6google8protobuf8internal26GeneratedMessageReflection10SwapFieldsEPNS0_7MessageES4_RKNSt3__16vectorIPKNS0_15FieldDescriptorENS5_9allocatorIS9_EEEE
__ZNK6google8protobuf8internal26GeneratedMessageReflection11ReleaseLastEPNS0_7MessageEPKNS0_15FieldDescriptorE
__ZNK6google8protobuf8internal26GeneratedMessageReflection12SwapElementsEPNS0_7MessageEPKNS0_15FieldDescriptorEii
__ZNK6google8protobuf8internal26GeneratedMessageReflection14MutableMessageEPNS0_7MessageEPKNS0_15FieldDescriptorEPNS0_14MessageFactoryE
__ZNK6google8protobuf8internal26GeneratedMessageReflection14ReleaseMessageEPNS0_7MessageEPKNS0_15FieldDescriptorEPNS0_14MessageFactoryE
__ZNK6google8protobuf8internal26GeneratedMessageReflection14SwapOneofFieldEPNS0_7MessageES4_PKNS0_15OneofDescriptorE
__ZNK6google8protobuf8internal26GeneratedMessageReflection15GetRepeatedBoolERKNS0_7MessageEPKNS0_15FieldDescriptorEi
__ZNK6google8protobuf8internal26GeneratedMessageReflection15GetRepeatedEnumERKNS0_7MessageEPKNS0_15FieldDescriptorEi
__ZNK6google8protobuf8internal26GeneratedMessageReflection15SetRepeatedBoolEPNS0_7MessageEPKNS0_15FieldDescriptorEib
__ZNK6google8protobuf8internal26GeneratedMessageReflection15SetRepeatedEnumEPNS0_7MessageEPKNS0_15FieldDescriptorEiPKNS0_19EnumValueDescriptorE
__ZNK6google8protobuf8internal26GeneratedMessageReflection16GetRepeatedFloatERKNS0_7MessageEPKNS0_15FieldDescriptorEi
__ZNK6google8protobuf8internal26GeneratedMessageReflection16GetRepeatedInt32ERKNS0_7MessageEPKNS0_15FieldDescriptorEi
__ZNK6google8protobuf8internal26GeneratedMessageReflection16GetRepeatedInt64ERKNS0_7MessageEPKNS0_15FieldDescriptorEi
__ZNK6google8protobuf8internal26GeneratedMessageReflection16GetUnknownFieldsERKNS0_7MessageE
__ZNK6google8protobuf8internal26GeneratedMessageReflection16SetRepeatedFloatEPNS0_7MessageEPKNS0_15FieldDescriptorEif
__ZNK6google8protobuf8internal26GeneratedMessageReflection16SetRepeatedInt32EPNS0_7MessageEPKNS0_15FieldDescriptorEii
__ZNK6google8protobuf8internal26GeneratedMessageReflection16SetRepeatedInt64EPNS0_7MessageEPKNS0_15FieldDescriptorEix
__ZNK6google8protobuf8internal26GeneratedMessageReflection17GetRepeatedDoubleERKNS0_7MessageEPKNS0_15FieldDescriptorEi
__ZNK6google8protobuf8internal26GeneratedMessageReflection17GetRepeatedStringERKNS0_7MessageEPKNS0_15FieldDescriptorEi
__ZNK6google8protobuf8internal26GeneratedMessageReflection17GetRepeatedUInt32ERKNS0_7MessageEPKNS0_15FieldDescriptorEi
__ZNK6google8protobuf8internal26GeneratedMessageReflection17GetRepeatedUInt64ERKNS0_7MessageEPKNS0_15FieldDescriptorEi
__ZNK6google8protobuf8internal26GeneratedMessageReflection17SetRepeatedDoubleEPNS0_7MessageEPKNS0_15FieldDescriptorEid
__ZNK6google8protobuf8internal26GeneratedMessageReflection17SetRepeatedStringEPNS0_7MessageEPKNS0_15FieldDescriptorEiRKNSt3__112basic_stringIcNS8_11char_traitsIcEENS8_9allocatorIcEEEE
__ZNK6google8protobuf8internal26GeneratedMessageReflection17SetRepeatedUInt32EPNS0_7MessageEPKNS0_15FieldDescriptorEij
__ZNK6google8protobuf8internal26GeneratedMessageReflection17SetRepeatedUInt64EPNS0_7MessageEPKNS0_15FieldDescriptorEiy
__ZNK6google8protobuf8internal26GeneratedMessageReflection18GetRepeatedMessageERKNS0_7MessageEPKNS0_15FieldDescriptorEi
__ZNK6google8protobuf8internal26GeneratedMessageReflection18GetStringReferenceERKNS0_7MessageEPKNS0_15FieldDescriptorEPNSt3__112basic_stringIcNS9_11char_traitsIcEENS9_9allocatorIcEEEE
__ZNK6google8protobuf8internal26GeneratedMessageReflection19GetRepeatedPtrFieldINSt3__112basic_stringIcNS4_11char_traitsIcEENS4_9allocatorIcEEEEEERKT_RKNS0_7MessageEPKNS0_15FieldDescriptorEi
__ZNK6google8protobuf8internal26GeneratedMessageReflection19SetAllocatedMessageEPNS0_7MessageES4_PKNS0_15FieldDescriptorE
__ZNK6google8protobuf8internal26GeneratedMessageReflection20MutableUnknownFieldsEPNS0_7MessageE
__ZNK6google8protobuf8internal26GeneratedMessageReflection22MutableRepeatedMessageEPNS0_7MessageEPKNS0_15FieldDescriptorEi
__ZNK6google8protobuf8internal26GeneratedMessageReflection23GetOneofFieldDescriptorERKNS0_7MessageEPKNS0_15OneofDescriptorE
__ZNK6google8protobuf8internal26GeneratedMessageReflection23MutableRawRepeatedFieldEPNS0_7MessageEPKNS0_15FieldDescriptorENS5_7CppTypeEiPKNS0_10DescriptorE
__ZNK6google8protobuf8internal26GeneratedMessageReflection24FindKnownExtensionByNameERKNSt3__112basic_stringIcNS3_11char_traitsIcEENS3_9allocatorIcEEEE
__ZNK6google8protobuf8internal26GeneratedMessageReflection26FindKnownExtensionByNumberEi
__ZNK6google8protobuf8internal26GeneratedMessageReflection26GetRepeatedStringReferenceERKNS0_7MessageEPKNS0_15FieldDescriptorEiPNSt3__112basic_stringIcNS9_11char_traitsIcEENS9_9allocatorIcEEEE
__ZNK6google8protobuf8internal26GeneratedMessageReflection4SwapEPNS0_7MessageES4_
__ZNK6google8protobuf8internal26GeneratedMessageReflection7AddBoolEPNS0_7MessageEPKNS0_15FieldDescriptorEb
__ZNK6google8protobuf8internal26GeneratedMessageReflection7AddEnumEPNS0_7MessageEPKNS0_15FieldDescriptorEPKNS0_19EnumValueDescriptorE
__ZNK6google8protobuf8internal26GeneratedMessageReflection7GetBoolERKNS0_7MessageEPKNS0_15FieldDescriptorE
__ZNK6google8protobuf8internal26GeneratedMessageReflection7GetEnumERKNS0_7MessageEPKNS0_15FieldDescriptorE
__ZNK6google8protobuf8internal26GeneratedMessageReflection7SetBoolEPNS0_7MessageEPKNS0_15FieldDescriptorEb
__ZNK6google8protobuf8internal26GeneratedMessageReflection7SetEnumEPNS0_7MessageEPKNS0_15FieldDescriptorEPKNS0_19EnumValueDescriptorE
__ZNK6google8protobuf8internal26GeneratedMessageReflection7SwapBitEPNS0_7MessageES4_PKNS0_15FieldDescriptorE
__ZNK6google8protobuf8internal26GeneratedMessageReflection8AddFloatEPNS0_7MessageEPKNS0_15FieldDescriptorEf
__ZNK6google8protobuf8internal26GeneratedMessageReflection8AddInt32EPNS0_7MessageEPKNS0_15FieldDescriptorEi
__ZNK6google8protobuf8internal26GeneratedMessageReflection8AddInt64EPNS0_7MessageEPKNS0_15FieldDescriptorEx
__ZNK6google8protobuf8internal26GeneratedMessageReflection8GetFloatERKNS0_7MessageEPKNS0_15FieldDescriptorE
__ZNK6google8protobuf8internal26GeneratedMessageReflection8GetInt32ERKNS0_7MessageEPKNS0_15FieldDescriptorE
__ZNK6google8protobuf8internal26GeneratedMessageReflection8GetInt64ERKNS0_7MessageEPKNS0_15FieldDescriptorE
__ZNK6google8protobuf8internal26GeneratedMessageReflection8HasFieldERKNS0_7MessageEPKNS0_15FieldDescriptorE
__ZNK6google8protobuf8internal26GeneratedMessageReflection8HasOneofERKNS0_7MessageEPKNS0_15OneofDescriptorE
__ZNK6google8protobuf8internal26GeneratedMessageReflection8SetFloatEPNS0_7MessageEPKNS0_15FieldDescriptorEf
__ZNK6google8protobuf8internal26GeneratedMessageReflection8SetInt32EPNS0_7MessageEPKNS0_15FieldDescriptorEi
__ZNK6google8protobuf8internal26GeneratedMessageReflection8SetInt64EPNS0_7MessageEPKNS0_15FieldDescriptorEx
__ZNK6google8protobuf8internal26GeneratedMessageReflection9AddDoubleEPNS0_7MessageEPKNS0_15FieldDescriptorEd
__ZNK6google8protobuf8internal26GeneratedMessageReflection9AddStringEPNS0_7MessageEPKNS0_15FieldDescriptorERKNSt3__112basic_stringIcNS8_11char_traitsIcEENS8_9allocatorIcEEEE
__ZNK6google8protobuf8internal26GeneratedMessageReflection9AddUInt32EPNS0_7MessageEPKNS0_15FieldDescriptorEj
__ZNK6google8protobuf8internal26GeneratedMessageReflection9AddUInt64EPNS0_7MessageEPKNS0_15FieldDescriptorEy
__ZNK6google8protobuf8internal26GeneratedMessageReflection9FieldSizeERKNS0_7MessageEPKNS0_15FieldDescriptorE
__ZNK6google8protobuf8internal26GeneratedMessageReflection9GetDoubleERKNS0_7MessageEPKNS0_15FieldDescriptorE
__ZNK6google8protobuf8internal26GeneratedMessageReflection9GetStringERKNS0_7MessageEPKNS0_15FieldDescriptorE
__ZNK6google8protobuf8internal26GeneratedMessageReflection9GetUInt32ERKNS0_7MessageEPKNS0_15FieldDescriptorE
__ZNK6google8protobuf8internal26GeneratedMessageReflection9GetUInt64ERKNS0_7MessageEPKNS0_15FieldDescriptorE
__ZNK6google8protobuf8internal26GeneratedMessageReflection9SetDoubleEPNS0_7MessageEPKNS0_15FieldDescriptorEd
__ZNK6google8protobuf8internal26GeneratedMessageReflection9SetStringEPNS0_7MessageEPKNS0_15FieldDescriptorERKNSt3__112basic_stringIcNS8_11char_traitsIcEENS8_9allocatorIcEEEE
__ZNK6google8protobuf8internal26GeneratedMessageReflection9SetUInt32EPNS0_7MessageEPKNS0_15FieldDescriptorEj
__ZNK6google8protobuf8internal26GeneratedMessageReflection9SetUInt64EPNS0_7MessageEPKNS0_15FieldDescriptorEy
__ZNK6google8protobuf8internal26GeneratedMessageReflection9SpaceUsedERKNS0_7MessageE
__ZNK6google8protobuf8internal26GeneratedMessageReflection9SwapFieldEPNS0_7MessageES4_PKNS0_15FieldDescriptorE
__ZNK8CSteamID6RenderEv
__ZNKSt3__110__function6__funcIZN25SteamNetworkingSocketsLib24CSteamNetworkingUtilsSDR23BeginFetchNetworkConfigEbE3$_6NS_9allocatorIS4_EEFvPNS2_14HTTPResponse_tEEE11target_typeEv
__ZNKSt3__110__function6__funcIZN25SteamNetworkingSocketsLib24CSteamNetworkingUtilsSDR23BeginFetchNetworkConfigEbE3$_6NS_9allocatorIS4_EEFvPNS2_14HTTPResponse_tEEE6targetERKSt9type_info
__ZNKSt3__110__function6__funcIZN25SteamNetworkingSocketsLib24CSteamNetworkingUtilsSDR23BeginFetchNetworkConfigEbE3$_6NS_9allocatorIS4_EEFvPNS2_14HTTPResponse_tEEE7__cloneEPNS0_6__baseIS9_EE
__ZNKSt3__110__function6__funcIZN25SteamNetworkingSocketsLib24CSteamNetworkingUtilsSDR23BeginFetchNetworkConfigEbE3$_6NS_9allocatorIS4_EEFvPNS2_14HTTPResponse_tEEE7__cloneEv
__ZNKSt3__112__hash_tableINS_12basic_stringIcNS_11char_traitsIcEENS_9allocatorIcEEEEN6google8protobuf4hashIS6_EENS_8equal_toIS6_EENS4_IS6_EEE4findIS6_EENS_21__hash_const_iteratorIPNS_11__hash_nodeIS6_PvEEEERKT_
__ZNKSt3__112__hash_tableINS_17__hash_value_typeIPKcPKN6google8protobuf14FileDescriptorEEENS_22__unordered_map_hasherIS3_S9_NS5_4hashIS3_EELb1EEENS_21__unordered_map_equalIS3_S9_NS5_5streqELb1EEENS_9allocatorIS9_EEE4findIS3_EENS_21__hash_const_iteratorIPNS_11__hash_nodeIS9_PvEEEERKT_
__ZNKSt3__112basic_stringIcNS_11char_traitsIcEENS_9allocatorIcEEE2atEm
__ZNKSt3__112basic_stringIcNS_11char_traitsIcEENS_9allocatorIcEEE4findEcm
__ZNKSt3__112basic_stringIcNS_11char_traitsIcEENS_9allocatorIcEEE5rfindEcm
__ZNKSt3__112basic_stringIcNS_11char_traitsIcEENS_9allocatorIcEEE7compareEPKc
__ZNKSt3__112basic_stringIcNS_11char_traitsIcEENS_9allocatorIcEEE7compareEmmPKcm
__ZNKSt3__120__vector_base_commonILb1EE20__throw_length_errorEv
__ZNKSt3__121__basic_string_commonILb1EE20__throw_length_errorEv
__ZNKSt3__16__treeINS_12__value_typeINS_12basic_stringIcNS_11char_traitsIcEENS_9allocatorIcEEEEN8picojson5valueEEENS_19__map_value_compareIS7_SA_NS_4lessIS7_EELb1EEENS5_ISA_EEE13__lower_boundIS7_EENS_21__tree_const_iteratorISA_PNS_11__tree_nodeISA_PvEElEERKT_SM_SM_
__ZNKSt3__16__treeINS_12__value_typeINS_12basic_stringIcNS_11char_traitsIcEENS_9allocatorIcEEEEN8picojson5valueEEENS_19__map_value_compareIS7_SA_NS_4lessIS7_EELb1EEENS5_ISA_EEE4findIS7_EENS_21__tree_const_iteratorISA_PNS_11__tree_nodeISA_PvEElEERKT_
__ZNKSt3__16__treeINS_12__value_typeINS_12basic_stringIcNS_11char_traitsIcEENS_9allocatorIcEEEENS_4pairIPKviEEEENS_19__map_value_compareIS7_SC_NS_4lessIS7_EELb1EEENS5_ISC_EEE13__lower_boundIS7_EENS_21__tree_const_iteratorISC_PNS_11__tree_nodeISC_PvEElEERKT_SO_SO_
__ZNKSt3__16__treeINS_12__value_typeINS_12basic_stringIcNS_11char_traitsIcEENS_9allocatorIcEEEENS_4pairIPKviEEEENS_19__map_value_compareIS7_SC_NS_4lessIS7_EELb1EEENS5_ISC_EEE4findIS7_EENS_21__tree_const_iteratorISC_PNS_11__tree_nodeISC_PvEElEERKT_
__ZNKSt3__16__treeINS_12__value_typeINS_4pairINS_12basic_stringIcNS_11char_traitsIcEENS_9allocatorIcEEEEiEENS2_IPKviEEEENS_19__map_value_compareIS9_SD_NS_4lessIS9_EELb1EEENS6_ISD_EEE13__lower_boundIS9_EENS_21__tree_const_iteratorISD_PNS_11__tree_nodeISD_PvEElEERKT_SP_SP_
__ZNKSt3__16__treeINS_12__value_typeINS_4pairINS_12basic_stringIcNS_11char_traitsIcEENS_9allocatorIcEEEEiEENS2_IPKviEEEENS_19__map_value_compareIS9_SD_NS_4lessIS9_EELb1EEENS6_ISD_EEE4findIS9_EENS_21__tree_const_iteratorISD_PNS_11__tree_nodeISD_PvEElEERKT_
__ZNKSt3__16__treeINS_12__value_typeIPKN6google8protobuf15FieldDescriptorEPKNS3_10TextFormat17FieldValuePrinterEEENS_19__map_value_compareIS6_SB_NS_4lessIS6_EELb1EEENS_9allocatorISB_EEE4findIS6_EENS_21__tree_const_iteratorISB_PNS_11__tree_nodeISB_PvEElEERKT_
__ZNKSt3__16__treeINS_12__value_typeIiN6google8protobuf8internal12ExtensionSet9ExtensionEEENS_19__map_value_compareIiS7_NS_4lessIiEELb1EEENS_9allocatorIS7_EEE4findIiEENS_21__tree_const_iteratorIS7_PNS_11__tree_nodeIS7_PvEElEERKT_
__ZNKSt3__16__treeINS_12__value_typeIjiEENS_19__map_value_compareIjS2_NS_4lessIjEELb1EEENS_9allocatorIS2_EEE4findIjEENS_21__tree_const_iteratorIS2_PNS_11__tree_nodeIS2_PvEElEERKT_
__ZNKSt3__16__treeINS_12basic_stringIcNS_11char_traitsIcEENS_9allocatorIcEEEENS_4lessIS6_EENS4_IS6_EEE13__lower_boundIS6_EENS_21__tree_const_iteratorIS6_PNS_11__tree_nodeIS6_PvEElEERKT_SG_SG_
__ZNKSt3__16__treeINS_12basic_stringIcNS_11char_traitsIcEENS_9allocatorIcEEEENS_4lessIS6_EENS4_IS6_EEE4findIS6_EENS_21__tree_const_iteratorIS6_PNS_11__tree_nodeIS6_PvEElEERKT_
__ZNKSt3__18functionIFvPN25SteamNetworkingSocketsLib14HTTPResponse_tEEEclES3_
__ZNKSt9exception4whatEv
__ZNSt13runtime_errorC1EPKc
__ZNSt13runtime_errorC2EPKc
__ZNSt13runtime_errorD1Ev
__ZNSt14overflow_errorD1Ev
__ZNSt3__110__function6__funcIZN25SteamNetworkingSocketsLib24CSteamNetworkingUtilsSDR23BeginFetchNetworkConfigEbE3$_6NS_9allocatorIS4_EEFvPNS2_14HTTPResponse_tEEE18destroy_deallocateEv
__ZNSt3__110__function6__funcIZN25SteamNetworkingSocketsLib24CSteamNetworkingUtilsSDR23BeginFetchNetworkConfigEbE3$_6NS_9allocatorIS4_EEFvPNS2_14HTTPResponse_tEEE7destroyEv
__ZNSt3__110__function6__funcIZN25SteamNetworkingSocketsLib24CSteamNetworkingUtilsSDR23BeginFetchNetworkConfigEbE3$_6NS_9allocatorIS4_EEFvPNS2_14HTTPResponse_tEEED0Ev
__ZNSt3__110__function6__funcIZN25SteamNetworkingSocketsLib24CSteamNetworkingUtilsSDR23BeginFetchNetworkConfigEbE3$_6NS_9allocatorIS4_EEFvPNS2_14HTTPResponse_tEEED1Ev
__ZNSt3__110__function6__funcIZN25SteamNetworkingSocketsLib24CSteamNetworkingUtilsSDR23BeginFetchNetworkConfigEbE3$_6NS_9allocatorIS4_EEFvPNS2_14HTTPResponse_tEEEclEOS8_
__ZNSt3__112__hash_tableINS_12basic_stringIcNS_11char_traitsIcEENS_9allocatorIcEEEEN6google8protobuf4hashIS6_EENS_8equal_toIS6_EENS4_IS6_EEE12__deallocateEPNS_11__hash_nodeIS6_PvEE
__ZNSt3__112__hash_tableINS_12basic_stringIcNS_11char_traitsIcEENS_9allocatorIcEEEEN6google8protobuf4hashIS6_EENS_8equal_toIS6_EENS4_IS6_EEE15__insert_uniqueERKS6_
__ZNSt3__112__hash_tableINS_12basic_stringIcNS_11char_traitsIcEENS_9allocatorIcEEEEN6google8protobuf4hashIS6_EENS_8equal_toIS6_EENS4_IS6_EEE16__construct_nodeERKS6_m
__ZNSt3__112__hash_tableINS_12basic_stringIcNS_11char_traitsIcEENS_9allocatorIcEEEEN6google8protobuf4hashIS6_EENS_8equal_toIS6_EENS4_IS6_EEE5clearEv
__ZNSt3__112__hash_tableINS_12basic_stringIcNS_11char_traitsIcEENS_9allocatorIcEEEEN6google8protobuf4hashIS6_EENS_8equal_toIS6_EENS4_IS6_EEE6rehashEm
__ZNSt3__112__hash_tableINS_12basic_stringIcNS_11char_traitsIcEENS_9allocatorIcEEEEN6google8protobuf4hashIS6_EENS_8equal_toIS6_EENS4_IS6_EEE8__rehashEm
__ZNSt3__112__hash_tableINS_12basic_stringIcNS_11char_traitsIcEENS_9allocatorIcEEEEN6google8protobuf4hashIS6_EENS_8equal_toIS6_EENS4_IS6_EEED2Ev
__ZNSt3__112__hash_tableINS_17__hash_value_typeINS_12basic_stringIcNS_11char_traitsIcEENS_9allocatorIcEEEEPKN6google8protobuf23SourceCodeInfo_LocationEEENS_22__unordered_map_hasherIS7_SD_NS9_4hashIS7_EELb1EEENS_21__unordered_map_equalIS7_SD_NS_8equal_toIS7_EELb1EEENS5_ISD_EEE12__deallocateEPNS_11__hash_nodeISD_PvEE
__ZNSt3__112__hash_tableINS_17__hash_value_typeINS_12basic_stringIcNS_11char_traitsIcEENS_9allocatorIcEEEEPKN6google8protobuf23SourceCodeInfo_LocationEEENS_22__unordered_map_hasherIS7_SD_NS9_4hashIS7_EELb1EEENS_21__unordered_map_equalIS7_SD_NS_8equal_toIS7_EELb1EEENS5_ISD_EEED2Ev
__ZNSt3__112__hash_tableINS_17__hash_value_typeINS_4pairIPKN6google8protobuf10DescriptorEiEEPKNS4_15FieldDescriptorEEENS_22__unordered_map_hasherIS8_SC_NS4_12_GLOBAL__N_122PointerIntegerPairHashIS8_EELb1EEENS_21__unordered_map_equalIS8_SC_NS_8equal_toIS8_EELb1EEENS_9allocatorISC_EEE8__rehashEm
__ZNSt3__112__hash_tableINS_17__hash_value_typeINS_4pairIPKN6google8protobuf11MessageLiteEiEENS4_8internal13ExtensionInfoEEENS_22__unordered_map_hasherIS8_SB_NS4_4hashIS8_EELb1EEENS_21__unordered_map_equalIS8_SB_NS_8equal_toIS8_EELb1EEENS_9allocatorISB_EEE4findIS8_EENS_15__hash_iteratorIPNS_11__hash_nodeISB_PvEEEERKT_
__ZNSt3__112__hash_tableINS_17__hash_value_typeINS_4pairIPKN6google8protobuf14EnumDescriptorEiEEPKNS4_19EnumValueDescriptorEEENS_22__unordered_map_hasherIS8_SC_NS4_12_GLOBAL__N_122PointerIntegerPairHashIS8_EELb1EEENS_21__unordered_map_equalIS8_SC_NS_8equal_toIS8_EELb1EEENS_9allocatorISC_EEE8__rehashEm
__ZNSt3__112__hash_tableINS_17__hash_value_typeINS_4pairIPKvPKcEEN6google8protobuf12_GLOBAL__N_16SymbolEEENS_22__unordered_map_hasherIS7_SC_NSA_21PointerStringPairHashELb1EEENS_21__unordered_map_equalIS7_SC_NSA_22PointerStringPairEqualELb1EEENS_9allocatorISC_EEE8__rehashEm
__ZNSt3__112__hash_tableINS_17__hash_value_typeINS_4pairIPKvPKcEEPKN6google8protobuf15FieldDescriptorEEENS_22__unordered_map_hasherIS7_SD_NS9_12_GLOBAL__N_121PointerStringPairHashELb1EEENS_21__unordered_map_equalIS7_SD_NSF_22PointerStringPairEqualELb1EEENS_9allocatorISD_EEE8__rehashEm
__ZNSt3__112__hash_tableINS_17__hash_value_typeIPKN6google8protobuf10DescriptorEPKNS3_14DynamicMessage8TypeInfoEEENS_22__unordered_map_hasherIS6_SB_NS3_4hashIS6_EELb1EEENS_21__unordered_map_equalIS6_SB_NS_8equal_toIS6_EELb1EEENS_9allocatorISB_EEE20__node_insert_uniqueEPNS_11__hash_nodeISB_PvEE
__ZNSt3__112__hash_tableINS_17__hash_value_typeIPKN6google8protobuf10DescriptorEPKNS3_14DynamicMessage8TypeInfoEEENS_22__unordered_map_hasherIS6_SB_NS3_4hashIS6_EELb1EEENS_21__unordered_map_equalIS6_SB_NS_8equal_toIS6_EELb1EEENS_9allocatorISB_EEE4findIS6_EENS_15__hash_iteratorIPNS_11__hash_nodeISB_PvEEEERKT_
__ZNSt3__112__hash_tableINS_17__hash_value_typeIPKN6google8protobuf10DescriptorEPKNS3_14DynamicMessage8TypeInfoEEENS_22__unordered_map_hasherIS6_SB_NS3_4hashIS6_EELb1EEENS_21__unordered_map_equalIS6_SB_NS_8equal_toIS6_EELb1EEENS_9allocatorISB_EEE6rehashEm
__ZNSt3__112__hash_tableINS_17__hash_value_typeIPKN6google8protobuf10DescriptorEPKNS3_14DynamicMessage8TypeInfoEEENS_22__unordered_map_hasherIS6_SB_NS3_4hashIS6_EELb1EEENS_21__unordered_map_equalIS6_SB_NS_8equal_toIS6_EELb1EEENS_9allocatorISB_EEE8__rehashEm
__ZNSt3__112__hash_tableINS_17__hash_value_typeIPKN6google8protobuf10DescriptorEPKNS3_14DynamicMessage8TypeInfoEEENS_22__unordered_map_hasherIS6_SB_NS3_4hashIS6_EELb1EEENS_21__unordered_map_equalIS6_SB_NS_8equal_toIS6_EELb1EEENS_9allocatorISB_EEED2Ev
__ZNSt3__112__hash_tableINS_17__hash_value_typeIPKN6google8protobuf10DescriptorEPKNS3_7MessageEEENS_22__unordered_map_hasherIS6_SA_NS3_4hashIS6_EELb1EEENS_21__unordered_map_equalIS6_SA_NS_8equal_toIS6_EELb1EEENS_9allocatorISA_EEE15__insert_uniqueIRKNS_4pairIKS6_S9_EEEENSN_INS_15__hash_iteratorIPNS_11__hash_nodeISA_PvEEEEbEEOT_
__ZNSt3__112__hash_tableINS_17__hash_value_typeIPKN6google8protobuf10DescriptorEPKNS3_7MessageEEENS_22__unordered_map_hasherIS6_SA_NS3_4hashIS6_EELb1EEENS_21__unordered_map_equalIS6_SA_NS_8equal_toIS6_EELb1EEENS_9allocatorISA_EEE20__node_insert_uniqueEPNS_11__hash_nodeISA_PvEE
__ZNSt3__112__hash_tableINS_17__hash_value_typeIPKN6google8protobuf10DescriptorEPKNS3_7MessageEEENS_22__unordered_map_hasherIS6_SA_NS3_4hashIS6_EELb1EEENS_21__unordered_map_equalIS6_SA_NS_8equal_toIS6_EELb1EEENS_9allocatorISA_EEE4findIS6_EENS_15__hash_iteratorIPNS_11__hash_nodeISA_PvEEEERKT_
__ZNSt3__112__hash_tableINS_17__hash_value_typeIPKN6google8protobuf10DescriptorEPKNS3_7MessageEEENS_22__unordered_map_hasherIS6_SA_NS3_4hashIS6_EELb1EEENS_21__unordered_map_equalIS6_SA_NS_8equal_toIS6_EELb1EEENS_9allocatorISA_EEE6rehashEm
__ZNSt3__112__hash_tableINS_17__hash_value_typeIPKN6google8protobuf10DescriptorEPKNS3_7MessageEEENS_22__unordered_map_hasherIS6_SA_NS3_4hashIS6_EELb1EEENS_21__unordered_map_equalIS6_SA_NS_8equal_toIS6_EELb1EEENS_9allocatorISA_EEE8__rehashEm
__ZNSt3__112__hash_tableINS_17__hash_value_typeIPKN6google8protobuf10DescriptorEPKNS3_7MessageEEENS_22__unordered_map_hasherIS6_SA_NS3_4hashIS6_EELb1EEENS_21__unordered_map_equalIS6_SA_NS_8equal_toIS6_EELb1EEENS_9allocatorISA_EEED2Ev
__ZNSt3__112__hash_tableINS_17__hash_value_typeIPKcN6google8protobuf12_GLOBAL__N_16SymbolEEENS_22__unordered_map_hasherIS3_S8_NS5_4hashIS3_EELb1EEENS_21__unordered_map_equalIS3_S8_NS5_5streqELb1EEENS_9allocatorIS8_EEE8__rehashEm
__ZNSt3__112__hash_tableINS_17__hash_value_typeIPKcPFvRKNS_12basic_stringIcNS_11char_traitsIcEENS_9allocatorIcEEEEEEENS_22__unordered_map_hasherIS3_SE_N6google8protobuf4hashIS3_EELb1EEENS_21__unordered_map_equalIS3_SE_NSH_5streqELb1EEENS7_ISE_EEE15__insert_uniqueIRKNS_4pairIKS3_SD_EEEENSR_INS_15__hash_iteratorIPNS_11__hash_nodeISE_PvEEEEbEEOT_
__ZNSt3__112__hash_tableINS_17__hash_value_typeIPKcPFvRKNS_12basic_stringIcNS_11char_traitsIcEENS_9allocatorIcEEEEEEENS_22__unordered_map_hasherIS3_SE_N6google8protobuf4hashIS3_EELb1EEENS_21__unordered_map_equalIS3_SE_NSH_5streqELb1EEENS7_ISE_EEE16__construct_nodeIJRKNS_4pairIKS3_SD_EEEEENS_10unique_ptrINS_11__hash_nodeISE_PvEENS_22__hash_node_destructorINS7_ISZ_EEEEEEDpOT_
__ZNSt3__112__hash_tableINS_17__hash_value_typeIPKcPFvRKNS_12basic_stringIcNS_11char_traitsIcEENS_9allocatorIcEEEEEEENS_22__unordered_map_hasherIS3_SE_N6google8protobuf4hashIS3_EELb1EEENS_21__unordered_map_equalIS3_SE_NSH_5streqELb1EEENS7_ISE_EEE20__node_insert_uniqueEPNS_11__hash_nodeISE_PvEE
__ZNSt3__112__hash_tableINS_17__hash_value_typeIPKcPFvRKNS_12basic_stringIcNS_11char_traitsIcEENS_9allocatorIcEEEEEEENS_22__unordered_map_hasherIS3_SE_N6google8protobuf4hashIS3_EELb1EEENS_21__unordered_map_equalIS3_SE_NSH_5streqELb1EEENS7_ISE_EEE4findIS3_EENS_15__hash_iteratorIPNS_11__hash_nodeISE_PvEEEERKT_
__ZNSt3__112__hash_tableINS_17__hash_value_typeIPKcPFvRKNS_12basic_stringIcNS_11char_traitsIcEENS_9allocatorIcEEEEEEENS_22__unordered_map_hasherIS3_SE_N6google8protobuf4hashIS3_EELb1EEENS_21__unordered_map_equalIS3_SE_NSH_5streqELb1EEENS7_ISE_EEE6rehashEm
__ZNSt3__112__hash_tableINS_17__hash_value_typeIPKcPFvRKNS_12basic_stringIcNS_11char_traitsIcEENS_9allocatorIcEEEEEEENS_22__unordered_map_hasherIS3_SE_N6google8protobuf4hashIS3_EELb1EEENS_21__unordered_map_equalIS3_SE_NSH_5streqELb1EEENS7_ISE_EEE8__rehashEm
__ZNSt3__112__hash_tableINS_17__hash_value_typeIPKcPFvRKNS_12basic_stringIcNS_11char_traitsIcEENS_9allocatorIcEEEEEEENS_22__unordered_map_hasherIS3_SE_N6google8protobuf4hashIS3_EELb1EEENS_21__unordered_map_equalIS3_SE_NSH_5streqELb1EEENS7_ISE_EEED2Ev
__ZNSt3__112__hash_tableINS_17__hash_value_typeIPKcPKN6google8protobuf14FileDescriptorEEENS_22__unordered_map_hasherIS3_S9_NS5_4hashIS3_EELb1EEENS_21__unordered_map_equalIS3_S9_NS5_5streqELb1EEENS_9allocatorIS9_EEE14__erase_uniqueIS3_EEmRKT_
__ZNSt3__112__hash_tableINS_17__hash_value_typeIPKcPKN6google8protobuf14FileDescriptorEEENS_22__unordered_map_hasherIS3_S9_NS5_4hashIS3_EELb1EEENS_21__unordered_map_equalIS3_S9_NS5_5streqELb1EEENS_9allocatorIS9_EEE15__insert_uniqueIRKNS_4pairIKS3_S8_EEEENSL_INS_15__hash_iteratorIPNS_11__hash_nodeIS9_PvEEEEbEEOT_
__ZNSt3__112__hash_tableINS_17__hash_value_typeIPKcPKN6google8protobuf14FileDescriptorEEENS_22__unordered_map_hasherIS3_S9_NS5_4hashIS3_EELb1EEENS_21__unordered_map_equalIS3_S9_NS5_5streqELb1EEENS_9allocatorIS9_EEE16__construct_nodeIJRKNS_4pairIKS3_S8_EEEEENS_10unique_ptrINS_11__hash_nodeIS9_PvEENS_22__hash_node_destructorINSH_IST_EEEEEEDpOT_
__ZNSt3__112__hash_tableINS_17__hash_value_typeIPKcPKN6google8protobuf14FileDescriptorEEENS_22__unordered_map_hasherIS3_S9_NS5_4hashIS3_EELb1EEENS_21__unordered_map_equalIS3_S9_NS5_5streqELb1EEENS_9allocatorIS9_EEE20__node_insert_uniqueEPNS_11__hash_nodeIS9_PvEE
__ZNSt3__112__hash_tableINS_17__hash_value_typeIPKcPKN6google8protobuf14FileDescriptorEEENS_22__unordered_map_hasherIS3_S9_NS5_4hashIS3_EELb1EEENS_21__unordered_map_equalIS3_S9_NS5_5streqELb1EEENS_9allocatorIS9_EEE4findIS3_EENS_15__hash_iteratorIPNS_11__hash_nodeIS9_PvEEEERKT_
__ZNSt3__112__hash_tableINS_17__hash_value_typeIPKcPKN6google8protobuf14FileDescriptorEEENS_22__unordered_map_hasherIS3_S9_NS5_4hashIS3_EELb1EEENS_21__unordered_map_equalIS3_S9_NS5_5streqELb1EEENS_9allocatorIS9_EEE5eraseENS_21__hash_const_iteratorIPNS_11__hash_nodeIS9_PvEEEE
__ZNSt3__112__hash_tableINS_17__hash_value_typeIPKcPKN6google8protobuf14FileDescriptorEEENS_22__unordered_map_hasherIS3_S9_NS5_4hashIS3_EELb1EEENS_21__unordered_map_equalIS3_S9_NS5_5streqELb1EEENS_9allocatorIS9_EEE6rehashEm
__ZNSt3__112__hash_tableINS_17__hash_value_typeIPKcPKN6google8protobuf14FileDescriptorEEENS_22__unordered_map_hasherIS3_S9_NS5_4hashIS3_EELb1EEENS_21__unordered_map_equalIS3_S9_NS5_5streqELb1EEENS_9allocatorIS9_EEE6removeENS_21__hash_const_iteratorIPNS_11__hash_nodeIS9_PvEEEE
__ZNSt3__112__hash_tableINS_17__hash_value_typeIPKcPKN6google8protobuf14FileDescriptorEEENS_22__unordered_map_hasherIS3_S9_NS5_4hashIS3_EELb1EEENS_21__unordered_map_equalIS3_S9_NS5_5streqELb1EEENS_9allocatorIS9_EEE8__rehashEm
__ZNSt3__112__hash_tableINS_17__hash_value_typeIPKcPKN6google8protobuf14FileDescriptorEEENS_22__unordered_map_hasherIS3_S9_NS5_4hashIS3_EELb1EEENS_21__unordered_map_equalIS3_S9_NS5_5streqELb1EEENS_9allocatorIS9_EEED2Ev
__ZNSt3__112__hash_tableIPKN6google8protobuf10DescriptorENS2_4hashIS5_EENS_8equal_toIS5_EENS_9allocatorIS5_EEED2Ev
__ZNSt3__112__next_primeEm
__ZNSt3__112basic_stringIcNS_11char_traitsIcEENS_9allocatorIcEEE5eraseEmm
__ZNSt3__112basic_stringIcNS_11char_traitsIcEENS_9allocatorIcEEE6__initEPKcm
__ZNSt3__112basic_stringIcNS_11char_traitsIcEENS_9allocatorIcEEE6__initEPKcmm
__ZNSt3__112basic_stringIcNS_11char_traitsIcEENS_9allocatorIcEEE6__initEmc
__ZNSt3__112basic_stringIcNS_11char_traitsIcEENS_9allocatorIcEEE6__initIPcEENS_9enable_ifIXsr21__is_forward_iteratorIT_EE5valueEvE4typeES9_S9_
__ZNSt3__112basic_stringIcNS_11char_traitsIcEENS_9allocatorIcEEE6appendEPKc
__ZNSt3__112basic_stringIcNS_11char_traitsIcEENS_9allocatorIcEEE6appendEPKcm
__ZNSt3__112basic_stringIcNS_11char_traitsIcEENS_9allocatorIcEEE6appendERKS5_mm
__ZNSt3__112basic_stringIcNS_11char_traitsIcEENS_9allocatorIcEEE6appendEmc
__ZNSt3__112basic_stringIcNS_11char_traitsIcEENS_9allocatorIcEEE6appendIPKcEENS_9enable_ifIXsr21__is_forward_iteratorIT_EE5valueERS5_E4typeESA_SA_
__ZNSt3__112basic_stringIcNS_11char_traitsIcEENS_9allocatorIcEEE6assignEPKc
__ZNSt3__112basic_stringIcNS_11char_traitsIcEENS_9allocatorIcEEE6assignEPKcm
__ZNSt3__112basic_stringIcNS_11char_traitsIcEENS_9allocatorIcEEE6insertEmPKc
__ZNSt3__112basic_stringIcNS_11char_traitsIcEENS_9allocatorIcEEE6resizeEmc
__ZNSt3__112basic_stringIcNS_11char_traitsIcEENS_9allocatorIcEEE7reserveEm
__ZNSt3__112basic_stringIcNS_11char_traitsIcEENS_9allocatorIcEEE9__grow_byEmmmmmm
__ZNSt3__112basic_stringIcNS_11char_traitsIcEENS_9allocatorIcEEE9push_backEc
__ZNSt3__112basic_stringIcNS_11char_traitsIcEENS_9allocatorIcEEEC1ERKS5_
__ZNSt3__112basic_stringIcNS_11char_traitsIcEENS_9allocatorIcEEEC1ERKS5_mmRKS4_
__ZNSt3__112basic_stringIcNS_11char_traitsIcEENS_9allocatorIcEEED1Ev
__ZNSt3__112basic_stringIcNS_11char_traitsIcEENS_9allocatorIcEEEaSERKS5_
__ZNSt3__113__tree_removeIPNS_16__tree_node_baseIPvEEEEvT_S5_
__ZNSt3__113__vector_baseI17CMsgICERendezvousNS_9allocatorIS1_EEED2Ev
__ZNSt3__113__vector_baseI42CMsgSteamDatagramClientPingSampleReply_POPNS_9allocatorIS1_EEED2Ev
__ZNSt3__113__vector_baseIN25SteamNetworkingSocketsLib11RelayServer12AltTransportENS_9allocatorIS3_EEED2Ev
__ZNSt3__113__vector_baseIN25SteamNetworkingSocketsLib15FakeIPReferenceENS_9allocatorIS2_EEED2Ev
__ZNSt3__113__vector_baseIN25SteamNetworkingSocketsLib15SSNPSenderState4LaneENS_9allocatorIS3_EEED2Ev
__ZNSt3__113__vector_baseIN25SteamNetworkingSocketsLib17CP2PRouteSelector12RelayClusterENS_9allocatorIS3_EEED2Ev
__ZNSt3__113__vector_baseIN25SteamNetworkingSocketsLib17CP2PRouteSelector16SendRelayClusterENS_9allocatorIS3_EEED2Ev
__ZNSt3__113__vector_baseIN25SteamNetworkingSocketsLib17CP2PRouteSelector5RouteENS_9allocatorIS3_EEED2Ev
__ZNSt3__113__vector_baseIN25SteamNetworkingSocketsLib17CP2PRouteSelector9SendRouteENS_9allocatorIS3_EEED2Ev
__ZNSt3__113__vector_baseIN25SteamNetworkingSocketsLib17SSNPReceiverState4LaneENS_9allocatorIS3_EEED2Ev
__ZNSt3__113__vector_baseIN25SteamNetworkingSocketsLib19RouteQualityMetricsENS_9allocatorIS2_EEED2Ev
__ZNSt3__113__vector_baseIN25SteamNetworkingSocketsLib20PingLocationMarker_tENS_9allocatorIS2_EEED2Ev
__ZNSt3__113__vector_baseIN25SteamNetworkingSocketsLib20SteamDatagramNetwork12RelayAddressENS_9allocatorIS3_EEED2Ev
__ZNSt3__113__vector_baseIN25SteamNetworkingSocketsLib20SteamDatagramNetwork19RouterAddressLookupENS_9allocatorIS3_EEED2Ev
__ZNSt3__113__vector_baseIN25SteamNetworkingSocketsLib20SteamDatagramNetwork3POPENS_9allocatorIS3_EEED2Ev
__ZNSt3__113__vector_baseIN25SteamNetworkingSocketsLib23CSteamNetworkingSockets14QueuedCallbackENS_9allocatorIS3_EEED2Ev
__ZNSt3__113__vector_baseIN25SteamNetworkingSocketsLib24CachedDataCenterRoutes_tENS_9allocatorIS2_EEED2Ev
__ZNSt3__113__vector_baseIN25SteamNetworkingSocketsLib26CSteamNetworkConnectionP2P15OutboundMessageENS_9allocatorIS3_EEED2Ev
__ZNSt3__113__vector_baseIN25SteamNetworkingSocketsLib4CertENS_9allocatorIS2_EEED2Ev
__ZNSt3__113__vector_baseIN6google8protobuf12UnknownFieldENS_9allocatorIS3_EEED2Ev
__ZNSt3__113__vector_baseIN6google8protobuf14DescriptorPool6Tables10CheckPointENS_9allocatorIS5_EEED2Ev
__ZNSt3__113__vector_baseIN8picojson5valueENS_9allocatorIS2_EEED2Ev
__ZNSt3__113__vector_baseINS_12basic_stringIcNS_11char_traitsIcEENS_9allocatorIcEEEENS4_IS6_EEED2Ev
__ZNSt3__113__vector_baseINS_4pairIPKN6google8protobuf10DescriptorEiEENS_9allocatorIS7_EEED2Ev
__ZNSt3__113__vector_baseIPKN6google8protobuf15FieldDescriptorENS_9allocatorIS5_EEED2Ev
__ZNSt3__113__vector_baseIPKcNS_9allocatorIS2_EEED2Ev
__ZNSt3__113__vector_baseIPN25SteamNetworkingSocketsLib11RelayServerENS_9allocatorIS3_EEED2Ev
__ZNSt3__113__vector_baseIPN25SteamNetworkingSocketsLib17CP2PRouteSelector16SendRelayClusterENS_9allocatorIS4_EEED2Ev
__ZNSt3__113__vector_baseIPN25SteamNetworkingSocketsLib17CP2PRouteSelector5RouteENS_9allocatorIS4_EEED2Ev
__ZNSt3__113__vector_baseIPN25SteamNetworkingSocketsLib17SharedClusterDataENS_9allocatorIS3_EEED2Ev
__ZNSt3__113__vector_baseIPN25SteamNetworkingSocketsLib18CHTTPRequest_SteamENS_9allocatorIS3_EEED2Ev
__ZNSt3__113__vector_baseIPN25SteamNetworkingSocketsLib22GlobalConfigValueEntryENS_9allocatorIS3_EEED2Ev
__ZNSt3__113__vector_baseIPN25SteamNetworkingSocketsLib23CSteamNetworkingSocketsENS_9allocatorIS3_EEED2Ev
__ZNSt3__113__vector_baseIPN25SteamNetworkingSocketsLib24CSteamNetworkingUtilsSDRENS_9allocatorIS3_EEED2Ev
__ZNSt3__113__vector_baseIPN25SteamNetworkingSocketsLib27CConnectionTransportSDRBaseENS_9allocatorIS3_EEED2Ev
__ZNSt3__113__vector_baseIPN25SteamNetworkingSocketsLib27CSteamNetworkConnectionBaseENS_9allocatorIS3_EEED2Ev
__ZNSt3__113__vector_baseIPN6google8protobuf20FileDescriptorTablesENS_9allocatorIS4_EEED2Ev
__ZNSt3__113__vector_baseIPN6google8protobuf7MessageENS_9allocatorIS4_EEED2Ev
__ZNSt3__113__vector_baseIPNS_12basic_stringIcNS_11char_traitsIcEENS_9allocatorIcEEEENS4_IS7_EEED2Ev
__ZNSt3__113__vector_baseIPvNS_9allocatorIS1_EEED2Ev
__ZNSt3__113__vector_baseIiNS_9allocatorIiEEED2Ev
__ZNSt3__113__vector_baseIjNS_9allocatorIjEEED2Ev
__ZNSt3__113__vector_baseIyNS_9allocatorIyEEED2Ev
__ZNSt3__113unordered_mapIPKN6google8protobuf10DescriptorEPKNS2_14DynamicMessage8TypeInfoENS2_4hashIS5_EENS_8equal_toIS5_EENS_9allocatorINS_4pairIKS5_S9_EEEEEixERSG_
__ZNSt3__114__split_bufferI17CMsgICERendezvousRNS_9allocatorIS1_EEED2Ev
__ZNSt3__114__split_bufferI42CMsgSteamDatagramClientPingSampleReply_POPRNS_9allocatorIS1_EEED2Ev
__ZNSt3__114__split_bufferIN25SteamNetworkingSocketsLib11RelayServer12AltTransportERNS_9allocatorIS3_EEED2Ev
__ZNSt3__114__split_bufferIN25SteamNetworkingSocketsLib15FakeIPReferenceERNS_9allocatorIS2_EEED2Ev
__ZNSt3__114__split_bufferIN25SteamNetworkingSocketsLib15SSNPSenderState4LaneERNS_9allocatorIS3_EEED2Ev
__ZNSt3__114__split_bufferIN25SteamNetworkingSocketsLib17CP2PRouteSelector12RelayClusterERNS_9allocatorIS3_EEED2Ev
__ZNSt3__114__split_bufferIN25SteamNetworkingSocketsLib17CP2PRouteSelector16SendRelayClusterERNS_9allocatorIS3_EEED2Ev
__ZNSt3__114__split_bufferIN25SteamNetworkingSocketsLib17CP2PRouteSelector5RouteERNS_9allocatorIS3_EEED2Ev
__ZNSt3__114__split_bufferIN25SteamNetworkingSocketsLib17CP2PRouteSelector9SendRouteERNS_9allocatorIS3_EEED2Ev
__ZNSt3__114__split_bufferIN25SteamNetworkingSocketsLib17SSNPReceiverState4LaneERNS_9allocatorIS3_EEED2Ev
__ZNSt3__114__split_bufferIN25SteamNetworkingSocketsLib19RouteQualityMetricsERNS_9allocatorIS2_EEED2Ev
__ZNSt3__114__split_bufferIN25SteamNetworkingSocketsLib20PingLocationMarker_tERNS_9allocatorIS2_EEED2Ev
__ZNSt3__114__split_bufferIN25SteamNetworkingSocketsLib20SteamDatagramNetwork12RelayAddressERNS_9allocatorIS3_EEED2Ev
__ZNSt3__114__split_bufferIN25SteamNetworkingSocketsLib20SteamDatagramNetwork19RouterAddressLookupERNS_9allocatorIS3_EEED2Ev
__ZNSt3__114__split_bufferIN25SteamNetworkingSocketsLib20SteamDatagramNetwork3POPERNS_9allocatorIS3_EEED2Ev
__ZNSt3__114__split_bufferIN25SteamNetworkingSocketsLib23CSteamNetworkingSockets14QueuedCallbackERNS_9allocatorIS3_EEED2Ev
__ZNSt3__114__split_bufferIN25SteamNetworkingSocketsLib24CachedDataCenterRoutes_tERNS_9allocatorIS2_EEED2Ev
__ZNSt3__114__split_bufferIN25SteamNetworkingSocketsLib26CSteamNetworkConnectionP2P15OutboundMessageERNS_9allocatorIS3_EEED2Ev
__ZNSt3__114__split_bufferIN25SteamNetworkingSocketsLib4CertERNS_9allocatorIS2_EEED2Ev
__ZNSt3__114__split_bufferIN6google8protobuf10TextFormat13ParseLocationERNS_9allocatorIS4_EEED2Ev
__ZNSt3__114__split_bufferIN6google8protobuf12UnknownFieldERNS_9allocatorIS3_EEED2Ev
__ZNSt3__114__split_bufferIN6google8protobuf14DescriptorPool6Tables10CheckPointERNS_9allocatorIS5_EEED2Ev
__ZNSt3__114__split_bufferIN8picojson5valueERNS_9allocatorIS2_EEED2Ev
__ZNSt3__114__split_bufferINS_12basic_stringIcNS_11char_traitsIcEENS_9allocatorIcEEEERNS4_IS6_EEED2Ev
__ZNSt3__114__split_bufferINS_4pairIPKN6google8protobuf10DescriptorEiEERNS_9allocatorIS7_EEED2Ev
__ZNSt3__114__split_bufferIPFvvERNS_9allocatorIS2_EEED2Ev
__ZNSt3__114__split_bufferIPKN6google8protobuf15FieldDescriptorERNS_9allocatorIS5_EEED2Ev
__ZNSt3__114__split_bufferIPKcRNS_9allocatorIS2_EEED2Ev
__ZNSt3__114__split_bufferIPN25SteamNetworkingSocketsLib11RelayServerERNS_9allocatorIS3_EEED2Ev
__ZNSt3__114__split_bufferIPN25SteamNetworkingSocketsLib17CP2PRouteSelector16SendRelayClusterERNS_9allocatorIS4_EEED2Ev
__ZNSt3__114__split_bufferIPN25SteamNetworkingSocketsLib17CP2PRouteSelector5RouteERNS_9allocatorIS4_EEED2Ev
__ZNSt3__114__split_bufferIPN25SteamNetworkingSocketsLib17SharedClusterDataERNS_9allocatorIS3_EEED2Ev
__ZNSt3__114__split_bufferIPN25SteamNetworkingSocketsLib18CHTTPRequest_SteamERNS_9allocatorIS3_EEED2Ev
__ZNSt3__114__split_bufferIPN25SteamNetworkingSocketsLib22GlobalConfigValueEntryERNS_9allocatorIS3_EEED2Ev
__ZNSt3__114__split_bufferIPN25SteamNetworkingSocketsLib23CSteamNetworkingSocketsERNS_9allocatorIS3_EEED2Ev
__ZNSt3__114__split_bufferIPN25SteamNetworkingSocketsLib24CSteamNetworkingUtilsSDRERNS_9allocatorIS3_EEED2Ev
__ZNSt3__114__split_bufferIPN25SteamNetworkingSocketsLib27CConnectionTransportSDRBaseERNS_9allocatorIS3_EEED2Ev
__ZNSt3__114__split_bufferIPN25SteamNetworkingSocketsLib27CSteamNetworkConnectionBaseERNS_9allocatorIS3_EEED2Ev
__ZNSt3__114__split_bufferIPN6google8protobuf10TextFormat13ParseInfoTreeERNS_9allocatorIS5_EEED2Ev
__ZNSt3__114__split_bufferIPN6google8protobuf20FileDescriptorTablesERNS_9allocatorIS4_EEED2Ev
__ZNSt3__114__split_bufferIPN6google8protobuf7MessageERNS_9allocatorIS4_EEED2Ev
__ZNSt3__114__split_bufferIPNS_12basic_stringIcNS_11char_traitsIcEENS_9allocatorIcEEEERNS4_IS7_EEED2Ev
__ZNSt3__114__split_bufferIPvRNS_9allocatorIS1_EEED2Ev
__ZNSt3__114__split_bufferIZN25SteamNetworkingSocketsLib26CConnectionTransportP2PSDR26CheckRebuildRoutingMessageExE11SortSessionRNS_9allocatorIS3_EEED1Ev
__ZNSt3__114__split_bufferIZN25SteamNetworkingSocketsLib27CConnectionTransportSDRBase38ProcessMessage_ClientPingSampleRequestERNS1_11RelayServerERK40CMsgSteamDatagramClientPingSampleRequestixE4SortRNS_9allocatorIS8_EEED1Ev
__ZNSt3__114__split_bufferIiRNS_9allocatorIiEEED2Ev
__ZNSt3__114__split_bufferIjRNS_9allocatorIjEEED2Ev
__ZNSt3__114__split_bufferIyRNS_9allocatorIyEEED2Ev
__ZNSt3__114__thread_proxyINS_5tupleIJPFvvEEEEEEPvS5_
__ZNSt3__115__thread_structC1Ev
__ZNSt3__115__thread_structD1Ev
__ZNSt3__115recursive_mutex4lockEv
__ZNSt3__115recursive_mutex6unlockEv
__ZNSt3__115recursive_mutexC1Ev
__ZNSt3__115recursive_mutexD1Ev
__ZNSt3__117bad_function_callD0Ev
__ZNSt3__117bad_function_callD1Ev
__ZNSt3__118__insertion_sort_3IRNS_4lessI21ServerWithSessionSortEEPS2_EEvT0_S6_T_
__ZNSt3__118__insertion_sort_3IRNS_6__lessIN25SteamNetworkingSocketsLib20SteamDatagramNetwork12RelayAddressES4_EEPS4_EEvT0_S8_T_
__ZNSt3__118__insertion_sort_3IRNS_6__lessIN25SteamNetworkingSocketsLib20SteamDatagramNetwork19RouterAddressLookupES4_EEPS4_EEvT0_S8_T_
__ZNSt3__118__tree_left_rotateIPNS_16__tree_node_baseIPvEEEEvT_
__ZNSt3__118condition_variable10wait_untilINS_6chrono12steady_clockENS2_8durationIxNS_5ratioILl1ELl1000000000EEEEEEENS_9cv_statusERNS_11unique_lockINS_5mutexEEERKNS2_10time_pointIT_T0_EE
__ZNSt3__118condition_variable15__do_timed_waitERNS_11unique_lockINS_5mutexEEENS_6chrono10time_pointINS5_12system_clockENS5_8durationIxNS_5ratioILl1ELl1000000000EEEEEEE
__ZNSt3__118condition_variable8wait_forIxNS_5ratioILl1ELl1000000000EEEEENS_9cv_statusERNS_11unique_lockINS_5mutexEEERKNS_6chrono8durationIT_T0_EE
__ZNSt3__119__thread_local_dataEv
__ZNSt3__119__tree_right_rotateIPNS_16__tree_node_baseIPvEEEEvT_
__ZNSt3__120__throw_system_errorEiPKc
__ZNSt3__121__thread_specific_ptrINS_15__thread_structEE5resetEPS1_
__ZNSt3__121recursive_timed_mutex14try_lock_untilINS_6chrono12steady_clockENS2_8durationIxNS_5ratioILl1ELl1000000000EEEEEEEbRKNS2_10time_pointIT_T0_EE
__ZNSt3__121recursive_timed_mutex4lockEv
__ZNSt3__121recursive_timed_mutex6unlockEv
__ZNSt3__121recursive_timed_mutex8try_lockEv
__ZNSt3__121recursive_timed_mutexC1Ev
__ZNSt3__121recursive_timed_mutexD1Ev
__ZNSt3__127__insertion_sort_incompleteIRN6google8protobuf12_GLOBAL__N_116FieldIndexSorterEPPKNS2_15FieldDescriptorEEEbT0_SA_T_
__ZNSt3__127__insertion_sort_incompleteIRN6google8protobuf8internal12_GLOBAL__N_117FieldNumberSorterEPPKNS2_15FieldDescriptorEEEbT0_SB_T_
__ZNSt3__127__insertion_sort_incompleteIRNS_4lessI21ServerWithSessionSortEEPS2_EEbT0_S6_T_
__ZNSt3__127__insertion_sort_incompleteIRNS_6__lessIN25SteamNetworkingSocketsLib20SteamDatagramNetwork12RelayAddressES4_EEPS4_EEbT0_S8_T_
__ZNSt3__127__insertion_sort_incompleteIRNS_6__lessIN25SteamNetworkingSocketsLib20SteamDatagramNetwork19RouterAddressLookupES4_EEPS4_EEbT0_S8_T_
__ZNSt3__127__insertion_sort_incompleteIRNS_6__lessIZN25SteamNetworkingSocketsLib23CSteamNetworkingSockets12SendMessagesEiPKP24SteamNetworkingMessage_tPxE9SortMsg_tS9_EEPS9_EEbT0_SD_T_
__ZNSt3__127__insertion_sort_incompleteIRNS_6__lessIZN25SteamNetworkingSocketsLib26CConnectionTransportP2PSDR26CheckRebuildRoutingMessageExE11SortSessionS4_EEPS4_EEbT0_S8_T_
__ZNSt3__127__insertion_sort_incompleteIRNS_6__lessIZN25SteamNetworkingSocketsLib27CSteamNetworkConnectionBase18SNP_ConfigureLanesEiPKiPKtE17TempPriorityClassS8_EEPS8_EEbT0_SC_T_
__ZNSt3__127__insertion_sort_incompleteIRNS_6__lessIZN25SteamNetworkingSocketsLib27CSteamNetworkConnectionBase26SNP_PopulateRealTimeStatusEP34SteamNetConnectionRealTimeStatus_tiP38SteamNetConnectionRealTimeLaneStatus_txE10LaneSort_tS8_EEPS8_EEbT0_SC_T_
__ZNSt3__127__insertion_sort_incompleteIRNS_6__lessIZN25SteamNetworkingSocketsLibL15ThinkPingProbesExE9ProbeSortS3_EEPS3_EEbT0_S7_T_
__ZNSt3__127__insertion_sort_incompleteIRNS_6__lessIZN25SteamNetworkingSocketsLibL50StartAlternateRoutePingCollectionOnClosestClustersEvE15RelayServerSortS3_EEPS3_EEbT0_S7_T_
__ZNSt3__127__insertion_sort_incompleteIRZN25SteamNetworkingSocketsLib17CP2PRouteSelector20MessageToPeerBuilder13TruncateListsEvE3$_7PNS2_16SendRelayClusterEEEbT0_S8_T_
__ZNSt3__127__insertion_sort_incompleteIRZN25SteamNetworkingSocketsLib17CP2PRouteSelector20MessageToPeerBuilder13TruncateListsEvE3$_8PNS2_9SendRouteEEEbT0_S8_T_
__ZNSt3__127__insertion_sort_incompleteIRZN25SteamNetworkingSocketsLib27CConnectionTransportSDRBase38ProcessMessage_ClientPingSampleRequestERNS1_11RelayServerERK40CMsgSteamDatagramClientPingSampleRequestixE3$_0PZNS2_38ProcessMessage_ClientPingSampleRequestES4_S7_ixE4SortEEbT0_SC_T_
__ZNSt3__127__insertion_sort_incompleteIRZN25SteamNetworkingSocketsLib27CConnectionTransportSDRBase38ProcessMessage_ClientPingSampleRequestERNS1_11RelayServerERK40CMsgSteamDatagramClientPingSampleRequestixE3$_1PZNS2_38ProcessMessage_ClientPingSampleRequestES4_S7_ixE4SortEEbT0_SC_T_
__ZNSt3__127__insertion_sort_incompleteIRZN25SteamNetworkingSocketsLib27CConnectionTransportSDRBase38ProcessMessage_ClientPingSampleRequestERNS1_11RelayServerERK40CMsgSteamDatagramClientPingSampleRequestixE3$_2PZNS2_38ProcessMessage_ClientPingSampleRequestES4_S7_ixE4SortEEbT0_SC_T_
__ZNSt3__127__insertion_sort_incompleteIRZN25SteamNetworkingSocketsLib27CConnectionTransportSDRBase38ProcessMessage_ClientPingSampleRequestERNS1_11RelayServerERK40CMsgSteamDatagramClientPingSampleRequestixE3$_3PZNS2_38ProcessMessage_ClientPingSampleRequestES4_S7_ixE4SortEEbT0_SC_T_
__ZNSt3__127__insertion_sort_incompleteIRZN25SteamNetworkingSocketsLib27CConnectionTransportSDRBase38ProcessMessage_ClientPingSampleRequestERNS1_11RelayServerERK40CMsgSteamDatagramClientPingSampleRequestixE3$_4PZNS2_38ProcessMessage_ClientPingSampleRequestES4_S7_ixE4SortEEbT0_SC_T_
__ZNSt3__127__insertion_sort_incompleteIRZN25SteamNetworkingSocketsLib27CConnectionTransportSDRBase38ProcessMessage_ClientPingSampleRequestERNS1_11RelayServerERK40CMsgSteamDatagramClientPingSampleRequestixE3$_5PZNS2_38ProcessMessage_ClientPingSampleRequestES4_S7_ixE4SortEEbT0_SC_T_
__ZNSt3__127__insertion_sort_incompleteIRZN25SteamNetworkingSocketsLib31CConnectionTransportToSDRServer49ThinkSelectServer_SelectClustersAndPursueSessionsExE3$_0PNS1_19RouteQualityMetricsEEEbT0_S7_T_
__ZNSt3__127__insertion_sort_incompleteIRZN25SteamNetworkingSocketsLib34SteamNetworkPingLocationInternal_t16EnsureSortedByIDEvE3$_0PNS1_20PingLocationMarker_tEEEbT0_S7_T_
__ZNSt3__127__insertion_sort_incompleteIRZN25SteamNetworkingSocketsLib34SteamNetworkPingLocationInternal_t5SetupERKNS_6vectorINS1_20PingLocationMarker_tENS_9allocatorIS4_EEEEE3$_1PZNS2_5SetupES9_E10MarkerSortEEbT0_SE_T_
__ZNSt3__127__insertion_sort_incompleteIRZN25SteamNetworkingSocketsLib34SteamNetworkPingLocationInternal_t5SetupERKNS_6vectorINS1_20PingLocationMarker_tENS_9allocatorIS4_EEEEE3$_2PZNS2_5SetupES9_E10MarkerSortEEbT0_SE_T_
__ZNSt3__127__insertion_sort_incompleteIRZN25SteamNetworkingSocketsLib34SteamNetworkPingLocationInternal_t5SetupERKNS_6vectorINS1_20PingLocationMarker_tENS_9allocatorIS4_EEEEE3$_3PZNS2_5SetupES9_E10MarkerSortEEbT0_SE_T_
__ZNSt3__127__insertion_sort_incompleteIRZN25SteamNetworkingSocketsLibL29EnsureConfigValueTableInittedEvE3$_0PPNS1_22GlobalConfigValueEntryEEEbT0_S7_T_
__ZNSt3__127__insertion_sort_incompleteIRZN25SteamNetworkingSocketsLibL29EnsureConfigValueTableInittedEvE3$_1PPNS1_22GlobalConfigValueEntryEEEbT0_S7_T_
__ZNSt3__127__insertion_sort_incompleteIRZNK25SteamNetworkingSocketsLib17CP2PRouteSelector15MarkItemsToSendERNS2_20MessageToPeerBuilderERA1024_cE3$_2PNS2_9SendRouteEEEbT0_SB_T_
__ZNSt3__127__insertion_sort_incompleteIRZNK25SteamNetworkingSocketsLib17CP2PRouteSelector15MarkItemsToSendERNS2_20MessageToPeerBuilderERA1024_cE3$_3PNS2_9SendRouteEEEbT0_SB_T_
__ZNSt3__127__insertion_sort_incompleteIRZNK25SteamNetworkingSocketsLib17CP2PRouteSelector15MarkItemsToSendERNS2_20MessageToPeerBuilderERA1024_cE3$_4PNS2_9SendRouteEEEbT0_SB_T_
__ZNSt3__127__insertion_sort_incompleteIRZNK25SteamNetworkingSocketsLib17CP2PRouteSelector15MarkItemsToSendERNS2_20MessageToPeerBuilderERA1024_cE3$_5PNS2_9SendRouteEEEbT0_SB_T_
__ZNSt3__127__insertion_sort_incompleteIRZNK25SteamNetworkingSocketsLib17CP2PRouteSelector15MarkItemsToSendERNS2_20MessageToPeerBuilderERA1024_cE3$_6PPNS2_16SendRelayClusterEEEbT0_SC_T_
__ZNSt3__127__insertion_sort_incompleteIRZNK25SteamNetworkingSocketsLib34SteamNetworkPingLocationInternal_t8ToStringEPciE3$_4PNS1_20PingLocationMarker_tEEEbT0_S8_T_
__ZNSt3__127__insertion_sort_incompleteIRZZN25SteamNetworkingSocketsLib17CP2PRouteSelector28BuildListsForServerSelectionEvENK3$_0clERNS_6vectorIPNS2_5RouteENS_9allocatorIS6_EEEERNS4_INS1_19RouteQualityMetricsENS7_ISB_EEEEEUlS6_S6_E_PS6_EEbT0_SI_T_
__ZNSt3__127__tree_balance_after_insertIPNS_16__tree_node_baseIPvEEEEvT_S5_
__ZNSt3__13mapIN25SteamNetworkingSocketsLib28SSNPRecvUnreliableSegmentKeyENS1_29SSNPRecvUnreliableSegmentDataENS_4lessIS2_EENS_9allocatorINS_4pairIKS2_S3_EEEEE16__find_equal_keyERPNS_16__tree_node_baseIPvEERS8_
__ZNSt3__13mapIN25SteamNetworkingSocketsLib28SSNPRecvUnreliableSegmentKeyENS1_29SSNPRecvUnreliableSegmentDataENS_4lessIS2_EENS_9allocatorINS_4pairIKS2_S3_EEEEEixERS8_
__ZNSt3__13mapINS_12basic_stringIcNS_11char_traitsIcEENS_9allocatorIcEEEEN8picojson5valueENS_4lessIS6_EENS4_INS_4pairIKS6_S8_EEEEE16__find_equal_keyERPNS_16__tree_node_baseIPvEERSC_
__ZNSt3__13mapINS_12basic_stringIcNS_11char_traitsIcEENS_9allocatorIcEEEEN8picojson5valueENS_4lessIS6_EENS4_INS_4pairIKS6_S8_EEEEE25__construct_node_with_keyERSC_
__ZNSt3__13mapINS_12basic_stringIcNS_11char_traitsIcEENS_9allocatorIcEEEEN8picojson5valueENS_4lessIS6_EENS4_INS_4pairIKS6_S8_EEEEEixERSC_
__ZNSt3__13mapINS_12basic_stringIcNS_11char_traitsIcEENS_9allocatorIcEEEES6_NS_4lessIS6_EENS4_INS_4pairIKS6_S6_EEEEE16__find_equal_keyERPNS_16__tree_node_baseIPvEERSA_
__ZNSt3__13mapINS_12basic_stringIcNS_11char_traitsIcEENS_9allocatorIcEEEES6_NS_4lessIS6_EENS4_INS_4pairIKS6_S6_EEEEED1Ev
__ZNSt3__13mapINS_12basic_stringIcNS_11char_traitsIcEENS_9allocatorIcEEEES6_NS_4lessIS6_EENS4_INS_4pairIKS6_S6_EEEEEixEOS6_
__ZNSt3__13mapINS_12basic_stringIcNS_11char_traitsIcEENS_9allocatorIcEEEEiNS_4lessIS6_EENS4_INS_4pairIKS6_iEEEEE16__find_equal_keyERPNS_16__tree_node_baseIPvEERSA_
__ZNSt3__13mapINS_12basic_stringIcNS_11char_traitsIcEENS_9allocatorIcEEEEiNS_4lessIS6_EENS4_INS_4pairIKS6_iEEEEE25__construct_node_with_keyERSA_
__ZNSt3__13mapINS_12basic_stringIcNS_11char_traitsIcEENS_9allocatorIcEEEEiNS_4lessIS6_EENS4_INS_4pairIKS6_iEEEEEixERSA_
__ZNSt3__13mapIPKN6google8protobuf15FieldDescriptorENS_6vectorINS2_10TextFormat13ParseLocationENS_9allocatorIS8_EEEENS_4lessIS5_EENS9_INS_4pairIKS5_SB_EEEEE16__find_equal_keyERPNS_16__tree_node_baseIPvEERSF_
__ZNSt3__13mapIPKN6google8protobuf15FieldDescriptorENS_6vectorINS2_10TextFormat13ParseLocationENS_9allocatorIS8_EEEENS_4lessIS5_EENS9_INS_4pairIKS5_SB_EEEEEixERSF_
__ZNSt3__13mapIPKN6google8protobuf15FieldDescriptorENS_6vectorIPNS2_10TextFormat13ParseInfoTreeENS_9allocatorIS9_EEEENS_4lessIS5_EENSA_INS_4pairIKS5_SC_EEEEE16__find_equal_keyERPNS_16__tree_node_baseIPvEERSG_
__ZNSt3__13mapIPKN6google8protobuf15FieldDescriptorENS_6vectorIPNS2_10TextFormat13ParseInfoTreeENS_9allocatorIS9_EEEENS_4lessIS5_EENSA_INS_4pairIKS5_SC_EEEEEixERSG_
__ZNSt3__13mapIiNS_12basic_stringIcNS_11char_traitsIcEENS_9allocatorIcEEEENS_4lessIiEENS4_INS_4pairIKiS6_EEEEE16__find_equal_keyERPNS_16__tree_node_baseIPvEERSA_
__ZNSt3__13mapIiNS_12basic_stringIcNS_11char_traitsIcEENS_9allocatorIcEEEENS_4lessIiEENS4_INS_4pairIKiS6_EEEEEixEOi
__ZNSt3__13mapIjiNS_4lessIjEENS_9allocatorINS_4pairIKjiEEEEE16__find_equal_keyERPNS_16__tree_node_baseIPvEERS5_
__ZNSt3__13mapIjiNS_4lessIjEENS_9allocatorINS_4pairIKjiEEEEEixERS5_
__ZNSt3__13mapIxN25SteamNetworkingSocketsLib13SSNPPacketGapENS_4lessIxEENS_9allocatorINS_4pairIKxS2_EEEEE16__find_equal_keyERPNS_16__tree_node_baseIPvEERS7_
__ZNSt3__13mapIxN25SteamNetworkingSocketsLib13SSNPPacketGapENS_4lessIxEENS_9allocatorINS_4pairIKxS2_EEEEEixEOx
__ZNSt3__13mapIxN25SteamNetworkingSocketsLib19SNPInFlightPacket_tENS_4lessIxEENS_9allocatorINS_4pairIKxS2_EEEEE16__find_equal_keyERPNS_16__tree_node_baseIPvEERS7_
__ZNSt3__13mapIxN25SteamNetworkingSocketsLib19SNPInFlightPacket_tENS_4lessIxEENS_9allocatorINS_4pairIKxS2_EEEEEixEOx
__ZNSt3__13mapIxxNS_4lessIxEENS_9allocatorINS_4pairIKxxEEEEE16__find_equal_keyERPNS_16__tree_node_baseIPvEERS5_
__ZNSt3__13mapIxxNS_4lessIxEENS_9allocatorINS_4pairIKxxEEEEEixERS5_
__ZNSt3__15mutex4lockEv
__ZNSt3__15mutex6unlockEv
__ZNSt3__15mutexD1Ev
__ZNSt3__16__sortIRN6google8protobuf12_GLOBAL__N_116FieldIndexSorterEPPKNS2_15FieldDescriptorEEEvT0_SA_T_
__ZNSt3__16__sortIRN6google8protobuf8internal12_GLOBAL__N_117FieldNumberSorterEPPKNS2_15FieldDescriptorEEEvT0_SB_T_
__ZNSt3__16__sortIRNS_4lessI21ServerWithSessionSortEEPS2_EEvT0_S6_T_
__ZNSt3__16__sortIRNS_6__lessIN25SteamNetworkingSocketsLib20SteamDatagramNetwork12RelayAddressES4_EEPS4_EEvT0_S8_T_
__ZNSt3__16__sortIRNS_6__lessIN25SteamNetworkingSocketsLib20SteamDatagramNetwork19RouterAddressLookupES4_EEPS4_EEvT0_S8_T_
__ZNSt3__16__sortIRNS_6__lessIZN25SteamNetworkingSocketsLib23CSteamNetworkingSockets12SendMessagesEiPKP24SteamNetworkingMessage_tPxE9SortMsg_tS9_EEPS9_EEvT0_SD_T_
__ZNSt3__16__sortIRNS_6__lessIZN25SteamNetworkingSocketsLib26CConnectionTransportP2PSDR26CheckRebuildRoutingMessageExE11SortSessionS4_EEPS4_EEvT0_S8_T_
__ZNSt3__16__sortIRNS_6__lessIZN25SteamNetworkingSocketsLib27CSteamNetworkConnectionBase18SNP_ConfigureLanesEiPKiPKtE17TempPriorityClassS8_EEPS8_EEvT0_SC_T_
__ZNSt3__16__sortIRNS_6__lessIZN25SteamNetworkingSocketsLib27CSteamNetworkConnectionBase26SNP_PopulateRealTimeStatusEP34SteamNetConnectionRealTimeStatus_tiP38SteamNetConnectionRealTimeLaneStatus_txE10LaneSort_tS8_EEPS8_EEvT0_SC_T_
__ZNSt3__16__sortIRNS_6__lessIZN25SteamNetworkingSocketsLibL15ThinkPingProbesExE9ProbeSortS3_EEPS3_EEvT0_S7_T_
__ZNSt3__16__sortIRNS_6__lessIZN25SteamNetworkingSocketsLibL50StartAlternateRoutePingCollectionOnClosestClustersEvE15RelayServerSortS3_EEPS3_EEvT0_S7_T_
__ZNSt3__16__sortIRNS_6__lessIhhEEPhEEvT0_S5_T_
__ZNSt3__16__sortIRNS_6__lessIiiEEPiEEvT0_S5_T_
__ZNSt3__16__sortIRNS_6__lessIjjEEPjEEvT0_S5_T_
__ZNSt3__16__sortIRNS_6__lessIttEEPtEEvT0_S5_T_
__ZNSt3__16__sortIRZN25SteamNetworkingSocketsLib17CP2PRouteSelector20MessageToPeerBuilder13TruncateListsEvE3$_7PNS2_16SendRelayClusterEEEvT0_S8_T_
__ZNSt3__16__sortIRZN25SteamNetworkingSocketsLib17CP2PRouteSelector20MessageToPeerBuilder13TruncateListsEvE3$_8PNS2_9SendRouteEEEvT0_S8_T_
__ZNSt3__16__sortIRZN25SteamNetworkingSocketsLib27CConnectionTransportSDRBase38ProcessMessage_ClientPingSampleRequestERNS1_11RelayServerERK40CMsgSteamDatagramClientPingSampleRequestixE3$_0PZNS2_38ProcessMessage_ClientPingSampleRequestES4_S7_ixE4SortEEvT0_SC_T_
__ZNSt3__16__sortIRZN25SteamNetworkingSocketsLib27CConnectionTransportSDRBase38ProcessMessage_ClientPingSampleRequestERNS1_11RelayServerERK40CMsgSteamDatagramClientPingSampleRequestixE3$_1PZNS2_38ProcessMessage_ClientPingSampleRequestES4_S7_ixE4SortEEvT0_SC_T_
__ZNSt3__16__sortIRZN25SteamNetworkingSocketsLib27CConnectionTransportSDRBase38ProcessMessage_ClientPingSampleRequestERNS1_11RelayServerERK40CMsgSteamDatagramClientPingSampleRequestixE3$_2PZNS2_38ProcessMessage_ClientPingSampleRequestES4_S7_ixE4SortEEvT0_SC_T_
__ZNSt3__16__sortIRZN25SteamNetworkingSocketsLib27CConnectionTransportSDRBase38ProcessMessage_ClientPingSampleRequestERNS1_11RelayServerERK40CMsgSteamDatagramClientPingSampleRequestixE3$_3PZNS2_38ProcessMessage_ClientPingSampleRequestES4_S7_ixE4SortEEvT0_SC_T_
__ZNSt3__16__sortIRZN25SteamNetworkingSocketsLib27CConnectionTransportSDRBase38ProcessMessage_ClientPingSampleRequestERNS1_11RelayServerERK40CMsgSteamDatagramClientPingSampleRequestixE3$_4PZNS2_38ProcessMessage_ClientPingSampleRequestES4_S7_ixE4SortEEvT0_SC_T_
