GCC_except_table0
GCC_except_table1
GCC_except_table100
GCC_except_table101
GCC_except_table102
GCC_except_table103
GCC_except_table11
GCC_except_table112
GCC_except_table117
GCC_except_table12
GCC_except_table12
GCC_except_table124
GCC_except_table126
GCC_except_table128
GCC_except_table129
GCC_except_table134
GCC_except_table135
GCC_except_table137
GCC_except_table138
GCC_except_table14
GCC_except_table158
GCC_except_table159
GCC_except_table16
GCC_except_table16
GCC_except_table160
GCC_except_table187
GCC_except_table2
GCC_except_table2
GCC_except_table20
GCC_except_table20
GCC_except_table228
GCC_except_table23
GCC_except_table24
GCC_except_table25
GCC_except_table25
GCC_except_table27
GCC_except_table27
GCC_except_table29
GCC_except_table29
GCC_except_table31
GCC_except_table34
GCC_except_table37
GCC_except_table37
GCC_except_table38
GCC_except_table4
GCC_except_table40
GCC_except_table43
GCC_except_table43
GCC_except_table43
GCC_except_table44
GCC_except_table44
GCC_except_table44
GCC_except_table46
GCC_except_table47
GCC_except_table47
GCC_except_table48
GCC_except_table49
GCC_except_table49
GCC_except_table5
GCC_except_table50
GCC_except_table55
GCC_except_table56
GCC_except_table59
GCC_except_table59
GCC_except_table6
GCC_except_table60
GCC_except_table61
GCC_except_table63
GCC_except_table67
GCC_except_table7
GCC_except_table7
GCC_except_table72
GCC_except_table72
GCC_except_table76
GCC_except_table76
GCC_except_table8
GCC_except_table81
GCC_except_table83
GCC_except_table84
GCC_except_table86
GCC_except_table87
GCC_except_table87
GCC_except_table88
GCC_except_table9
GCC_except_table97
GCC_except_table98
GCC_except_table99
_.memset_pattern
_CGLEnable
_COM_TimestampedLog
_ClearOpenGLEntryPoints
_CommandLine_Tier0
_D3DPERF_SetOptions
_D3DXCompileShader
_D3DXCreateMatrixStack
_D3DXGetPixelShaderProfile
_D3DXMatrixIdentity
_D3DXMatrixInverse
_D3DXMatrixMultiply
_D3DXMatrixOrthoOffCenterRH
_D3DXMatrixPerspectiveOffCenterRH
_D3DXMatrixPerspectiveRH
_D3DXMatrixTranslation
_D3DXMatrixTranspose
_D3DXPlaneNormalize
_D3DXPlaneTransform
_D3DXVec3TransformCoord
_D3DXVec4Normalize
_D3DXVec4Transform
_DevMsg
_Direct3DCreate9
_Error
_GLMBeginPIXEvent
_GLMDecode
_GLMEndPIXEvent
_GLMKnob
_GLMKnobToggle
_GetCPUInformation
_GetCurrentKeyModifiers
_GetOpenGLEntryPoints
_KeyValuesSystem
_Msg
_OSAtomicCompareAndSwap64
_Plat_IsInDebugSession
_SinCosTable
_ThreadGetCurrentId
_ThreadInterlockedAssignIf
_ThreadInterlockedAssignIf64
_ThreadInterlockedCompareExchangePointer
_ThreadInterlockedDecrement
_ThreadInterlockedExchange
_ThreadInterlockedIncrement
_ToGLConnectLibraries
_ToGLDisconnectLibraries
_Warning
__DefaultRuneLocale
__GLOBAL__sub_I_KeyValues.stdout.rel_tf_osx_builder.55432.qZWQhg.ii
__GLOBAL__sub_I_cglmbuffer.stdout.rel_tf_osx_builder.58526.TrVFHi.ii
__GLOBAL__sub_I_cglmprogra.stdout.rel_tf_osx_builder.58527.gf4HOy.ii
__GLOBAL__sub_I_cglmquery.stdout.rel_tf_osx_builder.58529.cRWW9Q.ii
__GLOBAL__sub_I_cglmtex.stdout.rel_tf_osx_builder.58530.SYHDVs.ii
__GLOBAL__sub_I_convar.stdout.rel_tf_osx_builder.55430.mXKsKU.ii
__GLOBAL__sub_I_dxabstract.stdout.rel_tf_osx_builder.58532.D3KosN.ii
__GLOBAL__sub_I_glmgr.stdout.rel_tf_osx_builder.58573.WNLAqY.ii
__GLOBAL__sub_I_sse.stdout.rel_tf_osx_builder.9376.gxVesc.ii
__GLOBAL__sub_I_utlbuffer.stdout.rel_tf_osx_builder.8986.vt30zT.ii
__Unwind_Resume
__Z10PrintToBufPciPKcz
__Z10PrintToBufR10CUtlBufferPKcz
__Z10V_snprintfPciPKcz
__Z11V_vsnprintfPciPKcS_
__Z12MathLib_Initfffibbbb
__Z12_InvRSquaredPKf
__Z13GetFormatDesc10_D3DFORMAT
__Z13Q_UTF32ToUTF8PKwPci25EStringConvertErrorPolicy
__Z14GLMDebugPrintfPKcz
__Z14_SSE_RSqrtFastf
__Z15BuildGammaTablefffi
__Z15ConVar_RegisteriP23IConCommandBaseAccessor
__Z16_SSE_InvRSquaredPKf
__Z16_VectorNormalizeR6Vector
__Z17ConVar_Unregisterv
__Z18_SSE_RSqrtAccuratef
__Z19EvaluateConditionalPKc
__Z20MatrixInverseGeneralRK7VMatrixRS_
__Z20_VectorNormalizeFastR6Vector
__Z21ConnectTier1LibrariesPPFPvPKcPiEi
__Z21ConnectTier2LibrariesPPFPvPKcPiEi
__Z21DefaultCompletionFuncPKcPA64_c
__Z21GetCGLContextFromNSGLPv
__Z22GetNoEscCharConversionv
__Z23GetNumSwizzleComponentsPKc
__Z24DisconnectTier1Librariesv
__Z24DisconnectTier2Librariesv
__Z24GL_Debug_Output_CallbackjjjjiPKcPv
__Z24GetCStringCharConversionv
__Z24LessFunc_GLMTexLayoutKeyRK15GLMTexLayoutKeyS1_
__Z24_SSE_VectorNormalizeFastR6Vector
__Z25Vector4DMultiplyTransposeRK7VMatrixRK8Vector4DRS2_
__Z26EnsureNumSwizzleComponentsPKci
__Z26GetParamNameWithoutSwizzlePKcPci
__Z29WriteParamWithSingleMaskEntryPKciPci
__Z6ConMsgPKcz
__Z6DevMsgPKcz
__Z6SinCosfPfS_
__Z6V_atofPKc
__Z6_sqrtff
__Z7_rsqrtff
__Z9V_stricmpPKcS0_
__Z9V_stristrPKcS0_
__Z9V_stristrPcPKc
__Z9V_strncatPcPKcmi
__Z9V_strncmpPKcS0_i
__Z9V_strncpyPcPKci
__Z9_SSE_Sqrtf
__ZGVZL16GetOpenGLVersionPiS_S_E11glGetString
__ZGVZL29CheckOpenGLExtension_internalPKciiE11glGetString
__ZGVZN10GLMContext35SetMaxUsedVertexShaderConstantsHintEjE31bUseMaxVertexShadeConstantHints
__ZGVZN7CGLMTex18HandleSRGBMismatchEbRiE13s_nosrgbflips
__ZL10g_gl_enums
__ZL11g_gl_errors
__ZL11g_szVecOnes
__ZL11s_nCVarFlag
__ZL11s_pTokenBuf
__ZL11vec2_origin
__ZL11vec2_origin
__ZL11vec2_origin
__ZL11vec2_origin
__ZL11vec2_origin
__ZL11vec2_origin
__ZL11vec2_origin
__ZL11vec2_origin
__ZL11vec2_origin
__ZL11vec2_origin
__ZL11vec4_origin
__ZL11vec4_origin
__ZL11vec4_origin
__ZL11vec4_origin
__ZL11vec4_origin
__ZL11vec4_origin
__ZL12FillD3DCaps9RK21GLMRendererInfoFieldsP9_D3DCAPS9
__ZL12g_d3d_rtypes
__ZL12g_d3d_usages
__ZL12g_szVecZeros
__ZL12s_bConnected
__ZL12vec2_invalid
__ZL12vec2_invalid
__ZL12vec2_invalid
__ZL12vec2_invalid
__ZL12vec2_invalid
__ZL12vec2_invalid
__ZL12vec2_invalid
__ZL12vec2_invalid
__ZL12vec2_invalid
__ZL12vec2_invalid
__ZL12vec4_invalid
__ZL12vec4_invalid
__ZL12vec4_invalid
__ZL12vec4_invalid
__ZL12vec4_invalid
__ZL12vec4_invalid
__ZL13g_cgl_rendids
__ZL13g_d3d_formats
__ZL13g_d3d_opcodes
__ZL13g_d3d_rstates
__ZL13g_pD3D_Device
__ZL13gl_dump_stats
__ZL13s_EmptyConVar
__ZL13s_bMMXEnabled
__ZL13s_bRegistered
__ZL13s_bSSEEnabled
__ZL14PrintDoubleIntPcjdj
__ZL14g_d3d_devtypes
__ZL14g_gl_renderers
__ZL14lineartoscreen
__ZL14s_bSSE2Enabled
__ZL15gShaderLinkTime
__ZL15lineartotexture
__ZL15texturetolinear
__ZL16GetOpenGLVersionPiS_S_
__ZL16gShaderLinkCount
__ZL16g_texGlobalBytes
__ZL16s_nDLLIdentifier
__ZL17g_formatDescTable
__ZL17gl_flushpaircache
__ZL17gl_paircachestats
__ZL17gl_texlayoutstats
__ZL17glm_cacheprograms
__ZL17s_DefaultAccessor
__ZL18gShaderCompileTime
__ZL18gl_dump_stats_funcRK8CCommand
__ZL19gShaderCompileCount
__ZL19g_d3d_vtxdeclusages
__ZL19gl_mtglflush_at_tof
__ZL20CentroidMaskFromNamebPKc
__ZL20CheckOpenGLExtensionPKcii
__ZL20gMaxPersistentOffset
__ZL20gShaderLinkQueryTime
__ZL20g_garbageTextureBits
__ZL20possibleInstructions
__ZL21s_LastFileLoadingFrom
__ZL23gShaderCompileQueryTime
__ZL23g_Mathlib_GammaToLinear
__ZL23g_Mathlib_LinearToGamma
__ZL27g_D3DToOpenGLTranslatorGLSL
__ZL27gl_shader_compile_time_dumpRK8CCommand
__ZL2f3
__ZL31gl_persistent_buffer_max_offsetRK8CCommand
__ZL35gl_shader_compile_time_dump_command
__ZL35s_pConversionArrays_NoEscConversion
__ZL39gl_persistent_buffer_max_offset_command
__ZL3f05
__ZL40s_pConversionArrays_StringCharConversion
__ZL9g_KVMutex
__ZL9mat_vsync
__ZN10CGLMBuffer15m_StaticBuffersE
__ZN10CGLMBuffer4LockEP17GLMBuffLockParamsPPc
__ZN10CGLMBuffer6UnlockEiPKv
__ZN10CGLMBufferC1EP10GLMContext14EGLMBufferTypejj
__ZN10CGLMBufferC2EP10GLMContext14EGLMBufferTypejj
__ZN10CGLMBufferD1Ev
__ZN10CUtlBuffer11GetOverflowEi
__ZN10CUtlBuffer11PutOverflowEi
__ZN10CUtlBuffer12AssumeMemoryEPviii
__ZN10CUtlBuffer13EatCPPCommentEv
__ZN10CUtlBuffer13EatWhiteSpaceEv
__ZN10CUtlBuffer14EnsureCapacityEi
__ZN10CUtlBuffer14PeekWhiteSpaceEi
__ZN10CUtlBuffer15PeekStringMatchEiPKci
__ZN10CUtlBuffer16PeekStringLengthEv
__ZN10CUtlBuffer17GetStringInternalEPcm
__ZN10CUtlBuffer18AddNullTerminationEv
__ZN10CUtlBuffer18GetDelimitedStringEP18CUtlCharConversionPci
__ZN10CUtlBuffer21CheckArbitraryPeekGetEiRi
__ZN10CUtlBuffer24GetDelimitedCharInternalEP18CUtlCharConversion
__ZN10CUtlBuffer3PutEPKvi
__ZN10CUtlBuffer5ScanfEPKcz
__ZN10CUtlBuffer7PeekGetEii
__ZN10CUtlBuffer7SeekGetENS_10SeekType_tEi
__ZN10CUtlBuffer7VaScanfEPKcPc
__ZN10CUtlBuffer9PutStringEPKc
__ZN10CUtlBufferC1EPKvii
__ZN10CUtlBufferC1Eiii
__ZN10CUtlBufferC2EPKvii
__ZN10CUtlBufferC2Eiii
__ZN10CUtlMemoryI15UtlRBTreeNode_tIN7CUtlMapI15GLMTexLayoutKeyP12GLMTexLayouttPFbRKS2_S6_EE6Node_tEtEtE4GrowEi
__ZN10CUtlMemoryI15UtlRBTreeNode_tIN7CUtlMapI19RenderTargetState_tP7CGLMFBOtPFbRKS2_S6_EE6Node_tEtEtE4GrowEi
__ZN10CUtlRBTreeIN7CUtlMapI15GLMTexLayoutKeyP12GLMTexLayouttPFbRKS1_S5_EE6Node_tEtNS8_8CKeyLessE10CUtlMemoryI15UtlRBTreeNode_tIS9_tEtEE10RotateLeftEt
__ZN10CUtlRBTreeIN7CUtlMapI15GLMTexLayoutKeyP12GLMTexLayouttPFbRKS1_S5_EE6Node_tEtNS8_8CKeyLessE10CUtlMemoryI15UtlRBTreeNode_tIS9_tEtEE11RotateRightEt
__ZN10CUtlRBTreeIN7CUtlMapI15GLMTexLayoutKeyP12GLMTexLayouttPFbRKS1_S5_EE6Node_tEtNS8_8CKeyLessE10CUtlMemoryI15UtlRBTreeNode_tIS9_tEtEE15InsertRebalanceEt
__ZN10CUtlRBTreeIN7CUtlMapI15GLMTexLayoutKeyP12GLMTexLayouttPFbRKS1_S5_EE6Node_tEtNS8_8CKeyLessE10CUtlMemoryI15UtlRBTreeNode_tIS9_tEtEE6InsertERKS9_
__ZN10CUtlRBTreeIN7CUtlMapI15GLMTexLayoutKeyP12GLMTexLayouttPFbRKS1_S5_EE6Node_tEtNS8_8CKeyLessE10CUtlMemoryI15UtlRBTreeNode_tIS9_tEtEE7NewNodeEv
__ZN10CUtlRBTreeIN7CUtlMapI19RenderTargetState_tP7CGLMFBOtPFbRKS1_S5_EE6Node_tEtNS8_8CKeyLessE10CUtlMemoryI15UtlRBTreeNode_tIS9_tEtEE10RotateLeftEt
__ZN10CUtlRBTreeIN7CUtlMapI19RenderTargetState_tP7CGLMFBOtPFbRKS1_S5_EE6Node_tEtNS8_8CKeyLessE10CUtlMemoryI15UtlRBTreeNode_tIS9_tEtEE11RotateRightEt
__ZN10CUtlRBTreeIN7CUtlMapI19RenderTargetState_tP7CGLMFBOtPFbRKS1_S5_EE6Node_tEtNS8_8CKeyLessE10CUtlMemoryI15UtlRBTreeNode_tIS9_tEtEE15InsertRebalanceEt
__ZN10CUtlRBTreeIN7CUtlMapI19RenderTargetState_tP7CGLMFBOtPFbRKS1_S5_EE6Node_tEtNS8_8CKeyLessE10CUtlMemoryI15UtlRBTreeNode_tIS9_tEtEE15RemoveRebalanceEt
__ZN10CUtlRBTreeIN7CUtlMapI19RenderTargetState_tP7CGLMFBOtPFbRKS1_S5_EE6Node_tEtNS8_8CKeyLessE10CUtlMemoryI15UtlRBTreeNode_tIS9_tEtEE5PurgeEv
__ZN10CUtlRBTreeIN7CUtlMapI19RenderTargetState_tP7CGLMFBOtPFbRKS1_S5_EE6Node_tEtNS8_8CKeyLessE10CUtlMemoryI15UtlRBTreeNode_tIS9_tEtEE6InsertERKS9_
__ZN10CUtlRBTreeIN7CUtlMapI19RenderTargetState_tP7CGLMFBOtPFbRKS1_S5_EE6Node_tEtNS8_8CKeyLessE10CUtlMemoryI15UtlRBTreeNode_tIS9_tEtEE6UnlinkEt
__ZN10CUtlRBTreeIN7CUtlMapI19RenderTargetState_tP7CGLMFBOtPFbRKS1_S5_EE6Node_tEtNS8_8CKeyLessE10CUtlMemoryI15UtlRBTreeNode_tIS9_tEtEE7NewNodeEv
__ZN10CUtlString3SetEPKc
__ZN10CUtlString5PurgeEv
__ZN10CUtlVectorI10CUtlString10CUtlMemoryIS0_iEE12InsertBeforeEiRKS0_
__ZN10CUtlVectorI14GLMTexLockDesc10CUtlMemoryIS0_iEED2Ev
__ZN10CUtlVectorI14GLMTextSection10CUtlMemoryIS0_iEED2Ev
__ZN10CUtlVectorI9D3DMATRIX10CUtlMemoryIS0_iEE10GrowVectorEi
__ZN10CUtlVectorI9D3DMATRIX10CUtlMemoryIS0_iEED2Ev
__ZN10CUtlVectorIN10GLMContext14TextureEntry_tE10CUtlMemoryIS1_iEE9AddToTailERKS1_
__ZN10CUtlVectorIN10GLMContext14TextureEntry_tE10CUtlMemoryIS1_iEED2Ev
__ZN10CUtlVectorIP7CGLMFBO10CUtlMemoryIS1_iEE10GrowVectorEi
__ZN10CUtlVectorIP7CGLMFBO10CUtlMemoryIS1_iEED2Ev
__ZN10CUtlVectorIP9KeyValues10CUtlMemoryIS1_iEE10GrowVectorEi
__ZN10CUtlVectorIP9KeyValues10CUtlMemoryIS1_iEED2Ev
__ZN10CUtlVectorIh10CUtlMemoryIhiEE20InsertMultipleBeforeEii
__ZN10CUtlVectorIh10CUtlMemoryIhiEED2Ev
__ZN10ConCommand15CanAutoCompleteEv
__ZN10ConCommand19AutoCompleteSuggestEPKcR10CUtlVectorI10CUtlString10CUtlMemoryIS3_iEE
__ZN10ConCommand8DispatchERK8CCommand
__ZN10ConCommandC1EPKcPFvRK8CCommandES1_iPFiS1_PA64_cE
__ZN10ConCommandD0Ev
__ZN10ConCommandD1Ev
__ZN10D3DXMATRIXclEii
__ZN10D3DXMATRIXcvPfEv
__ZN10GLMContext10BeginFrameEv
__ZN10GLMContext10CleanupTexEjP12GLMTexLayoutj
__ZN10GLMContext10DelProgramEP11CGLMProgram
__ZN10GLMContext10DestroyTexEjP12GLMTexLayoutj
__ZN10GLMContext10NewProgramE15EGLMProgramTypePcPKc
__ZN10GLMContext10PreloadTexEP7CGLMTexb
__ZN10GLMContext10ResolveTexEP7CGLMTexb
__ZN10GLMContext11MakeCurrentEb
__ZN10GLMContext11NullProgramEv
__ZN10GLMContext12BindFBOToCtxEP7CGLMFBOj
__ZN10GLMContext12BindTexToTMUEP7CGLMTexi
__ZN10GLMContext13PurgeTexCacheEv
__ZN10GLMContext14LinkShaderPairEP11CGLMProgramS1_
__ZN10GLMContext14ReleaseCurrentEb
__ZN10GLMContext15BindBufferToCtxE14EGLMBufferTypeP10CGLMBufferb
__ZN10GLMContext15FlushDrawStatesEjjj
__ZN10GLMContext15GenDebugFontTexEv
__ZN10GLMContext15QueryShaderPairEiP17GLMShaderPairInfo
__ZN10GLMContext16ForceFlushStatesEv
__ZN10GLMContext16SetDisplayParamsEP16GLMDisplayParams
__ZN10GLMContext17DrawRangeElementsEjjjijPKvP10CGLMBuffer
__ZN10GLMContext18ValidateShaderPairEP11CGLMProgramS1_
__ZN10GLMContext21ProcessTextureDeletesEv
__ZN10GLMContext24FlushDrawStatesNoShadersEv
__ZN10GLMContext4CapsEv
__ZN10GLMContext5Blit2EP7CGLMTexP7GLMRectiiS1_S3_iij
__ZN10GLMContext5ClearEbmbfbjP14GLScissorBox_t
__ZN10GLMContext5ResetEv
__ZN10GLMContext6DelFBOEP7CGLMFBO
__ZN10GLMContext6DelTexEP7CGLMTex
__ZN10GLMContext6NewFBOEv
__ZN10GLMContext6NewTexEP15GLMTexLayoutKeyjPKc
__ZN10GLMContext7BlitTexEP7CGLMTexP7GLMRectiiS1_S3_iijb
__ZN10GLMContext7PresentEP7CGLMTex
__ZN10GLMContext8DelQueryEP9CGLMQuery
__ZN10GLMContext8DumpCapsEv
__ZN10GLMContext8EndFrameEv
__ZN10GLMContext8NewQueryEP14GLMQueryParams
__ZN10GLMContext9CreateTexEjj
__ZN10GLMContext9DelBufferEP10CGLMBuffer
__ZN10GLMContext9NewBufferE14EGLMBufferTypejj
__ZN10GLMContextC2EP16IDirect3DDevice9P16GLMDisplayParams
__ZN10GLMContextD2Ev
__ZN10IDirect3D912CreateDeviceEj11_D3DDEVTYPEPvjP23_D3DPRESENT_PARAMETERS_PP16IDirect3DDevice9
__ZN10IDirect3D913GetDeviceCapsEj11_D3DDEVTYPEP9_D3DCAPS9
__ZN10IDirect3D915CheckDeviceTypeEj11_D3DDEVTYPE10_D3DFORMATS1_i
__ZN10IDirect3D915GetAdapterCountEv
__ZN10IDirect3D916EnumAdapterModesEj10_D3DFORMATjP15_D3DDISPLAYMODE
__ZN10IDirect3D917CheckDeviceFormatEj11_D3DDEVTYPE10_D3DFORMATj16_D3DRESOURCETYPES1_
__ZN10IDirect3D919GetAdapterModeCountEj10_D3DFORMAT
__ZN10IDirect3D920GetAdapterIdentifierEjjP23_D3DADAPTER_IDENTIFIER9
__ZN10IDirect3D921GetAdapterDisplayModeEjP15_D3DDISPLAYMODE
__ZN10IDirect3D922CheckDepthStencilMatchEj11_D3DDEVTYPE10_D3DFORMATS1_S1_
__ZN10IDirect3D926CheckDeviceMultiSampleTypeEj11_D3DDEVTYPE10_D3DFORMATi20_D3DMULTISAMPLE_TYPEPj
__ZN10IDirect3D9D0Ev
__ZN10IDirect3D9D1Ev
__ZN10IDirect3D9D2Ev
__ZN11CGLMProgram13CheckValidityE15EGLMProgramLang
__ZN11CGLMProgram13SetShaderNameEPKc
__ZN11CGLMProgram14SetProgramTextEPc
__ZN11CGLMProgram20CompileActiveSourcesEv
__ZN11CGLMProgram7CompileE15EGLMProgramLang
__ZN11CGLMProgramC1EP10GLMContext15EGLMProgramType
__ZN11CGLMProgramD1Ev
__ZN11D3DXVECTOR2cvPfEv
__ZN11D3DXVECTOR3C1Efff
__ZN11D3DXVECTOR3C2Efff
__ZN11D3DXVECTOR3cvPfEv
__ZN11D3DXVECTOR4C1Effff
__ZN11D3DXVECTOR4C2Effff
__ZN11ID3DXBuffer13GetBufferSizeEv
__ZN11ID3DXBuffer16GetBufferPointerEv
__ZN12CEmptyConVar8SetValueEPKc
__ZN12CEmptyConVar8SetValueEf
__ZN12CEmptyConVar8SetValueEi
__ZN12CEmptyConVarD0Ev
__ZN12CEmptyConVarD1Ev
__ZN14CGLMShaderPair14SetProgramPairEP11CGLMProgramS1_
__ZN14CGLMShaderPair19ValidateProgramPairEv
__ZN14CUtlSortVectorIP9KeyValues29CUtlSortVectorKeyValuesByName10CUtlVectorIS1_10CUtlMemoryIS1_iEEE13CompareHelperEPKS1_S9_
__ZN14ConCommandBase10CreateBaseEPKcS1_i
__ZN14ConCommandBase11s_pAccessorE
__ZN14ConCommandBase18s_pConCommandBasesE
__ZN14ConCommandBase4InitEv
__ZN14ConCommandBase8AddFlagsEi
__ZN15IDirect3DQuery95IssueEj
__ZN15IDirect3DQuery97GetDataEPvjj
__ZN15IDirect3DQuery9D0Ev
__ZN15IDirect3DQuery9D1Ev
__ZN15IDirect3DQuery9D2Ev
__ZN16CDefaultAccessor22RegisterConCommandBaseEP14ConCommandBase
__ZN16ID3DXMatrixStack10LoadMatrixEPK10D3DXMATRIX
__ZN16ID3DXMatrixStack10MultMatrixEPK10D3DXMATRIX
__ZN16ID3DXMatrixStack10ScaleLocalEfff
__ZN16ID3DXMatrixStack12LoadIdentityEv
__ZN16ID3DXMatrixStack14TranslateLocalEfff
__ZN16ID3DXMatrixStack15MultMatrixLocalEPK10D3DXMATRIX
__ZN16ID3DXMatrixStack15RotateAxisLocalEPK11D3DXVECTOR3f
__ZN16ID3DXMatrixStack3PopEv
__ZN16ID3DXMatrixStack4PushEv
__ZN16ID3DXMatrixStack6AddRefEiPc
__ZN16ID3DXMatrixStack6CreateEv
__ZN16ID3DXMatrixStack6GetTopEv
__ZN16ID3DXMatrixStack7ReleaseEiPc
__ZN16ID3DXMatrixStackC1Ev
__ZN16ID3DXMatrixStackC2Ev
__ZN16IDirect3DDevice910BeginSceneEv
__ZN16IDirect3DDevice910GetTextureEjPP21IDirect3DBaseTexture9
__ZN16IDirect3DDevice910InitStatesEv
__ZN16IDirect3DDevice910ShowCursorEi
__ZN16IDirect3DDevice911CreateQueryE13_D3DQUERYTYPEPP15IDirect3DQuery9
__ZN16IDirect3DDevice911GetViewportEP13_D3DVIEWPORT9
__ZN16IDirect3DDevice911LightEnableEji
__ZN16IDirect3DDevice911ResetFBOMapEv
__ZN16IDirect3DDevice911SaveGLStateEv
__ZN16IDirect3DDevice911ScrubFBOMapEP7CGLMTex
__ZN16IDirect3DDevice911SetMaterialEPK13_D3DMATERIAL9
__ZN16IDirect3DDevice911SetViewportEPK13_D3DVIEWPORT9
__ZN16IDirect3DDevice911StretchRectEP17IDirect3DSurface9PK5_RECTS1_S4_21_D3DTEXTUREFILTERTYPE
__ZN16IDirect3DDevice912SetClipPlaneEjPKf
__ZN16IDirect3DDevice912SetGammaRampEjjPK13_D3DGAMMARAMP
__ZN16IDirect3DDevice912SetTransformE22_D3DTRANSFORMSTATETYPEPK9D3DMATRIX
__ZN16IDirect3DDevice913CreateTextureEjjjj10_D3DFORMAT8_D3DPOOLPP17IDirect3DTexture9PPvPc
__ZN16IDirect3DDevice913DrawPrimitiveE17_D3DPRIMITIVETYPEjj
__ZN16IDirect3DDevice913GetDeviceCapsEP9_D3DCAPS9
__ZN16IDirect3DDevice913ReleasedQueryEP15IDirect3DQuery9
__ZN16IDirect3DDevice914LinkShaderPairEP22IDirect3DVertexShader9P21IDirect3DPixelShader9
__ZN16IDirect3DDevice914RestoreGLStateEv
__ZN16IDirect3DDevice914SetRenderStateE19_D3DRENDERSTATETYPEj
__ZN16IDirect3DDevice914SetScissorRectEPK5_RECT
__ZN16IDirect3DDevice914UpdateBoundFBOEv
__ZN16IDirect3DDevice914ValidateDeviceEPj
__ZN16IDirect3DDevice915FullFlushStatesEv
__ZN16IDirect3DDevice915GetRenderTargetEjPP17IDirect3DSurface9
__ZN16IDirect3DDevice915QueryShaderPairEiP17GLMShaderPairInfo
__ZN16IDirect3DDevice915ReleasedCGLMTexEP7CGLMTex
__ZN16IDirect3DDevice915ReleasedSurfaceEP17IDirect3DSurface9
__ZN16IDirect3DDevice915ReleasedTextureEP21IDirect3DBaseTexture9
__ZN16IDirect3DDevice915SetRenderTargetEjP17IDirect3DSurface9
__ZN16IDirect3DDevice916PrintObjectStatsERKNS_13ObjectStats_tE
__ZN16IDirect3DDevice917CreateCubeTextureEjjj10_D3DFORMAT8_D3DPOOLPP21IDirect3DCubeTexture9PPvPc
__ZN16IDirect3DDevice917CreateIndexBufferEjj10_D3DFORMAT8_D3DPOOLPP21IDirect3DIndexBuffer9PPv
__ZN16IDirect3DDevice917CreatePixelShaderEPKjPP21IDirect3DPixelShader9PKcPcS1_
__ZN16IDirect3DDevice918CreateRenderTargetEjj10_D3DFORMAT20_D3DMULTISAMPLE_TYPEjiPP17IDirect3DSurface9PPvPc
__ZN16IDirect3DDevice918CreateVertexBufferEjjj8_D3DPOOLPP22IDirect3DVertexBuffer9PPv
__ZN16IDirect3DDevice918CreateVertexShaderEPKjPP22IDirect3DVertexShader9PKcPc
__ZN16IDirect3DDevice918DumpStatsToConsoleEPK8CCommand
__ZN16IDirect3DDevice918FlushIndexBindingsEv
__ZN16IDirect3DDevice918GetFrontBufferDataEjP17IDirect3DSurface9
__ZN16IDirect3DDevice918ValidateShaderPairEP22IDirect3DVertexShader9P21IDirect3DPixelShader9
__ZN16IDirect3DDevice919CreateVolumeTextureEjjjjj10_D3DFORMAT8_D3DPOOLPP23IDirect3DVolumeTexture9PPvPc
__ZN16IDirect3DDevice919FlushVertexBindingsEj
__ZN16IDirect3DDevice919GetRenderTargetDataEP17IDirect3DSurface9S1_
__ZN16IDirect3DDevice919ReleasedIndexBufferEP21IDirect3DIndexBuffer9
__ZN16IDirect3DDevice919ReleasedPixelShaderEP21IDirect3DPixelShader9
__ZN16IDirect3DDevice919SetIndicesNonInlineEP21IDirect3DIndexBuffer9
__ZN16IDirect3DDevice919SetTextureNonInlineEjP21IDirect3DBaseTexture9
__ZN16IDirect3DDevice920DrawIndexedPrimitiveE17_D3DPRIMITIVETYPEijjjj
__ZN16IDirect3DDevice920ReleasedVertexBufferEP22IDirect3DVertexBuffer9
__ZN16IDirect3DDevice920ReleasedVertexShaderEP22IDirect3DVertexShader9
__ZN16IDirect3DDevice920SetTextureStageStateEj25_D3DTEXTURESTAGESTATETYPEj
__ZN16IDirect3DDevice920TestCooperativeLevelEv
__ZN16IDirect3DDevice921EvictManagedResourcesEv
__ZN16IDirect3DDevice922AcquireThreadOwnershipEv
__ZN16IDirect3DDevice922DrawIndexedPrimitiveUPE17_D3DPRIMITIVETYPEjjjPKv10_D3DFORMATS2_j
__ZN16IDirect3DDevice922FlushClipPlaneEquationEv
__ZN16IDirect3DDevice922GetDepthStencilSurfaceEPP17IDirect3DSurface9
__ZN16IDirect3DDevice922ReleaseThreadOwnershipEv
__ZN16IDirect3DDevice922SetDepthStencilSurfaceEP17IDirect3DSurface9
__ZN16IDirect3DDevice923CreateVertexDeclarationEPK18_D3DVERTEXELEMENT9PP27IDirect3DVertexDeclaration9
__ZN16IDirect3DDevice923SetPixelShaderConstantBEjPKij
__ZN16IDirect3DDevice923SetPixelShaderConstantIEjPKij
__ZN16IDirect3DDevice923SetPixelShaderNonInlineEP21IDirect3DPixelShader9
__ZN16IDirect3DDevice924SetSamplerStateNonInlineEj20_D3DSAMPLERSTATETYPEj
__ZN16IDirect3DDevice924SetStreamSourceNonInlineEjP22IDirect3DVertexBuffer9jj
__ZN16IDirect3DDevice924SetVertexShaderNonInlineEP22IDirect3DVertexShader9
__ZN16IDirect3DDevice925CreateDepthStencilSurfaceEjj10_D3DFORMAT20_D3DMULTISAMPLE_TYPEjiPP17IDirect3DSurface9PPv
__ZN16IDirect3DDevice925ReleasedVertexDeclarationEP27IDirect3DVertexDeclaration9
__ZN16IDirect3DDevice925SetSamplerStatesNonInlineEjjjjjjjjf
__ZN16IDirect3DDevice927CreateOffscreenPlainSurfaceEjj10_D3DFORMAT8_D3DPOOLPP17IDirect3DSurface9PPv
__ZN16IDirect3DDevice929SetVertexDeclarationNonInlineEP27IDirect3DVertexDeclaration9
__ZN16IDirect3DDevice932SetPixelShaderConstantFNonInlineEjPKfj
__ZN16IDirect3DDevice933SetVertexShaderConstantBNonInlineEjPKij
__ZN16IDirect3DDevice933SetVertexShaderConstantFNonInlineEjPKfj
__ZN16IDirect3DDevice933SetVertexShaderConstantINonInlineEjPKij
__ZN16IDirect3DDevice944SetMaxUsedVertexShaderConstantsHintNonInlineEj
__ZN16IDirect3DDevice95ClearEjPK8_D3DRECTjjfj
__ZN16IDirect3DDevice95ResetEP23_D3DPRESENT_PARAMETERS_
__ZN16IDirect3DDevice96CreateEP22IDirect3DDevice9Params
__ZN16IDirect3DDevice96GetFVFEPj
__ZN16IDirect3DDevice96SetFVFEj
__ZN16IDirect3DDevice97PresentEPK5_RECTS2_PvPK7RGNDATA
__ZN16IDirect3DDevice98EndSceneEv
__ZN16IDirect3DDevice98SetLightEjPK10_D3DLIGHT9
__ZN16IDirect3DDevice9C1Ev
__ZN16IDirect3DDevice9C2Ev
__ZN16IDirect3DDevice9D0Ev
__ZN16IDirect3DDevice9D1Ev
__ZN16IDirect3DDevice9D2Ev
__ZN17CGLMTextSectioner10GetSectionEiPjS0_Pi
__ZN17CGLMTextSectioner5CountEv
__ZN17CGLMTextSectionerC1EPciPPKc
__ZN17CGLMTextSectionerC2EPciPPKc
__ZN17CGLMTextSectionerD1Ev
__ZN17CPersistentBuffer4InitE14EGLMBufferTypej
__ZN17CPersistentBufferC1Ev
__ZN17CPersistentBufferD1Ev
__ZN17IDirect3DSurface910UnlockRectEv
__ZN17IDirect3DSurface97GetDescEP16_D3DSURFACE_DESC
__ZN17IDirect3DSurface98LockRectEP15_D3DLOCKED_RECTPK5_RECTj
__ZN17IDirect3DSurface9D0Ev
__ZN17IDirect3DSurface9D1Ev
__ZN17IDirect3DSurface9D2Ev
__ZN17IDirect3DTexture910UnlockRectEj
__ZN17IDirect3DTexture915GetSurfaceLevelEjPP17IDirect3DSurface9
__ZN17IDirect3DTexture98LockRectEjP15_D3DLOCKED_RECTPK5_RECTj
__ZN17IDirect3DTexture9D0Ev
__ZN17IDirect3DTexture9D1Ev
__ZN17IDirect3DTexture9D2Ev
__ZN18CGLMTexLayoutTable12DelLayoutRefEP12GLMTexLayout
__ZN18CGLMTexLayoutTable12NewLayoutRefEP15GLMTexLayoutKey
__ZN18CGLMTexLayoutTable9DumpStatsEv
__ZN18CGLMTexLayoutTableC1Ev
__ZN18COpenGLEntryPointsC2Ev
__ZN18CUtlCharConversion14FindConversionEPKcPi
__ZN18IDirect3DResource911SetPriorityEj
__ZN19CGLMShaderPairCache15QueryShaderPairEiP17GLMShaderPairInfo
__ZN19CGLMShaderPairCache20PurgePairsWithShaderEP11CGLMProgram
__ZN19CGLMShaderPairCache24SelectShaderPairInternalEP11CGLMProgramS1_ji
__ZN19CGLMShaderPairCache5PurgeEv
__ZN19CGLMShaderPairCache9DumpStatsEv
__ZN19CGLMShaderPairCacheC1EP10GLMContext
__ZN19CGLMShaderPairCacheD1Ev
__ZN19CGLMShaderPairCacheD2Ev
__ZN19CUtlNoEscConversion14FindConversionEPKcPi
__ZN19RenderTargetState_t8LessFuncERKS_S1_
__ZN20CKeyValuesErrorStack11ReportErrorEPKc
__ZN20GLMTexSamplingParams11SetToTargetEj
__ZN20GLMTexSamplingParams16DeltaSetToTargetEjRKS_
__ZN21CUtlCStringConversion14FindConversionEPKcPi
__ZN21CUtlCStringConversionC2EcPKciPN18CUtlCharConversion17ConversionArray_tE
__ZN21IDirect3DBaseTexture912GetLevelDescEjP16_D3DSURFACE_DESC
__ZN21IDirect3DBaseTexture913GetLevelCountEv
__ZN21IDirect3DBaseTexture97GetTypeEv
__ZN21IDirect3DBaseTexture9D0Ev
__ZN21IDirect3DBaseTexture9D1Ev
__ZN21IDirect3DBaseTexture9D2Ev
__ZN21IDirect3DCubeTexture912GetLevelDescEjP16_D3DSURFACE_DESC
__ZN21IDirect3DCubeTexture917GetCubeMapSurfaceE17_D3DCUBEMAP_FACESjPP17IDirect3DSurface9
__ZN21IDirect3DCubeTexture9D0Ev
__ZN21IDirect3DCubeTexture9D1Ev
__ZN21IDirect3DCubeTexture9D2Ev
__ZN21IDirect3DIndexBuffer916UnlockActualSizeEjPKv
__ZN21IDirect3DIndexBuffer94LockEjjPPvj
__ZN21IDirect3DIndexBuffer96UnlockEv
__ZN21IDirect3DIndexBuffer97GetDescEP20_D3DINDEXBUFFER_DESC
__ZN21IDirect3DIndexBuffer9D0Ev
__ZN21IDirect3DIndexBuffer9D1Ev
__ZN21IDirect3DIndexBuffer9D2Ev
__ZN21IDirect3DPixelShader9D0Ev
__ZN21IDirect3DPixelShader9D1Ev
__ZN21IDirect3DPixelShader9D2Ev
__ZN22IDirect3DVertexBuffer916UnlockActualSizeEjPKv
__ZN22IDirect3DVertexBuffer94LockEjjPPvj
__ZN22IDirect3DVertexBuffer96UnlockEv
__ZN22IDirect3DVertexBuffer9D0Ev
__ZN22IDirect3DVertexBuffer9D1Ev
__ZN22IDirect3DVertexBuffer9D2Ev
__ZN22IDirect3DVertexShader9D0Ev
__ZN22IDirect3DVertexShader9D1Ev
__ZN22IDirect3DVertexShader9D2Ev
__ZN23IDirect3DVolumeTexture912GetLevelDescEjP15_D3DVOLUME_DESC
__ZN23IDirect3DVolumeTexture97LockBoxEjP14_D3DLOCKED_BOXPK7_D3DBOXj
__ZN23IDirect3DVolumeTexture99UnlockBoxEj
__ZN23IDirect3DVolumeTexture9D0Ev
__ZN23IDirect3DVolumeTexture9D1Ev
__ZN23IDirect3DVolumeTexture9D2Ev
__ZN23IntelGLMallocWorkaround12ZeroingAllocEm
__ZN23IntelGLMallocWorkaround13s_pWorkaroundE
__ZN23IntelGLMallocWorkaround3GetEv
__ZN23IntelGLMallocWorkaround6EnableEv
__ZN27IDirect3DVertexDeclaration9D0Ev
__ZN27IDirect3DVertexDeclaration9D1Ev
__ZN27IDirect3DVertexDeclaration9D2Ev
__ZN5GLMgr10DelContextEP10GLMContext
__ZN5GLMgr10NewContextEP16IDirect3DDevice9P16GLMDisplayParams
__ZN5GLMgr6aGLMgrEv
__ZN5GLMgr8NewGLMgrEv
__ZN6ConVar10ClampValueERf
__ZN6ConVar16InternalSetValueEPKc
__ZN6ConVar17ChangeStringValueEPKcf
__ZN6ConVar19InternalSetIntValueEi
__ZN6ConVar21InternalSetFloatValueEfb
__ZN6ConVar4InitEv
__ZN6ConVar6CreateEPKcS1_iS1_bfbfbfbfPFvP7IConVarS1_fE
__ZN6ConVar8AddFlagsEi
__ZN6ConVar8SetValueEPKc
__ZN6ConVar8SetValueEf
__ZN6ConVar8SetValueEi
__ZN6ConVarC1EPKcS1_i
__ZN6ConVarC1EPKcS1_iS1_
__ZN6ConVarC1EPKcS1_iS1_bfbf
__ZN6ConVarD0Ev
__ZN6ConVarD1Ev
__ZN7CGLMFBO7IsReadyEv
__ZN7CGLMFBO9TexAttachEP21GLMFBOTexAttachParams17EGLMFBOAttachmentj
__ZN7CGLMFBO9TexDetachE17EGLMFBOAttachmentj
__ZN7CGLMFBOC1EP10GLMContext
__ZN7CGLMFBOD1Ev
__ZN7CGLMFBOD2Ev
__ZN7CGLMTex10ReadTexelsEP14GLMTexLockDescb
__ZN7CGLMTex11WriteTexelsEP14GLMTexLockDescbb
__ZN7CGLMTex13ForceRBODirtyEv
__ZN7CGLMTex14CalcSliceIndexEii
__ZN7CGLMTex16ForceRBONonDirtyEv
__ZN7CGLMTex18HandleSRGBMismatchEbRi
__ZN7CGLMTex29CalcTexelDataOffsetAndStridesEiiiiPiS0_S0_
__ZN7CGLMTex4LockEP16GLMTexLockParamsPPcPiS4_
__ZN7CGLMTex6UnlockEP16GLMTexLockParams
__ZN7CGLMTex9ResetSRGBEbb
__ZN7CGLMTexC1EP10GLMContextP12GLMTexLayoutjPKc
__ZN7CGLMTexC2EP10GLMContextP12GLMTexLayoutjPKc
__ZN7CGLMTexD1Ev
__ZN7CGLMTexD2Ev
__ZN7D3DToGL10Handle_CMPEv
__ZN7D3DToGL10Handle_DCLEv
__ZN7D3DToGL10Handle_DEFEv
__ZN7D3DToGL10Handle_LRPEj
__ZN7D3DToGL10Handle_MADEj
__ZN7D3DToGL10Handle_NRMEv
__ZN7D3DToGL10Handle_TEXEjb
__ZN7D3DToGL11PrintOpcodeEjPci
__ZN7D3DToGL12Handle_DEFIBEj
__ZN7D3DToGL12WriteGLSLCmpEPKcS1_S1_S1_
__ZN7D3DToGL13Handle_BREAKCEj
__ZN7D3DToGL13Handle_DP2ADDEv
__ZN7D3DToGL13Handle_SINCOSEv
__ZN7D3DToGL13OpenIntrinsicEjPcijj
__ZN7D3DToGL14FixGLSLSwizzleEPKcS1_
__ZN7D3DToGL14Handle_UnaryOpEj
__ZN7D3DToGL15AddTokenHexCodeEv
__ZN7D3DToGL15Handle_TexCoordEv
__ZN7D3DToGL15TranslateShaderEPjP10CUtlBufferPbjijPc
__ZN7D3DToGL19HandleBinaryOp_GLSLEj
__ZN7D3DToGL21PrintToBufWithIndentsER10CUtlBufferPKcz
__ZN7D3DToGL22PrintParameterToStringEjjPcibPi
__ZN7D3DToGL23AddTokenHexCodeToBufferEPcii
__ZN7D3DToGL26Handle_DeclarativeNonDclOpEj
__ZN7D3DToGL26PrintUsageAndIndexToStringEjPcii
__ZN7D3DToGL27WriteGLSLSamplerDefinitionsEv
__ZN7D3DToGL34WriteGLSLOutputVariableAssignmentsEv
__ZN7D3DToGLC1Ev
__ZN7VMatrixaSERKS_
__ZN8CTSQueueIP7CGLMTexLb0EE3PopEv
__ZN8CTSQueueIP7CGLMTexLb0EE4PushEPNS2_6Node_tE
__ZN8CTSQueueIP7CGLMTexLb0EE5PurgeEv
__ZN8CTSQueueIP7CGLMTexLb0EE7PopItemEPS1_
__ZN8CTSQueueIP7CGLMTexLb0EE8PushItemERKS1_
__ZN8CTSQueueIP7CGLMTexLb0EEC2Ev
__ZN8CTSQueueIP7CGLMTexLb0EED2Ev
__ZN9CGLMQuery38s_nTotalOcclusionQueryCreatesOrDeletesE
__ZN9CGLMQuery4StopEv
__ZN9CGLMQuery5StartEv
__ZN9CGLMQuery6IsDoneEv
__ZN9CGLMQuery8CompleteEPj
__ZN9CGLMQuery9IsStartedEv
__ZN9CGLMQuery9IsStoppedEv
__ZN9CGLMQueryC1EP10GLMContextP14GLMQueryParams
__ZN9CGLMQueryD1Ev
__ZN9D3DXPLANEcvPfEv
__ZN9D3DXPLANEeqERKS_
__ZN9D3DXPLANEixEi
__ZN9D3DXPLANEneERKS_
__ZN9KeyValues10SaveToFileEP15IBaseFileSystemPKcS3_bbb
__ZN9KeyValues10deleteThisEv
__ZN9KeyValues12CreateNewKeyEv
__ZN9KeyValues12LoadFromFileEP15IBaseFileSystemPKcS3_b
__ZN9KeyValues13SaveKeyToFileEPS_P15IBaseFileSystemPvP10CUtlBufferibb
__ZN9KeyValues14LoadFromBufferEPKcR10CUtlBufferP15IBaseFileSystemS1_
__ZN9KeyValues14LoadFromBufferEPKcS1_P15IBaseFileSystemS1_
__ZN9KeyValues16RemoveEverythingEv
__ZN9KeyValues17ParseIncludedKeysEPKcS1_P15IBaseFileSystemS1_R10CUtlVectorIPS_10CUtlMemoryIS5_iEE
__ZN9KeyValues19RecursiveSaveToFileEP15IBaseFileSystemPvP10CUtlBufferibb
__ZN9KeyValues20WriteConvertedStringEP15IBaseFileSystemPvP10CUtlBufferPKc
__ZN9KeyValues22s_pfGetStringForSymbolE
__ZN9KeyValues22s_pfGetSymbolForStringE
__ZN9KeyValues23RecursiveLoadFromBufferEPKcR10CUtlBuffer
__ZN9KeyValues23RecursiveMergeKeyValuesEPS_
__ZN9KeyValues25GetStringForSymbolClassicEi
__ZN9KeyValues25GetSymbolForStringClassicEPKcb
__ZN9KeyValues28CreateKeyUsingKnownLastChildEPKcPS_
__ZN9KeyValues6SetIntEPKci
__ZN9KeyValues7FindKeyEPKcb
__ZN9KeyValues9ReadTokenER10CUtlBufferRbS2_
__ZN9KeyValues9SetStringEPKcS1_
__ZN9KeyValuesC1EPKc
__ZN9KeyValuesdlEPv
__ZN9KeyValuesnwEm
__ZNK10CGLMBuffer9GetHandleEv
__ZNK10CUtlString3GetEv
__ZNK10ConCommand9IsCommandEv
__ZNK10D3DXMATRIXclEii
__ZNK10D3DXMATRIXmlERKS_
__ZNK10D3DXMATRIXneERKS_
__ZNK11D3DXVECTOR2cvPKfEv
__ZNK11D3DXVECTOR3cvPKfEv
__ZNK12CEmptyConVar7GetNameEv
__ZNK12CEmptyConVar9IsFlagSetEi
__ZNK14ConCommandBase11GetHelpTextEv
__ZNK14ConCommandBase12IsRegisteredEv
__ZNK14ConCommandBase16GetDLLIdentifierEv
__ZNK14ConCommandBase7GetNameEv
__ZNK14ConCommandBase9IsFlagSetEi
__ZNK6ConVar11GetHelpTextEv
__ZNK6ConVar12IsRegisteredEv
__ZNK6ConVar7GetNameEv
__ZNK6ConVar9IsCommandEv
__ZNK6ConVar9IsFlagSetEi
__ZNK7CGLMTex10IsRBODirtyEv
__ZNK7VMatrix14InverseGeneralERS_
__ZNK7VMatrix9TransposeEv
__ZNK7VMatrixmlERK6VPlane
__ZNK9D3DXPLANEcvPKfEv
__ZNK9KeyValues8MakeCopyEv
__ZNV16CThreadFastMutex4LockEjj
__ZSt9terminatev
__ZTI10ConCommand
__ZTI10IDirect3D9
__ZTI12CEmptyConVar
__ZTI14ConCommandBase
__ZTI15IDirect3DQuery9
__ZTI16CDefaultAccessor
__ZTI16IDirect3DDevice9
__ZTI17IDirect3DSurface9
__ZTI17IDirect3DTexture9
__ZTI18CUtlCharConversion
__ZTI18IDirect3DResource9
__ZTI19CUtlNoEscConversion
__ZTI21CUtlCStringConversion
__ZTI21IDirect3DBaseTexture9
__ZTI21IDirect3DCubeTexture9
__ZTI21IDirect3DIndexBuffer9
__ZTI21IDirect3DPixelShader9
__ZTI22IDirect3DVertexBuffer9
__ZTI22IDirect3DVertexShader9
__ZTI23IConCommandBaseAccessor
__ZTI23IDirect3DVolumeTexture9
__ZTI27IDirect3DVertexDeclaration9
__ZTI6ConVar
__ZTI7IConVar
__ZTI8IUnknown
__ZTISt9bad_alloc
__ZTS10ConCommand
__ZTS10IDirect3D9
__ZTS12CEmptyConVar
__ZTS14ConCommandBase
__ZTS15IDirect3DQuery9
__ZTS16CDefaultAccessor
__ZTS16IDirect3DDevice9
__ZTS17IDirect3DSurface9
__ZTS17IDirect3DTexture9
__ZTS18CUtlCharConversion
__ZTS18IDirect3DResource9
__ZTS19CUtlNoEscConversion
__ZTS21CUtlCStringConversion
__ZTS21IDirect3DBaseTexture9
__ZTS21IDirect3DCubeTexture9
__ZTS21IDirect3DIndexBuffer9
__ZTS21IDirect3DPixelShader9
__ZTS22IDirect3DVertexBuffer9
__ZTS22IDirect3DVertexShader9
__ZTS23IConCommandBaseAccessor
__ZTS23IDirect3DVolumeTexture9
__ZTS27IDirect3DVertexDeclaration9
__ZTS6ConVar
__ZTS7IConVar
__ZTS8IUnknown
__ZTV10ConCommand
__ZTV10IDirect3D9
__ZTV12CEmptyConVar
__ZTV15IDirect3DQuery9
__ZTV16CDefaultAccessor
__ZTV16IDirect3DDevice9
__ZTV17IDirect3DSurface9
__ZTV17IDirect3DTexture9
__ZTV18CUtlCharConversion
__ZTV19CUtlNoEscConversion
__ZTV21CUtlCStringConversion
__ZTV21IDirect3DBaseTexture9
__ZTV21IDirect3DCubeTexture9
__ZTV21IDirect3DIndexBuffer9
__ZTV21IDirect3DPixelShader9
__ZTV22IDirect3DVertexBuffer9
__ZTV22IDirect3DVertexShader9
__ZTV23IDirect3DVolumeTexture9
__ZTV27IDirect3DVertexDeclaration9
__ZTV6ConVar
__ZTVN10__cxxabiv117__class_type_infoE
__ZTVN10__cxxabiv120__si_class_type_infoE
__ZTVN10__cxxabiv121__vmi_class_type_infoE
__ZThn24_N12CEmptyConVar8SetValueEPKc
__ZThn24_N12CEmptyConVar8SetValueEf
__ZThn24_N12CEmptyConVar8SetValueEi
__ZThn24_N6ConVar8SetValueEPKc
__ZThn24_N6ConVar8SetValueEf
__ZThn24_N6ConVar8SetValueEi
__ZThn24_NK12CEmptyConVar7GetNameEv
__ZThn24_NK12CEmptyConVar9IsFlagSetEi
__ZThn24_NK6ConVar7GetNameEv
__ZThn24_NK6ConVar9IsFlagSetEi
__ZZL16GetOpenGLVersionPiS_S_E11glGetString
__ZZL17fixupInstructionsjPviPhE10LeaqHeader
__ZZL29CheckOpenGLExtension_internalPKciiE11glGetString
__ZZN10GLMContext10PreloadTexEP7CGLMTexbE5posns
__ZZN10GLMContext10PreloadTexEP7CGLMTexbE7indices
__ZZN10GLMContext35SetMaxUsedVertexShaderConstantsHintEjE31bUseMaxVertexShadeConstantHints
__ZZN10GLMContext7PresentEP7CGLMTexE7counter
__ZZN20GLMTexSamplingParams11SetToTargetEjE16dxtogl_magFilter
__ZZN20GLMTexSamplingParams11SetToTargetEjE16dxtogl_minFilter
__ZZN20GLMTexSamplingParams11SetToTargetEjE18dxtogl_addressMode
__ZZN20GLMTexSamplingParams16DeltaSetToTargetEjRKS_E16dxtogl_magFilter
__ZZN20GLMTexSamplingParams16DeltaSetToTargetEjRKS_E16dxtogl_minFilter
__ZZN20GLMTexSamplingParams16DeltaSetToTargetEjRKS_E18dxtogl_addressMode
__ZZN7CGLMTex18HandleSRGBMismatchEbRiE13s_nosrgbflips
__ZZN7D3DToGL15TranslateShaderEPjP10CUtlBufferPbjijPcE18s_szCompareStrings
__ZZN9KeyValues13SaveKeyToFileEPS_P15IBaseFileSystemPvP10CUtlBufferibbE3buf
__ZdaPv
__ZdlPv
__Znam
__Znwm
___bzero
___clang_call_terminate
___cxa_atexit
___cxa_begin_catch
___cxa_call_unexpected
___cxa_guard_abort
___cxa_guard_acquire
___cxa_guard_release
___error
___gxx_personality_v0
___maskrune
___stack_chk_fail
___stack_chk_guard
___stderrp
___tolower
___udivdi3
___umoddi3
_atof
_atoi
_bcopy
_colorcorrection
_cosf
_cvar
_dxa_nullrefresh_capslock
_floor
_fprintf
_fwrite$UNIX2003
_gGL
_gGL_GetProcAddressCallback
_g_ClockSpeed
_g_ClockSpeedSecondsMultiplier
_g_D3DRS_INFO_packed
_g_D3DRS_INFO_unpacked
_g_KeyValuesErrorStack
_g_VBAllocTracker
_g_bDebugOutputBreakpoints
_g_bDisableStaticBuffer
_g_bNullD3DDevice
_g_bUsePseudoBufs
_g_formatDescTableCount
_g_glmDebugFontMap
_g_glmShaderLimitDescs
_g_glmgr
_g_nTotalDrawsOrClears
_g_nullFragmentProgramText
_g_pCVar
_g_pFullFileSystem
_g_pInputSystem
_g_pLauncherMgr
_g_pMaterialSystem
_g_pMaterialSystemDebugTextureInfo
_g_pMaterialSystemHardwareConfig
_g_pMemAlloc
_g_pNetworkSystem
_g_pProcessUtils
_g_pQueuedLoader
_g_pUtlSortVectorQSortContext
_g_preload2DTexFragmentProgramText
_g_preload3DTexFragmentProgramText
_g_preloadCubeTexFragmentProgramText
_g_preloadTexVertexProgramText
_g_shaderSectionMarkers
_glAttachFromClass
_gl_batch_tex_creates
_gl_batch_tex_destroys
_gl_batch_vis
_gl_blitmode
_gl_bufmode
_gl_can_mix_shader_gammas
_gl_can_query_fast
_gl_can_resolve_flipped
_gl_cannot_mix_shader_gammas
_gl_cannot_resolve_flipped
_gl_debug_output
_gl_enabletexsubimage
_gl_magnify_resolve_mode
_gl_minify_resolve_mode
_gl_minimize_all_tex
_gl_minimize_rt_tex
_gl_minimize_tex_log
_gl_nullqueries
_gl_pow2_tempmem
_gl_radar7954721_workaround_all
_gl_radar7954721_workaround_maskval
_gl_radar7954721_workaround_mixed
_gl_rt_forcergba
_gl_shaderpair_cachelog
_gl_shaderpair_cacherows_lg2
_gl_shaderpair_cacheways_lg2
_gl_texmsaalog
_glm_literefresh_capslock
_glm_nullrefresh_capslock
_kIslandTemplate
_lineartolightmap
_lineartovertex
_mach_override_ptr
_mach_task_self_
_malloc
_materials
_mdllib
_memcmp
_memcpy
_memmove
_memset
_memset_pattern16
_modf
_mprotect$UNIX2003
_msync$UNIX2003
_objc_msgSend
_p4
_pfFastCos
_pfFastSinCos
_pfInvRSquared
_pfRSqrt
_pfRSqrtFast
_pfSqrt
_pfVectorNormalize
_pfVectorNormalizeFast
_pow
_printf
_putchar
_puts
_qsort
_raise
_rand
_s_NoEscConversion
_s_StringCharConversion
_s_bMathlibInitialized
_sg_pPIXName
_sin
_sprintf
_sscanf
_strcasecmp
_strchr
_strcmp
_strcpy
_strlen
_strncat
_strncmp
_strncpy
_strrchr
_strstr
_strtod$UNIX2003
_strtol
_strtoul
_toglGetClientRect
_vm_allocate
_vm_deallocate
_vm_protect
_vm_region
_vprintf
_vsnprintf
_wcslen
dyld_stub_binder
