GCC_except_table0
GCC_except_table1
GCC_except_table1
GCC_except_table104
GCC_except_table105
GCC_except_table2
GCC_except_table21
GCC_except_table23
GCC_except_table23
GCC_except_table24
GCC_except_table24
GCC_except_table26
GCC_except_table27
GCC_except_table3
GCC_except_table30
GCC_except_table35
GCC_except_table36
GCC_except_table36
GCC_except_table37
GCC_except_table4
GCC_except_table4
GCC_except_table42
GCC_except_table5
GCC_except_table60
GCC_except_table61
GCC_except_table62
GCC_except_table68
GCC_except_table69
GCC_except_table7
GCC_except_table7
GCC_except_table70
GCC_except_table8
GCC_except_table89
GCC_except_table90
GCC_except_table92
_ApproximateProcessMemoryUsage
_AreAllAssertsDisabled
_AssertValidStringPtr
_BuildCmdLine
_COM_TimestampedLog
_CallAssertFailedNotifyFunc
_CatchAndWriteMiniDump
_ColorSpewMessage
_CommandLine_Tier0
_ConColorMsg
_ConDColorMsg
_ConDLog
_ConDMsg
_ConDWarning
_ConLog
_ConMsg
_ConWarning
_CrackSmokingCompiler
_CreateSimpleThread
_DLog
_DMsg
_DWarning
_DeclareCurrentThreadIsMainThread
_DecodeBinaryFromString
_DefaultSpewFunc
_DefaultSpewFuncAbortOnAsserts
_DevLog
_DevMsg
_DevWarning
_DoNewAssertDialog
_EncodeBinaryToString
_Error
_ErrorV
_GetAssertDialogParent
_GetCPUFrequencyResults
_GetCPUInformation
_GetCPUUsage
_GetCallStack
_GetCallStack_Fast
_GetFileAndLineFromAddress
_GetMemoryInformation
_GetModuleNameFromAddress
_GetSpewOutputColor
_GetSpewOutputFunc
_GetSpewOutputGroup
_GetSpewOutputLevel
_GetSymbolNameFromAddress
_GetThreadedLoadLibraryFunc
_HushAsserts
_InitPME
_InstallProgressReportHandler
_Is64BitOS
_IsSpewActive
_Log
_LogV
_MemAllocOOMError
_MemAllocScratch
_MemFreeScratch
_MinidumpUserStreamInfoAppend
_MinidumpUserStreamInfoGet
_MinidumpUserStreamInfoSetHeader
_Msg
_MsgV
_NetLog
_NetMsg
_NetWarning
_OSAtomicCompareAndSwap64
_Plat_ApplyHardwareDataBreakpointsToNewThread
_Plat_BeginWatchdogTimer
_Plat_DebugString
_Plat_EndWatchdogTimer
_Plat_ExitProcess
_Plat_FastVerifyHardwareKey
_Plat_FloatTime
_Plat_GetCommandLine
_Plat_GetCommandLineA
_Plat_GetMemPageSize
_Plat_GetPagedPoolInfo
_Plat_GetWatchdogTime
_Plat_IsInBenchmarkMode
_Plat_IsInDebugSession
_Plat_MSTime
_Plat_SetBenchmarkMode
_Plat_SetCommandLine
_Plat_SetHardwareDataBreakpoint
_Plat_SetWatchdogHandlerFunction
_Plat_SimpleLog
_Plat_USTime
_Plat_VerifyHardwareKey
_Plat_VerifyHardwareKeyDriver
_Plat_VerifyHardwareKeyPrompt
_Plat_ctime
_Plat_gmtime
_Plat_localtime
_Plat_timegm
_ReleaseThreadHandle
_ReportProgress
_RunTSListTests
_RunTSQueueTests
_SecureRandomBytes
_SetAllAssertsDisabled
_SetAssertDialogParent
_SetAssertFailedNotifyFunc
_SetCPUMonitoringInterval
_SetStackTranslationSymbolSearchPath
_SetThreadedLoadLibraryFunc
_ShouldUseNewAssertDialog
_ShutdownPME
_SpewActivate
_SpewOutputFunc
_StackToolsNotify_LoadedLibrary
_ThreadDetach
_ThreadGetCurrentHandle
_ThreadGetCurrentId
_ThreadGetPriority
_ThreadInMainThread
_ThreadInterlockedAssignIf
_ThreadInterlockedAssignIf64
_ThreadInterlockedAssignPointerIf
_ThreadInterlockedCompareExchange
_ThreadInterlockedCompareExchange64
_ThreadInterlockedCompareExchangePointer
_ThreadInterlockedDecrement
_ThreadInterlockedExchange
_ThreadInterlockedExchange64
_ThreadInterlockedExchangeAdd
_ThreadInterlockedExchangePointer
_ThreadInterlockedIncrement
_ThreadJoin
_ThreadSetAffinity
_ThreadSetDebugName
_ThreadSetPriority
_ThreadSleep
_TranslateStackInfo
_V_tier0_stricmp
_VoidFnPtrLookup_Tier0
_Warning
_WarningV
_WriteMiniDump
__AssertValidReadPtr
__AssertValidReadWritePtr
__AssertValidWritePtr
__DSpewMessage
__DefaultRuneLocale
__ExitOnFatalAssert
__GLOBAL__I_000101
__GLOBAL__I_000101
__GLOBAL__sub_I_commandlin.stdout.rel_tf_osx_builder.8585.ghZfCh.ii
__GLOBAL__sub_I_dbg.stdout.rel_tf_osx_builder.8590.AEGWC5.ii
__GLOBAL__sub_I_fasttimer.stdout.rel_tf_osx_builder.8629.vGRrwR.ii
__GLOBAL__sub_I_memstd.stdout.rel_tf_osx_builder.8642.s2QM9U.ii
__GLOBAL__sub_I_threadtool.stdout.rel_tf_osx_builder.8720.MIYz7L.ii
__GLOBAL__sub_I_tslist.stdout.rel_tf_osx_builder.8742.e1WvFv.ii
__GLOBAL__sub_I_vprof.stdout.rel_tf_osx_builder.8751.oh2D6u.ii
__SpewInfo
__SpewMessage
__Unwind_Resume
__Z10ConWarningPKcz
__Z10DevWarningPKcz
__Z11ConColorMsgRK5ColorPKcz
__Z13VCR_Hook_TimePl
__Z14RunSharedTestsi
__Z16CalculateCPUFreqv
__Z16VCR_CreateThreadPvmS_S_mPm
__Z16VCR_GenericValuePKcPvi
__Z17VCR_GenericRecordPKcPKvi
__Z17VCR_GenericStringPKcS0_
__Z18CreateSimpleThreadPFjPvES_Pmj
__Z18VCR_Hook_LocalTimeP2tm
__Z19VCR_GenericPlaybackPKcPvib
__Z20VCR_Hook_GetKeyStatei
__Z22VCR_GenericValueVerifyPKcPKvi
__Z22VCR_Hook_RecordGameMsgRK12InputEvent_t
__Z23VCR_GetPercentCompletedv
__Z23VCR_WaitForSingleObjectPvm
__Z24VCR_EnterCriticalSectionPv
__Z24VCR_Hook_PlaybackGameMsgP12InputEvent_t
__Z25VCR_Hook_ReadConsoleInputPvS_iPm
__Z25VCR_Hook_RecordEndGameMsgv
__Z26VCR_WaitForMultipleObjectsjPPKvij
__Z28DoApplyMemoryInitializationsPvi
__Z38VCR_Hook_GetNumberOfConsoleInputEventsPvPm
__Z6ConLogPKcz
__Z6ConMsgPKcz
__Z6DevLogPKcz
__Z6DevMsgPKcz
__ZGVZ17DoNewAssertDialogE11autoMutex__
__ZGVZ17GetCPUInformationE2pi
__ZGVZ17SecureRandomBytesE16s_dev_urandom_fd
__ZGVZ24ShouldUseNewAssertDialogE10bMPIWorker
__ZGVZL18AreAssertsDisabledvE7bResult
__ZGVZL19IsDebugBreakEnabledvE7bResult
__ZGVZN19CSharedLibraryCache8GetCacheEvE9Singleton
__ZL10DumpSortedPFvPKczES0_dPFbRK10TimeSums_tS5_Ei
__ZL10g_VCRTrace
__ZL10s_SpewType
__ZL11PeakCompareRK10TimeSums_tS1_
__ZL11TimeCompareRK10TimeSums_tS1_
__ZL11VCR_GetModev
__ZL11s_nBufDepth
__ZL11s_pFileName
__ZL12_SpewMessage10SpewType_tPKciPK5ColorS1_Pc
__ZL12linuxCmdline
__ZL12s_GroupCount
__ZL12s_bInittedWD
__ZL12s_indentText
__ZL13VCR_Hook_recviPcii
__ZL13VCR_Hook_sendiPKcii
__ZL13VCR_SyncTokenPKc
__ZL13g_ColorLookup
__ZL13s_StdMemAlloc
__ZL13s_nBufCurSize
__ZL13s_pGroupNames
__ZL13s_pSpewGroups
__ZL14VCR_SetEnabledi
__ZL14s_DefaultLevel
__ZL14s_WatchdogTime
__ZL15DefaultWaitFunciPKP12CThreadEventij
__ZL15WatchDogHandleri
__ZL15s_nBufAllocSize
__ZL15s_pGroupIndices
__ZL16g_UserStreamInfo
__ZL16g_bBenchmarkMode
__ZL16pReportHandlerFN
__ZL16s_SpewOutputFunc
__ZL16s_pBufStackDepth
__ZL17ThreadProcConvertPv
__ZL17VCR_Hook_Cmd_ExecPPc
__ZL17VCR_Hook_recvfromiPciiP8sockaddrPi
__ZL17g_bAssertsEnabled
__ZL17g_pAssertDisables
__ZL17s_oomerror_called
__ZL18AverageTimeCompareRK10TimeSums_tS1_
__ZL19g_FakeBenchmarkTime
__ZL20VCR_Hook_PeekMessageP6tagMSGPvjjj
__ZL20VCR_Hook_RegCloseKeyPv
__ZL20s_DefaultOutputColor
__ZL21VCR_Hook_GetCursorPosP8tagPOINT
__ZL21VCR_Hook_RegOpenKeyExPvPKcmmS_
__ZL21g_UserStreamInfoIndex
__ZL22PeakOverAverageCompareRK10TimeSums_tS1_
__ZL22VCR_Hook_RegSetValueExPvPKcmmPKhm
__ZL22VCR_Hook_Sys_FloatTimed
__ZL22g_UserStreamInfoHeader
__ZL23TimeLessChildrenCompareRK10TimeSums_tS1_
__ZL23VCR_Hook_GetCommandLinev
__ZL23VCR_Hook_RegCreateKeyExPvPKcmPcmmS_S_Pm
__ZL23VCR_Hook_ScreenToClientPvP8tagPOINT
__ZL24VCR_GetVCRTraceInterfacev
__ZL24VCR_Hook_RegQueryValueExPvPKcPmS2_PhS2_
__ZL24s_AssertFailedNotifyFunc
__ZL25s_ThreadedLoadLibraryFunc
__ZL25s_nWatchDogTimerTimeScale
__ZL26s_pWatchDogHandlerFunction
__ZL30AverageTimeLessChildrenCompareRK10TimeSums_tS1_
__ZL6g_Info.0
__ZL6g_Info.1
__ZL6g_Info.2
__ZL6s_Line
__ZL6s_pBuf
__ZL7VCR_Endv
__ZL8g_bBreak
__ZL9VCR_ErrorPKcz
__ZL9VCR_Event8VCREvent
__ZL9VCR_StartPKcbP11IVCRHelpers
__ZL9g_CmdLine
__ZL9g_CmdLine
__ZN10CVProfNode10EnterScopeEv
__ZN10CVProfNode10GetSubNodeEPKciS1_
__ZN10CVProfNode10GetSubNodeEPKciS1_i
__ZN10CVProfNode15SetCurFrameTimeEm
__ZN10CVProfNode22s_iCurrentUniqueNodeIDE
__ZN10CVProfNode5PauseEv
__ZN10CVProfNode5ResetEv
__ZN10CVProfNode6ResumeEv
__ZN10CVProfNode9ExitScopeEv
__ZN10CVProfNode9MarkFrameEv
__ZN10CVProfNode9ResetPeakEv
__ZN10CVProfNodeD1Ev
__ZN10CVProfNodeD2Ev
__ZN11CTSListBaseD1Ev
__ZN11TSListTests10g_QueueOpsE
__ZN11TSListTests10g_TestListE
__ZN11TSListTests10g_nThreadsE
__ZN11TSListTests10g_pTestOpsE
__ZN11TSListTests11MAX_THREADSE
__ZN11TSListTests11MTPushMTPopEb
__ZN11TSListTests11MTPushSTPopEb
__ZN11TSListTests11NUM_THREADSE
__ZN11TSListTests11PushPopTestEv
__ZN11TSListTests11STPushMTPopEb
__ZN11TSListTests11g_TestQueueE
__ZN11TSListTests11g_pListTypeE
__ZN11TSListTests12MTPushSeqPopEb
__ZN11TSListTests12SeqPushMTPopEb
__ZN11TSListTests13PopThreadFuncEPv
__ZN11TSListTests13g_nPopThreadsE
__ZN11TSListTests14NUM_PROCESSORSE
__ZN11TSListTests14PushThreadFuncEPv
__ZN11TSListTests14g_nPushThreadsE
__ZN11TSListTests14g_pTestBucketsE
__ZN11TSListTests15g_ThreadHandlesE
__ZN11TSListTests23MTPushPopPopInterleavedEb
__ZN11TSListTests26PushPopInterleavedTestGutsEv
__ZN11TSListTests32PushPopInterleavedTestThreadFuncEPv
__ZN11TSListTests6g_TestE
__ZN11TSListTests7TestEndEb
__ZN11TSListTests7g_nPopsE
__ZN11TSListTests8CListOps3PopEPi
__ZN11TSListTests8CListOps4PushEi
__ZN11TSListTests8CListOps7IsEmptyEv
__ZN11TSListTests8CListOps8ValidateEv
__ZN11TSListTests8NUM_TESTE
__ZN11TSListTests8g_bStartE
__ZN11TSListTests9CQueueOps3PopEPi
__ZN11TSListTests9CQueueOps4PushEi
__ZN11TSListTests9CQueueOps7IsEmptyEv
__ZN11TSListTests9CQueueOps8ValidateEv
__ZN11TSListTests9g_ListOpsE
__ZN11TSListTests9g_nPushesE
__ZN11TSListTests9g_nTestedE
__ZN12CCommandLine10AppendParmEPKcS1_
__ZN12CCommandLine10RemoveParmEPKc
__ZN12CCommandLine13CreateCmdLineEPKc
__ZN12CCommandLine13CreateCmdLineEiPPc
__ZN12CCommandLine16ParseCommandLineEv
__ZN12CCommandLine22LoadParametersFromFileERPKcRPcib
__ZN12CCommandLine7SetParmEiPKc
__ZN12CCommandLineD0Ev
__ZN12CCommandLineD1Ev
__ZN12CStdMemAlloc10GetVersionEv
__ZN12CStdMemAlloc11CompactHeapEv
__ZN12CStdMemAlloc11IsDebugHeapEv
__ZN12CStdMemAlloc12CrtDbgReportEiPKciS1_S1_
__ZN12CStdMemAlloc13CrtSetDbgFlagEi
__ZN12CStdMemAlloc13InitDebugInfoEPvPKci
__ZN12CStdMemAlloc13SaveDebugInfoEPv
__ZN12CStdMemAlloc14CrtCheckMemoryEv
__ZN12CStdMemAlloc14DumpBlockStatsEPv
__ZN12CStdMemAlloc15PopAllocDbgInfoEv
__ZN12CStdMemAlloc16CrtMemCheckpointEP12_CrtMemState
__ZN12CStdMemAlloc16CrtSetBreakAllocEl
__ZN12CStdMemAlloc16CrtSetReportFileEiPv
__ZN12CStdMemAlloc16CrtSetReportHookEPv
__ZN12CStdMemAlloc16CrtSetReportModeEii
__ZN12CStdMemAlloc16GetActualDbgInfoERPKcRi
__ZN12CStdMemAlloc16GetDebugInfoSizeEv
__ZN12CStdMemAlloc16PushAllocDbgInfoEPKci
__ZN12CStdMemAlloc16RestoreDebugInfoEPKv
__ZN12CStdMemAlloc17CrtIsValidPointerEPKvji
__ZN12CStdMemAlloc17DumpStatsFileBaseEPKc
__ZN12CStdMemAlloc17MemoryAllocFailedEv
__ZN12CStdMemAlloc18DefaultFailHandlerEm
__ZN12CStdMemAlloc18GlobalMemoryStatusEPmS0_
__ZN12CStdMemAlloc18RegisterAllocationEPKciiij
__ZN12CStdMemAlloc19SetAllocFailHandlerEPFmmE
__ZN12CStdMemAlloc20RegisterDeallocationEPKciiij
__ZN12CStdMemAlloc21CrtIsValidHeapPointerEPKv
__ZN12CStdMemAlloc24Expand_NoLongerSupportedEPvm
__ZN12CStdMemAlloc24Expand_NoLongerSupportedEPvmPKci
__ZN12CStdMemAlloc4FreeEPv
__ZN12CStdMemAlloc4FreeEPvPKci
__ZN12CStdMemAlloc5AllocEm
__ZN12CStdMemAlloc5AllocEmPKci
__ZN12CStdMemAlloc7GetSizeEPv
__ZN12CStdMemAlloc7ReallocEPvm
__ZN12CStdMemAlloc7ReallocEPvmPKci
__ZN12CStdMemAlloc7heapchkEv
__ZN12CStdMemAlloc9DumpStatsEv
__ZN12CThreadEvent3SetEv
__ZN12CThreadEvent4WaitEj
__ZN12CThreadEvent5CheckEv
__ZN12CThreadEvent5ResetEv
__ZN12CThreadEventC1Eb
__ZN12CThreadEventC2Eb
__ZN12CThreadMutex7TryLockEv
__ZN13CThreadRWLock11UnlockWriteEv
__ZN13CThreadRWLock11WaitForReadEv
__ZN13CThreadRWLock12LockForWriteEv
__ZN13CWorkerThread10CallMasterEjj
__ZN13CWorkerThread10CallWorkerEjjbP8CFunctor
__ZN13CWorkerThread11WaitForCallEPj
__ZN13CWorkerThread11WaitForCallEjPj
__ZN13CWorkerThread12WaitForReplyEj
__ZN13CWorkerThread12WaitForReplyEjPFjiPKP12CThreadEventijE
__ZN13CWorkerThread13BoostPriorityEv
__ZN13CWorkerThread13GetCallHandleEv
__ZN13CWorkerThread4CallEjjbPFjiPKP12CThreadEventijEP8CFunctor
__ZN13CWorkerThread5ReplyEj
__ZN13CWorkerThread8PeekCallEPjPP8CFunctor
__ZN13CWorkerThreadC2Ev
__ZN13CWorkerThreadD0Ev
__ZN13CWorkerThreadD1Ev
__ZN15CClockSpeedInit4InitEv
__ZN15CThreadLocalPtrI10SpewInfo_tED1Ev
__ZN15CThreadLocalPtrI7CThreadED1Ev
__ZN16CThreadLocalBase3SetEPv
__ZN16CThreadLocalBaseC1Ev
__ZN16CThreadLocalBaseC2Ev
__ZN16CThreadLocalBaseD1Ev
__ZN16CThreadLocalBaseD2Ev
__ZN17CCallStackStorageC1EPFiPPviiEj
__ZN17CCallStackStorageC2EPFiPPviiEj
__ZN17CThreadSpinRWLock10UnlockReadEv
__ZN17CThreadSpinRWLock11LockForReadEv
__ZN17CThreadSpinRWLock11UnlockWriteEv
__ZN17CThreadSpinRWLock16SpinLockForWriteEj
__ZN17CThreadSyncObject13AssertUseableEv
__ZN17CThreadSyncObject4WaitEj
__ZN17CThreadSyncObjectC1Ev
__ZN17CThreadSyncObjectC2Ev
__ZN17CThreadSyncObjectD1Ev
__ZN17CThreadSyncObjectD2Ev
__ZN19CSharedLibraryCache18CSharedLibraryItemD1Ev
__ZN19CSharedLibraryCache9GetHandleEPKc
__ZN19CSharedLibraryCacheD1Ev
__ZN25CStackTop_CopyParentStackC1EPKPvi
__ZN25CStackTop_CopyParentStackC2EPKPvi
__ZN25CStackTop_CopyParentStackD1Ev
__ZN25CStackTop_CopyParentStackD2Ev
__ZN30CStackTop_ReferenceParentStack28ReleaseParentStackReferencesEv
__ZN30CStackTop_ReferenceParentStackC1EPKPvi
__ZN30CStackTop_ReferenceParentStackC2EPKPvi
__ZN30CStackTop_ReferenceParentStackD1Ev
__ZN30CStackTop_ReferenceParentStackD2Ev
__ZN7CTSListIiE7PopItemEPi
__ZN7CTSListIiED1Ev
__ZN7CThread10ThreadProcEPv
__ZN7CThread11SetPriorityEi
__ZN7CThread13GetThreadProcEv
__ZN7CThread15IsThreadRunningEv
__ZN7CThread17GetCurrentCThreadEv
__ZN7CThread17ResumeCooperativeEv
__ZN7CThread18SuspendCooperativeEv
__ZN7CThread21WaitForCreateCompleteEP12CThreadEvent
__ZN7CThread32BWaitForThreadSuspendCooperativeEv
__ZN7CThread4InitEv
__ZN7CThread4JoinEj
__ZN7CThread4StopEi
__ZN7CThread5SleepEj
__ZN7CThread5StartEj
__ZN7CThread5YieldEv
__ZN7CThread6OnExitEv
__ZN7CThread6ResumeEv
__ZN7CThread7CleanupEv
__ZN7CThread7GetNameEv
__ZN7CThread7IsAliveEv
__ZN7CThread7SetNameEPKc
__ZN7CThread7SuspendEv
__ZN7CThread9GetResultEv
__ZN7CThread9TerminateEi
__ZN7CThreadC2Ev
__ZN7CThreadD0Ev
__ZN7CThreadD1Ev
__ZN7CThreadD2Ev
__ZN8CL2Cache3EndEv
__ZN8CL2Cache5StartEv
__ZN8CL2CacheC1Ev
__ZN8CL2CacheD1Ev
__ZN8CTSQueueIiLb1EE3PopEv
__ZN8CTSQueueIiLb1EE4PushEPNS0_6Node_tE
__ZN8CTSQueueIiLb1EE5PurgeEv
__ZN8CTSQueueIiLb1EE7PopItemEPi
__ZN8CTSQueueIiLb1EE8PushItemERKi
__ZN8CTSQueueIiLb1EEC2Ev
__ZN8CTSQueueIiLb1EED1Ev
__ZN8CTSQueueIiLb1EED2Ev
__ZN9CVCRTrace4ReadEPvi
__ZN9CVCRTrace9ReadEventEv
__ZN9CVProfile11FreeNodes_REP10CVProfNode
__ZN9CVProfile12OutputReportEiPKci
__ZN9CVProfile13ResetCountersE14CounterGroup_t
__ZN9CVProfile15HideBudgetGroupEib
__ZN9CVProfile15SetOutputStreamEPFvPKczE
__ZN9CVProfile18AddBudgetGroupNameEPKci
__ZN9CVProfile18GetNumBudgetGroupsEv
__ZN9CVProfile19FindBudgetGroupNameEPKc
__ZN9CVProfile19FindOrCreateCounterEPKc14CounterGroup_t
__ZN9CVProfile19GetBudgetGroupColorEiRiS0_S0_S0_
__ZN9CVProfile30BudgetGroupNameToBudgetGroupIDEPKc
__ZN9CVProfile30BudgetGroupNameToBudgetGroupIDEPKci
__ZN9CVProfile38RegisterNumBudgetGroupsChangedCallBackEPFvvE
__ZN9CVProfile4TermEv
__ZN9CVProfile8FindNodeEP10CVProfNodePKc
__ZN9CVProfile8SumTimesEP10CVProfNodei
__ZN9CVProfile8SumTimesEPKci
__ZN9CVProfile9DumpNodesEP10CVProfNodeib
__ZN9CVProfileC1Ev
__ZN9CVProfileC2Ev
__ZN9CVProfileD1Ev
__ZN9CVProfileD2Ev
__ZNK12CCommandLine10GetCmdLineEv
__ZNK12CCommandLine16ParmValueByIndexEiPKc
__ZNK12CCommandLine7GetParmEi
__ZNK12CCommandLine7HasParmEPKc
__ZNK12CCommandLine8FindParmEPKc
__ZNK12CCommandLine9CheckParmEPKcPS1_
__ZNK12CCommandLine9ParmCountEv
__ZNK12CCommandLine9ParmValueEPKcS1_
__ZNK12CCommandLine9ParmValueEPKcf
__ZNK12CCommandLine9ParmValueEPKci
__ZNK13CWorkerThread12GetCallParamEPP8CFunctor
__ZNK16CThreadLocalBase3GetEv
__ZNK17CThreadSyncObjectntEv
__ZNK7CThread11GetPriorityEv
__ZNK9CVProfile14GetCounterNameEi
__ZNK9CVProfile14GetNumCountersEv
__ZNK9CVProfile15GetCounterGroupEi
__ZNK9CVProfile15GetCounterValueEi
__ZNK9CVProfile22GetCounterNameAndValueEiRi
__ZNKSt3__120__vector_base_commonILb1EE20__throw_length_errorEv
__ZNSt3__118__insertion_sort_3IRPFbRK10TimeSums_tS3_EPS1_EEvT0_S8_T_
__ZNSt3__127__insertion_sort_incompleteIRPFbRK10TimeSums_tS3_EPS1_EEbT0_S8_T_
__ZNSt3__127__tree_balance_after_insertIPNS_16__tree_node_baseIPvEEEEvT_S5_
__ZNSt3__13mapIP10CVProfNodedNS_4lessIS2_EENS_9allocatorINS_4pairIKS2_dEEEEED1Ev
__ZNSt3__13mapIPKcmNS_4lessIS2_EENS_9allocatorINS_4pairIKS2_mEEEEED1Ev
__ZNSt3__14listIP16ThreadHandle_t__NS_9allocatorIS2_EEED1Ev
__ZNSt3__16__sortIRPFbRK10TimeSums_tS3_EPS1_EEvT0_S8_T_
__ZNSt3__16__treeINS_12__value_typeIP10CVProfNodedEENS_19__map_value_compareIS3_S4_NS_4lessIS3_EELb1EEENS_9allocatorIS4_EEE20__node_insert_uniqueEPNS_11__tree_nodeIS4_PvEE
__ZNSt3__16__treeINS_12__value_typeIP10CVProfNodedEENS_19__map_value_compareIS3_S4_NS_4lessIS3_EELb1EEENS_9allocatorIS4_EEE7destroyEPNS_11__tree_nodeIS4_PvEE
__ZNSt3__16__treeINS_12__value_typeIPKcmEENS_19__map_value_compareIS3_S4_NS_4lessIS3_EELb1EEENS_9allocatorIS4_EEE20__node_insert_uniqueEPNS_11__tree_nodeIS4_PvEE
__ZNSt3__16__treeINS_12__value_typeIPKcmEENS_19__map_value_compareIS3_S4_NS_4lessIS3_EELb1EEENS_9allocatorIS4_EEE7destroyEPNS_11__tree_nodeIS4_PvEE
__ZNSt3__16vectorI10TimeSums_tNS_9allocatorIS1_EEE21__push_back_slow_pathIRKS1_EEvOT_
__ZNSt3__16vectorI10TimeSums_tNS_9allocatorIS1_EEE6assignIPS1_EENS_9enable_ifIXaasr21__is_forward_iteratorIT_EE5valuesr16is_constructibleIS1_NS_15iterator_traitsIS8_E9referenceEEE5valueEvE4typeES8_S8_
__ZNSt3__16vectorI10TimeSums_tNS_9allocatorIS1_EEED1Ev
__ZNSt3__17__sort4IRPFbRK10TimeSums_tS3_EPS1_EEjT0_S8_S8_S8_T_
__ZNSt3__17__sort5IRPFbRK10TimeSums_tS3_EPS1_EEjT0_S8_S8_S8_S8_T_
__ZNV16CThreadFastMutex4LockEjj
__ZSt9terminatev
__ZTI12CCommandLine
__ZTI12CStdMemAlloc
__ZTI12ICommandLine
__ZTI13CWorkerThread
__ZTI7CThread
__ZTI9CVCRTrace
__ZTI9IMemAlloc
__ZTI9IVCRTrace
__ZTIN11TSListTests8CListOpsE
__ZTIN11TSListTests8CTestOpsE
__ZTIN11TSListTests9CQueueOpsE
__ZTISt9bad_alloc
__ZTIi
__ZTS12CCommandLine
__ZTS12CStdMemAlloc
__ZTS12ICommandLine
__ZTS13CWorkerThread
__ZTS7CThread
__ZTS9CVCRTrace
__ZTS9IMemAlloc
__ZTS9IVCRTrace
__ZTSN11TSListTests8CListOpsE
__ZTSN11TSListTests8CTestOpsE
__ZTSN11TSListTests9CQueueOpsE
__ZTV12CCommandLine
__ZTV12CStdMemAlloc
__ZTV13CWorkerThread
__ZTV7CThread
__ZTV9CVCRTrace
__ZTVN10__cxxabiv117__class_type_infoE
__ZTVN10__cxxabiv120__si_class_type_infoE
__ZTVN11TSListTests8CListOpsE
__ZTVN11TSListTests9CQueueOpsE
__ZZ14Plat_FloatTimeE10conversion
__ZZ14Plat_FloatTimeE10start_time
__ZZ14Plat_FloatTimeE13sTimebaseInfo
__ZZ17DoNewAssertDialogE11autoMutex__
__ZZ17DoNewAssertDialogE20pfnSDLShowMessageBox
__ZZ17GetCPUInformationE2pi
__ZZ17SecureRandomBytesE16s_dev_urandom_fd
__ZZ18COM_TimestampedLogE10s_bChecked
__ZZ18COM_TimestampedLogE11s_LastStamp
__ZZ18COM_TimestampedLogE12s_bShouldLog
__ZZ18COM_TimestampedLogE13s_bFirstWrite
__ZZ18COM_TimestampedLogE17s_bShouldLogToETW
__ZZ20GetProcessorVendorIdvE8VendorID
__ZZ21Plat_IsInDebugSessionE18s_IsInDebugSession
__ZZ24ShouldUseNewAssertDialogE10bMPIWorker
__ZZL18AreAssertsDisabledvE7bResult
__ZZL19IsDebugBreakEnabledvE7bResult
__ZZN19CSharedLibraryCache8GetCacheEvE9Singleton
__ZZN9CVProfile19FindOrCreateCounterEPKc14CounterGroup_tE5dummy
__ZdaPv
__ZdlPv
__Znam
__Znwm
___bzero
___clang_call_terminate
___cxa_allocate_exception
___cxa_atexit
___cxa_begin_catch
___cxa_call_unexpected
___cxa_end_catch
___cxa_guard_abort
___cxa_guard_acquire
___cxa_guard_release
___cxa_pure_virtual
___cxa_rethrow
___cxa_throw
___error
___fixunsdfdi
___gxx_personality_v0
___maskrune
___stack_chk_fail
___stack_chk_guard
___stderrp
___tolower
___udivdi3
___umoddi3
__exit
_abort
_alarm
_atof
_atoi
_atoll
_backtrace
_backtrace_symbols
_ctime_r
_dlclose
_dlopen
_dlsym
_exit
_fclose
_fflush
_fgetc
_fopen$UNIX2003
_fprintf
_fread
_free
_fscanf
_fseek
_ftell
_fwrite$UNIX2003
_g_ClockSpeed
_g_ClockSpeedMicrosecondsMultiplier
_g_ClockSpeedMillisecondsMultiplier
_g_ClockSpeedSecondsMultiplier
_g_CurFilePos
_g_FileLen
_g_LastReadEvent
_g_OldVCRMode
_g_SDLWindow
_g_ThreadMainThreadID
_g_TimeSums
_g_TimeSumsMap
_g_TimesLessChildren
_g_TotalFrames
_g_VCR
_g_VCRMode
_g_VProfCurrentProfile
_g_VProfSignalSpike
_g_bInitMemory
_g_bTraceRead
_g_dwClockSpeed
_g_iCurEvent
_g_pCurThread
_g_pHelpers
_g_pMemAlloc
_g_pSpewInfo
_g_pStartNode
_g_pVCR
_g_pVCRFile
_g_pszSumNode
_getenv
_getloadavg
_getpid
_gettimeofday
_gmtime_r
_isatty
_localtime
_localtime_r
_mach_absolute_time
_mach_timebase_info
_malloc
_malloc_size
_memcmp
_memcpy
_memmove
_open$UNIX2003
_printf
_pthread_attr_init
_pthread_attr_setstacksize
_pthread_cond_destroy
_pthread_cond_init$UNIX2003
_pthread_cond_signal
_pthread_cond_timedwait$UNIX2003
_pthread_create
_pthread_detach
_pthread_from_mach_thread_np
_pthread_getschedparam
_pthread_getspecific
_pthread_join$UNIX2003
_pthread_key_create
_pthread_key_delete
_pthread_kill
_pthread_mach_thread_np
_pthread_mutex_destroy
_pthread_mutex_init
_pthread_mutex_lock
_pthread_mutex_trylock
_pthread_mutex_unlock
_pthread_mutexattr_destroy$UNIX2003
_pthread_mutexattr_init
_pthread_mutexattr_settype
_pthread_self
_pthread_setschedparam
_pthread_setspecific
_pthread_yield_np
_raise
_rand
_read$UNIX2003
_realloc
_recv$UNIX2003
_recvfrom$UNIX2003
_send$UNIX2003
_signal
_snprintf
_srand
_strcat
_strcmp
_strcpy
_strlen
_strncpy
_strrchr
_strstr
_sysctl
_thread_resume
_thread_suspend
_time
_timegm
_unlink
_usleep$UNIX2003
_vsnprintf
_vtune
dyld_stub_binder
