GCC_except_table0
GCC_except_table0
GCC_except_table1
GCC_except_table10
GCC_except_table100
GCC_except_table101
GCC_except_table102
GCC_except_table103
GCC_except_table104
GCC_except_table105
GCC_except_table106
GCC_except_table107
GCC_except_table108
GCC_except_table11
GCC_except_table12
GCC_except_table12
GCC_except_table14
GCC_except_table14
GCC_except_table15
GCC_except_table16
GCC_except_table17
GCC_except_table17
GCC_except_table19
GCC_except_table2
GCC_except_table2
GCC_except_table2
GCC_except_table20
GCC_except_table20
GCC_except_table21
GCC_except_table21
GCC_except_table22
GCC_except_table22
GCC_except_table23
GCC_except_table23
GCC_except_table24
GCC_except_table24
GCC_except_table24
GCC_except_table24
GCC_except_table25
GCC_except_table26
GCC_except_table26
GCC_except_table27
GCC_except_table27
GCC_except_table28
GCC_except_table28
GCC_except_table29
GCC_except_table29
GCC_except_table3
GCC_except_table3
GCC_except_table30
GCC_except_table31
GCC_except_table31
GCC_except_table33
GCC_except_table33
GCC_except_table34
GCC_except_table35
GCC_except_table35
GCC_except_table37
GCC_except_table38
GCC_except_table39
GCC_except_table39
GCC_except_table4
GCC_except_table4
GCC_except_table40
GCC_except_table41
GCC_except_table42
GCC_except_table43
GCC_except_table5
GCC_except_table5
GCC_except_table5
GCC_except_table55
GCC_except_table56
GCC_except_table57
GCC_except_table57
GCC_except_table58
GCC_except_table59
GCC_except_table6
GCC_except_table6
GCC_except_table60
GCC_except_table62
GCC_except_table63
GCC_except_table64
GCC_except_table65
GCC_except_table66
GCC_except_table69
GCC_except_table7
GCC_except_table70
GCC_except_table71
GCC_except_table76
GCC_except_table76
GCC_except_table77
GCC_except_table78
GCC_except_table79
GCC_except_table8
GCC_except_table81
GCC_except_table81
GCC_except_table82
GCC_except_table83
GCC_except_table86
GCC_except_table89
GCC_except_table9
GCC_except_table9
GCC_except_table91
GCC_except_table92
GCC_except_table93
GCC_except_table95
GCC_except_table96
GCC_except_table97
GCC_except_table99
_COM_TimestampedLog
_CommandLine_Tier0
_Coroutine_Cancel
_Coroutine_Continue
_Coroutine_Create
_Coroutine_DebugAssert
_Coroutine_DebugBreak
_Coroutine_GetCurrentlyActive
_Coroutine_GetStackDepth
_Coroutine_IsActive
_Coroutine_ReleaseThreadMemory
_Coroutine_Test
_Coroutine_ValidateGlobals
_Coroutine_YieldToMain
_CreateInterface
_CreateThreadPool
_DestroyThreadPool
_Error
_Gestalt
_GetCPUInformation
_GetNameFromOSType
_GetOSDetailString
_GetOSType
_GetPlatformName
_InstallUniformRandomStream
_Is64BitOS
_KeyValuesSystem
_Msg
_OSTypesAreCompatible
_Plat_IsInDebugSession
_RandomFloat
_RandomFloatExp
_RandomGaussianFloat
_RandomInt
_RandomSeed
_RunTSListTests
_RunTSQueueTests
_RunThreadPoolTests
_ThreadGetCurrentId
_ThreadGetPriority
_ThreadInMainThread
_ThreadInterlockedAssignIf
_ThreadInterlockedAssignIf64
_ThreadInterlockedCompareExchangePointer
_ThreadInterlockedDecrement
_ThreadInterlockedExchange
_ThreadInterlockedExchangeAdd
_ThreadInterlockedIncrement
_ThreadSetAffinity
_ThreadSleep
_VStdLib_GetICVarFactory
_Warning
__DefaultRuneLocale
__GLOBAL__sub_I_KeyValues.stdout.rel_tf_osx_builder.55432.qZWQhg.ii
__GLOBAL__sub_I_KeyValuesS.stdout.rel_tf_osx_builder.55609.sHrCBL.ii
__GLOBAL__sub_I_bitbuf.stdout.rel_tf_osx_builder.8784.aOnGh7.ii
__GLOBAL__sub_I_convar.stdout.rel_tf_osx_builder.55430.mXKsKU.ii
__GLOBAL__sub_I_coroutine.stdout.rel_tf_osx_builder.9142.7Av6Ny.ii
__GLOBAL__sub_I_cvar.stdout.rel_tf_osx_builder.55607.w4P06V.ii
__GLOBAL__sub_I_jobthread.stdout.rel_tf_osx_builder.55608.HlFNZE.ii
__GLOBAL__sub_I_lzmaDecode.stdout.rel_tf_osx_builder.55433.LctBPo.ii
__GLOBAL__sub_I_random.stdout.rel_tf_osx_builder.9170.KU9Fyb.ii
__GLOBAL__sub_I_utlbuffer.stdout.rel_tf_osx_builder.8986.vt30zT.ii
__GLOBAL__sub_I_utlsymbol.stdout.rel_tf_osx_builder.55484.zcRfnN.ii
__GLOBAL__sub_I_vcover.stdout.rel_tf_osx_builder.9171.ekZekB.ii
__Unwind_Resume
__Z10V_snprintfPciPKcz
__Z11ConColorMsgRK5ColorPKcz
__Z11V_vsnprintfPciPKcS_
__Z13GCoroutineMgrv
__Z14V_vsnprintfRetPciPKcS_Pb
__Z15ConVar_RegisteriP23IConCommandBaseAccessor
__Z15CoroutineTestL1Pv
__Z15CoroutineTestL2Pv
__Z16Coroutine_Finishv
__Z16Coroutine_LaunchR10CCoroutine
__Z17ConVar_PrintFlagsPK14ConCommandBase
__Z17ConVar_Unregisterv
__Z17CoroutineTestFuncPv
__Z17UtlStringLessFuncRK10CUtlStringS1_
__Z18Sys_GetFactoryThisv
__Z21ConnectTier1LibrariesPPFPvPKcPiEi
__Z23ConVar_PrintDescriptionPK14ConCommandBase
__Z23CreateInterfaceInternalPKcPi
__Z24DisconnectTier1Librariesv
__Z27Internal_Coroutine_ContinueiPKcS0_
__Z6ConMsgPKcz
__Z6DevMsgPKcz
__Z6V_atofPKc
__Z9HashBlockPKvj
__Z9V_stricmpPKcS0_
__Z9V_stristrPKcS0_
__Z9V_strncpyPcPKci
__ZGVZN11CThreadPool11GetDummyJobEvE8dummyJob
__ZGVZN14ThreadPoolTest17TestForcedExecuteEvE4jobs
__ZGVZN5CCvar7FindVarEPKcE8_counter
__ZGVZNK5CCvar7FindVarEPKcE8_counter
__ZL11s_nCVarFlag
__ZL11vec2_origin
__ZL11vec2_origin
__ZL11vec2_origin
__ZL11vec2_origin
__ZL11vec2_origin
__ZL11vec2_origin
__ZL11vec2_origin
__ZL11vec2_origin
__ZL11vec2_origin
__ZL11vec2_origin
__ZL11vec2_origin
__ZL12s_bConnected
__ZL12s_pCVarQuery
__ZL12vec2_invalid
__ZL12vec2_invalid
__ZL12vec2_invalid
__ZL12vec2_invalid
__ZL12vec2_invalid
__ZL12vec2_invalid
__ZL12vec2_invalid
__ZL12vec2_invalid
__ZL12vec2_invalid
__ZL12vec2_invalid
__ZL12vec2_invalid
__ZL13s_EmptyConVar
__ZL13s_bRegistered
__ZL15g_nRandomValues
__ZL15s_UniformStream
__ZL16s_GaussianStream
__ZL16s_nDLLIdentifier
__ZL16s_pUniformStream
__ZL17g_KeyValuesSystem
__ZL17s_DefaultAccessor
__ZL18s_DefaultCvarQuery
__ZL19g_BitWriteMasksInit
__ZL20g_CleanupSymbolTable
__ZL24__g_CreateCCvarICvar_reg
__ZL28__CreateCCvarICvar_interfacev
__ZL35s_pConversionArrays_NoEscConversion
__ZL40s_pConversionArrays_StringCharConversion
__ZL6s_Cvar
__ZL9g_KVMutex
__ZN10CJobThread3RunEv
__ZN10CJobThreadC2EP11CThreadPooli
__ZN10CJobThreadD0Ev
__ZN10CJobThreadD1Ev
__ZN10CUtlBuffer11GetOverflowEi
__ZN10CUtlBuffer11PutOverflowEi
__ZN10CUtlBuffer13EatWhiteSpaceEv
__ZN10CUtlBuffer14PeekWhiteSpaceEi
__ZN10CUtlBuffer16PeekStringLengthEv
__ZN10CUtlBuffer17GetStringInternalEPcm
__ZN10CUtlBuffer18AddNullTerminationEv
__ZN10CUtlBuffer21CheckArbitraryPeekGetEiRi
__ZN10CUtlBuffer3PutEPKvi
__ZN10CUtlBuffer5ScanfEPKcz
__ZN10CUtlBuffer6PrintfEPKcz
__ZN10CUtlBuffer7VaScanfEPKcPc
__ZN10CUtlBuffer8CheckGetEi
__ZN10CUtlBuffer8CheckPutEi
__ZN10CUtlBuffer9PutStringEPKc
__ZN10CUtlBufferC1Eiii
__ZN10CUtlBufferC2Eiii
__ZN10CUtlMemoryI15UtlRBTreeNode_tIN7CUtlMapI10CUtlStringP9KeyValuestPFbRKS2_S6_EE6Node_tEtEtE4GrowEi
__ZN10CUtlRBTreeIN10CVCoverage10Location_tEtNS0_13CLocationLessE10CUtlMemoryI15UtlRBTreeNode_tIS1_tEtEE5PurgeEv
__ZN10CUtlRBTreeIN10CVCoverage10Location_tEtNS0_13CLocationLessE10CUtlMemoryI15UtlRBTreeNode_tIS1_tEtEED2Ev
__ZN10CUtlRBTreeIN15CUtlSymbolTable16CStringPoolIndexEtNS0_5CLessE10CUtlMemoryI15UtlRBTreeNode_tIS1_tEtEE5PurgeEv
__ZN10CUtlRBTreeIN15CUtlSymbolTable16CStringPoolIndexEtNS0_5CLessE10CUtlMemoryI15UtlRBTreeNode_tIS1_tEtEED2Ev
__ZN10CUtlRBTreeIN16CKeyValuesSystem19MemoryLeakTracker_tEiPFbRKS1_S3_E10CUtlMemoryI15UtlRBTreeNode_tIS1_iEiEED2Ev
__ZN10CUtlRBTreeIN7CUtlMapI10CUtlStringP9KeyValuestPFbRKS1_S5_EE6Node_tEtNS8_8CKeyLessE10CUtlMemoryI15UtlRBTreeNode_tIS9_tEtEE10RotateLeftEt
__ZN10CUtlRBTreeIN7CUtlMapI10CUtlStringP9KeyValuestPFbRKS1_S5_EE6Node_tEtNS8_8CKeyLessE10CUtlMemoryI15UtlRBTreeNode_tIS9_tEtEE11RotateRightEt
__ZN10CUtlRBTreeIN7CUtlMapI10CUtlStringP9KeyValuestPFbRKS1_S5_EE6Node_tEtNS8_8CKeyLessE10CUtlMemoryI15UtlRBTreeNode_tIS9_tEtEE15InsertRebalanceEt
__ZN10CUtlRBTreeIN7CUtlMapI10CUtlStringP9KeyValuestPFbRKS1_S5_EE6Node_tEtNS8_8CKeyLessE10CUtlMemoryI15UtlRBTreeNode_tIS9_tEtEE15RemoveRebalanceEt
__ZN10CUtlRBTreeIN7CUtlMapI10CUtlStringP9KeyValuestPFbRKS1_S5_EE6Node_tEtNS8_8CKeyLessE10CUtlMemoryI15UtlRBTreeNode_tIS9_tEtEE6InsertERKS9_
__ZN10CUtlRBTreeIN7CUtlMapI10CUtlStringP9KeyValuestPFbRKS1_S5_EE6Node_tEtNS8_8CKeyLessE10CUtlMemoryI15UtlRBTreeNode_tIS9_tEtEE6UnlinkEt
__ZN10CUtlRBTreeIN7CUtlMapI10CUtlStringP9KeyValuestPFbRKS1_S5_EE6Node_tEtNS8_8CKeyLessE10CUtlMemoryI15UtlRBTreeNode_tIS9_tEtEE7NewNodeEv
__ZN10CUtlRBTreeIN7CUtlMapI10CUtlStringP9KeyValuestPFbRKS1_S5_EE6Node_tEtNS8_8CKeyLessE10CUtlMemoryI15UtlRBTreeNode_tIS9_tEtEE9RemoveAllEv
__ZN10CUtlRBTreeIN7CUtlMapI10CUtlStringP9KeyValuestPFbRKS1_S5_EE6Node_tEtNS8_8CKeyLessE10CUtlMemoryI15UtlRBTreeNode_tIS9_tEtEED2Ev
__ZN10CUtlString3SetEPKc
__ZN10CUtlString5PurgeEv
__ZN10CUtlStringaSEPKc
__ZN10CUtlStringaSERKS_
__ZN10CUtlSymbol14s_pSymbolTableE
__ZN10CUtlVectorI10CUtlString10CUtlMemoryIS0_iEE12InsertBeforeEiRKS0_
__ZN10CUtlVectorIN16CKeyValuesSystem11hash_item_tE10CUtlMemoryIS1_iEE20InsertMultipleBeforeEii
__ZN10CUtlVectorIN16CKeyValuesSystem11hash_item_tE10CUtlMemoryIS1_iEED2Ev
__ZN10CUtlVectorIN5CCvar17QueuedConVarSet_tE10CUtlMemoryIS1_iEE9AddToTailEv
__ZN10CUtlVectorIN5CCvar17QueuedConVarSet_tE10CUtlMemoryIS1_iEED2Ev
__ZN10CUtlVectorIP10CJobThread10CUtlMemoryIS1_iEED2Ev
__ZN10CUtlVectorIP10CVProfNode10CUtlMemoryIS1_iEED2Ev
__ZN10CUtlVectorIP12CThreadEvent10CUtlMemoryIS1_iEED2Ev
__ZN10CUtlVectorIP13CCoroutineMgr10CUtlMemoryIS1_iEED1Ev
__ZN10CUtlVectorIP13CCoroutineMgr10CUtlMemoryIS1_iEED2Ev
__ZN10CUtlVectorIP19IConsoleDisplayFunc10CUtlMemoryIS1_iEED2Ev
__ZN10CUtlVectorIP4CJob10CUtlMemoryIS1_iEE9AddToTailERKS1_
__ZN10CUtlVectorIP4CJob10CUtlMemoryIS1_iEED2Ev
__ZN10CUtlVectorIPFvP7IConVarPKcfE10CUtlMemoryIS5_iEED2Ev
__ZN10CUtlVectorIPN15CUtlSymbolTable12StringPool_tE10CUtlMemoryIS2_iEED2Ev
__ZN10CUtlVectorIi10CUtlMemoryIiiEE9AddToTailERKi
__ZN10CUtlVectorIi10CUtlMemoryIiiEED2Ev
__ZN10CVCoverageD1Ev
__ZN10CVProfNode10EnterScopeEv
__ZN10CVProfNode10GetSubNodeEPKciS1_i
__ZN10CVProfNode9ExitScopeEv
__ZN10ConCommand15CanAutoCompleteEv
__ZN10ConCommand19AutoCompleteSuggestEPKcR10CUtlVectorI10CUtlString10CUtlMemoryIS3_iEE
__ZN10ConCommand8DispatchERK8CCommand
__ZN10ConCommandC2EPKcP16ICommandCallbackS1_iP26ICommandCompletionCallback
__ZN10ConCommandD0Ev
__ZN10ConCommandD1Ev
__ZN10ConCommandD2Ev
__ZN11CFunctorJob8DescribeEv
__ZN11CFunctorJob9DoExecuteEv
__ZN11CFunctorJobC2EP8CFunctorPKc
__ZN11CFunctorJobD0Ev
__ZN11CFunctorJobD1Ev
__ZN11CThreadPool10DistributeEbPi
__ZN11CThreadPool10NumThreadsEv
__ZN11CThreadPool11GetDummyJobEv
__ZN11CThreadPool11GetJobCountEv
__ZN11CThreadPool14ChangePriorityEP4CJob13JobPriority_t
__ZN11CThreadPool14NumIdleThreadsEv
__ZN11CThreadPool15ResumeExecutionEv
__ZN11CThreadPool16SuspendExecutionEv
__ZN11CThreadPool17ExecuteToPriorityE13JobPriority_tPFbP4CJobE
__ZN11CThreadPool18AddFunctorInternalEP8CFunctorPP4CJobPKcj
__ZN11CThreadPool26ExecuteHighPriorityFunctorEP8CFunctor
__ZN11CThreadPool4StopEi
__ZN11CThreadPool5StartERK23ThreadPoolStartParams_t
__ZN11CThreadPool5StartERK23ThreadPoolStartParams_tPKc
__ZN11CThreadPool5YieldEj
__ZN11CThreadPool6AddJobEP4CJob
__ZN11CThreadPool8AbortAllEv
__ZN11CThreadPool9Reserved1Ev
__ZN11CThreadPool9YieldWaitEPP12CThreadEventibj
__ZN11CThreadPool9YieldWaitEPP4CJobibj
__ZN11CThreadPoolC2Ev
__ZN11CThreadPoolD0Ev
__ZN11CThreadPoolD1Ev
__ZN11CThreadPoolD2Ev
__ZN11IThreadPool10AddFunctorEP8CFunctorPP4CJobPKcj
__ZN12CEmptyConVar8SetValueEPKc
__ZN12CEmptyConVar8SetValueEf
__ZN12CEmptyConVar8SetValueEi
__ZN12CEmptyConVarD0Ev
__ZN12CEmptyConVarD1Ev
__ZN12CMemoryStack4InitEjjjj
__ZN12CMemoryStack8CommitToEPh
__ZN12CMemoryStackC1Ev
__ZN12CMemoryStackD1Ev
__ZN12CRefCounted1I11IRefCounted20CRefCountServiceBaseILb1E6CRefMTEE6AddRefEv
__ZN12CRefCounted1I11IRefCounted20CRefCountServiceBaseILb1E6CRefMTEE7ReleaseEv
__ZN12CRefCounted1I11IThreadPool20CRefCountServiceBaseILb1E6CRefMTEE6AddRefEv
__ZN12CRefCounted1I11IThreadPool20CRefCountServiceBaseILb1E6CRefMTEE7ReleaseEv
__ZN12CThreadEvent3SetEv
__ZN12CThreadEvent4WaitEj
__ZN12CThreadEvent5CheckEv
__ZN12CThreadEvent5ResetEv
__ZN12CThreadEventC1Eb
__ZN12CThreadEventC2Eb
__ZN12CThreadEventD1Ev
__ZN12CThreadMutex7TryLockEv
__ZN12CThreadMutexD1Ev
__ZN12InterfaceReg16s_pInterfaceRegsE
__ZN12InterfaceRegC1EPFPvvEPKc
__ZN13CCoroutineMgrC2Ev
__ZN13CWorkerThread10CallWorkerEjjbP8CFunctor
__ZN13CWorkerThread12WaitForReplyEj
__ZN13CWorkerThread13GetCallHandleEv
__ZN13CWorkerThread5ReplyEj
__ZN13CWorkerThread8PeekCallEPjPP8CFunctor
__ZN13CWorkerThreadC2Ev
__ZN13CWorkerThreadD0Ev
__ZN13CWorkerThreadD1Ev
__ZN14CBaseAppSystemI10ICvarQueryE10DisconnectEv
__ZN14CBaseAppSystemI10ICvarQueryE4InitEv
__ZN14CBaseAppSystemI10ICvarQueryE7ConnectEPFPvPKcPiE
__ZN14CBaseAppSystemI10ICvarQueryE8ShutdownEv
__ZN14CUtlLinkedListI10CCoroutineiLb0Ei10CUtlMemoryI19UtlLinkedListElem_tIS0_iEiEE13AllocInternalEb
__ZN14CUtlLinkedListI10CCoroutineiLb0Ei10CUtlMemoryI19UtlLinkedListElem_tIS0_iEiEE4FreeEi
__ZN14CUtlLinkedListI10CCoroutineiLb0Ei10CUtlMemoryI19UtlLinkedListElem_tIS0_iEiEE9AddToTailEv
__ZN14CUtlLinkedListI10CCoroutineiLb0Ei10CUtlMemoryI19UtlLinkedListElem_tIS0_iEiEE9RemoveAllEv
__ZN14CUtlMemoryPool10AddNewBlobEv
__ZN14CUtlMemoryPool12g_ReportFuncE
__ZN14CUtlMemoryPool5AllocEm
__ZN14CUtlMemoryPoolC1EiiiPKci
__ZN14CUtlMemoryPoolD1Ev
__ZN14ConCommandBase10CreateBaseEPKcS1_i
__ZN14ConCommandBase11s_pAccessorE
__ZN14ConCommandBase18s_pConCommandBasesE
__ZN14ConCommandBase4InitEv
__ZN14ConCommandBase7GetNextEv
__ZN14ConCommandBase8AddFlagsEi
__ZN14ConCommandBase8ShutdownEv
__ZN14ThreadPoolTest14g_bOutputErrorE
__ZN14ThreadPoolTest15CExecuteTestJob9DoExecuteEv
__ZN14ThreadPoolTest15CExecuteTestJobD0Ev
__ZN14ThreadPoolTest15CExecuteTestJobD1Ev
__ZN14ThreadPoolTest16g_ReadyToExecuteE
__ZN14ThreadPoolTest16g_nTotalAtFinishE
__ZN14ThreadPoolTest17TestForcedExecuteEv
__ZN14ThreadPoolTest17g_pTestThreadPoolE
__ZN14ThreadPoolTest18g_nTotalToCompleteE
__ZN14ThreadPoolTest22CExecuteTestExecuteJob9DoExecuteEv
__ZN14ThreadPoolTest22CExecuteTestExecuteJobD0Ev
__ZN14ThreadPoolTest22CExecuteTestExecuteJobD1Ev
__ZN14ThreadPoolTest4TestEbbbb
__ZN14ThreadPoolTest6g_doneE
__ZN14ThreadPoolTest8g_iSleepE
__ZN14ThreadPoolTest8g_nReadyE
__ZN14ThreadPoolTest9CCountJob8m_nCountE
__ZN14ThreadPoolTest9CCountJob9DoExecuteEv
__ZN14ThreadPoolTest9CCountJobD0Ev
__ZN14ThreadPoolTest9CCountJobD1Ev
__ZN15CThreadLocalPtrI13CCoroutineMgrED1Ev
__ZN15CUtlSymbolTableD2Ev
__ZN16CDefaultAccessor22RegisterConCommandBaseEP14ConCommandBase
__ZN16CKeyValuesSystem15InvalidateCacheEv
__ZN16CKeyValuesSystem17DoInvalidateCacheEv
__ZN16CKeyValuesSystem18GetStringForSymbolEi
__ZN16CKeyValuesSystem18GetSymbolForStringEPKcb
__ZN16CKeyValuesSystem19FreeKeyValuesMemoryEPv
__ZN16CKeyValuesSystem20AllocKeyValuesMemoryEi
__ZN16CKeyValuesSystem22InvalidateCacheForFileEPKcS1_
__ZN16CKeyValuesSystem23AddFileKeyValuesToCacheEPK9KeyValuesPKcS4_
__ZN16CKeyValuesSystem23RegisterSizeofKeyValuesEi
__ZN16CKeyValuesSystem25MemoryLeakTrackerLessFuncERKNS_19MemoryLeakTracker_tES2_
__ZN16CKeyValuesSystem28AddKeyValuesToMemoryLeakListEPvi
__ZN16CKeyValuesSystem33RemoveKeyValuesFromMemoryLeakListEPv
__ZN16CKeyValuesSystemC2Ev
__ZN16CKeyValuesSystemD1Ev
__ZN16CKeyValuesSystemD2Ev
__ZN16CThreadLocalBase3SetEPv
__ZN16CThreadLocalBaseC2Ev
__ZN16CThreadLocalBaseD2Ev
__ZN17CDefaultCvarQuery14QueryInterfaceEPKc
__ZN17CDefaultCvarQuery18AreConVarsLinkableEPK6ConVarS2_
__ZN17CGlobalThreadPool14OnFinalReleaseEv
__ZN17CGlobalThreadPool5StartERK23ThreadPoolStartParams_t
__ZN17CGlobalThreadPoolD0Ev
__ZN17CGlobalThreadPoolD1Ev
__ZN17CThreadSyncObjectD2Ev
__ZN18CBitWriteMasksInitC2Ev
__ZN18CUtlCharConversion14FindConversionEPKcPi
__ZN19CUtlNoEscConversion14FindConversionEPKcPi
__ZN20CRefCountServiceBaseILb1E6CRefMTE14OnFinalReleaseEv
__ZN20CUniformRandomStream11RandomFloatEff
__ZN20CUniformRandomStream14RandomFloatExpEfff
__ZN20CUniformRandomStream20GenerateRandomNumberEv
__ZN20CUniformRandomStream7SetSeedEi
__ZN20CUniformRandomStream9RandomIntEii
__ZN20CUniformRandomStreamC1Ev
__ZN20CUniformRandomStreamC2Ev
__ZN21CGaussianRandomStream11RandomFloatEff
__ZN21CGaussianRandomStream14AttachToStreamEP20IUniformRandomStream
__ZN21CGaussianRandomStreamC1EP20IUniformRandomStream
__ZN21CGaussianRandomStreamC2EP20IUniformRandomStream
__ZN21CUtlCStringConversion14FindConversionEPKcPi
__ZN21CUtlCStringConversionC2EcPKciPN18CUtlCharConversion17ConversionArray_tE
__ZN22CCleanupUtlSymbolTableD1Ev
__ZN25CConCommandMemberAccessorI5CCvarE15CommandCallbackERK8CCommand
__ZN25CConCommandMemberAccessorI5CCvarE25CommandCompletionCallbackEPKcR10CUtlVectorI10CUtlString10CUtlMemoryIS5_iEE
__ZN25CConCommandMemberAccessorI5CCvarED0Ev
__ZN25CConCommandMemberAccessorI5CCvarED1Ev
__ZN4CJob14SetDescriptionEPKc
__ZN4CJob7DoAbortEb
__ZN4CJob8DescribeEv
__ZN4CJob9DoCleanupEv
__ZN4CJobC2E13JobPriority_t
__ZN4CJobD0Ev
__ZN4CJobD1Ev
__ZN5CCvar10DisconnectEv
__ZN5CCvar11FindCommandEPKc
__ZN5CCvar11GetCommandsEv
__ZN5CCvar14QueryInterfaceEPKc
__ZN5CCvar15FindCommandBaseEPKc
__ZN5CCvar16InstallCVarQueryEP10ICvarQuery
__ZN5CCvar18RegisterConCommandEP14ConCommandBase
__ZN5CCvar19GetCommandLineValueEPKc
__ZN5CCvar20RevertFlaggedConVarsEi
__ZN5CCvar20UnregisterConCommandEP14ConCommandBase
__ZN5CCvar21AllocateDLLIdentifierEv
__ZN5CCvar21CCVarIteratorInternal3GetEv
__ZN5CCvar21CCVarIteratorInternal4NextEv
__ZN5CCvar21CCVarIteratorInternal7IsValidEv
__ZN5CCvar21CCVarIteratorInternal8SetFirstEv
__ZN5CCvar21CCVarIteratorInternalD0Ev
__ZN5CCvar21CCVarIteratorInternalD1Ev
__ZN5CCvar21DisplayQueuedMessagesEv
__ZN5CCvar21UnregisterConCommandsEi
__ZN5CCvar23FactoryInternalIteratorEv
__ZN5CCvar24RemoveConsoleDisplayFuncEP19IConsoleDisplayFunc
__ZN5CCvar25CallGlobalChangeCallbacksEP6ConVarPKcf
__ZN5CCvar25InstallConsoleDisplayFuncEP19IConsoleDisplayFunc
__ZN5CCvar26RemoveGlobalChangeCallbackEPFvP7IConVarPKcfE
__ZN5CCvar27InstallGlobalChangeCallbackEPFvP7IConVarPKcfE
__ZN5CCvar27QueueMaterialThreadSetValueEP6ConVarPKc
__ZN5CCvar27QueueMaterialThreadSetValueEP6ConVarf
__ZN5CCvar27QueueMaterialThreadSetValueEP6ConVari
__ZN5CCvar37ProcessQueuedMaterialThreadConVarSetsEv
__ZN5CCvar4FindERK8CCommand
__ZN5CCvar4InitEv
__ZN5CCvar7ConnectEPFPvPKcPiE
__ZN5CCvar7FindVarEPKc
__ZN5CCvar8ShutdownEv
__ZN5CCvarC2Ev
__ZN5CCvarD1Ev
__ZN6ConVar10ClampValueERf
__ZN6ConVar16InternalSetValueEPKc
__ZN6ConVar17ChangeStringValueEPKcf
__ZN6ConVar19InternalSetIntValueEi
__ZN6ConVar21InternalSetFloatValueEfb
__ZN6ConVar4InitEv
__ZN6ConVar6CreateEPKcS1_iS1_bfbfbfbfPFvP7IConVarS1_fE
__ZN6ConVar6RevertEv
__ZN6ConVar8AddFlagsEi
__ZN6ConVar8SetValueEPKc
__ZN6ConVar8SetValueEf
__ZN6ConVar8SetValueEi
__ZN6ConVarC1EPKcS1_iS1_
__ZN6ConVarD0Ev
__ZN6ConVarD1Ev
__ZN7CThread13GetThreadProcEv
__ZN7CThread15IsThreadRunningEv
__ZN7CThread17ResumeCooperativeEv
__ZN7CThread18SuspendCooperativeEv
__ZN7CThread32BWaitForThreadSuspendCooperativeEv
__ZN7CThread4InitEv
__ZN7CThread5StartEj
__ZN7CThread6OnExitEv
__ZN7CThread7IsAliveEv
__ZN7CThread7SetNameEPKc
__ZN7CThreadD2Ev
__ZN7CUtlMapI10CUtlStringP9KeyValuestPFbRKS0_S4_EE6InsertES4_RKS2_
__ZN8CFmtStrNILi256ELb0EE19InitQuietTruncationEv
__ZN8CFmtStrNILi256ELb0EEC1EPKcz
__ZN8CTSQueueIP4CJobLb0EE3PopEv
__ZN8CTSQueueIP4CJobLb0EE4PushEPNS2_6Node_tE
__ZN8CTSQueueIP4CJobLb0EE5PurgeEv
__ZN8CTSQueueIP4CJobLb0EE7PopItemEPS1_
__ZN8CTSQueueIP4CJobLb0EE8PushItemERKS1_
__ZN8CTSQueueIP4CJobLb0EEC2Ev
__ZN8CTSQueueIP4CJobLb0EED2Ev
__ZN9CJobQueue3PopEPP4CJob
__ZN9CJobQueue4PushEP4CJobi
__ZN9CJobQueue5FlushEv
__ZN9CJobQueueC2Ev
__ZN9CJobQueueD2Ev
__ZN9CUtlQueueIZN9KeyValues26CopyKeyValuesFromRecursiveERKS0_E10CopyStruct10CUtlMemoryIS3_iEE6InsertERKS3_
__ZN9CVProfile19FindOrCreateCounterEPKc14CounterGroup_t
__ZN9KeyValues10deleteThisEv
__ZN9KeyValues12CopyKeyValueERKS_mPc
__ZN9KeyValues16RemoveEverythingEv
__ZN9KeyValues22s_pfGetStringForSymbolE
__ZN9KeyValues22s_pfGetSymbolForStringE
__ZN9KeyValues25GetStringForSymbolClassicEi
__ZN9KeyValues25GetSymbolForStringClassicEPKcb
__ZN9KeyValues26CopyKeyValuesFromRecursiveERKS_
__ZN9KeyValuesaSERKS_
__ZNK10CUtlString3GetEv
__ZNK10ConCommand9IsCommandEv
__ZNK12CEmptyConVar7GetNameEv
__ZNK12CEmptyConVar9IsFlagSetEi
__ZNK13CWorkerThread12GetCallParamEPP8CFunctor
__ZNK14ConCommandBase11GetHelpTextEv
__ZNK14ConCommandBase12IsRegisteredEv
__ZNK14ConCommandBase16GetDLLIdentifierEv
__ZNK14ConCommandBase7GetNameEv
__ZNK14ConCommandBase7GetNextEv
__ZNK14ConCommandBase9IsFlagSetEi
__ZNK16CKeyValuesSystem26LoadFileKeyValuesFromCacheEP9KeyValuesPKcS3_P15IBaseFileSystem
__ZNK16CThreadLocalBase3GetEv
__ZNK5CCvar11FindCommandEPKc
__ZNK5CCvar11GetCommandsEv
__ZNK5CCvar13ConsolePrintfEPKcz
__ZNK5CCvar14ConsoleDPrintfEPKcz
__ZNK5CCvar15FindCommandBaseEPKc
__ZNK5CCvar18ConsoleColorPrintfERK5ColorPKcz
__ZNK5CCvar26IsMaterialThreadSetAllowedEv
__ZNK5CCvar33HasQueuedMaterialThreadConVarSetsEv
__ZNK5CCvar7FindVarEPKc
__ZNK6ConVar10GetDefaultEv
__ZNK6ConVar11GetHelpTextEv
__ZNK6ConVar12IsRegisteredEv
__ZNK6ConVar7GetNameEv
__ZNK6ConVar9IsCommandEv
__ZNK6ConVar9IsFlagSetEi
__ZNK7CUtlMapI10CUtlStringP9KeyValuestPFbRKS0_S4_EE4FindES4_
__ZNK9KeyValues8MakeCopyEb
__ZNK9KeyValues8MakeCopyEv
__ZNKSt3__16locale9use_facetERNS0_2idE
__ZNSt3__113basic_filebufIcNS_11char_traitsIcEEE4syncEv
__ZNSt3__113basic_filebufIcNS_11char_traitsIcEEE5imbueERKNS_6localeE
__ZNSt3__113basic_filebufIcNS_11char_traitsIcEEE6setbufEPci
__ZNSt3__113basic_filebufIcNS_11char_traitsIcEEE7seekoffExNS_8ios_base7seekdirEj
__ZNSt3__113basic_filebufIcNS_11char_traitsIcEEE7seekposENS_4fposI11__mbstate_tEEj
__ZNSt3__113basic_filebufIcNS_11char_traitsIcEEE8overflowEi
__ZNSt3__113basic_filebufIcNS_11char_traitsIcEEE9pbackfailEi
__ZNSt3__113basic_filebufIcNS_11char_traitsIcEEE9underflowEv
__ZNSt3__113basic_filebufIcNS_11char_traitsIcEEED0Ev
__ZNSt3__113basic_filebufIcNS_11char_traitsIcEEED1Ev
__ZNSt3__113basic_filebufIcNS_11char_traitsIcEEED2Ev
__ZNSt3__113basic_istreamIcNS_11char_traitsIcEEED0Ev
__ZNSt3__113basic_istreamIcNS_11char_traitsIcEEED1Ev
__ZNSt3__113basic_istreamIcNS_11char_traitsIcEEED2Ev
__ZNSt3__114basic_ifstreamIcNS_11char_traitsIcEEED0Ev
__ZNSt3__114basic_ifstreamIcNS_11char_traitsIcEEED1Ev
__ZNSt3__115basic_streambufIcNS_11char_traitsIcEEE5uflowEv
__ZNSt3__115basic_streambufIcNS_11char_traitsIcEEE6xsgetnEPci
__ZNSt3__115basic_streambufIcNS_11char_traitsIcEEE6xsputnEPKci
__ZNSt3__115basic_streambufIcNS_11char_traitsIcEEE9showmanycEv
__ZNSt3__115basic_streambufIcNS_11char_traitsIcEEED2Ev
__ZNSt3__17codecvtIcc11__mbstate_tE2idE
__ZNSt3__19basic_iosIcNS_11char_traitsIcEEED2Ev
__ZNSt8bad_castC1Ev
__ZNSt8bad_castD1Ev
__ZNV16CThreadFastMutex4LockEjj
__ZSt9terminatev
__ZTCNSt3__114basic_ifstreamIcNS_11char_traitsIcEEEE0_NS_13basic_istreamIcS2_EE
__ZTI10CJobThread
__ZTI10ConCommand
__ZTI10IAppSystem
__ZTI10ICvarQuery
__ZTI11CFunctorJob
__ZTI11CThreadPool
__ZTI11IRefCounted
__ZTI11IThreadPool
__ZTI12CEmptyConVar
__ZTI12CRefCounted1I11IRefCounted20CRefCountServiceBaseILb1E6CRefMTEE
__ZTI12CRefCounted1I11IThreadPool20CRefCountServiceBaseILb1E6CRefMTEE
__ZTI13CWorkerThread
__ZTI14CBaseAppSystemI10ICvarQueryE
__ZTI14ConCommandBase
__ZTI16CDefaultAccessor
__ZTI16CKeyValuesSystem
__ZTI16ICommandCallback
__ZTI16IKeyValuesSystem
__ZTI17CDefaultCvarQuery
__ZTI17CGlobalThreadPool
__ZTI18CUtlCharConversion
__ZTI19CUtlNoEscConversion
__ZTI20CRefCountServiceBaseILb1E6CRefMTE
__ZTI20CUniformRandomStream
__ZTI20ConVar_ServerBounded
__ZTI20IUniformRandomStream
__ZTI21CUtlCStringConversion
__ZTI23IConCommandBaseAccessor
__ZTI25CConCommandMemberAccessorI5CCvarE
__ZTI26ICommandCompletionCallback
__ZTI4CJob
__ZTI5CCvar
__ZTI5ICvar
__ZTI6ConVar
__ZTI7CThread
__ZTI7IConVar
__ZTI8CFmtStrNILi256ELb0EE
__ZTIN14ThreadPoolTest15CExecuteTestJobE
__ZTIN14ThreadPoolTest22CExecuteTestExecuteJobE
__ZTIN14ThreadPoolTest9CCountJobE
__ZTIN5CCvar21CCVarIteratorInternalE
__ZTIN5ICvar21ICVarIteratorInternalE
__ZTINSt3__113basic_filebufIcNS_11char_traitsIcEEEE
__ZTINSt3__113basic_istreamIcNS_11char_traitsIcEEEE
__ZTINSt3__114basic_ifstreamIcNS_11char_traitsIcEEEE
__ZTINSt3__115basic_streambufIcNS_11char_traitsIcEEEE
__ZTISt8bad_cast
__ZTISt9bad_alloc
__ZTIZN11CThreadPool11GetDummyJobEvE9CDummyJob
__ZTS10CJobThread
__ZTS10ConCommand
__ZTS10IAppSystem
__ZTS10ICvarQuery
__ZTS11CFunctorJob
__ZTS11CThreadPool
__ZTS11IRefCounted
__ZTS11IThreadPool
__ZTS12CEmptyConVar
__ZTS12CRefCounted1I11IRefCounted20CRefCountServiceBaseILb1E6CRefMTEE
__ZTS12CRefCounted1I11IThreadPool20CRefCountServiceBaseILb1E6CRefMTEE
__ZTS13CWorkerThread
__ZTS14CBaseAppSystemI10ICvarQueryE
__ZTS14ConCommandBase
__ZTS16CDefaultAccessor
__ZTS16CKeyValuesSystem
__ZTS16ICommandCallback
__ZTS16IKeyValuesSystem
__ZTS17CDefaultCvarQuery
__ZTS17CGlobalThreadPool
__ZTS18CUtlCharConversion
__ZTS19CUtlNoEscConversion
__ZTS20CRefCountServiceBaseILb1E6CRefMTE
__ZTS20CUniformRandomStream
__ZTS20ConVar_ServerBounded
__ZTS20IUniformRandomStream
__ZTS21CUtlCStringConversion
__ZTS23IConCommandBaseAccessor
__ZTS25CConCommandMemberAccessorI5CCvarE
__ZTS26ICommandCompletionCallback
__ZTS4CJob
__ZTS5CCvar
__ZTS5ICvar
__ZTS6ConVar
__ZTS7IConVar
__ZTS8CFmtStrNILi256ELb0EE
__ZTSN14ThreadPoolTest15CExecuteTestJobE
__ZTSN14ThreadPoolTest22CExecuteTestExecuteJobE
__ZTSN14ThreadPoolTest9CCountJobE
__ZTSN5CCvar21CCVarIteratorInternalE
__ZTSN5ICvar21ICVarIteratorInternalE
__ZTSNSt3__113basic_filebufIcNS_11char_traitsIcEEEE
__ZTSNSt3__114basic_ifstreamIcNS_11char_traitsIcEEEE
__ZTSZN11CThreadPool11GetDummyJobEvE9CDummyJob
__ZTTNSt3__114basic_ifstreamIcNS_11char_traitsIcEEEE
__ZTV10CJobThread
__ZTV10ConCommand
__ZTV11CFunctorJob
__ZTV11CThreadPool
__ZTV12CEmptyConVar
__ZTV13CWorkerThread
__ZTV16CDefaultAccessor
__ZTV16CKeyValuesSystem
__ZTV17CDefaultCvarQuery
__ZTV17CGlobalThreadPool
__ZTV18CUtlCharConversion
__ZTV19CUtlNoEscConversion
__ZTV20CUniformRandomStream
__ZTV21CUtlCStringConversion
__ZTV25CConCommandMemberAccessorI5CCvarE
__ZTV4CJob
__ZTV5CCvar
__ZTV6ConVar
__ZTV8CFmtStrNILi256ELb0EE
__ZTVN10__cxxabiv117__class_type_infoE
__ZTVN10__cxxabiv120__si_class_type_infoE
__ZTVN10__cxxabiv121__vmi_class_type_infoE
__ZTVN14ThreadPoolTest15CExecuteTestJobE
__ZTVN14ThreadPoolTest22CExecuteTestExecuteJobE
__ZTVN14ThreadPoolTest9CCountJobE
__ZTVN5CCvar21CCVarIteratorInternalE
__ZTVNSt3__113basic_filebufIcNS_11char_traitsIcEEEE
__ZTVNSt3__114basic_ifstreamIcNS_11char_traitsIcEEEE
__ZTVZN11CThreadPool11GetDummyJobEvE9CDummyJob
__ZThn24_N12CEmptyConVar8SetValueEPKc
__ZThn24_N12CEmptyConVar8SetValueEf
__ZThn24_N12CEmptyConVar8SetValueEi
__ZThn24_N6ConVar8SetValueEPKc
__ZThn24_N6ConVar8SetValueEf
__ZThn24_N6ConVar8SetValueEi
__ZThn24_NK12CEmptyConVar7GetNameEv
__ZThn24_NK12CEmptyConVar9IsFlagSetEi
__ZThn24_NK6ConVar7GetNameEv
__ZThn24_NK6ConVar9IsFlagSetEi
__ZThn36_N25CConCommandMemberAccessorI5CCvarE15CommandCallbackERK8CCommand
__ZThn40_N25CConCommandMemberAccessorI5CCvarE25CommandCompletionCallbackEPKcR10CUtlVectorI10CUtlString10CUtlMemoryIS5_iEE
__ZThn4_N11CFunctorJobD0Ev
__ZThn4_N11CFunctorJobD1Ev
__ZThn4_N11CThreadPoolD0Ev
__ZThn4_N11CThreadPoolD1Ev
__ZThn4_N14ThreadPoolTest15CExecuteTestJobD0Ev
__ZThn4_N14ThreadPoolTest15CExecuteTestJobD1Ev
__ZThn4_N14ThreadPoolTest22CExecuteTestExecuteJobD0Ev
__ZThn4_N14ThreadPoolTest22CExecuteTestExecuteJobD1Ev
__ZThn4_N14ThreadPoolTest9CCountJobD0Ev
__ZThn4_N14ThreadPoolTest9CCountJobD1Ev
__ZThn4_N17CGlobalThreadPool14OnFinalReleaseEv
__ZThn4_N17CGlobalThreadPoolD0Ev
__ZThn4_N17CGlobalThreadPoolD1Ev
__ZThn4_N4CJobD0Ev
__ZThn4_N4CJobD1Ev
__ZThn4_ZN11CThreadPool11GetDummyJobEvEN9CDummyJobD0Ev
__ZThn4_ZN11CThreadPool11GetDummyJobEvEN9CDummyJobD1Ev
__ZTv0_n12_NSt3__113basic_istreamIcNS_11char_traitsIcEEED0Ev
__ZTv0_n12_NSt3__113basic_istreamIcNS_11char_traitsIcEEED1Ev
__ZTv0_n12_NSt3__114basic_ifstreamIcNS_11char_traitsIcEEED0Ev
__ZTv0_n12_NSt3__114basic_ifstreamIcNS_11char_traitsIcEEED1Ev
__ZZ15GetBitForBitnumiE13bitsForBitnum
__ZZ9GetOSTypeE10eOSVersion
__ZZN11CThreadPool11GetDummyJobEvE8dummyJob
__ZZN11CThreadPool11GetDummyJobEvEN9CDummyJob9DoExecuteEv
__ZZN11CThreadPool11GetDummyJobEvEN9CDummyJobD0Ev
__ZZN11CThreadPool11GetDummyJobEvEN9CDummyJobD1Ev
__ZZN11CThreadPool14ChangePriorityEP4CJob13JobPriority_tE14__executeCount
__ZZN11CThreadPool6AddJobEP4CJobE14__executeCount
__ZZN14ThreadPoolTest17TestForcedExecuteEvE4jobs
__ZZN5CCvar7FindVarEPKcE8_counter
__ZZN8CFmtStrNILi256ELb0EEC1EPKczE10scAsserted
__ZZNK5CCvar7FindVarEPKcE8_counter
__ZdaPv
__ZdlPv
__Znam
__Znwm
___bzero
___clang_call_terminate
___cxa_allocate_exception
___cxa_atexit
___cxa_begin_catch
___cxa_call_unexpected
___cxa_end_catch
___cxa_guard_abort
___cxa_guard_acquire
___cxa_guard_release
___cxa_pure_virtual
___cxa_throw
___cxx_global_array_dtor
___dynamic_cast
___gxx_personality_v0
___maskrune
___stack_chk_fail
___stack_chk_guard
_atof
_atoi
_cvar
_fclose
_fflush
_fread
_fseeko
_ftello
_fwrite$UNIX2003
_g_BitWriteMasks
_g_ClockSpeedMillisecondsMultiplier
_g_ExtraMasks
_g_KeyValuesErrorStack
_g_LittleBits
_g_ThreadLocalCoroutineMgr
_g_ThreadMutexCoroutineMgr
_g_ThreadPool
_g_VCoverage
_g_VProfCurrentProfile
_g_VecPCoroutineMgr
_g_pCVar
_g_pMemAlloc
_g_pProcessUtils
_g_pThreadPool
_log
_longjmp
_lzma_persistent_buffer
_memcpy
_memmove
_pclose
_popen$UNIX2003
_pow
_powf
_pthread_mutex_destroy
_pthread_mutex_init
_pthread_mutex_lock
_pthread_mutex_unlock
_pthread_mutexattr_init
_pthread_mutexattr_settype
_raise
_rand
_s_NoEscConversion
_s_StringCharConversion
_setjmp
_strcasecmp
_strchr
_strcmp
_strcpy
_strlen
_strncpy
_strtod$UNIX2003
_strtol
_strtoul
_vsnprintf
_wcslen
dyld_stub_binder
