GCC_except_table0
GCC_except_table0
GCC_except_table0
GCC_except_table0
GCC_except_table0
GCC_except_table0
GCC_except_table1
GCC_except_table1
GCC_except_table1
GCC_except_table10
GCC_except_table10
GCC_except_table100
GCC_except_table100
GCC_except_table100
GCC_except_table101
GCC_except_table104
GCC_except_table105
GCC_except_table105
GCC_except_table106
GCC_except_table106
GCC_except_table107
GCC_except_table107
GCC_except_table108
GCC_except_table109
GCC_except_table109
GCC_except_table11
GCC_except_table11
GCC_except_table11
GCC_except_table111
GCC_except_table111
GCC_except_table112
GCC_except_table113
GCC_except_table114
GCC_except_table115
GCC_except_table116
GCC_except_table117
GCC_except_table118
GCC_except_table118
GCC_except_table118
GCC_except_table119
GCC_except_table119
GCC_except_table119
GCC_except_table12
GCC_except_table120
GCC_except_table120
GCC_except_table123
GCC_except_table124
GCC_except_table125
GCC_except_table126
GCC_except_table128
GCC_except_table128
GCC_except_table129
GCC_except_table13
GCC_except_table13
GCC_except_table13
GCC_except_table13
GCC_except_table130
GCC_except_table131
GCC_except_table133
GCC_except_table135
GCC_except_table135
GCC_except_table137
GCC_except_table138
GCC_except_table138
GCC_except_table139
GCC_except_table14
GCC_except_table14
GCC_except_table14
GCC_except_table14
GCC_except_table14
GCC_except_table141
GCC_except_table142
GCC_except_table142
GCC_except_table143
GCC_except_table143
GCC_except_table144
GCC_except_table148
GCC_except_table148
GCC_except_table149
GCC_except_table15
GCC_except_table15
GCC_except_table152
GCC_except_table153
GCC_except_table154
GCC_except_table156
GCC_except_table158
GCC_except_table16
GCC_except_table160
GCC_except_table161
GCC_except_table164
GCC_except_table165
GCC_except_table166
GCC_except_table167
GCC_except_table168
GCC_except_table169
GCC_except_table17
GCC_except_table173
GCC_except_table173
GCC_except_table177
GCC_except_table18
GCC_except_table18
GCC_except_table18
GCC_except_table18
GCC_except_table180
GCC_except_table19
GCC_except_table19
GCC_except_table19
GCC_except_table197
GCC_except_table2
GCC_except_table2
GCC_except_table2
GCC_except_table2
GCC_except_table20
GCC_except_table20
GCC_except_table20
GCC_except_table201
GCC_except_table205
GCC_except_table205
GCC_except_table205
GCC_except_table205
GCC_except_table207
GCC_except_table208
GCC_except_table208
GCC_except_table212
GCC_except_table217
GCC_except_table23
GCC_except_table23
GCC_except_table24
GCC_except_table24
GCC_except_table24
GCC_except_table24
GCC_except_table25
GCC_except_table26
GCC_except_table27
GCC_except_table27
GCC_except_table28
GCC_except_table28
GCC_except_table280
GCC_except_table281
GCC_except_table287
GCC_except_table289
GCC_except_table29
GCC_except_table291
GCC_except_table292
GCC_except_table293
GCC_except_table294
GCC_except_table295
GCC_except_table296
GCC_except_table3
GCC_except_table3
GCC_except_table3
GCC_except_table3
GCC_except_table30
GCC_except_table30
GCC_except_table301
GCC_except_table302
GCC_except_table305
GCC_except_table306
GCC_except_table31
GCC_except_table312
GCC_except_table313
GCC_except_table315
GCC_except_table316
GCC_except_table317
GCC_except_table318
GCC_except_table319
GCC_except_table32
GCC_except_table320
GCC_except_table321
GCC_except_table323
GCC_except_table324
GCC_except_table326
GCC_except_table327
GCC_except_table328
GCC_except_table33
GCC_except_table330
GCC_except_table331
GCC_except_table332
GCC_except_table334
GCC_except_table335
GCC_except_table336
GCC_except_table337
GCC_except_table338
GCC_except_table339
GCC_except_table341
GCC_except_table342
GCC_except_table36
GCC_except_table36
GCC_except_table37
GCC_except_table37
GCC_except_table38
GCC_except_table39
GCC_except_table39
GCC_except_table39
GCC_except_table4
GCC_except_table4
GCC_except_table40
GCC_except_table41
GCC_except_table42
GCC_except_table43
GCC_except_table44
GCC_except_table44
GCC_except_table44
GCC_except_table45
GCC_except_table45
GCC_except_table45
GCC_except_table45
GCC_except_table46
GCC_except_table46
GCC_except_table47
GCC_except_table47
GCC_except_table47
GCC_except_table48
GCC_except_table49
GCC_except_table49
GCC_except_table5
GCC_except_table5
GCC_except_table5
GCC_except_table5
GCC_except_table5
GCC_except_table50
GCC_except_table50
GCC_except_table50
GCC_except_table50
GCC_except_table505
GCC_except_table505
GCC_except_table506
GCC_except_table507
GCC_except_table509
GCC_except_table51
GCC_except_table510
GCC_except_table57
GCC_except_table58
GCC_except_table59
GCC_except_table59
GCC_except_table6
GCC_except_table6
GCC_except_table6
GCC_except_table60
GCC_except_table60
GCC_except_table61
GCC_except_table61
GCC_except_table62
GCC_except_table62
GCC_except_table63
GCC_except_table63
GCC_except_table65
GCC_except_table65
GCC_except_table66
GCC_except_table66
GCC_except_table66
GCC_except_table66
GCC_except_table675
GCC_except_table676
GCC_except_table678
GCC_except_table679
GCC_except_table68
GCC_except_table68
GCC_except_table68
GCC_except_table69
GCC_except_table69
GCC_except_table69
GCC_except_table7
GCC_except_table7
GCC_except_table7
GCC_except_table7
GCC_except_table70
GCC_except_table70
GCC_except_table71
GCC_except_table71
GCC_except_table710
GCC_except_table716
GCC_except_table72
GCC_except_table73
GCC_except_table73
GCC_except_table74
GCC_except_table74
GCC_except_table75
GCC_except_table76
GCC_except_table79
GCC_except_table79
GCC_except_table8
GCC_except_table8
GCC_except_table8
GCC_except_table81
GCC_except_table82
GCC_except_table83
GCC_except_table83
GCC_except_table84
GCC_except_table84
GCC_except_table85
GCC_except_table85
GCC_except_table86
GCC_except_table86
GCC_except_table87
GCC_except_table88
GCC_except_table89
GCC_except_table89
GCC_except_table9
GCC_except_table9
GCC_except_table9
GCC_except_table9
GCC_except_table9
GCC_except_table90
GCC_except_table90
GCC_except_table90
GCC_except_table91
GCC_except_table94
GCC_except_table94
GCC_except_table94
GCC_except_table95
GCC_except_table96
GCC_except_table96
GCC_except_table97
GCC_except_table97
GCC_except_table98
GCC_except_table98
GCC_except_table98
_.memset_pattern
_.memset_pattern
_.memset_pattern17
_COM_TimestampedLog
_CallAssertFailedNotifyFunc
_ColorSpewMessage
_CommandLine_Tier0
_CreateInterface
_CreateSimpleThread
_CreateThreadPool
_DevMsg
_DevWarning
_DoNewAssertDialog
_Error
_GetCPUInformation
_GetMemoryInformation
_GetSpewOutputColor
_GetSpewOutputFunc
_HushAsserts
_KeyValuesSystem
_Msg
_Plat_FloatTime
_Plat_GetCommandLineA
_Plat_IsInDebugSession
_ShouldUseNewAssertDialog
_SinCosTable
_SpewOutputFunc
_ThreadGetCurrentId
_ThreadInMainThread
_ThreadInterlockedAssignIf
_ThreadInterlockedAssignIf64
_ThreadInterlockedCompareExchangePointer
_ThreadInterlockedDecrement
_ThreadInterlockedExchange
_ThreadInterlockedIncrement
_ThreadJoin
_ThreadSetDebugName
_ThreadSleep
_Warning
_WarningV
__DefaultRuneLocale
__ExitOnFatalAssert
__GLOBAL__sub_I_CColorCorr.stdout.rel_tf_osx_builder.56269.Ynd5cJ.ii
__GLOBAL__sub_I_CMaterialS.stdout.rel_tf_osx_builder.56272.tjFdOY.ii
__GLOBAL__sub_I_KeyValues.stdout.rel_tf_osx_builder.55432.qZWQhg.ii
__GLOBAL__sub_I_ShaderDLL.stdout.rel_tf_osx_builder.56207.UrAC90.ii
__GLOBAL__sub_I_cmaterial.stdout.rel_tf_osx_builder.56270.twEBL5.ii
__GLOBAL__sub_I_cmaterials.stdout.rel_tf_osx_builder.56273.q0U3DW.ii
__GLOBAL__sub_I_cmaterialv.stdout.rel_tf_osx_builder.56274.75ywU1.ii
__GLOBAL__sub_I_cmatlightm.stdout.rel_tf_osx_builder.56300.LoAPaJ.ii
__GLOBAL__sub_I_cmatqueued.stdout.rel_tf_osx_builder.56316.riqdz7.ii
__GLOBAL__sub_I_cmatrender.stdout.rel_tf_osx_builder.56326.3n8cqY.ii
__GLOBAL__sub_I_convar.stdout.rel_tf_osx_builder.55430.mXKsKU.ii
__GLOBAL__sub_I_ctexture.stdout.rel_tf_osx_builder.56338.LdGZP9.ii
__GLOBAL__sub_I_ctextureco.stdout.rel_tf_osx_builder.56339.XlJ0Pi.ii
__GLOBAL__sub_I_mat_stub.stdout.rel_tf_osx_builder.56368.pRXmqw.ii
__GLOBAL__sub_I_morph.stdout.rel_tf_osx_builder.56367.ZKzxRI.ii
__GLOBAL__sub_I_occlusionq.stdout.rel_tf_osx_builder.56380.0p1oFK.ii
__GLOBAL__sub_I_shadersyst.stdout.rel_tf_osx_builder.56382.AfM4DP.ii
__GLOBAL__sub_I_sse.stdout.rel_tf_osx_builder.9376.gxVesc.ii
__GLOBAL__sub_I_textureman.stdout.rel_tf_osx_builder.56392.3ImEfG.ii
__GLOBAL__sub_I_utlbuffer.stdout.rel_tf_osx_builder.8986.vt30zT.ii
__GLOBAL__sub_I_utlsymbol.stdout.rel_tf_osx_builder.55484.zcRfnN.ii
__GLOBAL__sub_I_vtf.stdout.rel_tf_osx_builder.55898.EeKUFF.ii
__SpewInfo
__SpewMessage
__Unwind_Resume
__Z10ConWarningPKcz
__Z10DevWarningPKcz
__Z10MatrixCopyRK7VMatrixRS_
__Z10ParseNodesP10CUtlVectorIP8CTCStage10CUtlMemoryIS1_iEERKS_IP9KeyValuesS2_IS7_iEEj
__Z10V_snprintfPciPKcz
__Z10V_strlowerPc
__Z10V_strnicmpPKcS0_i
__Z11ConColorMsgRK5ColorPKcz
__Z11LoadVMTFileR9KeyValuesS0_PKcbP10CUtlVectorIPv10CUtlMemoryIS4_iEE
__Z11V_vsnprintfPciPKcS_
__Z12AngleVectorsRK6QAngleP6Vector
__Z12MathLib_Initfffibbbb
__Z12MatrixAnglesRK11matrix3x4_tPf
__Z12ParseTFromKVI9Sticker_tEvP9KeyValuesPv
__Z12V_FixSlashesPcc
__Z12_InvRSquaredPKf
__Z13GammaToLinearf
__Z13GetErrorTrailR10CUtlVectorIPKc10CUtlMemoryIS1_iEE
__Z13ParseSettableI8Vector2DEvP9KeyValuesPv
__Z13Q_UTF32ToUTF8PKwPci25EStringConvertErrorPolicy
__Z13Q_UTF8ToUTF32PKcPwi25EStringConvertErrorPolicy
__Z13ShaderFactoryPKcPi
__Z13V_GetFileNamePKc
__Z14CompareLookupsPKP23ColorCorrectionLookup_tS2_
__Z14MatrixMultiplyRK7VMatrixS1_RS_
__Z14MergeKeyValuesR9KeyValuesS0_
__Z14StringLessThanRKPKcS2_
__Z14SubstituteVarsP10CUtlStringPiR10CUtlVectorIPKc10CUtlMemoryIS4_iEES4_jRK8CUtlDictIS4_iE
__Z14Sys_GetFactoryP10CSysModule
__Z14Sys_LoadModulePKc9Sys_Flags
__Z14TexStageFromKVPP8CTCStagePKcP9KeyValuesj
__Z14V_SetExtensionPcPKci
__Z14V_SplitString2PKcPS0_iR10CUtlVectorIPc10CUtlMemoryIS3_iEE
__Z14V_StripLastDirPci
__Z14V_sprintf_safeILm1024EEiRAT__cPKcz
__Z14V_sprintf_safeILm12EEiRAT__cPKcz
__Z14V_sprintf_safeILm260EEiRAT__cPKcz
__Z14V_sprintf_safeILm80EEiRAT__cPKcz
__Z14_SSE_RSqrtFastf
__Z15BuildGammaTablefffi
__Z15ConVar_RegisteriP23IConCommandBaseAccessor
__Z15ExpandPatchFileR9KeyValuesS0_PKcP10CUtlVectorIPv10CUtlMemoryIS4_iEE
__Z15InsertKeyValuesR9KeyValuesS0_bb
__Z15MatrixTransposeRK7VMatrixRS_
__Z15ParseBoolFromKVP9KeyValuesPv
__Z15ParseIntoStructI21SelectStageParametersEvPT_P10CUtlVectorIP9KeyValues10CUtlMemoryIS5_iEES5_jPK15ParseTableEntry
__Z15ParseIntoStructI22CombineStageParametersEvPT_P10CUtlVectorIP9KeyValues10CUtlMemoryIS5_iEES5_jPK15ParseTableEntry
__Z15ParseIntoStructI22TextureStageParametersEvPT_P10CUtlVectorIP9KeyValues10CUtlMemoryIS5_iEES5_jPK15ParseTableEntry
__Z15ParseIntoStructI27ApplyStickerStageParametersEvPT_P10CUtlVectorIP9KeyValues10CUtlMemoryIS5_iEES5_jPK15ParseTableEntry
__Z15Q_UTF8ToUChar32PKcRwRb
__Z15ReportDirtyDiskv
__Z15ResolveTemplatePKcP9KeyValuesjPb
__Z15Sys_LoadLibraryPKc9Sys_Flags
__Z15TextureToLineari
__Z16CreateVTFTexturev
__Z16MatrixBuildOrthoR7VMatrixdddddd
__Z16MatrixBuildScaleR7VMatrixfff
__Z16ParseRangeFromKVP9KeyValuesPv
__Z16QuaternionAnglesRK10QuaternionR6QAngle
__Z16QuaternionMatrixRK10QuaternionR11matrix3x4_t
__Z16Sys_UnloadModuleP10CSysModule
__Z16V_IsAbsolutePathPKc
__Z16V_StripExtensionPKcPci
__Z16Vector4DMultiplyRK7VMatrixRK8Vector4DRS2_
__Z16_SSE_InvRSquaredPKf
__Z16_VectorNormalizeR6Vector
__Z17ConVar_Unregisterv
__Z17DestroyVTFTextureP11IVTFTexture
__Z17MatrixSetIdentityR7VMatrix
__Z17ParseStringFromKVP9KeyValuesPv
__Z17ParseVectorFromKVI9Sticker_tLi2147483647EEvP9KeyValuesPv
__Z17ParseVectorFromKVIiLi16EEvP9KeyValuesPv
__Z17PrintMinimumCycleP26CTextureCompositorTemplate
__Z17SelectStageFromKVPP8CTCStagePKcP9KeyValuesj
__Z17SetIdentityMatrixR11matrix3x4_t
__Z17StringAfterPrefixPKcS0_
__Z17VTFFileHeaderSizeii
__Z17V_ComposeFileNamePKcS0_Pci
__Z17V_ExtractFilePathPKcPci
__Z17V_StripWhitespacePc
__Z18CombineStageFromKVILi0EEbPP8CTCStagePKcP9KeyValuesj
__Z18CombineStageFromKVILi1EEbPP8CTCStagePKcP9KeyValuesj
__Z18CombineStageFromKVILi2EEbPP8CTCStagePKcP9KeyValuesj
__Z18InitShaderLibCVarsPFPvPKcPiE
__Z18MatrixBuildRotateZR7VMatrixf
__Z18Sys_GetFactoryThisv
__Z18V_FixDoubleSlashesPc
__Z18V_GetFileExtensionPKc
__Z18_SSE_RSqrtAccuratef
__Z19COM_GetModDirectoryv
__Z19EvaluateConditionalPKc
__Z19ParseTopLevelIntoKVPKcP9KeyValuesjPb
__Z19ResolveAllVariablesPKcRK8CUtlDictIS0_iEP9KeyValuesjPb
__Z19TempCreateInterfacePKcPi
__Z20GetShaderDLLInternalv
__Z20MatrixInverseGeneralRK7VMatrixRS_
__Z20_VectorNormalizeFastR6Vector
__Z21ConnectTier1LibrariesPPFPvPKcPiEi
__Z21ConnectTier2LibrariesPPFPvPKcPiEi
__Z21DefaultCompletionFuncPKcPA64_c
__Z22CaselessStringLessThanRKPKcS2_
__Z22GetNoEscCharConversionv
__Z22MatrixBuildTranslationR7VMatrixRK6Vector
__Z22MatrixBuildTranslationR7VMatrixfff
__Z22ParseRangeThenDivideByILi255EEvP9KeyValuesPv
__Z22ReleaseColorCorrectionv
__Z22RestoreColorCorrectioni
__Z22V_ExtractFileExtensionPKcPci
__Z22stb_compress_dxt_blockPhPKhii
__Z23ApplyStickerStageFromKVPP8CTCStagePKcP9KeyValuesj
__Z23CreateInterfaceInternalPKcPi
__Z23CreateNullRenderContextv
__Z23CreateTextureCompositoriiPKciyP9KeyValuesj
__Z23GenerateQuadIndexBufferPtii
__Z23GetCombinedMaterialName17ECombineOperation
__Z23MaterialNameCompareFuncPKvS0_
__Z23MatrixBuildPerspectiveXR7VMatrixdddd
__Z23ParseInverseRangeFromKVP9KeyValuesPv
__Z23SubstituteVarsRecursivePcPiR10CUtlVectorIPKc10CUtlMemoryIS3_iEES3_jRK8CUtlDictIS3_iE
__Z24AccumulatePatchKeyValuesR9KeyValuesS0_
__Z24DisconnectTier1Librariesv
__Z24DisconnectTier2Librariesv
__Z24DrawScreenSpaceRectangleP9IMaterialiiiiffffiiPviif
__Z24GetCStringCharConversionv
__Z24SetupDirtyDiskReportFuncv
__Z24_SSE_VectorNormalizeFastR6Vector
__Z26DummyMaterialSystemFactoryPKcPi
__Z26ExtractVariableDefinitionsP8CUtlDictIPKciES1_P9KeyValues
__Z26GeneratePolygonIndexBufferPtii
__Z27GenerateLineLoopIndexBufferPtii
__Z28CreateColorCorrectionTextureP16ITextureInternalj
__Z28GenerateLineStripIndexBufferPtii
__Z28MatrixBuildRotationAboutAxisR7VMatrixRK6Vectorf
__Z28MatrixBuildRotationAboutAxisRK6VectorfR11matrix3x4_t
__Z28ResolveAllVariablesRecursiveR10CUtlVectorIPKc10CUtlMemoryIS1_iEERK8CUtlDictIS1_iEP9KeyValuesjR10CUtlString
__Z29GenerateSequentialIndexBufferPtii
__Z29ParseVectorFromKeyValueStringP9KeyValuesPKcPf
__Z31EnableThreadedMaterialVarAccessbPP12IMaterialVari
__Z32MatrixBuildPerspectiveOffCenterXR7VMatrixdddddddd
__Z33ComputeTextureMatrixFromRectangleP7VMatrixRK8Vector2DS3_S3_
__Z6ConMsgPKcz
__Z6DevMsgPKcz
__Z6Q_log2i
__Z6SinCosfPfS_
__Z6V_atofPKc
__Z6_sqrtff
__Z7_rsqrtff
__Z8CeilPow2i
__Z8FastPow2f
__Z8HasCycleP26CTextureCompositorTemplate
__Z9FloorPow2i
__Z9V_stricmpPKcS0_
__Z9V_stristrPKcS0_
__Z9V_stristrPcPKc
__Z9V_strncatPcPKcmi
__Z9V_strncmpPKcS0_i
__Z9V_strncpyPcPKci
__Z9_SSE_Sqrtf
__ZGVZ11DataMapInitI15VTFFileHeader_tEP9datamap_tPT_E10nameHolder
__ZGVZ11DataMapInitI19VTFFileBaseHeader_tEP9datamap_tPT_E10nameHolder
__ZGVZ11DataMapInitI19VTFFileHeaderV7_1_tEP9datamap_tPT_E10nameHolder
__ZGVZ11DataMapInitI19VTFFileHeaderV7_2_tEP9datamap_tPT_E10nameHolder
__ZGVZ11DataMapInitI19VTFFileHeaderV7_3_tEP9datamap_tPT_E10nameHolder
__ZGVZ11DataMapInitI19VTFFileHeaderX360_tEP9datamap_tPT_E10nameHolder
__ZGVZ13IsEmulatingGLvE14bIsEmulatingGL
__ZGVZN12CMaterialVar14GetMatrixValueEvE8identity
__ZGVZN13CMatLightmaps12LockLightmapEiE8_counter
__ZGVZN13CMatLightmaps14UpdateLightmapEiPiS0_PfS1_S1_S1_E8_counter
__ZGVZN17CMatRenderContext11BeginRenderEvE8_counter
__ZGVZN17CMatRenderContext20SetFlashlightStateExERK17FlashlightState_tRK7VMatrixP8ITextureE9blackCube
__ZGVZN17CMatRenderContext4BindEP9IMaterialPvE20matTextureListConVar
__ZGVZN17CMatRenderContext4BindEP9IMaterialPvE25matShowWaterTextureConVar
__ZGVZN17CReplacementProxy11GetMaterialEvE23localplayer_visionflags
__ZGVZN23CMatQueuedRenderContext11BeginRenderEvE8_counter
__ZGVZN29CKeyValuesDumpContextAsDevMsg10KvBeginKeyEP9KeyValuesiE11r_developer
__ZGVZN8CTexture25ApplyRenderTargetSizeModeERiS0_11ImageFormatE27replay_screenshotresolution
__ZGVZN9CMorphMgr20EndMorphAccumulationEP22IMorphMgrRenderContextE8_counter
__ZGVZNK20CDummyMaterialSystem28GetCurrentConfigForVideoCardEvE5dummy
__ZL10mat_picmip
__ZL10s_MorphMgr
__ZL11mat_bumpmap
__ZL11mat_diffuse
__ZL11mat_dxlevel
__ZL11s_nCVarFlag
__ZL11s_pTokenBuf
__ZL11vec2_origin
__ZL11vec2_origin
__ZL11vec2_origin
__ZL11vec2_origin
__ZL11vec2_origin
__ZL11vec2_origin
__ZL11vec2_origin
__ZL11vec2_origin
__ZL11vec2_origin
__ZL11vec2_origin
__ZL11vec2_origin
__ZL11vec2_origin
__ZL11vec2_origin
__ZL11vec2_origin
__ZL11vec2_origin
__ZL11vec2_origin
__ZL11vec2_origin
__ZL11vec2_origin
__ZL11vec2_origin
__ZL11vec2_origin
__ZL11vec2_origin
__ZL11vec2_origin
__ZL11vec4_origin
__ZL11vec4_origin
__ZL11vec4_origin
__ZL11vec4_origin
__ZL11vec4_origin
__ZL11vec4_origin
__ZL11vec4_origin
__ZL11vec4_origin
__ZL11vec4_origin
__ZL11vec4_origin
__ZL11vec4_origin
__ZL11vec4_origin
__ZL11vec4_origin
__ZL11vec4_origin
__ZL11vec4_origin
__ZL11vec4_origin
__ZL12mat_drawflat
__ZL12mat_fillrate
__ZL12mat_specular
__ZL12s_bConnected
__ZL12s_pShaderDLL
__ZL12stb__Expand5
__ZL12stb__Expand6
__ZL12stb__OMatch5
__ZL12stb__OMatch6
__ZL12vec2_invalid
__ZL12vec2_invalid
__ZL12vec2_invalid
__ZL12vec2_invalid
__ZL12vec2_invalid
__ZL12vec2_invalid
__ZL12vec2_invalid
__ZL12vec2_invalid
__ZL12vec2_invalid
__ZL12vec2_invalid
__ZL12vec2_invalid
__ZL12vec2_invalid
__ZL12vec2_invalid
__ZL12vec2_invalid
__ZL12vec2_invalid
__ZL12vec2_invalid
__ZL12vec2_invalid
__ZL12vec2_invalid
__ZL12vec2_invalid
__ZL12vec2_invalid
__ZL12vec2_invalid
__ZL12vec2_invalid
__ZL12vec4_invalid
__ZL12vec4_invalid
__ZL12vec4_invalid
__ZL12vec4_invalid
__ZL12vec4_invalid
__ZL12vec4_invalid
__ZL12vec4_invalid
__ZL12vec4_invalid
__ZL12vec4_invalid
__ZL12vec4_invalid
__ZL12vec4_invalid
__ZL12vec4_invalid
__ZL12vec4_invalid
__ZL12vec4_invalid
__ZL12vec4_invalid
__ZL12vec4_invalid
__ZL13g_DummyMatrix
__ZL13mat_aaquality
__ZL13mat_antialias
__ZL13mat_evict_allRK8CCommand
__ZL13mat_trilinear
__ZL13s_EmptyConVar
__ZL13s_bMMXEnabled
__ZL13s_bRegistered
__ZL13s_bSSEEnabled
__ZL13s_pVTFTexture
__ZL14g_DummyIndices
__ZL14linearToScreen
__ZL14lineartoscreen
__ZL14mat_debugdepth
__ZL14mat_fastnobump
__ZL14mat_forceaniso
__ZL14mat_fullbright
__ZL14mat_lodin_time
__ZL14mat_morphstats
__ZL14mat_normalmaps
__ZL14s_ShaderSystem
__ZL14s_bSSE2Enabled
__ZL14stb__QuantGTab
__ZL15CalcSphereColorP12SphereCalc_tff
__ZL15linearToTexture
__ZL15lineartotexture
__ZL15mat_hdr_enabledRK8CCommand
__ZL15mat_norendering
__ZL15mat_parallaxmap
__ZL15s_nTempVarsUsed
__ZL15stb__QuantRBTab
__ZL15textureToLinear
__ZL15texturetolinear
__ZL16MatProxyCallbackP7IConVarPKcf
__ZL16MySpewOutputFunc10SpewType_tPKc
__ZL16mat_fastspecular
__ZL16mat_monitorgamma
__ZL16mat_reversedepth
__ZL16s_TextureManager
__ZL16s_nDLLIdentifier
__ZL17GetHardwareConfigv
__ZL17g_ImageFormatInfo
__ZL17mat_lightmap_pfms
__ZL17mat_showmiplevels
__ZL17s_DefaultAccessor
__ZL17s_TempCVarFactory
__ZL17s_nCompositeCount
__ZL18mat_filtertextures
__ZL18mat_mipmaptextures
__ZL18mat_reducefillrate
__ZL18mat_showenvmapmask
__ZL18mat_vrmode_adapter
__ZL18s_ActiveMorphHisto
__ZL18s_pTempMaterialVar
__ZL19CalcHemisphereColorP12SphereCalc_tff
__ZL19ComputeMipSkipCountPKcRK15TexDimensions_tbP11IVTFTexturejiPtP27TextureLODControlSettings_tPS1_S9_Pj
__ZL19__g_CreateICVar_reg
__ZL19mat_depthbias_decal
__ZL19mat_filterlightmaps
__ZL19mat_measurefillrate
__ZL19mat_showlowresimage
__ZL19s_OcclusionQueryMgr
__ZL19s_RenderedQuadHisto
__ZL19s_nOverflowTempVars
__ZL20GetOptimalReadBufferP10CUtlBufferPvi
__ZL20g_CleanupSymbolTable
__ZL20mat_bufferprimitives
__ZL20mat_depthbias_normal
__ZL20mat_lodin_hidden_pop
__ZL20mat_softwarelighting
__ZL20s_MaterialVarSymbols
__ZL20s_RenderedTexelHisto
__ZL20s_pOptimalReadBuffer
__ZL20s_pShaderStateString
__ZL21g_DummyMaterialSystem
__ZL21mat_evict_all_command
__ZL21mat_forcehardwaresync
__ZL21r_waterforceexpensive
__ZL21s_LastFileLoadingFrom
__ZL21s_bInitTextureRefList
__ZL21stb__MatchColorsBlockPhS_i
__ZL22mat_compressedtextures
__ZL23g_Mathlib_GammaToLinear
__ZL23g_Mathlib_LinearToGamma
__ZL23mat_depthbias_shadowmap
__ZL23mat_hdr_enabled_command
__ZL23mat_monitorgamma_tv_exp
__ZL23mat_motion_blur_enabled
__ZL23mat_reporthwmorphmemoryRK8CCommand
__ZL23r_shadowrendertotexture
__ZL23s_TempFileSystemFactory
__ZL23s_bEnableThreadedAccess
__ZL24SLoadTextureBitsFromFilePP11IVTFTexturePvjP27TextureLODControlSettings_tiPtPKcS7_P15TexDimensions_tS9_S9_Pj
__ZL24mat_spew_on_texture_size
__ZL24r_flashlightdepthtexture
__ZL24s_nOptimalReadBufferSize
__ZL26pConvarsAllowedInDXSupport
__ZL26s_bRunningWithDebugModules
__ZL27mat_monitorgamma_tv_enabled
__ZL27r_waterforcereflectentities
__ZL28mat_showmiplevels_Callback_fP7IConVarPKcf
__ZL29AccumulateRecursiveVmtPatchesR9KeyValuesPPS_RKS_PKcP10CUtlVectorIPv10CUtlMemoryIS8_iEE
__ZL29mat_monitorgamma_tv_range_max
__ZL29mat_monitorgamma_tv_range_min
__ZL29mat_slopescaledepthbias_decal
__ZL2f3
__ZL30mat_slopescaledepthbias_normal
__ZL31__g_CreateCReplacementProxy_reg
__ZL31mat_reporthwmorphmemory_command
__ZL32__g_CreateIShaderDLLInternal_reg
__ZL32cSelectStageParametersParseTable
__ZL33cCombineStageParametersParseTable
__ZL33cTextureStageParametersParseTable
__ZL33mat_slopescaledepthbias_shadowmap
__ZL35__CreateCReplacementProxy_interfacev
__ZL35s_pConversionArrays_NoEscConversion
__ZL36g_bDeleteUnreferencedTexturesEnabled
__ZL37mat_tonemapping_occlusion_use_stencil
__ZL38cApplyStickerStageParametersParseTable
__ZL3f05
__ZL40__g_CreateCShaderSystemIShaderSystem_reg
__ZL40s_pConversionArrays_StringCharConversion
__ZL43__g_CreateIMaterialSystemHardwareConfig_reg
__ZL44__CreateCShaderSystemIShaderSystem_interfacev
__ZL44__g_CreateCMaterialSystemIMaterialSystem_reg
__ZL48__CreateCMaterialSystemIMaterialSystem_interfacev
__ZL53__g_CreateCDummyMaterialSystemIMaterialSystemStub_reg
__ZL57__CreateCDummyMaterialSystemIMaterialSystemStub_interfacev
__ZL58__g_CreateCColorCorrectionSystemIColorCorrectionSystem_reg
__ZL60__g_CreateMaterialSystem_Config_tMaterialSystem_Config_t_reg
__ZL62__CreateCColorCorrectionSystemIColorCorrectionSystem_interfacev
__ZL64__CreateMaterialSystem_Config_tMaterialSystem_Config_t_interfacev
__ZL8GetICVarv
__ZL9CalcColorP12SphereCalc_tiRK6VectorPh
__ZL9g_KVMutex
__ZL9mat_phong
__ZL9mat_proxy
__ZL9mat_vsync
__ZN10CDummyMesh10UnlockMeshEiiR10MeshDesc_t
__ZN10CDummyMesh11MarkAsDrawnEv
__ZN10CDummyMesh11ModifyBeginEbiiR11IndexDesc_t
__ZN10CDummyMesh11ModifyBeginEiiiiR10MeshDesc_t
__ZN10CDummyMesh11SetFlexMeshEP5IMeshi
__ZN10CDummyMesh12SetColorMeshEP5IMeshi
__ZN10CDummyMesh12ValidateDataEiRK11IndexDesc_t
__ZN10CDummyMesh12ValidateDataEiRK12VertexDesc_t
__ZN10CDummyMesh12ValidateDataEiiRK10MeshDesc_t
__ZN10CDummyMesh13EndCastBufferEv
__ZN10CDummyMesh13ModifyBeginExEbiiiiR10MeshDesc_t
__ZN10CDummyMesh15BeginCastBufferE21MaterialIndexFormat_t
__ZN10CDummyMesh15BeginCastBufferEy
__ZN10CDummyMesh15DisableFlexMeshEv
__ZN10CDummyMesh16SetPrimitiveTypeE23MaterialPrimitiveType_t
__ZN10CDummyMesh17ComputeMemoryUsedEv
__ZN10CDummyMesh17CopyToMeshBuilderEiiiiiR12CMeshBuilder
__ZN10CDummyMesh4DrawEP9CPrimListi
__ZN10CDummyMesh4DrawEii
__ZN10CDummyMesh4LockEibR11IndexDesc_t
__ZN10CDummyMesh4LockEibR12VertexDesc_t
__ZN10CDummyMesh4SpewEiRK11IndexDesc_t
__ZN10CDummyMesh4SpewEiRK12VertexDesc_t
__ZN10CDummyMesh4SpewEiiRK10MeshDesc_t
__ZN10CDummyMesh6UnlockEiR11IndexDesc_t
__ZN10CDummyMesh6UnlockEiR12VertexDesc_t
__ZN10CDummyMesh7GetMeshEv
__ZN10CDummyMesh8LockMeshEiiR10MeshDesc_t
__ZN10CDummyMesh9ModifyEndER10MeshDesc_t
__ZN10CDummyMesh9ModifyEndER11IndexDesc_t
__ZN10CDummyMeshD0Ev
__ZN10CDummyMeshD1Ev
__ZN10CShaderDLL10DisconnectEb
__ZN10CShaderDLL10DisconnectEv
__ZN10CShaderDLL12InsertShaderEP7IShader
__ZN10CShaderDLL7ConnectEPFPvPKcPiE
__ZN10CShaderDLL7ConnectEPFPvPKcPiEb
__ZN10CShaderDLL9GetShaderEi
__ZN10CUtlBuffer11GetOverflowEi
__ZN10CUtlBuffer11PutOverflowEi
__ZN10CUtlBuffer12AssumeMemoryEPviii
__ZN10CUtlBuffer13EatCPPCommentEv
__ZN10CUtlBuffer13EatWhiteSpaceEv
__ZN10CUtlBuffer14EnsureCapacityEi
__ZN10CUtlBuffer14PeekLineLengthEv
__ZN10CUtlBuffer14PeekWhiteSpaceEi
__ZN10CUtlBuffer15PeekStringMatchEiPKci
__ZN10CUtlBuffer16PeekStringLengthEv
__ZN10CUtlBuffer17GetStringInternalEPcm
__ZN10CUtlBuffer17SetExternalBufferEPviii
__ZN10CUtlBuffer18AddNullTerminationEv
__ZN10CUtlBuffer18GetDelimitedStringEP18CUtlCharConversionPci
__ZN10CUtlBuffer21CheckArbitraryPeekGetEiRi
__ZN10CUtlBuffer24GetDelimitedCharInternalEP18CUtlCharConversion
__ZN10CUtlBuffer3GetEPvi
__ZN10CUtlBuffer3PutEPKvi
__ZN10CUtlBuffer5ScanfEPKcz
__ZN10CUtlBuffer6PrintfEPKcz
__ZN10CUtlBuffer7GetLineEPci
__ZN10CUtlBuffer7PeekGetEii
__ZN10CUtlBuffer7SeekGetENS_10SeekType_tEi
__ZN10CUtlBuffer7SeekPutENS_10SeekType_tEi
__ZN10CUtlBuffer7VaScanfEPKcPc
__ZN10CUtlBuffer8CheckGetEi
__ZN10CUtlBuffer8CheckPutEi
__ZN10CUtlBuffer9PutStringEPKc
__ZN10CUtlBufferC1EPKvii
__ZN10CUtlBufferC1Eiii
__ZN10CUtlBufferC2EPKvii
__ZN10CUtlBufferC2Eiii
__ZN10CUtlMemoryI15UtlRBTreeNode_tIN13CMaterialDict16MaterialLookup_tEtEtE4GrowEi
__ZN10CUtlMemoryI15UtlRBTreeNode_tIN15CUtlSymbolTable16CStringPoolIndexEtEtE4GrowEi
__ZN10CUtlMemoryI15UtlRBTreeNode_tIN7CUtlMapIP16ITextureInternalitPFbRKS3_S5_EE6Node_tEtEtE4GrowEi
__ZN10CUtlMemoryI15UtlRBTreeNode_tIN7CUtlMapIP26CTextureCompositorTemplateitPFbRKS3_S5_EE6Node_tEtEtE4GrowEi
__ZN10CUtlMemoryI15UtlRBTreeNode_tIN7CUtlMapIP8ITexture16CInterlockedIntTIiEtPFbRKS3_S7_EE6Node_tEtEtE4GrowEi
__ZN10CUtlMemoryI15UtlRBTreeNode_tIN7CUtlMapIPKcP16ITextureInternaltPFbRKS3_S7_EE6Node_tEtEtE4GrowEi
__ZN10CUtlMemoryI15UtlRBTreeNode_tIN7CUtlMapIPKcP26CTextureCompositorTemplatetPFbRKS3_S7_EE6Node_tEtEtE4GrowEi
__ZN10CUtlMemoryI15UtlRBTreeNode_tIN7CUtlMapIPKcP7IShadertPFbRKS3_S7_EE6Node_tEtEtE4GrowEi
__ZN10CUtlMemoryI15UtlRBTreeNode_tIN7CUtlMapIPKcS3_tPFbRKS3_S5_EE6Node_tEtEtE4GrowEi
__ZN10CUtlMemoryI15UtlRBTreeNode_tIN7CUtlMapIPKcitPFbRKS3_S5_EE6Node_tEtEtE4GrowEi
__ZN10CUtlMemoryI19UtlLinkedListElem_tIPKctEtE4GrowEi
__ZN10CUtlRBTreeIN13CMaterialDict16MaterialLookup_tEtPFbRKS1_S3_E10CUtlMemoryI15UtlRBTreeNode_tIS1_tEtEE10RotateLeftEt
__ZN10CUtlRBTreeIN13CMaterialDict16MaterialLookup_tEtPFbRKS1_S3_E10CUtlMemoryI15UtlRBTreeNode_tIS1_tEtEE11RotateRightEt
__ZN10CUtlRBTreeIN13CMaterialDict16MaterialLookup_tEtPFbRKS1_S3_E10CUtlMemoryI15UtlRBTreeNode_tIS1_tEtEE15InsertRebalanceEt
__ZN10CUtlRBTreeIN13CMaterialDict16MaterialLookup_tEtPFbRKS1_S3_E10CUtlMemoryI15UtlRBTreeNode_tIS1_tEtEE15RemoveRebalanceEt
__ZN10CUtlRBTreeIN13CMaterialDict16MaterialLookup_tEtPFbRKS1_S3_E10CUtlMemoryI15UtlRBTreeNode_tIS1_tEtEE5PurgeEv
__ZN10CUtlRBTreeIN13CMaterialDict16MaterialLookup_tEtPFbRKS1_S3_E10CUtlMemoryI15UtlRBTreeNode_tIS1_tEtEE6InsertES3_
__ZN10CUtlRBTreeIN13CMaterialDict16MaterialLookup_tEtPFbRKS1_S3_E10CUtlMemoryI15UtlRBTreeNode_tIS1_tEtEE6UnlinkEt
__ZN10CUtlRBTreeIN13CMaterialDict16MaterialLookup_tEtPFbRKS1_S3_E10CUtlMemoryI15UtlRBTreeNode_tIS1_tEtEE7NewNodeEv
__ZN10CUtlRBTreeIN13CMaterialDict16MaterialLookup_tEtPFbRKS1_S3_E10CUtlMemoryI15UtlRBTreeNode_tIS1_tEtEED2Ev
__ZN10CUtlRBTreeIN13CMaterialDict17MissingMaterial_tEiPFbRKS1_S3_E10CUtlMemoryI15UtlRBTreeNode_tIS1_iEiEE15InsertRebalanceEi
__ZN10CUtlRBTreeIN13CMaterialDict17MissingMaterial_tEiPFbRKS1_S3_E10CUtlMemoryI15UtlRBTreeNode_tIS1_iEiEE6InsertES3_
__ZN10CUtlRBTreeIN13CMaterialDict17MissingMaterial_tEiPFbRKS1_S3_E10CUtlMemoryI15UtlRBTreeNode_tIS1_iEiEE7NewNodeEv
__ZN10CUtlRBTreeIN13CMaterialDict17MissingMaterial_tEiPFbRKS1_S3_E10CUtlMemoryI15UtlRBTreeNode_tIS1_iEiEED2Ev
__ZN10CUtlRBTreeIN15CUtlSymbolTable16CStringPoolIndexEtNS0_5CLessE10CUtlMemoryI15UtlRBTreeNode_tIS1_tEtEE10RotateLeftEt
__ZN10CUtlRBTreeIN15CUtlSymbolTable16CStringPoolIndexEtNS0_5CLessE10CUtlMemoryI15UtlRBTreeNode_tIS1_tEtEE11RotateRightEt
__ZN10CUtlRBTreeIN15CUtlSymbolTable16CStringPoolIndexEtNS0_5CLessE10CUtlMemoryI15UtlRBTreeNode_tIS1_tEtEE15InsertRebalanceEt
__ZN10CUtlRBTreeIN15CUtlSymbolTable16CStringPoolIndexEtNS0_5CLessE10CUtlMemoryI15UtlRBTreeNode_tIS1_tEtEE5PurgeEv
__ZN10CUtlRBTreeIN15CUtlSymbolTable16CStringPoolIndexEtNS0_5CLessE10CUtlMemoryI15UtlRBTreeNode_tIS1_tEtEE6InsertERKS1_
__ZN10CUtlRBTreeIN15CUtlSymbolTable16CStringPoolIndexEtNS0_5CLessE10CUtlMemoryI15UtlRBTreeNode_tIS1_tEtEE7NewNodeEv
__ZN10CUtlRBTreeIN15CUtlSymbolTable16CStringPoolIndexEtNS0_5CLessE10CUtlMemoryI15UtlRBTreeNode_tIS1_tEtEED2Ev
__ZN10CUtlRBTreeIN7CUtlMapIP16ITextureInternalitPFbRKS2_S4_EE6Node_tEtNS7_8CKeyLessE10CUtlMemoryI15UtlRBTreeNode_tIS8_tEtEE10RotateLeftEt
__ZN10CUtlRBTreeIN7CUtlMapIP16ITextureInternalitPFbRKS2_S4_EE6Node_tEtNS7_8CKeyLessE10CUtlMemoryI15UtlRBTreeNode_tIS8_tEtEE11RotateRightEt
__ZN10CUtlRBTreeIN7CUtlMapIP16ITextureInternalitPFbRKS2_S4_EE6Node_tEtNS7_8CKeyLessE10CUtlMemoryI15UtlRBTreeNode_tIS8_tEtEE15InsertRebalanceEt
__ZN10CUtlRBTreeIN7CUtlMapIP16ITextureInternalitPFbRKS2_S4_EE6Node_tEtNS7_8CKeyLessE10CUtlMemoryI15UtlRBTreeNode_tIS8_tEtEE15RemoveRebalanceEt
__ZN10CUtlRBTreeIN7CUtlMapIP16ITextureInternalitPFbRKS2_S4_EE6Node_tEtNS7_8CKeyLessE10CUtlMemoryI15UtlRBTreeNode_tIS8_tEtEE5PurgeEv
__ZN10CUtlRBTreeIN7CUtlMapIP16ITextureInternalitPFbRKS2_S4_EE6Node_tEtNS7_8CKeyLessE10CUtlMemoryI15UtlRBTreeNode_tIS8_tEtEE6InsertERKS8_
__ZN10CUtlRBTreeIN7CUtlMapIP16ITextureInternalitPFbRKS2_S4_EE6Node_tEtNS7_8CKeyLessE10CUtlMemoryI15UtlRBTreeNode_tIS8_tEtEE6UnlinkEt
__ZN10CUtlRBTreeIN7CUtlMapIP16ITextureInternalitPFbRKS2_S4_EE6Node_tEtNS7_8CKeyLessE10CUtlMemoryI15UtlRBTreeNode_tIS8_tEtEE7NewNodeEv
__ZN10CUtlRBTreeIN7CUtlMapIP16ITextureInternalitPFbRKS2_S4_EE6Node_tEtNS7_8CKeyLessE10CUtlMemoryI15UtlRBTreeNode_tIS8_tEtEED2Ev
__ZN10CUtlRBTreeIN7CUtlMapIP26CTextureCompositorTemplateitPFbRKS2_S4_EE6Node_tEtNS7_8CKeyLessE10CUtlMemoryI15UtlRBTreeNode_tIS8_tEtEE10RotateLeftEt
__ZN10CUtlRBTreeIN7CUtlMapIP26CTextureCompositorTemplateitPFbRKS2_S4_EE6Node_tEtNS7_8CKeyLessE10CUtlMemoryI15UtlRBTreeNode_tIS8_tEtEE11RotateRightEt
__ZN10CUtlRBTreeIN7CUtlMapIP26CTextureCompositorTemplateitPFbRKS2_S4_EE6Node_tEtNS7_8CKeyLessE10CUtlMemoryI15UtlRBTreeNode_tIS8_tEtEE15InsertRebalanceEt
__ZN10CUtlRBTreeIN7CUtlMapIP26CTextureCompositorTemplateitPFbRKS2_S4_EE6Node_tEtNS7_8CKeyLessE10CUtlMemoryI15UtlRBTreeNode_tIS8_tEtEE5PurgeEv
__ZN10CUtlRBTreeIN7CUtlMapIP26CTextureCompositorTemplateitPFbRKS2_S4_EE6Node_tEtNS7_8CKeyLessE10CUtlMemoryI15UtlRBTreeNode_tIS8_tEtEE6InsertERKS8_
__ZN10CUtlRBTreeIN7CUtlMapIP26CTextureCompositorTemplateitPFbRKS2_S4_EE6Node_tEtNS7_8CKeyLessE10CUtlMemoryI15UtlRBTreeNode_tIS8_tEtEE7NewNodeEv
__ZN10CUtlRBTreeIN7CUtlMapIP26CTextureCompositorTemplateitPFbRKS2_S4_EE6Node_tEtNS7_8CKeyLessE10CUtlMemoryI15UtlRBTreeNode_tIS8_tEtEED2Ev
__ZN10CUtlRBTreeIN7CUtlMapIP8ITexture16CInterlockedIntTIiEtPFbRKS2_S6_EE6Node_tEtNS9_8CKeyLessE10CUtlMemoryI15UtlRBTreeNode_tISA_tEtEE10RotateLeftEt
__ZN10CUtlRBTreeIN7CUtlMapIP8ITexture16CInterlockedIntTIiEtPFbRKS2_S6_EE6Node_tEtNS9_8CKeyLessE10CUtlMemoryI15UtlRBTreeNode_tISA_tEtEE11RotateRightEt
__ZN10CUtlRBTreeIN7CUtlMapIP8ITexture16CInterlockedIntTIiEtPFbRKS2_S6_EE6Node_tEtNS9_8CKeyLessE10CUtlMemoryI15UtlRBTreeNode_tISA_tEtEE15InsertRebalanceEt
__ZN10CUtlRBTreeIN7CUtlMapIP8ITexture16CInterlockedIntTIiEtPFbRKS2_S6_EE6Node_tEtNS9_8CKeyLessE10CUtlMemoryI15UtlRBTreeNode_tISA_tEtEE5PurgeEv
__ZN10CUtlRBTreeIN7CUtlMapIP8ITexture16CInterlockedIntTIiEtPFbRKS2_S6_EE6Node_tEtNS9_8CKeyLessE10CUtlMemoryI15UtlRBTreeNode_tISA_tEtEE6InsertERKSA_
__ZN10CUtlRBTreeIN7CUtlMapIP8ITexture16CInterlockedIntTIiEtPFbRKS2_S6_EE6Node_tEtNS9_8CKeyLessE10CUtlMemoryI15UtlRBTreeNode_tISA_tEtEE7NewNodeEv
__ZN10CUtlRBTreeIN7CUtlMapIP8ITexture16CInterlockedIntTIiEtPFbRKS2_S6_EE6Node_tEtNS9_8CKeyLessE10CUtlMemoryI15UtlRBTreeNode_tISA_tEtEED2Ev
__ZN10CUtlRBTreeIN7CUtlMapIPKc18CCopyableUtlVectorI14AsyncLoadJob_tEiPFbRKS2_S7_EE6Node_tEiNSA_8CKeyLessE10CUtlMemoryI15UtlRBTreeNode_tISB_iEiEE15InsertRebalanceEi
__ZN10CUtlRBTreeIN7CUtlMapIPKc18CCopyableUtlVectorI14AsyncLoadJob_tEiPFbRKS2_S7_EE6Node_tEiNSA_8CKeyLessE10CUtlMemoryI15UtlRBTreeNode_tISB_iEiEE15RemoveRebalanceEi
__ZN10CUtlRBTreeIN7CUtlMapIPKc18CCopyableUtlVectorI14AsyncLoadJob_tEiPFbRKS2_S7_EE6Node_tEiNSA_8CKeyLessE10CUtlMemoryI15UtlRBTreeNode_tISB_iEiEE6InsertERKSB_
__ZN10CUtlRBTreeIN7CUtlMapIPKc18CCopyableUtlVectorI14AsyncLoadJob_tEiPFbRKS2_S7_EE6Node_tEiNSA_8CKeyLessE10CUtlMemoryI15UtlRBTreeNode_tISB_iEiEE6UnlinkEi
__ZN10CUtlRBTreeIN7CUtlMapIPKc18CCopyableUtlVectorI14AsyncLoadJob_tEiPFbRKS2_S7_EE6Node_tEiNSA_8CKeyLessE10CUtlMemoryI15UtlRBTreeNode_tISB_iEiEE7NewNodeEv
__ZN10CUtlRBTreeIN7CUtlMapIPKc18CCopyableUtlVectorI14AsyncLoadJob_tEiPFbRKS2_S7_EE6Node_tEiNSA_8CKeyLessE10CUtlMemoryI15UtlRBTreeNode_tISB_iEiEE9RemoveAllEv
__ZN10CUtlRBTreeIN7CUtlMapIPKc18CCopyableUtlVectorI14AsyncLoadJob_tEiPFbRKS2_S7_EE6Node_tEiNSA_8CKeyLessE10CUtlMemoryI15UtlRBTreeNode_tISB_iEiEED2Ev
__ZN10CUtlRBTreeIN7CUtlMapIPKcP16ITextureInternaltPFbRKS2_S6_EE6Node_tEtNS9_8CKeyLessE10CUtlMemoryI15UtlRBTreeNode_tISA_tEtEE10RotateLeftEt
__ZN10CUtlRBTreeIN7CUtlMapIPKcP16ITextureInternaltPFbRKS2_S6_EE6Node_tEtNS9_8CKeyLessE10CUtlMemoryI15UtlRBTreeNode_tISA_tEtEE11RotateRightEt
__ZN10CUtlRBTreeIN7CUtlMapIPKcP16ITextureInternaltPFbRKS2_S6_EE6Node_tEtNS9_8CKeyLessE10CUtlMemoryI15UtlRBTreeNode_tISA_tEtEE15InsertRebalanceEt
__ZN10CUtlRBTreeIN7CUtlMapIPKcP16ITextureInternaltPFbRKS2_S6_EE6Node_tEtNS9_8CKeyLessE10CUtlMemoryI15UtlRBTreeNode_tISA_tEtEE15RemoveRebalanceEt
__ZN10CUtlRBTreeIN7CUtlMapIPKcP16ITextureInternaltPFbRKS2_S6_EE6Node_tEtNS9_8CKeyLessE10CUtlMemoryI15UtlRBTreeNode_tISA_tEtEE5PurgeEv
__ZN10CUtlRBTreeIN7CUtlMapIPKcP16ITextureInternaltPFbRKS2_S6_EE6Node_tEtNS9_8CKeyLessE10CUtlMemoryI15UtlRBTreeNode_tISA_tEtEE6InsertERKSA_
__ZN10CUtlRBTreeIN7CUtlMapIPKcP16ITextureInternaltPFbRKS2_S6_EE6Node_tEtNS9_8CKeyLessE10CUtlMemoryI15UtlRBTreeNode_tISA_tEtEE6UnlinkEt
__ZN10CUtlRBTreeIN7CUtlMapIPKcP16ITextureInternaltPFbRKS2_S6_EE6Node_tEtNS9_8CKeyLessE10CUtlMemoryI15UtlRBTreeNode_tISA_tEtEE7NewNodeEv
__ZN10CUtlRBTreeIN7CUtlMapIPKcP16ITextureInternaltPFbRKS2_S6_EE6Node_tEtNS9_8CKeyLessE10CUtlMemoryI15UtlRBTreeNode_tISA_tEtEED2Ev
__ZN10CUtlRBTreeIN7CUtlMapIPKcP26CTextureCompositorTemplatetPFbRKS2_S6_EE6Node_tEtNS9_8CKeyLessE10CUtlMemoryI15UtlRBTreeNode_tISA_tEtEE10RotateLeftEt
__ZN10CUtlRBTreeIN7CUtlMapIPKcP26CTextureCompositorTemplatetPFbRKS2_S6_EE6Node_tEtNS9_8CKeyLessE10CUtlMemoryI15UtlRBTreeNode_tISA_tEtEE11RotateRightEt
__ZN10CUtlRBTreeIN7CUtlMapIPKcP26CTextureCompositorTemplatetPFbRKS2_S6_EE6Node_tEtNS9_8CKeyLessE10CUtlMemoryI15UtlRBTreeNode_tISA_tEtEE15InsertRebalanceEt
__ZN10CUtlRBTreeIN7CUtlMapIPKcP26CTextureCompositorTemplatetPFbRKS2_S6_EE6Node_tEtNS9_8CKeyLessE10CUtlMemoryI15UtlRBTreeNode_tISA_tEtEE15RemoveRebalanceEt
__ZN10CUtlRBTreeIN7CUtlMapIPKcP26CTextureCompositorTemplatetPFbRKS2_S6_EE6Node_tEtNS9_8CKeyLessE10CUtlMemoryI15UtlRBTreeNode_tISA_tEtEE5PurgeEv
__ZN10CUtlRBTreeIN7CUtlMapIPKcP26CTextureCompositorTemplatetPFbRKS2_S6_EE6Node_tEtNS9_8CKeyLessE10CUtlMemoryI15UtlRBTreeNode_tISA_tEtEE6InsertERKSA_
__ZN10CUtlRBTreeIN7CUtlMapIPKcP26CTextureCompositorTemplatetPFbRKS2_S6_EE6Node_tEtNS9_8CKeyLessE10CUtlMemoryI15UtlRBTreeNode_tISA_tEtEE6UnlinkEt
__ZN10CUtlRBTreeIN7CUtlMapIPKcP26CTextureCompositorTemplatetPFbRKS2_S6_EE6Node_tEtNS9_8CKeyLessE10CUtlMemoryI15UtlRBTreeNode_tISA_tEtEE7NewNodeEv
__ZN10CUtlRBTreeIN7CUtlMapIPKcP26CTextureCompositorTemplatetPFbRKS2_S6_EE6Node_tEtNS9_8CKeyLessE10CUtlMemoryI15UtlRBTreeNode_tISA_tEtEED2Ev
__ZN10CUtlRBTreeIN7CUtlMapIPKcP7IShadertPFbRKS2_S6_EE6Node_tEtNS9_8CKeyLessE10CUtlMemoryI15UtlRBTreeNode_tISA_tEtEE10RotateLeftEt
__ZN10CUtlRBTreeIN7CUtlMapIPKcP7IShadertPFbRKS2_S6_EE6Node_tEtNS9_8CKeyLessE10CUtlMemoryI15UtlRBTreeNode_tISA_tEtEE11RotateRightEt
__ZN10CUtlRBTreeIN7CUtlMapIPKcP7IShadertPFbRKS2_S6_EE6Node_tEtNS9_8CKeyLessE10CUtlMemoryI15UtlRBTreeNode_tISA_tEtEE15InsertRebalanceEt
__ZN10CUtlRBTreeIN7CUtlMapIPKcP7IShadertPFbRKS2_S6_EE6Node_tEtNS9_8CKeyLessE10CUtlMemoryI15UtlRBTreeNode_tISA_tEtEE5PurgeEv
__ZN10CUtlRBTreeIN7CUtlMapIPKcP7IShadertPFbRKS2_S6_EE6Node_tEtNS9_8CKeyLessE10CUtlMemoryI15UtlRBTreeNode_tISA_tEtEE6InsertERKSA_
__ZN10CUtlRBTreeIN7CUtlMapIPKcP7IShadertPFbRKS2_S6_EE6Node_tEtNS9_8CKeyLessE10CUtlMemoryI15UtlRBTreeNode_tISA_tEtEE7NewNodeEv
__ZN10CUtlRBTreeIN7CUtlMapIPKcP7IShadertPFbRKS2_S6_EE6Node_tEtNS9_8CKeyLessE10CUtlMemoryI15UtlRBTreeNode_tISA_tEtEED2Ev
__ZN10CUtlRBTreeIN7CUtlMapIPKcP9KeyValuesiPFbRKS2_S6_EE6Node_tEiNS9_8CKeyLessE10CUtlMemoryI15UtlRBTreeNode_tISA_iEiEE15InsertRebalanceEi
__ZN10CUtlRBTreeIN7CUtlMapIPKcP9KeyValuesiPFbRKS2_S6_EE6Node_tEiNS9_8CKeyLessE10CUtlMemoryI15UtlRBTreeNode_tISA_iEiEE6InsertERKSA_
__ZN10CUtlRBTreeIN7CUtlMapIPKcP9KeyValuesiPFbRKS2_S6_EE6Node_tEiNS9_8CKeyLessE10CUtlMemoryI15UtlRBTreeNode_tISA_iEiEE7NewNodeEv
__ZN10CUtlRBTreeIN7CUtlMapIPKcP9KeyValuesiPFbRKS2_S6_EE6Node_tEiNS9_8CKeyLessE10CUtlMemoryI15UtlRBTreeNode_tISA_iEiEED2Ev
__ZN10CUtlRBTreeIN7CUtlMapIPKcS2_iPFbRKS2_S4_EE6Node_tEiNS7_8CKeyLessE10CUtlMemoryI15UtlRBTreeNode_tIS8_iEiEE15InsertRebalanceEi
__ZN10CUtlRBTreeIN7CUtlMapIPKcS2_iPFbRKS2_S4_EE6Node_tEiNS7_8CKeyLessE10CUtlMemoryI15UtlRBTreeNode_tIS8_iEiEE6InsertERKS8_
__ZN10CUtlRBTreeIN7CUtlMapIPKcS2_iPFbRKS2_S4_EE6Node_tEiNS7_8CKeyLessE10CUtlMemoryI15UtlRBTreeNode_tIS8_iEiEE7NewNodeEv
__ZN10CUtlRBTreeIN7CUtlMapIPKcS2_iPFbRKS2_S4_EE6Node_tEiNS7_8CKeyLessE10CUtlMemoryI15UtlRBTreeNode_tIS8_iEiEED2Ev
__ZN10CUtlRBTreeIN7CUtlMapIPKcS2_tPFbRKS2_S4_EE6Node_tEtNS7_8CKeyLessE10CUtlMemoryI15UtlRBTreeNode_tIS8_tEtEE10RotateLeftEt
__ZN10CUtlRBTreeIN7CUtlMapIPKcS2_tPFbRKS2_S4_EE6Node_tEtNS7_8CKeyLessE10CUtlMemoryI15UtlRBTreeNode_tIS8_tEtEE11RotateRightEt
__ZN10CUtlRBTreeIN7CUtlMapIPKcS2_tPFbRKS2_S4_EE6Node_tEtNS7_8CKeyLessE10CUtlMemoryI15UtlRBTreeNode_tIS8_tEtEE15InsertRebalanceEt
__ZN10CUtlRBTreeIN7CUtlMapIPKcS2_tPFbRKS2_S4_EE6Node_tEtNS7_8CKeyLessE10CUtlMemoryI15UtlRBTreeNode_tIS8_tEtEE15RemoveRebalanceEt
__ZN10CUtlRBTreeIN7CUtlMapIPKcS2_tPFbRKS2_S4_EE6Node_tEtNS7_8CKeyLessE10CUtlMemoryI15UtlRBTreeNode_tIS8_tEtEE5PurgeEv
__ZN10CUtlRBTreeIN7CUtlMapIPKcS2_tPFbRKS2_S4_EE6Node_tEtNS7_8CKeyLessE10CUtlMemoryI15UtlRBTreeNode_tIS8_tEtEE6InsertERKS8_
__ZN10CUtlRBTreeIN7CUtlMapIPKcS2_tPFbRKS2_S4_EE6Node_tEtNS7_8CKeyLessE10CUtlMemoryI15UtlRBTreeNode_tIS8_tEtEE6UnlinkEt
__ZN10CUtlRBTreeIN7CUtlMapIPKcS2_tPFbRKS2_S4_EE6Node_tEtNS7_8CKeyLessE10CUtlMemoryI15UtlRBTreeNode_tIS8_tEtEE7NewNodeEv
__ZN10CUtlRBTreeIN7CUtlMapIPKcS2_tPFbRKS2_S4_EE6Node_tEtNS7_8CKeyLessE10CUtlMemoryI15UtlRBTreeNode_tIS8_tEtEED2Ev
__ZN10CUtlRBTreeIN7CUtlMapIPKciiPFbRKS2_S4_EE6Node_tEiNS7_8CKeyLessE10CUtlMemoryI15UtlRBTreeNode_tIS8_iEiEE15InsertRebalanceEi
__ZN10CUtlRBTreeIN7CUtlMapIPKciiPFbRKS2_S4_EE6Node_tEiNS7_8CKeyLessE10CUtlMemoryI15UtlRBTreeNode_tIS8_iEiEE6InsertERKS8_
__ZN10CUtlRBTreeIN7CUtlMapIPKciiPFbRKS2_S4_EE6Node_tEiNS7_8CKeyLessE10CUtlMemoryI15UtlRBTreeNode_tIS8_iEiEE7NewNodeEv
__ZN10CUtlRBTreeIN7CUtlMapIPKciiPFbRKS2_S4_EE6Node_tEiNS7_8CKeyLessE10CUtlMemoryI15UtlRBTreeNode_tIS8_iEiEED2Ev
__ZN10CUtlRBTreeIN7CUtlMapIPKcitPFbRKS2_S4_EE6Node_tEtNS7_8CKeyLessE10CUtlMemoryI15UtlRBTreeNode_tIS8_tEtEE10RotateLeftEt
__ZN10CUtlRBTreeIN7CUtlMapIPKcitPFbRKS2_S4_EE6Node_tEtNS7_8CKeyLessE10CUtlMemoryI15UtlRBTreeNode_tIS8_tEtEE11RotateRightEt
__ZN10CUtlRBTreeIN7CUtlMapIPKcitPFbRKS2_S4_EE6Node_tEtNS7_8CKeyLessE10CUtlMemoryI15UtlRBTreeNode_tIS8_tEtEE15InsertRebalanceEt
__ZN10CUtlRBTreeIN7CUtlMapIPKcitPFbRKS2_S4_EE6Node_tEtNS7_8CKeyLessE10CUtlMemoryI15UtlRBTreeNode_tIS8_tEtEE5PurgeEv
__ZN10CUtlRBTreeIN7CUtlMapIPKcitPFbRKS2_S4_EE6Node_tEtNS7_8CKeyLessE10CUtlMemoryI15UtlRBTreeNode_tIS8_tEtEE6InsertERKS8_
__ZN10CUtlRBTreeIN7CUtlMapIPKcitPFbRKS2_S4_EE6Node_tEtNS7_8CKeyLessE10CUtlMemoryI15UtlRBTreeNode_tIS8_tEtEE7NewNodeEv
__ZN10CUtlRBTreeIN7CUtlMapIPKcitPFbRKS2_S4_EE6Node_tEtNS7_8CKeyLessE10CUtlMemoryI15UtlRBTreeNode_tIS8_tEtEED2Ev
__ZN10CUtlString12GetForModifyEv
__ZN10CUtlString3SetEPKc
__ZN10CUtlString5PurgeEv
__ZN10CUtlString9SetLengthEi
__ZN10CUtlStringaSEPKc
__ZN10CUtlStringaSERKS_
__ZN10CUtlSymbol10InitializeEv
__ZN10CUtlSymbol14s_pSymbolTableE
__ZN10CUtlSymbolC1EPKc
__ZN10CUtlVectorI10CUtlString10CUtlMemoryIS0_iEE12InsertBeforeEiRKS0_
__ZN10CUtlVectorI12CImagePacker10CUtlMemoryIS0_iEE9AddToTailEv
__ZN10CUtlVectorI12CImagePacker10CUtlMemoryIS0_iEED2Ev
__ZN10CUtlVectorI14AsyncLoadJob_t10CUtlMemoryIS0_iEE10GrowVectorEi
__ZN10CUtlVectorI14AsyncLoadJob_t10CUtlMemoryIS0_iEE5PurgeEv
__ZN10CUtlVectorI14AsyncLoadJob_t10CUtlMemoryIS0_iEE8SetCountEi
__ZN10CUtlVectorI14AsyncLoadJob_t10CUtlMemoryIS0_iEED2Ev
__ZN10CUtlVectorI14RenderTarget_t10CUtlMemoryIS0_iEED2Ev
__ZN10CUtlVectorI16CTCStageResult_t10CUtlMemoryIS0_iEE9AddToTailERKS0_
__ZN10CUtlVectorI16CTCStageResult_t10CUtlMemoryIS0_iEED2Ev
__ZN10CUtlVectorI17MorphVertexInfo_t10CUtlMemoryIS0_iEED2Ev
__ZN10CUtlVectorI17ResourceEntryInfo10CUtlMemoryIS0_iEE10GrowVectorEi
__ZN10CUtlVectorI17ResourceEntryInfo10CUtlMemoryIS0_iEED2Ev
__ZN10CUtlVectorI6S3RGBA10CUtlMemoryIS0_iEE20InsertMultipleBeforeEii
__ZN10CUtlVectorI6S3RGBA10CUtlMemoryIS0_iEED2Ev
__ZN10CUtlVectorI9Sticker_t10CUtlMemoryIS0_iEE10GrowVectorEi
__ZN10CUtlVectorI9Sticker_t10CUtlMemoryIS0_iEE5PurgeEv
__ZN10CUtlVectorI9Sticker_t10CUtlMemoryIS0_iEE8SetCountEi
__ZN10CUtlVectorI9Sticker_t10CUtlMemoryIS0_iEED2Ev
__ZN10CUtlVectorIN11CVTFTexture21ResourceMemorySectionE10CUtlMemoryIS1_iEE10GrowVectorEi
__ZN10CUtlVectorIN11CVTFTexture21ResourceMemorySectionE10CUtlMemoryIS1_iEED2Ev
__ZN10CUtlVectorIN13CShaderSystem15ShaderDLLInfo_tE10CUtlMemoryIS1_iEE12InsertBeforeEi
__ZN10CUtlVectorIN13CShaderSystem15ShaderDLLInfo_tE10CUtlMemoryIS1_iEE5PurgeEv
__ZN10CUtlVectorIN13CShaderSystem15ShaderDLLInfo_tE10CUtlMemoryIS1_iEED2Ev
__ZN10CUtlVectorIN16CVertexMorphDict17MorphVertexList_tE10CUtlMemoryIS1_iEED2Ev
__ZN10CUtlVectorIN18TextureLodOverride12OverrideInfoE10CUtlMemoryIS1_iEE20InsertMultipleBeforeEii
__ZN10CUtlVectorIN18TextureLodOverride12OverrideInfoE10CUtlMemoryIS1_iEED2Ev
__ZN10CUtlVectorIN21CMatRenderContextBase17PlaneStackElementE10CUtlMemoryIS1_iEE9AddToTailERKS1_
__ZN10CUtlVectorIN21CMatRenderContextBase17PlaneStackElementE10CUtlMemoryIS1_iEED2Ev
__ZN10CUtlVectorIN6CMorph11MorphQuad_tE10CUtlMemoryIS1_iEED2Ev
__ZN10CUtlVectorIN6CMorph14MorphSegment_tE10CUtlMemoryIS1_iEE9AddToTailERKS1_
__ZN10CUtlVectorIN6CMorph14MorphSegment_tE10CUtlMemoryIS1_iEED2Ev
__ZN10CUtlVectorIN8CTexture9DataChunkE10CUtlMemoryIS1_iEED2Ev
__ZN10CUtlVectorIP12IMaterialVar10CUtlMemoryIS1_iEE9AddToTailERKS1_
__ZN10CUtlVectorIP12IMaterialVar10CUtlMemoryIS1_iEED2Ev
__ZN10CUtlVectorIP14IMaterialProxy10CUtlMemoryIS1_iEE9AddToTailERKS1_
__ZN10CUtlVectorIP14IMaterialProxy10CUtlMemoryIS1_iEED2Ev
__ZN10CUtlVectorIP16ITextureInternal10CUtlMemoryIS1_iEE9AddToTailERKS1_
__ZN10CUtlVectorIP16ITextureInternal10CUtlMemoryIS1_iEED2Ev
__ZN10CUtlVectorIP17IMaterialInternal10CUtlMemoryIS1_iEED2Ev
__ZN10CUtlVectorIP18CTextureCompositor10CUtlMemoryIS1_iEE9AddToTailERKS1_
__ZN10CUtlVectorIP18CTextureCompositor10CUtlMemoryIS1_iEED2Ev
__ZN10CUtlVectorIP23ColorCorrectionLookup_t10CUtlMemoryIS1_iEED2Ev
__ZN10CUtlVectorIP7IShader10CUtlMemoryIS1_iEED2Ev
__ZN10CUtlVectorIP8CTCStage10CUtlMemoryIS1_iEED2Ev
__ZN10CUtlVectorIP9KeyValues10CUtlMemoryIS1_iEE10GrowVectorEi
__ZN10CUtlVectorIP9KeyValues10CUtlMemoryIS1_iEE9AddToTailERKS1_
__ZN10CUtlVectorIP9KeyValues10CUtlMemoryIS1_iEED2Ev
__ZN10CUtlVectorIPFviE10CUtlMemoryIS1_iEED2Ev
__ZN10CUtlVectorIPFvvE10CUtlMemoryIS1_iEED2Ev
__ZN10CUtlVectorIPKc10CUtlMemoryIS1_iEE12InsertBeforeEiRKS1_
__ZN10CUtlVectorIPKc10CUtlMemoryIS1_iEED2Ev
__ZN10CUtlVectorIPN15CUtlSymbolTable12StringPool_tE10CUtlMemoryIS2_iEED2Ev
__ZN10CUtlVectorIPc10CUtlMemoryIS0_iEE9AddToTailERKS0_
__ZN10CUtlVectorIPc10CUtlMemoryIS0_iEED2Ev
__ZN10CUtlVectorIPv10CUtlMemoryIS0_iEE10GrowVectorEi
__ZN10CUtlVectorIPv10CUtlMemoryIS0_iEED2Ev
__ZN10CUtlVectorIS_IN6CMorph11MorphQuad_tE10CUtlMemoryIS1_iEES2_IS4_iEED2Ev
__ZN10CUtlVectorIS_IN6CMorph14MorphSegment_tE10CUtlMemoryIS1_iEES2_IS4_iEED2Ev
__ZN10CUtlVectorIc10CUtlMemoryIciEE20InsertMultipleBeforeEii
__ZN10CUtlVectorIc10CUtlMemoryIciEED2Ev
__ZN10CUtlVectorIi10CUtlMemoryIiiEE10GrowVectorEi
__ZN10CUtlVectorIi10CUtlMemoryIiiEE20InsertMultipleBeforeEii
__ZN10CUtlVectorIi10CUtlMemoryIiiEED1Ev
__ZN10CUtlVectorIi10CUtlMemoryIiiEED2Ev
__ZN10CUtlVectorIj10CUtlMemoryIjiEED2Ev
__ZN10CVProfNode10EnterScopeEv
__ZN10CVProfNode10GetSubNodeEPKciS1_i
__ZN10CVProfNode9ExitScopeEv
__ZN10ColorSpace27LinearFloatToCorrectedShortEf
__ZN10ColorSpace8SetGammaEfffbb
__ZN10ConCommand15CanAutoCompleteEv
__ZN10ConCommand19AutoCompleteSuggestEPKcR10CUtlVectorI10CUtlString10CUtlMemoryIS3_iEE
__ZN10ConCommand8DispatchERK8CCommand
__ZN10ConCommandC1EPKcPFvRK8CCommandES1_iPFiS1_PA64_cE
__ZN10ConCommandC2EPKcP16ICommandCallbackS1_iP26ICommandCompletionCallback
__ZN10ConCommandD0Ev
__ZN10ConCommandD1Ev
__ZN10ConCommandD2Ev
__ZN11AsyncLoader10LoaderMainEPv
__ZN11AsyncLoader17ThreadLoader_MainEv
__ZN11AsyncLoader17ThreadMain_UpdateEv
__ZN11AsyncLoaderC2Ev
__ZN11AsyncLoaderD2Ev
__ZN11AsyncReader10ReaderMainEPv
__ZN11AsyncReader16ConvertTexelDataEP10CUtlMemoryIhiE11ImageFormatRS1_iiS3_b
__ZN11AsyncReader17ThreadMain_UpdateEv
__ZN11AsyncReader24ThreadReader_ProcessReadEP14AsyncReadJob_t
__ZN11AsyncReaderC2Ev
__ZN11CDummyMorph15AccumulateMorphEiPK13MorphWeight_t
__ZN11CDummyMorph4LockEf
__ZN11CDummyMorph6UnlockEv
__ZN11CDummyMorph8AddMorphERK17MorphVertexInfo_t
__ZN11CFunctorJob8DescribeEv
__ZN11CFunctorJob9DoExecuteEv
__ZN11CFunctorJobC2EP8CFunctorPKc
__ZN11CFunctorJobD0Ev
__ZN11CFunctorJobD1Ev
__ZN11CVTFTexture10ReadHeaderER10CUtlBufferR15VTFFileHeader_t
__ZN11CVTFTexture11PostProcessEb9LookDir_tb
__ZN11CVTFTexture11UnserializeER10CUtlBufferbi
__ZN11CVTFTexture12SetBumpScaleEf
__ZN11CVTFTexture13LoadImageDataER10CUtlBufferRK15VTFFileHeader_ti
__ZN11CVTFTexture13UnserializeExER10CUtlBufferbii
__ZN11CVTFTexture14GetMipmapRangeEPiS0_
__ZN11CVTFTexture15GenerateMipmapsEv
__ZN11CVTFTexture15InitLowResImageEii11ImageFormat
__ZN11CVTFTexture15LowResImageDataEv
__ZN11CVTFTexture15SetReflectivityERK6Vector
__ZN11CVTFTexture15SetResourceDataEjPKvm
__ZN11CVTFTexture17ComputeAlphaFlagsEv
__ZN11CVTFTexture17GenerateSpheremapE9LookDir_t
__ZN11CVTFTexture18ConvertImageFormatE11ImageFormatb
__ZN11CVTFTexture19ComputeReflectivityEv
__ZN11CVTFTexture19MatchCubeMapBordersEi11ImageFormatb
__ZN11CVTFTexture20ConstructLowResImageEv
__ZN11CVTFTexture20NormalizeTopMipLevelEv
__ZN11CVTFTexture21BlendCubeMapFaceEdgesEiiPK10CEdgeMatch
__ZN11CVTFTexture21ComputeSpheremapFrameEPPhS0_9LookDir_t
__ZN11CVTFTexture21GenerateHemisphereMapEPhii9LookDir_ti
__ZN11CVTFTexture21ResourceMemorySection8LoadDataER10CUtlBufferR9CByteswap
__ZN11CVTFTexture22BuildCubeMapMatchListsEP10CEdgeMatchP12CCornerMatchb
__ZN11CVTFTexture23BlendCubeMapFaceCornersEiiPK12CCornerMatch
__ZN11CVTFTexture23RemoveResourceEntryInfoEj
__ZN11CVTFTexture23SetAlphaTestThreshholdsEff
__ZN11CVTFTexture24BlendCubeMapEdgePalettesEiiPK10CEdgeMatch
__ZN11CVTFTexture24MatchCubeMapS3TCPalettesEP10CEdgeMatchP12CCornerMatch
__ZN11CVTFTexture25ComputeHemispheremapFrameEPPhS0_9LookDir_t
__ZN11CVTFTexture25FixCubemapFaceOrientationEv
__ZN11CVTFTexture25PutOneOverMipLevelInAlphaEv
__ZN11CVTFTexture25SetPostProcessingSettingsEPK20VtfProcessingOptions
__ZN11CVTFTexture26BlendCubeMapCornerPalettesEiiPK12CCornerMatch
__ZN11CVTFTexture26SetupTextureEdgeIncrementsEiiibP15CEdgeIncrements
__ZN11CVTFTexture29FindOrCreateResourceEntryInfoEj
__ZN11CVTFTexture4InitEiii11ImageFormatiii
__ZN11CVTFTexture8ShutdownEv
__ZN11CVTFTexture9ImageDataEiii
__ZN11CVTFTexture9ImageDataEiiiiii
__ZN11CVTFTexture9ImageDataEv
__ZN11CVTFTexture9SerializeER10CUtlBuffer
__ZN11CVTFTextureD0Ev
__ZN11CVTFTextureD1Ev
__ZN11ImageLoader11CompressSTBI10BGRA8888_tEEvPh11ImageFormatPKhii
__ZN11ImageLoader11CompressSTBI10BGRX8888_tEEvPh11ImageFormatPKhii
__ZN11ImageLoader11CompressSTBI10RGBA8888_tEEvPh11ImageFormatPKhii
__ZN11ImageLoader11CompressSTBI8RGB888_tEEvPh11ImageFormatPKhii
__ZN11ImageLoader14CKernelWrapperILi0ELb0EE11ApplyKernelERKNS_12KernelInfo_tERKNS_14ResampleInfo_tEiiiPfS8_
__ZN11ImageLoader14CKernelWrapperILi0ELb0EE20ComputeAveragedColorERKNS_12KernelInfo_tERKNS_14ResampleInfo_tEiiiPfS8_
__ZN11ImageLoader14CKernelWrapperILi0ELb1EE11ApplyKernelERKNS_12KernelInfo_tERKNS_14ResampleInfo_tEiiiPfS8_
__ZN11ImageLoader14CKernelWrapperILi0ELb1EE20ComputeAveragedColorERKNS_12KernelInfo_tERKNS_14ResampleInfo_tEiiiPfS8_
__ZN11ImageLoader14CKernelWrapperILi1ELb0EE11ApplyKernelERKNS_12KernelInfo_tERKNS_14ResampleInfo_tEiiiPfS8_
__ZN11ImageLoader14CKernelWrapperILi1ELb0EE20ComputeAveragedColorERKNS_12KernelInfo_tERKNS_14ResampleInfo_tEiiiPfS8_
__ZN11ImageLoader14CKernelWrapperILi1ELb1EE11ApplyKernelERKNS_12KernelInfo_tERKNS_14ResampleInfo_tEiiiPfS8_
__ZN11ImageLoader14CKernelWrapperILi1ELb1EE20ComputeAveragedColorERKNS_12KernelInfo_tERKNS_14ResampleInfo_tEiiiPfS8_
__ZN11ImageLoader14CKernelWrapperILi2ELb0EE11ApplyKernelERKNS_12KernelInfo_tERKNS_14ResampleInfo_tEiiiPfS8_
__ZN11ImageLoader14CKernelWrapperILi2ELb0EE18AdjustAlphaChannelERKNS_12KernelInfo_tERKNS_14ResampleInfo_tEiiiPf
__ZN11ImageLoader14CKernelWrapperILi2ELb0EE20ComputeAveragedColorERKNS_12KernelInfo_tERKNS_14ResampleInfo_tEiiiPfS8_
__ZN11ImageLoader14CKernelWrapperILi2ELb0EE21AddAlphaToAlphaResultERKNS_12KernelInfo_tERKNS_14ResampleInfo_tEiiifPf
__ZN11ImageLoader14CKernelWrapperILi2ELb1EE11ApplyKernelERKNS_12KernelInfo_tERKNS_14ResampleInfo_tEiiiPfS8_
__ZN11ImageLoader14CKernelWrapperILi2ELb1EE18AdjustAlphaChannelERKNS_12KernelInfo_tERKNS_14ResampleInfo_tEiiiPf
__ZN11ImageLoader14CKernelWrapperILi2ELb1EE20ComputeAveragedColorERKNS_12KernelInfo_tERKNS_14ResampleInfo_tEiiiPfS8_
__ZN11ImageLoader14CKernelWrapperILi2ELb1EE21AddAlphaToAlphaResultERKNS_12KernelInfo_tERKNS_14ResampleInfo_tEiiifPf
__ZN11ImageLoader14GetMemRequiredEiii11ImageFormatb
__ZN11ImageLoader14RotateImage180EPKhPhi11ImageFormat
__ZN11ImageLoader15ImageFormatInfoE11ImageFormat
__ZN11ImageLoader15RotateImageLeftEPKhPhi11ImageFormat
__ZN11ImageLoader16ResampleRGBA8888ERKNS_14ResampleInfo_tE
__ZN11ImageLoader18ConvertImageFormatEPKh11ImageFormatPhS2_iiii
__ZN11ImageLoader18GetNumMipMapLevelsEiii
__ZN11ImageLoader18ResampleRGB323232FERKNS_14ResampleInfo_tE
__ZN11ImageLoader19ConvertToDXTRuntimeEPKh11ImageFormatPhS2_iiii
__ZN11ImageLoader19FlipImageVerticallyEPvS0_ii11ImageFormati
__ZN11ImageLoader20GammaCorrectRGBA8888EPhS0_iiiff
__ZN11ImageLoader20GenerateMipmapLevelsEPhS0_iii11ImageFormatffi
__ZN11ImageLoader21FlipImageHorizontallyEPvS0_ii11ImageFormati
__ZN11ImageLoader22GenerateMipmapLevelsLQEPhS0_ii11ImageFormati
__ZN11ImageLoader26NormalizeNormalMapRGBA8888EPhi
__ZN11ImageLoader37ConvertNormalMapRGBA8888ToDUDVMapUV88EPKhiiPh
__ZN11ImageLoader41ConvertImageFormat_RGB323232F_To_BGRA8888EPfPhii
__ZN11ImageLoader41ConvertImageFormat_RGB323232F_To_RGBA8888EPfPhii
__ZN11ImageLoader41ConvertNormalMapRGBA8888ToDUDVMapUVLX8888EPKhiiPh
__ZN11ImageLoader41ConvertNormalMapRGBA8888ToDUDVMapUVWQ8888EPKhiiPh
__ZN11ImageLoader46ConvertImageFormat_RGBA16161616F_To_RGB323232FEP7float16Pfii
__ZN11ImageLoader47ConvertImageFormat_RGBA16161616F_To_RGBA323232FEP7float16Pfiim
__ZN11ImageLoader48ConvertImageFormat_RGBA16161616F_To_RGBA16161616EP7float16Ptii
__ZN11ImageLoader48ConvertImageFormat_RGBA16161616_To_RGBA16161616FEPtPfii
__ZN11ImageLoaderL12A8ToRGBA8888EPKhPhi
__ZN11ImageLoaderL12I8ToRGBA8888EPKhPhi
__ZN11ImageLoaderL12RGBA8888ToA8EPKhPhi
__ZN11ImageLoaderL12RGBA8888ToI8EPKhPhi
__ZN11ImageLoaderL12g_KernelFuncE
__ZN11ImageLoaderL14IA88ToRGBA8888EPKhPhi
__ZN11ImageLoaderL14RGBA8888ToIA88EPKhPhi
__ZN11ImageLoaderL14RGBA8888ToUV88EPKhPhi
__ZN11ImageLoaderL14UV88ToRGBA8888EPKhPhi
__ZN11ImageLoaderL15ConvertFromDXT1I10BGRA4444_tEEvPKhPT_ii
__ZN11ImageLoaderL15ConvertFromDXT1I10BGRA5551_tEEvPKhPT_ii
__ZN11ImageLoaderL15ConvertFromDXT1I10BGRA8888_tEEvPKhPT_ii
__ZN11ImageLoaderL15ConvertFromDXT1I10RGBA8888_tEEvPKhPT_ii
__ZN11ImageLoaderL15ConvertFromDXT1I8BGR565_tEEvPKhPT_ii
__ZN11ImageLoaderL15ConvertFromDXT1I8BGR888_tEEvPKhPT_ii
__ZN11ImageLoaderL15ConvertFromDXT1I8RGB888_tEEvPKhPT_ii
__ZN11ImageLoaderL15ConvertFromDXT5I10BGRA4444_tEEvPKhPT_ii
__ZN11ImageLoaderL15ConvertFromDXT5I10BGRA5551_tEEvPKhPT_ii
__ZN11ImageLoaderL15ConvertFromDXT5I10BGRA8888_tEEvPKhPT_ii
__ZN11ImageLoaderL15ConvertFromDXT5I10RGBA8888_tEEvPKhPT_ii
__ZN11ImageLoaderL16BGR565ToRGBA8888EPKhPhi
__ZN11ImageLoaderL16BGR888ToRGBA8888EPKhPhi
__ZN11ImageLoaderL16ConvertFromATIxNI10BGRA8888_tEEvPKhPT_iib
__ZN11ImageLoaderL16RGB888ToRGBA8888EPKhPhi
__ZN11ImageLoaderL16RGBA8888ToBGR565EPKhPhi
__ZN11ImageLoaderL16RGBA8888ToBGR888EPKhPhi
__ZN11ImageLoaderL16RGBA8888ToRGB888EPKhPhi
__ZN11ImageLoaderL16g_KernelFuncNiceE
__ZN11ImageLoaderL18ABGR8888ToRGBA8888EPKhPhi
__ZN11ImageLoaderL18ARGB8888ToRGBA8888EPKhPhi
__ZN11ImageLoaderL18BGRA4444ToRGBA8888EPKhPhi
__ZN11ImageLoaderL18BGRA5551ToRGBA8888EPKhPhi
__ZN11ImageLoaderL18BGRA8888ToRGBA8888EPKhPhi
__ZN11ImageLoaderL18BGRX5551ToRGBA8888EPKhPhi
__ZN11ImageLoaderL18BGRX8888ToRGBA8888EPKhPhi
__ZN11ImageLoaderL18GenerateNiceFilterEfffiPfS0_
__ZN11ImageLoaderL18RGBA8888ToABGR8888EPKhPhi
__ZN11ImageLoaderL18RGBA8888ToARGB8888EPKhPhi
__ZN11ImageLoaderL18RGBA8888ToBGRA4444EPKhPhi
__ZN11ImageLoaderL18RGBA8888ToBGRA5551EPKhPhi
__ZN11ImageLoaderL18RGBA8888ToBGRA8888EPKhPhi
__ZN11ImageLoaderL18RGBA8888ToBGRX5551EPKhPhi
__ZN11ImageLoaderL18RGBA8888ToBGRX8888EPKhPhi
__ZN11ImageLoaderL18RGBA8888ToRGBA8888EPKhPhi
__ZN11ImageLoaderL18RGBA8888ToUVLX8888EPKhPhi
__ZN11ImageLoaderL18RGBA8888ToUVWQ8888EPKhPhi
__ZN11ImageLoaderL18UVLX8888ToRGBA8888EPKhPhi
__ZN11ImageLoaderL18UVWQ8888ToRGBA8888EPKhPhi
__ZN11ImageLoaderL21DecodeAlpha3BitLinearI10BGRA8888_tEEvPT_PNS_23DXTAlphaBlock3BitLinearEii
__ZN11ImageLoaderL22RGBA16161616ToRGBA8888EPKhPhi
__ZN11ImageLoaderL26ConvertFromDXT5IgnoreAlphaI8BGR565_tEEvPKhPT_ii
__ZN11ImageLoaderL26ConvertFromDXT5IgnoreAlphaI8BGR888_tEEvPKhPT_ii
__ZN11ImageLoaderL26ConvertFromDXT5IgnoreAlphaI8RGB888_tEEvPKhPT_ii
__ZN11ImageLoaderL27BGR888_BLUESCREENToRGBA8888EPKhPhi
__ZN11ImageLoaderL27GetColorBlockColorsBGRA8888EPNS_11DXTColBlockEP10BGRA8888_tS3_S3_S3_Rt
__ZN11ImageLoaderL27RGB888_BLUESCREENToRGBA8888EPKhPhi
__ZN11ImageLoaderL27RGBA8888ToBGR888_BLUESCREENEPKhPhi
__ZN11ImageLoaderL27RGBA8888ToRGB888_BLUESCREENEPKhPhi
__ZN12CEmptyConVar8SetValueEPKc
__ZN12CEmptyConVar8SetValueEf
__ZN12CEmptyConVar8SetValueEi
__ZN12CEmptyConVarD0Ev
__ZN12CEmptyConVarD1Ev
__ZN12CImagePacker20GetMinimumDimensionsEPiS0_
__ZN12CImagePacker5ResetEiii
__ZN12CImagePacker8AddBlockEiiPiS0_
__ZN12CMaterialVar11CleanUpDataEv
__ZN12CMaterialVar11SetIntValueEi
__ZN12CMaterialVar11SetVecValueEPKfi
__ZN12CMaterialVar11SetVecValueEff
__ZN12CMaterialVar11SetVecValueEfff
__ZN12CMaterialVar11SetVecValueEffff
__ZN12CMaterialVar12SetUndefinedEv
__ZN12CMaterialVar13SetFloatValueEf
__ZN12CMaterialVar14GetFourCCValueEPmPPv
__ZN12CMaterialVar14GetMatrixValueEv
__ZN12CMaterialVar14SetFourCCValueEmPv
__ZN12CMaterialVar14SetMatrixValueERK7VMatrix
__ZN12CMaterialVar14SetStringValueEPKc
__ZN12CMaterialVar15GetTextureValueEv
__ZN12CMaterialVar15SetTextureValueEP8ITexture
__ZN12CMaterialVar16GetMaterialValueEv
__ZN12CMaterialVar16SetMaterialValueEP9IMaterial
__ZN12CMaterialVar17GetOwningMaterialEv
__ZN12CMaterialVar19SetVecValueInternalERK8Vector4Di
__ZN12CMaterialVar20SetVecComponentValueEfi
__ZN12CMaterialVar21SetTextureValueQueuedEP8ITexture
__ZN12CMaterialVar22SetValueAutodetectTypeEPKc
__ZN12CMaterialVar8CopyFromEP12IMaterialVar
__ZN12CMaterialVar9s_CharBufE
__ZN12CMaterialVarC2EP9IMaterialPKc
__ZN12CMaterialVarC2EP9IMaterialPKcPfi
__ZN12CMaterialVarC2EP9IMaterialPKcRK7VMatrix
__ZN12CMaterialVarC2EP9IMaterialPKcS3_
__ZN12CMaterialVarC2EP9IMaterialPKcf
__ZN12CMaterialVarC2EP9IMaterialPKci
__ZN12CMaterialVarD0Ev
__ZN12CMaterialVarD1Ev
__ZN12CMaterialVarcvP8ITextureEv
__ZN12CMemoryStack16FreeToAllocPointEjb
__ZN12CMemoryStack4InitEjjjj
__ZN12CMemoryStack4TermEv
__ZN12CMemoryStack7FreeAllEb
__ZN12CMemoryStack8CommitToEPh
__ZN12CMemoryStackC1Ev
__ZN12CMemoryStackD1Ev
__ZN12CRefCounted1I11IRefCounted20CRefCountServiceBaseILb1E6CRefMTEE6AddRefEv
__ZN12CRefCounted1I11IRefCounted20CRefCountServiceBaseILb1E6CRefMTEE7ReleaseEv
__ZN12CRefCounted1I17IMatRenderContext20CRefCountServiceNullE6AddRefEv
__ZN12CRefCounted1I17IMatRenderContext20CRefCountServiceNullE7ReleaseEv
__ZN12CRefCounted1I25IMatRenderContextInternal20CRefCountServiceBaseILb1E6CRefMTEE6AddRefEv
__ZN12CRefCounted1I25IMatRenderContextInternal20CRefCountServiceBaseILb1E6CRefMTEE7ReleaseEv
__ZN12CRefCounted1I8CFunctor20CRefCountServiceBaseILb1E6CRefMTEE6AddRefEv
__ZN12CRefCounted1I8CFunctor20CRefCountServiceBaseILb1E6CRefMTEE7ReleaseEv
__ZN12CRefCounted1I8CFunctor24CRefCountServiceDestructI6CRefSTEE6AddRefEv
__ZN12CRefCounted1I8CFunctor24CRefCountServiceDestructI6CRefSTEE7ReleaseEv
__ZN12CTCCopyStage11ResolveThisEP18CTextureCompositor
__ZN12CTCCopyStage15RequestTexturesEv
__ZN12CTCCopyStage21OnAsyncCreateCompleteEP8ITexturePv
__ZN12CTCCopyStage23ComputeRandomValuesThisEP20CUniformRandomStream
__ZN12CTCCopyStageD0Ev
__ZN12CTCCopyStageD1Ev
__ZN12CTCCopyStageD2Ev
__ZN12CThreadEvent3SetEv
__ZN12CThreadEventC1Eb
__ZN12IMaterialVar10FindSymbolEPKc
__ZN12IMaterialVar13SymbolMatchesEPKct
__ZN12IMaterialVar26DeleteUnreferencedTexturesEb
__ZN12IMaterialVar6CreateEP9IMaterialPKc
__ZN12IMaterialVar6CreateEP9IMaterialPKcPfi
__ZN12IMaterialVar6CreateEP9IMaterialPKcRK7VMatrix
__ZN12IMaterialVar6CreateEP9IMaterialPKcS3_
__ZN12IMaterialVar6CreateEP9IMaterialPKcf
__ZN12IMaterialVar6CreateEP9IMaterialPKci
__ZN12IMaterialVar7DestroyEPS_
__ZN12InterfaceReg16s_pInterfaceRegsE
__ZN12InterfaceRegC1EPFPvvEPKc
__ZN13CDummyTexture10SaveToFileEPKc
__ZN13CDummyTexture12SwapContentsEP8ITexture
__ZN13CDummyTexture15SetErrorTextureEb
__ZN13CDummyTexture16ForceLODOverrideEi
__ZN13CDummyTexture18GetEmbeddedTextureEi
__ZN13CDummyTexture20CopyToStagingTextureEP8ITexture
__ZN13CDummyTexture20DeleteIfUnreferencedEv
__ZN13CDummyTexture21SetTextureRegeneratorEP19ITextureRegenerator
__ZN13CDummyTexture23DecrementReferenceCountEv
__ZN13CDummyTexture23IncrementReferenceCountEv
__ZN13CDummyTexture8DownloadEP6Rect_ti
__ZN13CDummyTexture9BDownloadEP6Rect_ti
__ZN13CMatCallQueue9QueueCallI13CLateBoundPtrI5IMeshES2_v23MaterialPrimitiveType_tS4_EEvT_MT0_FT1_T2_ERKT3_
__ZN13CMatCallQueue9QueueCallI13CLateBoundPtrI5IMeshES2_vEEvT_MT0_FT1_vE
__ZN13CMatCallQueue9QueueCallI13CLateBoundPtrI5IMeshES2_vPS2_iS4_iEEvT_MT0_FT1_T2_T3_ERKT4_RKT5_
__ZN13CMatCallQueue9QueueCallI13CLateBoundPtrI5IMeshES2_viiiiEEvT_MT0_FT1_T2_T3_ERKT4_RKT5_
__ZN13CMatCallQueue9QueueCallIP10IShaderAPIS1_vEEvT_MT0_FT1_vE
__ZN13CMatCallQueue9QueueCallIP12CMaterialVarS1_vEEvT_MT0_FT1_vE
__ZN13CMatCallQueue9QueueCallIP12CMaterialVarS1_vP12IMaterialVarS4_EEvT_MT0_FT1_T2_ERKT3_
__ZN13CMatCallQueue9QueueCallIP12CMaterialVarS1_vP8ITextureS4_EEvT_MT0_FT1_T2_ERKT3_
__ZN13CMatCallQueue9QueueCallIP12CMaterialVarS1_vP9IMaterialS4_EEvT_MT0_FT1_T2_ERKT3_
__ZN13CMatCallQueue9QueueCallIP12CMaterialVarS1_vPKc12CUtlEnvelopeIS4_EEEvT_MT0_FT1_T2_ERKT3_
__ZN13CMatCallQueue9QueueCallIP12CMaterialVarS1_vRK7VMatrixS3_EEvT_MT0_FT1_T2_ERKT3_
__ZN13CMatCallQueue9QueueCallIP12CMaterialVarS1_vRK8Vector4DiS3_iEEvT_MT0_FT1_T2_T3_ERKT4_RKT5_
__ZN13CMatCallQueue9QueueCallIP12CMaterialVarS1_vffEEvT_MT0_FT1_T2_ERKT3_
__ZN13CMatCallQueue9QueueCallIP12CMaterialVarS1_vfifiEEvT_MT0_FT1_T2_T3_ERKT4_RKT5_
__ZN13CMatCallQueue9QueueCallIP12CMaterialVarS1_viiEEvT_MT0_FT1_T2_ERKT3_
__ZN13CMatCallQueue9QueueCallIP12CMaterialVarS1_vmPvmS3_EEvT_MT0_FT1_T2_T3_ERKT4_RKT5_
__ZN13CMatCallQueue9QueueCallIP13CMatLightmapsS1_vEEvT_MT0_FT1_vE
__ZN13CMatCallQueue9QueueCallIP14CMatQueuedMeshS1_vPhiiPtiS3_iiS4_iEEvT_MT0_FT1_T2_T3_T4_T5_T6_ERKT7_RKT8_RKT9_RKT10_RKT11_
__ZN13CMatCallQueue9QueueCallIP14CMatQueuedMeshS1_vyjP5IMeshS4_P17IMaterialInternalyjS4_S4_S6_EEvT_MT0_FT1_T2_T3_T4_T5_T6_ERKT7_RKT8_RKT9_RKT10_RKT11_
__ZN13CMatCallQueue9QueueCallIP18COcclusionQueryMgrS1_vP30OcclusionQueryObjectHandle_t__S4_EEvT_MT0_FT1_T2_ERKT3_
__ZN13CMatCallQueue9QueueCallIP21CMatRenderContextBase17IMatRenderContextbbbEEvT_MT0_FT1_T2_ERKT3_
__ZN13CMatCallQueue9QueueCallIP21CMatRenderContextBase17IMatRenderContextv17MaterialFogMode_tS4_EEvT_MT0_FT1_T2_ERKT3_
__ZN13CMatCallQueue9QueueCallIP21CMatRenderContextBase17IMatRenderContextv18MaterialCullMode_tS4_EEvT_MT0_FT1_T2_ERKT3_
__ZN13CMatCallQueue9QueueCallIP21CMatRenderContextBase17IMatRenderContextv18StencilOperation_tS4_EEvT_MT0_FT1_T2_ERKT3_
__ZN13CMatCallQueue9QueueCallIP21CMatRenderContextBase17IMatRenderContextv20MaterialMatrixMode_tS4_EEvT_MT0_FT1_T2_ERKT3_
__ZN13CMatCallQueue9QueueCallIP21CMatRenderContextBase17IMatRenderContextv24MaterialHeightClipMode_tS4_EEvT_MT0_FT1_T2_ERKT3_
__ZN13CMatCallQueue9QueueCallIP21CMatRenderContextBase17IMatRenderContextv27StencilComparisonFunction_tS4_EEvT_MT0_FT1_T2_ERKT3_
__ZN13CMatCallQueue9QueueCallIP21CMatRenderContextBase17IMatRenderContextv28MaterialNonInteractiveMode_tS4_EEvT_MT0_FT1_T2_ERKT3_
__ZN13CMatCallQueue9QueueCallIP21CMatRenderContextBase17IMatRenderContextv6VectorS4_EEvT_MT0_FT1_T2_ERKT3_
__ZN13CMatCallQueue9QueueCallIP21CMatRenderContextBase17IMatRenderContextvEEvT_MT0_FT1_vE
__ZN13CMatCallQueue9QueueCallIP21CMatRenderContextBase17IMatRenderContextvP30OcclusionQueryObjectHandle_t__S5_EEvT_MT0_FT1_T2_ERKT3_
__ZN13CMatCallQueue9QueueCallIP21CMatRenderContextBase17IMatRenderContextvP5IMeshP9IMaterialS5_S7_EEvT_MT0_FT1_T2_T3_ERKT4_RKT5_
__ZN13CMatCallQueue9QueueCallIP21CMatRenderContextBase17IMatRenderContextvP5IMeshS5_EEvT_MT0_FT1_T2_ERKT3_
__ZN13CMatCallQueue9QueueCallIP21CMatRenderContextBase17IMatRenderContextvP6IMorphS5_EEvT_MT0_FT1_T2_ERKT3_
__ZN13CMatCallQueue9QueueCallIP21CMatRenderContextBase17IMatRenderContextvP8ITexture28MaterialNonInteractiveMode_tS5_S6_EEvT_MT0_FT1_T2_T3_ERKT4_RKT5_
__ZN13CMatCallQueue9QueueCallIP21CMatRenderContextBase17IMatRenderContextvP8ITexturePKc11ImageFormatbiP30IAsyncTextureOperationReceiverPvS5_S7_S8_biSA_SB_EEvT_MT0_FT1_T2_T3_T4_T5_T6_T7_T8_ERKT9_RKT10_RKT11_RKT12_RKT13_RKT14_RKT15_
__ZN13CMatCallQueue9QueueCallIP21CMatRenderContextBase17IMatRenderContextvP8ITextureS5_EEvT_MT0_FT1_T2_ERKT3_
__ZN13CMatCallQueue9QueueCallIP21CMatRenderContextBase17IMatRenderContextvP8ITextureS5_iiiiS5_S5_iiiiEEvT_MT0_FT1_T2_T3_T4_T5_T6_T7_ERKT8_RKT9_RKT10_RKT11_RKT12_RKT13_
__ZN13CMatCallQueue9QueueCallIP21CMatRenderContextBase17IMatRenderContextvP8ITexturefffS5_fffEEvT_MT0_FT1_T2_T3_T4_T5_ERKT6_RKT7_RKT8_RKT9_
__ZN13CMatCallQueue9QueueCallIP21CMatRenderContextBase17IMatRenderContextvP8ITextureiP6Rect_tS7_S5_i12CUtlEnvelopeIS6_ES9_EEvT_MT0_FT1_T2_T3_T4_T5_ERKT6_RKT7_RKT8_RKT9_
__ZN13CMatCallQueue9QueueCallIP21CMatRenderContextBase17IMatRenderContextvP8ITextureiS5_iEEvT_MT0_FT1_T2_T3_ERKT4_RKT5_
__ZN13CMatCallQueue9QueueCallIP21CMatRenderContextBase17IMatRenderContextvP8ITextureiiiiS5_iiiiEEvT_MT0_FT1_T2_T3_T4_T5_T6_ERKT7_RKT8_RKT9_RKT10_RKT11_
__ZN13CMatCallQueue9QueueCallIP21CMatRenderContextBase17IMatRenderContextvP8Vector4D12CUtlEnvelopeIS4_EEEvT_MT0_FT1_T2_ERKT3_
__ZN13CMatCallQueue9QueueCallIP21CMatRenderContextBase17IMatRenderContextvP9IMaterialPvS5_S6_EEvT_MT0_FT1_T2_T3_ERKT4_RKT5_
__ZN13CMatCallQueue9QueueCallIP21CMatRenderContextBase17IMatRenderContextvP9IMaterialS5_EEvT_MT0_FT1_T2_ERKT3_
__ZN13CMatCallQueue9QueueCallIP21CMatRenderContextBase17IMatRenderContextvP9IMaterialiiiiffffiiPviiS5_iiiiffffiiS6_iiEEvT_MT0_FT1_T2_T3_T4_T5_T6_T7_T8_T9_T10_T11_T12_T13_T14_T15_ERKT16_RKT17_RKT18_RKT19_RKT20_RKT21_RKT22_RKT23_RKT24_RKT25_RKT26_RKT27_RKT28_RKT29_
__ZN13CMatCallQueue9QueueCallIP21CMatRenderContextBase17IMatRenderContextvPKc12CUtlEnvelopeIS5_EEEvT_MT0_FT1_T2_ERKT3_
__ZN13CMatCallQueue9QueueCallIP21CMatRenderContextBase17IMatRenderContextvPKf12CUtlEnvelopeIfEEEvT_MT0_FT1_T2_ERKT3_
__ZN13CMatCallQueue9QueueCallIP21CMatRenderContextBase17IMatRenderContextvRK17FlashlightState_tRK7VMatrixP8ITextureS4_S7_SB_EEvT_MT0_FT1_T2_T3_T4_ERKT5_RKT6_RKT7_
__ZN13CMatCallQueue9QueueCallIP21CMatRenderContextBase17IMatRenderContextvRK17FlashlightState_tRK7VMatrixS4_S7_EEvT_MT0_FT1_T2_T3_ERKT4_RKT5_
__ZN13CMatCallQueue9QueueCallIP21CMatRenderContextBase17IMatRenderContextvRK6VectorS4_EEvT_MT0_FT1_T2_ERKT3_
__ZN13CMatCallQueue9QueueCallIP21CMatRenderContextBase17IMatRenderContextvRK7VMatrixS4_EEvT_MT0_FT1_T2_ERKT3_
__ZN13CMatCallQueue9QueueCallIP21CMatRenderContextBase17IMatRenderContextvbbEEvT_MT0_FT1_T2_ERKT3_
__ZN13CMatCallQueue9QueueCallIP21CMatRenderContextBase17IMatRenderContextvbbbbEEvT_MT0_FT1_T2_T3_ERKT4_RKT5_
__ZN13CMatCallQueue9QueueCallIP21CMatRenderContextBase17IMatRenderContextvbbbbbbEEvT_MT0_FT1_T2_T3_T4_ERKT5_RKT6_RKT7_
__ZN13CMatCallQueue9QueueCallIP21CMatRenderContextBase17IMatRenderContextvffEEvT_MT0_FT1_T2_ERKT3_
__ZN13CMatCallQueue9QueueCallIP21CMatRenderContextBase17IMatRenderContextvffffEEvT_MT0_FT1_T2_T3_ERKT4_RKT5_
__ZN13CMatCallQueue9QueueCallIP21CMatRenderContextBase17IMatRenderContextvffffffEEvT_MT0_FT1_T2_T3_T4_ERKT5_RKT6_RKT7_
__ZN13CMatCallQueue9QueueCallIP21CMatRenderContextBase17IMatRenderContextvhhhhhhEEvT_MT0_FT1_T2_T3_T4_ERKT5_RKT6_RKT7_
__ZN13CMatCallQueue9QueueCallIP21CMatRenderContextBase17IMatRenderContextvhhhhhhhhEEvT_MT0_FT1_T2_T3_T4_T5_ERKT6_RKT7_RKT8_RKT9_
__ZN13CMatCallQueue9QueueCallIP21CMatRenderContextBase17IMatRenderContextviP8ITextureP6Rect_tS7_iS5_12CUtlEnvelopeIS6_ES9_EEvT_MT0_FT1_T2_T3_T4_T5_ERKT6_RKT7_RKT8_RKT9_
__ZN13CMatCallQueue9QueueCallIP21CMatRenderContextBase17IMatRenderContextviP8ITextureiS5_EEvT_MT0_FT1_T2_T3_ERKT4_RKT5_
__ZN13CMatCallQueue9QueueCallIP21CMatRenderContextBase17IMatRenderContextviRK11LightDesc_tiS4_EEvT_MT0_FT1_T2_T3_ERKT4_RKT5_
__ZN13CMatCallQueue9QueueCallIP21CMatRenderContextBase17IMatRenderContextviRK11matrix3x4_tiS4_EEvT_MT0_FT1_T2_T3_ERKT4_RKT5_
__ZN13CMatCallQueue9QueueCallIP21CMatRenderContextBase17IMatRenderContextviRK6VectoriS4_EEvT_MT0_FT1_T2_T3_ERKT4_RKT5_
__ZN13CMatCallQueue9QueueCallIP21CMatRenderContextBase17IMatRenderContextvififEEvT_MT0_FT1_T2_T3_ERKT4_RKT5_
__ZN13CMatCallQueue9QueueCallIP21CMatRenderContextBase17IMatRenderContextviiEEvT_MT0_FT1_T2_ERKT3_
__ZN13CMatCallQueue9QueueCallIP21CMatRenderContextBase17IMatRenderContextviiiiEEvT_MT0_FT1_T2_T3_ERKT4_RKT5_
__ZN13CMatCallQueue9QueueCallIP21CMatRenderContextBase17IMatRenderContextviiiibiiiibEEvT_MT0_FT1_T2_T3_T4_T5_T6_ERKT7_RKT8_RKT9_RKT10_RKT11_
__ZN13CMatCallQueue9QueueCallIP21CMatRenderContextBase17IMatRenderContextviiiiiiiiEEvT_MT0_FT1_T2_T3_T4_T5_ERKT6_RKT7_RKT8_RKT9_
__ZN13CMatCallQueue9QueueCallIP21CMatRenderContextBase17IMatRenderContextviiiiiiiiiiEEvT_MT0_FT1_T2_T3_T4_T5_T6_ERKT7_RKT8_RKT9_RKT10_RKT11_
__ZN13CMatCallQueue9QueueCallIP21CMatRenderContextBase17IMatRenderContextvjjEEvT_MT0_FT1_T2_ERKT3_
__ZN13CMatCallQueue9QueueCallIP21CMatRenderContextBase17IMatRenderContextvmPKcm12CUtlEnvelopeIS5_EEEvT_MT0_FT1_T2_T3_ERKT4_RKT5_
__ZN13CMatCallQueue9QueueCallIP21CMatRenderContextBase25IMatRenderContextInternalvEEvT_MT0_FT1_vE
__ZN13CMatCallQueue9QueueCallIP21CMatRenderContextBase25IMatRenderContextInternalvP16ITextureInternalP30IAsyncTextureOperationReceiverPvS5_S7_S8_EEvT_MT0_FT1_T2_T3_T4_ERKT5_RKT6_RKT7_
__ZN13CMatCallQueue9QueueCallIP21CMatRenderContextBase25IMatRenderContextInternalvP16ITextureInternalS5_EEvT_MT0_FT1_T2_ERKT3_
__ZN13CMatCallQueue9QueueCallIP21CMatRenderContextBase25IMatRenderContextInternalvP17IMaterialInternalS5_EEvT_MT0_FT1_T2_ERKT3_
__ZN13CMatCallQueue9QueueCallIP21CMatRenderContextBase25IMatRenderContextInternalvP8ITextureS5_P30IAsyncTextureOperationReceiverPvS5_S5_S7_S8_EEvT_MT0_FT1_T2_T3_T4_T5_ERKT6_RKT7_RKT8_RKT9_
__ZN13CMatCallQueue9QueueCallIP21CMatRenderContextBase25IMatRenderContextInternalvPvS4_EEvT_MT0_FT1_T2_ERKT3_
__ZN13CMatCallQueue9QueueCallIP21CMatRenderContextBase25IMatRenderContextInternalvffEEvT_MT0_FT1_T2_ERKT3_
__ZN13CMatCallQueue9QueueCallIP22IColorCorrectionSystemS1_vEEvT_MT0_FT1_vE
__ZN13CMatCallQueue9QueueCallIP22IColorCorrectionSystemS1_vbbEEvT_MT0_FT1_T2_ERKT3_
__ZN13CMatCallQueue9QueueCallIP22IColorCorrectionSystemS1_vjbjbEEvT_MT0_FT1_T2_T3_ERKT4_RKT5_
__ZN13CMatCallQueue9QueueCallIP22IColorCorrectionSystemS1_vjfjfEEvT_MT0_FT1_T2_T3_ERKT4_RKT5_
__ZN13CMatCallQueue9QueueCallIP23CMatQueuedRenderContextS1_vP5IMeshP9CPrimListiS4_S6_iEEvT_MT0_FT1_T2_T3_T4_ERKT5_RKT6_RKT7_
__ZN13CMatCallQueue9QueueCallIP23CMatQueuedRenderContextS1_vP5IMeshiS4_iEEvT_MT0_FT1_T2_T3_ERKT4_RKT5_
__ZN13CMatCallQueue9QueueCallIP23CMatQueuedRenderContextS1_vPtiS3_iEEvT_MT0_FT1_T2_T3_ERKT4_RKT5_
__ZN13CMatCallQueue9QueueCallIP5IMeshS1_v23MaterialPrimitiveType_tS3_EEvT_MT0_FT1_T2_ERKT3_
__ZN13CMatCallQueue9QueueCallIP5IMeshS1_vS2_iS2_iEEvT_MT0_FT1_T2_T3_ERKT4_RKT5_
__ZN13CMatCallQueue9QueueCallIP5IMeshS1_viiiiEEvT_MT0_FT1_T2_T3_ERKT4_RKT5_
__ZN13CMatCallQueue9QueueCallIP9CMaterialS1_v18MaterialVarFlags_tbS3_bEEvT_MT0_FT1_T2_T3_ERKT4_RKT5_
__ZN13CMatCallQueue9QueueCallIP9CMaterialS1_vEEvT_MT0_FT1_vE
__ZN13CMatLightmaps11GetSortInfoEP25MaterialSystem_SortInfo_t
__ZN13CMatLightmaps12LockLightmapEi
__ZN13CMatLightmaps13GetNumSortIDsEv
__ZN13CMatLightmaps14UpdateLightmapEiPiS0_PfS1_S1_S1_
__ZN13CMatLightmaps15ComputeSortInfoEP25MaterialSystem_SortInfo_tRib
__ZN13CMatLightmaps16AllocateLightmapEiiPiP9IMaterial
__ZN13CMatLightmaps16CleanupLightmapsEv
__ZN13CMatLightmaps16InitLightmapBitsEi
__ZN13CMatLightmaps18EndUpdateLightmapsEv
__ZN13CMatLightmaps20BeginUpdateLightmapsEv
__ZN13CMatLightmaps20ReleaseLightmapPagesEv
__ZN13CMatLightmaps20RestoreLightmapPagesEv
__ZN13CMatLightmaps21AllocateWhiteLightmapEP9IMaterial
__ZN13CMatLightmaps21EndLightmapAllocationEv
__ZN13CMatLightmaps23AllocateDynamicLightmapEPiS0_i
__ZN13CMatLightmaps23AllocateLightmapTextureEi
__ZN13CMatLightmaps23BeginLightmapAllocationEv
__ZN13CMatLightmaps23EnableLightmapFilteringEb
__ZN13CMatLightmaps29LightmapBitsToPixelWriter_LDREPfPiS1_P13FloatBitMap_t
__ZN13CMatLightmaps29ResetMaterialLightmapPageInfoEv
__ZN13CMatLightmaps30LightmapBitsToPixelWriter_HDRFEPfPiS1_P13FloatBitMap_t
__ZN13CMatLightmaps30LightmapBitsToPixelWriter_HDRIEPfPiS1_P13FloatBitMap_t
__ZN13CMatLightmaps31ComputeWhiteLightmappedSortInfoEP25MaterialSystem_SortInfo_tRib
__ZN13CMatLightmaps35BumpedLightmapBitsToPixelWriter_LDREPfS0_S0_S0_PiS1_P13FloatBitMap_t
__ZN13CMatLightmaps36BumpedLightmapBitsToPixelWriter_HDRFEPfS0_S0_S0_PiS1_P13FloatBitMap_t
__ZN13CMatLightmaps36BumpedLightmapBitsToPixelWriter_HDRIEPfS0_S0_S0_PiS1_P13FloatBitMap_t
__ZN13CMatLightmaps8ShutdownEv
__ZN13CMatLightmapsC1Ev
__ZN13CMaterialDict11AddMaterialEPKcS1_
__ZN13CMaterialDict14RemoveMaterialEP17IMaterialInternal
__ZN13CMaterialDict16MaterialLessFuncERKNS_16MaterialLookup_tES2_
__ZN13CMaterialDict18AddMaterialSubRectEPKcS1_P9KeyValuesS3_
__ZN13CMaterialDict18RemoveAllMaterialsEv
__ZN13CMaterialDict21RemoveMaterialSubRectEP17IMaterialInternal
__ZN13CMaterialDict23MissingMaterialLessFuncERKNS_17MissingMaterial_tES2_
__ZN13CMaterialDict25AddMaterialToMaterialListEP17IMaterialInternal
__ZN13CMaterialDict8ShutdownEv
__ZN13CShaderSystem10BufferSpewE10SpewType_tRK5ColorPKc
__ZN13CShaderSystem10FindShaderEPKc
__ZN13CShaderSystem11BindTextureE9Sampler_tP8ITexturei
__ZN13CShaderSystem11BindTextureE9Sampler_tS0_P8ITexturei
__ZN13CShaderSystem11LoadBumpMapEP12IMaterialVarPKc
__ZN13CShaderSystem11LoadCubeMapEPP12IMaterialVarS1_i
__ZN13CShaderSystem11LoadTextureEP12IMaterialVarPKci
__ZN13CShaderSystem11ModShutdownEv
__ZN13CShaderSystem12DrawElementsEP7IShaderPP12IMaterialVarP19ShaderRenderState_t23VertexCompressionType_tj
__ZN13CShaderSystem12DrawSnapshotEb
__ZN13CShaderSystem12TakeSnapshotEv
__ZN13CShaderSystem13DrawNormalMapEP7IShaderPP12IMaterialVar23VertexCompressionType_t
__ZN13CShaderSystem13LoadShaderDLLEPKc
__ZN13CShaderSystem13LoadShaderDLLEPKcS1_b
__ZN13CShaderSystem15InitRenderStateEP7IShaderiPP12IMaterialVarP19ShaderRenderState_tPKc
__ZN13CShaderSystem15UnloadShaderDLLEPKc
__ZN13CShaderSystem17DrawUsingMaterialEP17IMaterialInternal23VertexCompressionType_t
__ZN13CShaderSystem17LoadAllShaderDLLsEv
__ZN13CShaderSystem17LoadModShaderDLLsEi
__ZN13CShaderSystem17PrintBufferedSpewEv
__ZN13CShaderSystem18CleanupRenderStateEP19ShaderRenderState_t
__ZN13CShaderSystem18InitShaderInstanceEP7IShaderPP12IMaterialVarPKcS6_
__ZN13CShaderSystem18InitStateSnapshotsEP7IShaderPP12IMaterialVarP19ShaderRenderState_t
__ZN13CShaderSystem18s_pDebugShaderNameE
__ZN13CShaderSystem19UnloadAllShaderDLLsEv
__ZN13CShaderSystem20CreateDebugMaterialsEv
__ZN13CShaderSystem20InitShaderParametersEP7IShaderPP12IMaterialVarPKc
__ZN13CShaderSystem21CleanUpDebugMaterialsEv
__ZN13CShaderSystem21SetupShaderDictionaryEi
__ZN13CShaderSystem29GetShaderAPITextureBindHandleEP8ITextureii
__ZN13CShaderSystem31ComputeVertexFormatFromSnapshotEPP12IMaterialVarP19ShaderRenderState_t
__ZN13CShaderSystem4InitEv
__ZN13CShaderSystem7ModInitEv
__ZN13CShaderSystem8ShutdownEv
__ZN13CShaderSystemD1Ev
__ZN13CSolidTexture21RegenerateTextureBitsEP8ITextureP11IVTFTextureP6Rect_t
__ZN13CSolidTexture7ReleaseEv
__ZN13CSolidTextureD0Ev
__ZN13CSolidTextureD1Ev
__ZN13CThreadRWLock11UnlockWriteEv
__ZN13CThreadRWLock11WaitForReadEv
__ZN13CThreadRWLock12LockForWriteEv
__ZN13CUtlStringMapIN18TextureLodOverride12OverrideInfoEED1Ev
__ZN13FloatBitMap_t15CompressTo8BitsEf
__ZN13FloatBitMap_t5ClearEffff
__ZN13FloatBitMap_t8WritePFMEPKc
__ZN13FloatBitMap_tC1Eii
__ZN13FloatBitMap_tD1Ev
__ZN14AsyncReadJob_tD2Ev
__ZN14CDummyMaterial10IsTwoSidedEv
__ZN14CDummyMaterial11FindVarFastEPKcPj
__ZN14CDummyMaterial11IsVertexLitEv
__ZN14CDummyMaterial12GetNumPassesEv
__ZN14CDummyMaterial12IsSpriteCardEv
__ZN14CDummyMaterial13AlphaModulateEf
__ZN14CDummyMaterial13CallBindProxyEPv
__ZN14CDummyMaterial13ColorModulateEfff
__ZN14CDummyMaterial13IsAlphaTestedEv
__ZN14CDummyMaterial13IsTranslucentEv
__ZN14CDummyMaterial14InMaterialPageEv
__ZN14CDummyMaterial14UsesEnvCubemapEv
__ZN14CDummyMaterial15GetMappingWidthEv
__ZN14CDummyMaterial15GetMaterialPageEv
__ZN14CDummyMaterial15GetPropertyFlagE23MaterialPropertyTypes_t
__ZN14CDummyMaterial15GetReflectivityER6Vector
__ZN14CDummyMaterial15GetShaderParamsEv
__ZN14CDummyMaterial16GetMappingHeightEv
__ZN14CDummyMaterial16GetMaterialScaleEPf
__ZN14CDummyMaterial17GetMaterialOffsetEPf
__ZN14CDummyMaterial17NeedsTangentSpaceEv
__ZN14CDummyMaterial18GetAlphaModulationEv
__ZN14CDummyMaterial18GetColorModulationEPfS0_S0_
__ZN14CDummyMaterial18SetMaterialVarFlagE18MaterialVarFlags_tb
__ZN14CDummyMaterial18SetShaderAndParamsEP9KeyValues
__ZN14CDummyMaterial20DeleteIfUnreferencedEv
__ZN14CDummyMaterial21CheckProxyReplacementEPv
__ZN14CDummyMaterial21GetNumAnimationFramesEv
__ZN14CDummyMaterial21GetTextureMemoryBytesEv
__ZN14CDummyMaterial21NeedsSoftwareLightingEv
__ZN14CDummyMaterial21NeedsSoftwareSkinningEv
__ZN14CDummyMaterial23DecrementReferenceCountEv
__ZN14CDummyMaterial23IncrementReferenceCountEv
__ZN14CDummyMaterial23NeedsLightmapBlendAlphaEv
__ZN14CDummyMaterial23RecomputeStateSnapshotsEv
__ZN14CDummyMaterial24WasReloadedFromWhitelistEv
__ZN14CDummyMaterial27NeedsFullFrameBufferTextureEb
__ZN14CDummyMaterial29RefreshPreservingMaterialVarsEv
__ZN14CDummyMaterial32SetUseFixedFunctionBakedLightingEb
__ZN14CDummyMaterial33NeedsPowerOfTwoFrameBufferTextureEb
__ZN14CDummyMaterial7FindVarEPKcPbb
__ZN14CDummyMaterial7RefreshEv
__ZN14CDummyMaterial9SetShaderEPKc
__ZN14CMatQueuedMesh10UnlockMeshEiiR10MeshDesc_t
__ZN14CMatQueuedMesh11MarkAsDrawnEv
__ZN14CMatQueuedMesh11ModifyBeginEbiiR11IndexDesc_t
__ZN14CMatQueuedMesh11ModifyBeginEiiiiR10MeshDesc_t
__ZN14CMatQueuedMesh11SetFlexMeshEP5IMeshi
__ZN14CMatQueuedMesh12SetColorMeshEP5IMeshi
__ZN14CMatQueuedMesh12ValidateDataEiRK11IndexDesc_t
__ZN14CMatQueuedMesh12ValidateDataEiRK12VertexDesc_t
__ZN14CMatQueuedMesh12ValidateDataEiiRK10MeshDesc_t
__ZN14CMatQueuedMesh13EndCastBufferEv
__ZN14CMatQueuedMesh13ModifyBeginExEbiiiiR10MeshDesc_t
__ZN14CMatQueuedMesh15BeginCastBufferE21MaterialIndexFormat_t
__ZN14CMatQueuedMesh15BeginCastBufferEy
__ZN14CMatQueuedMesh15DisableFlexMeshEv
__ZN14CMatQueuedMesh16OnGetDynamicMeshEyjP5IMeshS1_P17IMaterialInternali
__ZN14CMatQueuedMesh16SetPrimitiveTypeE23MaterialPrimitiveType_t
__ZN14CMatQueuedMesh17ComputeMemoryUsedEv
__ZN14CMatQueuedMesh17CopyToMeshBuilderEiiiiiR12CMeshBuilder
__ZN14CMatQueuedMesh21ExecuteDefferredBuildEPhiiPti
__ZN14CMatQueuedMesh21gm_ScratchIndexBufferE
__ZN14CMatQueuedMesh22DeferredGetDynamicMeshEyjP5IMeshS1_P17IMaterialInternal
__ZN14CMatQueuedMesh4DrawEP9CPrimListi
__ZN14CMatQueuedMesh4DrawEii
__ZN14CMatQueuedMesh4LockEibR11IndexDesc_t
__ZN14CMatQueuedMesh4LockEibR12VertexDesc_t
__ZN14CMatQueuedMesh4SpewEiRK11IndexDesc_t
__ZN14CMatQueuedMesh4SpewEiRK12VertexDesc_t
__ZN14CMatQueuedMesh4SpewEiiRK10MeshDesc_t
__ZN14CMatQueuedMesh6UnlockEiR11IndexDesc_t
__ZN14CMatQueuedMesh6UnlockEiR12VertexDesc_t
__ZN14CMatQueuedMesh7GetMeshEv
__ZN14CMatQueuedMesh8LockMeshEiiR10MeshDesc_t
__ZN14CMatQueuedMesh9ModifyEndER10MeshDesc_t
__ZN14CMatQueuedMesh9ModifyEndER11IndexDesc_t
__ZN14CMatQueuedMeshD0Ev
__ZN14CMatQueuedMeshD1Ev
__ZN14CTCSelectStage11ResolveThisEP18CTextureCompositor
__ZN14CTCSelectStage15RequestTexturesEv
__ZN14CTCSelectStage19OnAsyncFindCompleteEP8ITexturePv
__ZN14CTCSelectStage23ComputeRandomValuesThisEP20CUniformRandomStream
__ZN14CTCSelectStageC2ERK21SelectStageParametersj
__ZN14CTCSelectStageD0Ev
__ZN14CTCSelectStageD1Ev
__ZN14CTCSelectStageD2Ev
__ZN14CThreadAcquire9DoExecuteEv
__ZN14CThreadAcquireD0Ev
__ZN14CThreadAcquireD1Ev
__ZN14CThreadRelease9DoExecuteEv
__ZN14CThreadReleaseD0Ev
__ZN14CThreadReleaseD1Ev
__ZN14CUtlLinkedListIN18COcclusionQueryMgr22OcclusionQueryObject_tEiLb1Ei15CUtlFixedMemoryI19UtlLinkedListElem_tIS1_iEEE13AllocInternalEb
__ZN14CUtlLinkedListIN18COcclusionQueryMgr22OcclusionQueryObject_tEiLb1Ei15CUtlFixedMemoryI19UtlLinkedListElem_tIS1_iEEE6UnlinkEi
__ZN14CUtlLinkedListIN18COcclusionQueryMgr22OcclusionQueryObject_tEiLb1Ei15CUtlFixedMemoryI19UtlLinkedListElem_tIS1_iEEE9RemoveAllEv
__ZN14CUtlLinkedListIPKctLb0Et10CUtlMemoryI19UtlLinkedListElem_tIS1_tEtEE13AllocInternalEb
__ZN14CUtlMemoryPool10AddNewBlobEv
__ZN14CUtlMemoryPool12g_ReportFuncE
__ZN14CUtlMemoryPool4FreeEPv
__ZN14CUtlMemoryPool5AllocEm
__ZN14CUtlMemoryPoolC1EiiiPKci
__ZN14CUtlMemoryPoolD1Ev
__ZN14CUtlSortVectorI17MorphVertexInfo_tN16CVertexMorphDict20CMorphVertexListLessE10CUtlVectorIS0_10CUtlMemoryIS0_iEEE12InsertNoSortERKS0_
__ZN14CUtlSortVectorI17MorphVertexInfo_tN16CVertexMorphDict20CMorphVertexListLessE10CUtlVectorIS0_10CUtlMemoryIS0_iEEE13CompareHelperEPKS0_S9_
__ZN14CUtlSortVectorIN16CVertexMorphDict17MorphVertexList_tENS0_19VertexMorphDictLessE10CUtlVectorIS1_10CUtlMemoryIS1_iEEE6InsertERKS1_
__ZN14CUtlSortVectorIP9KeyValues29CUtlSortVectorKeyValuesByName10CUtlVectorIS1_10CUtlMemoryIS1_iEEE13CompareHelperEPKS1_S9_
__ZN14ConCommandBase10CreateBaseEPKcS1_i
__ZN14ConCommandBase11s_pAccessorE
__ZN14ConCommandBase18s_pConCommandBasesE
__ZN14ConCommandBase4InitEv
__ZN14ConCommandBase8AddFlagsEi
__ZN14ConCommandBase8ShutdownEv
__ZN15CAsyncMapResult18OnAsyncMapCompleteEP8ITexturePvS2_i
__ZN15CAsyncMapResult19OnAsyncFindCompleteEP8ITexturePv
__ZN15CAsyncMapResult20OnAsyncReadbackBeginEP8ITextureS1_Pv
__ZN15CAsyncMapResult21OnAsyncCreateCompleteEP8ITexturePv
__ZN15CAsyncMapResult6AddRefEv
__ZN15CAsyncMapResult7ReleaseEv
__ZN15CAsyncMapResultD0Ev
__ZN15CAsyncMapResultD1Ev
__ZN15CMaterialSystem10BeginFrameEf
__ZN15CMaterialSystem10DisconnectEv
__ZN15CMaterialSystem10OnDrawMeshEP5IMeshP9CPrimListi
__ZN15CMaterialSystem10OnDrawMeshEP5IMeshii
__ZN15CMaterialSystem10RemoveViewEPv
__ZN15CMaterialSystem10SetAdapterEii
__ZN15CMaterialSystem10SyncMatrixE20MaterialMatrixMode_t
__ZN15CMaterialSystem11FindTextureEPKcS1_bi
__ZN15CMaterialSystem11GetSortInfoEP25MaterialSystem_SortInfo_t
__ZN15CMaterialSystem11ModShutdownEv
__ZN15CMaterialSystem11SwapBuffersEv
__ZN15CMaterialSystem12ClearBuffersEbbb
__ZN15CMaterialSystem12FindMaterialEPKcS1_bS1_
__ZN15CMaterialSystem12IsInStubModeEv
__ZN15CMaterialSystem12SetShaderAPIEPKc
__ZN15CMaterialSystem12SyncMatricesEv
__ZN15CMaterialSystem12UpdateConfigEb
__ZN15CMaterialSystem13CompactMemoryEv
__ZN15CMaterialSystem13ExecuteQueuedEv
__ZN15CMaterialSystem13GetNumSortIDsEv
__ZN15CMaterialSystem13GetThreadModeEv
__ZN15CMaterialSystem13OnSetFlexMeshEP5IMeshS1_i
__ZN15CMaterialSystem13OnThreadEventEj
__ZN15CMaterialSystem13SetInStubModeEb
__ZN15CMaterialSystem13SetThreadModeE20MaterialThreadMode_ti
__ZN15CMaterialSystem13ThreadAcquireEb
__ZN15CMaterialSystem13ThreadReleaseEv
__ZN15CMaterialSystem14AddReleaseFuncEPFvvE
__ZN15CMaterialSystem14AddRestoreFuncEPFviE
__ZN15CMaterialSystem14AllowThreadingEbi
__ZN15CMaterialSystem14CreateMaterialEPKcP9KeyValues
__ZN15CMaterialSystem14FindMaterialExEPKcS1_ibS1_
__ZN15CMaterialSystem14GetMemRequiredEiii11ImageFormatb
__ZN15CMaterialSystem14OnSetColorMeshEP5IMeshS1_i
__ZN15CMaterialSystem14OverrideConfigERK23MaterialSystem_Config_tb
__ZN15CMaterialSystem14QueryInterfaceEPKc
__ZN15CMaterialSystem14ReloadTexturesERK8CCommand
__ZN15CMaterialSystem14ReloadTexturesEv
__ZN15CMaterialSystem14RemoveMaterialEP17IMaterialInternal
__ZN15CMaterialSystem14SupportsFetch4Ev
__ZN15CMaterialSystem14UnbindMaterialEP9IMaterial
__ZN15CMaterialSystem14UpdateLightmapEiPiS0_PfS1_S1_S1_
__ZN15CMaterialSystem15AddTextureAliasEPKcS1_
__ZN15CMaterialSystem15CreateShaderAPIEPKc
__ZN15CMaterialSystem15GetLightmapPageEv
__ZN15CMaterialSystem15GetLocalCubemapEv
__ZN15CMaterialSystem15ReloadMaterialsEPKc
__ZN15CMaterialSystem15ReloadMaterialsERK8CCommand
__ZN15CMaterialSystem15SupportsHDRModeE9HDRType_t
__ZN15CMaterialSystem16AllocateLightmapEiiPiP9IMaterial
__ZN15CMaterialSystem16AsyncFindTextureEPKcS1_P30IAsyncTextureOperationReceiverPvbi
__ZN15CMaterialSystem16GetRenderContextEv
__ZN15CMaterialSystem16HandleDeviceLostEv
__ZN15CMaterialSystem16IsMaterialLoadedEPKc
__ZN15CMaterialSystem16ReleaseResourcesEv
__ZN15CMaterialSystem16SetRenderContextEP17IMatRenderContext
__ZN15CMaterialSystem16SupportsCSAAModeEii
__ZN15CMaterialSystem16SupportsMSAAModeEi
__ZN15CMaterialSystem17GetHardwareConfigEPKcPi
__ZN15CMaterialSystem17GetHeightClipModeEv
__ZN15CMaterialSystem17GetRenderTargetExEi
__ZN15CMaterialSystem17GetShaderFallbackEPKcPci
__ZN15CMaterialSystem17ReloadFilesInListEP9IFileList
__ZN15CMaterialSystem17RemoveReleaseFuncEPFvvE
__ZN15CMaterialSystem17RemoveRestoreFuncEPFviE
__ZN15CMaterialSystem17ResetTempHWMemoryEb
__ZN15CMaterialSystem17StencilBufferBitsEv
__ZN15CMaterialSystem17UsingFastClippingEv
__ZN15CMaterialSystem18CacheUsedMaterialsEv
__ZN15CMaterialSystem18ConvertImageFormatEPh11ImageFormatS0_S1_iiii
__ZN15CMaterialSystem18EndUpdateLightmapsEv
__ZN15CMaterialSystem18GetCurrentMaterialEv
__ZN15CMaterialSystem18GetDXLevelDefaultsERjS0_
__ZN15CMaterialSystem18GetRenderCallQueueEv
__ZN15CMaterialSystem18IsRenderThreadSafeEv
__ZN15CMaterialSystem18OnSetPrimitiveTypeEP5IMesh23MaterialPrimitiveType_t
__ZN15CMaterialSystem18ReacquireResourcesEv
__ZN15CMaterialSystem18ReloadAllMaterialsERK8CCommand
__ZN15CMaterialSystem18RemoveTextureAliasEPKc
__ZN15CMaterialSystem19BindStandardTextureE9Sampler_t19StandardTextureId_t
__ZN15CMaterialSystem19CreateRenderContextE21MaterialContextType_t
__ZN15CMaterialSystem19DrawClearBufferQuadEhhhhbbb
__ZN15CMaterialSystem19ForceSingleThreadedEv
__ZN15CMaterialSystem19GetBoundMorphFormatEv
__ZN15CMaterialSystem19PreloadReplacementsEv
__ZN15CMaterialSystem19SetExcludedTexturesEPKc
__ZN15CMaterialSystem19ToggleDebugMaterialEPKc
__ZN15CMaterialSystem19UncacheAllMaterialsEv
__ZN15CMaterialSystem20BeginUpdateLightmapsEv
__ZN15CMaterialSystem20CreateDebugMaterialsEv
__ZN15CMaterialSystem20ForceDepthFuncEqualsEb
__ZN15CMaterialSystem20GetNullTextureFormatEv
__ZN15CMaterialSystem20NewTextureCompositorEiiPKciyP9KeyValuesj
__ZN15CMaterialSystem20NoteAnisotropicLevelEi
__ZN15CMaterialSystem20ReleaseShaderObjectsEv
__ZN15CMaterialSystem20RestoreShaderObjectsEPFPvPKcPiEi
__ZN15CMaterialSystem21AddModeChangeCallBackEPFvvE
__ZN15CMaterialSystem21AllocateWhiteLightmapEP9IMaterial
__ZN15CMaterialSystem21CleanUpDebugMaterialsEv
__ZN15CMaterialSystem21CreateTextureFromBitsEiii11ImageFormatiPh
__ZN15CMaterialSystem21EnableEditorMaterialsEv
__ZN15CMaterialSystem21EndLightmapAllocationEv
__ZN15CMaterialSystem21EvictManagedResourcesEv
__ZN15CMaterialSystem21GetLightmapDimensionsEPiS0_
__ZN15CMaterialSystem21ReadConfigFromConVarsEP23MaterialSystem_Config_t
__ZN15CMaterialSystem21RemoveMaterialSubRectEP17IMaterialInternal
__ZN15CMaterialSystem22DebugPrintUsedTexturesERK8CCommand
__ZN15CMaterialSystem22DebugPrintUsedTexturesEv
__ZN15CMaterialSystem22FindProceduralMaterialEPKcS1_P9KeyValues
__ZN15CMaterialSystem22ResumeTextureStreamingEv
__ZN15CMaterialSystem22ScanDirForReplacementsEPKc
__ZN15CMaterialSystem22ToggleSuppressMaterialEPKc
__ZN15CMaterialSystem22UncacheUnusedMaterialsEb
__ZN15CMaterialSystem22UpdateExcludedTexturesEv
__ZN15CMaterialSystem22WriteConfigIntoConVarsERK23MaterialSystem_Config_t
__ZN15CMaterialSystem23AllocateDynamicLightmapEPiS0_i
__ZN15CMaterialSystem23BeginLightmapAllocationEv
__ZN15CMaterialSystem23CreateProceduralTextureEPKcS1_ii11ImageFormati
__ZN15CMaterialSystem23DebugPrintUsedMaterialsEPKcb
__ZN15CMaterialSystem23DebugPrintUsedMaterialsERK8CCommand
__ZN15CMaterialSystem23GetMaterialProxyFactoryEv
__ZN15CMaterialSystem23ReleaseStandardTexturesEv
__ZN15CMaterialSystem23SetMaterialProxyFactoryEP21IMaterialProxyFactory
__ZN15CMaterialSystem23SuspendTextureStreamingEv
__ZN15CMaterialSystem24AllocateStandardTexturesEv
__ZN15CMaterialSystem24InitReplacementsFromFileEPKc
__ZN15CMaterialSystem24RemoveModeChangeCallBackEPFvvE
__ZN15CMaterialSystem24ScheduleTextureCompositeEP18CTextureCompositor
__ZN15CMaterialSystem24SetAsyncTextureLoadCacheEPv
__ZN15CMaterialSystem25AddMaterialToMaterialListEP17IMaterialInternal
__ZN15CMaterialSystem25BindStandardVertexTextureE22VertexTextureSampler_t19StandardTextureId_t
__ZN15CMaterialSystem25CreateCompositorMaterialsEv
__ZN15CMaterialSystem25CreateRenderTargetTextureEii22RenderTargetSizeMode_t11ImageFormat27MaterialRenderTargetDepth_t
__ZN15CMaterialSystem25DoStartupShaderPreloadingEv
__ZN15CMaterialSystem25EndRenderTargetAllocationEv
__ZN15CMaterialSystem25GetCurrentColorCorrectionEP27ShaderColorCorrectionInfo_t
__ZN15CMaterialSystem25OnFlushBufferedPrimitivesEv
__ZN15CMaterialSystem26DetermineProxyReplacementsEP9IMaterialP9KeyValues
__ZN15CMaterialSystem26GetForcedTextureLoadPathIDEv
__ZN15CMaterialSystem26ThreadExecuteQueuedContextEP23CMatQueuedRenderContext
__ZN15CMaterialSystem27BeginRenderTargetAllocationEv
__ZN15CMaterialSystem27GetShadowDepthTextureFormatEv
__ZN15CMaterialSystem27SupportsShadowDepthTexturesEv
__ZN15CMaterialSystem28AddTextureCompositorTemplateEPKcP9KeyValuesi
__ZN15CMaterialSystem28CreateNamedTextureFromBitsExEPKcS1_iii11ImageFormatiPhi
__ZN15CMaterialSystem28GetStandardTextureDimensionsEPiS0_19StandardTextureId_t
__ZN15CMaterialSystem29ResetMaterialLightmapPageInfoEv
__ZN15CMaterialSystem30CreateNamedRenderTargetTextureEPKcii22RenderTargetSizeMode_t11ImageFormat27MaterialRenderTargetDepth_tbb
__ZN15CMaterialSystem30DebugPrintUsedMaterialsVerboseERK8CCommand
__ZN15CMaterialSystem30OverrideRenderTargetAllocationEb
__ZN15CMaterialSystem31GetRecommendedConfigurationInfoEiP9KeyValues
__ZN15CMaterialSystem31WriteConfigurationInfoToConVarsEb
__ZN15CMaterialSystem32CreateNamedRenderTargetTextureExEPKcii22RenderTargetSizeMode_t11ImageFormat27MaterialRenderTargetDepth_tjj
__ZN15CMaterialSystem32VerifyTextureCompositorTemplatesEv
__ZN15CMaterialSystem33CreateNamedRenderTargetTextureEx2EPKcii22RenderTargetSizeMode_t11ImageFormat27MaterialRenderTargetDepth_tjj
__ZN15CMaterialSystem33GenerateConfigFromConfigKeyValuesEP23MaterialSystem_Config_tb
__ZN15CMaterialSystem36GetRenderTargetFrameBufferDimensionsERiS0_
__ZN15CMaterialSystem39SetRenderTargetFrameBufferSizeOverridesEii
__ZN15CMaterialSystem4InitEPKcP21IMaterialProxyFactoryPFPvS1_PiES7_
__ZN15CMaterialSystem4InitEv
__ZN15CMaterialSystem4LockEv
__ZN15CMaterialSystem5FlushEb
__ZN15CMaterialSystem6UnlockEP16MaterialLock_t__
__ZN15CMaterialSystem7AddViewEPv
__ZN15CMaterialSystem7ConnectEPFPvPKcPiE
__ZN15CMaterialSystem7ModInitEv
__ZN15CMaterialSystem7SetModeEPvRK23MaterialSystem_Config_t
__ZN15CMaterialSystem7SetViewEPv
__ZN15CMaterialSystem8EndFrameEv
__ZN15CMaterialSystem8ShutdownEv
__ZN15CMaterialSystem9GetConfigEv
__ZN15CMaterialSystemC2Ev
__ZN15CMaterialSystemD1Ev
__ZN15CMaterialSystemD2Ev
__ZN15CMemberFunctor0I13CLateBoundPtrI5IMeshEMS1_FvvE12CRefCounted1I8CFunctor24CRefCountServiceDestructI6CRefSTEE18CFuncMemPolicyNoneED0Ev
__ZN15CMemberFunctor0I13CLateBoundPtrI5IMeshEMS1_FvvE12CRefCounted1I8CFunctor24CRefCountServiceDestructI6CRefSTEE18CFuncMemPolicyNoneED1Ev
__ZN15CMemberFunctor0I13CLateBoundPtrI5IMeshEMS1_FvvE12CRefCounted1I8CFunctor24CRefCountServiceDestructI6CRefSTEE18CFuncMemPolicyNoneEclEv
__ZN15CMemberFunctor0IP10IShaderAPIMS0_FvvE12CRefCounted1I8CFunctor24CRefCountServiceDestructI6CRefSTEE18CFuncMemPolicyNoneED0Ev
__ZN15CMemberFunctor0IP10IShaderAPIMS0_FvvE12CRefCounted1I8CFunctor24CRefCountServiceDestructI6CRefSTEE18CFuncMemPolicyNoneED1Ev
__ZN15CMemberFunctor0IP10IShaderAPIMS0_FvvE12CRefCounted1I8CFunctor24CRefCountServiceDestructI6CRefSTEE18CFuncMemPolicyNoneEclEv
__ZN15CMemberFunctor0IP12CMaterialVarMS0_FvvE12CRefCounted1I8CFunctor24CRefCountServiceDestructI6CRefSTEE18CFuncMemPolicyNoneED0Ev
__ZN15CMemberFunctor0IP12CMaterialVarMS0_FvvE12CRefCounted1I8CFunctor24CRefCountServiceDestructI6CRefSTEE18CFuncMemPolicyNoneED1Ev
__ZN15CMemberFunctor0IP12CMaterialVarMS0_FvvE12CRefCounted1I8CFunctor24CRefCountServiceDestructI6CRefSTEE18CFuncMemPolicyNoneEclEv
__ZN15CMemberFunctor0IP13CMatLightmapsMS0_FvvE12CRefCounted1I8CFunctor24CRefCountServiceDestructI6CRefSTEE18CFuncMemPolicyNoneED0Ev
__ZN15CMemberFunctor0IP13CMatLightmapsMS0_FvvE12CRefCounted1I8CFunctor24CRefCountServiceDestructI6CRefSTEE18CFuncMemPolicyNoneED1Ev
__ZN15CMemberFunctor0IP13CMatLightmapsMS0_FvvE12CRefCounted1I8CFunctor24CRefCountServiceDestructI6CRefSTEE18CFuncMemPolicyNoneEclEv
__ZN15CMemberFunctor0IP17IMaterialInternalM9IMaterialFvvE12CRefCounted1I8CFunctor20CRefCountServiceBaseILb1E6CRefMTEE18CFuncMemPolicyNoneED0Ev
__ZN15CMemberFunctor0IP17IMaterialInternalM9IMaterialFvvE12CRefCounted1I8CFunctor20CRefCountServiceBaseILb1E6CRefMTEE18CFuncMemPolicyNoneED1Ev
__ZN15CMemberFunctor0IP17IMaterialInternalM9IMaterialFvvE12CRefCounted1I8CFunctor20CRefCountServiceBaseILb1E6CRefMTEE18CFuncMemPolicyNoneEclEv
__ZN15CMemberFunctor0IP21CMatRenderContextBaseM17IMatRenderContextFvvE12CRefCounted1I8CFunctor24CRefCountServiceDestructI6CRefSTEE18CFuncMemPolicyNoneED0Ev
__ZN15CMemberFunctor0IP21CMatRenderContextBaseM17IMatRenderContextFvvE12CRefCounted1I8CFunctor24CRefCountServiceDestructI6CRefSTEE18CFuncMemPolicyNoneED1Ev
__ZN15CMemberFunctor0IP21CMatRenderContextBaseM17IMatRenderContextFvvE12CRefCounted1I8CFunctor24CRefCountServiceDestructI6CRefSTEE18CFuncMemPolicyNoneEclEv
__ZN15CMemberFunctor0IP21CMatRenderContextBaseM25IMatRenderContextInternalFvvE12CRefCounted1I8CFunctor24CRefCountServiceDestructI6CRefSTEE18CFuncMemPolicyNoneED0Ev
__ZN15CMemberFunctor0IP21CMatRenderContextBaseM25IMatRenderContextInternalFvvE12CRefCounted1I8CFunctor24CRefCountServiceDestructI6CRefSTEE18CFuncMemPolicyNoneED1Ev
__ZN15CMemberFunctor0IP21CMatRenderContextBaseM25IMatRenderContextInternalFvvE12CRefCounted1I8CFunctor24CRefCountServiceDestructI6CRefSTEE18CFuncMemPolicyNoneEclEv
__ZN15CMemberFunctor0IP22IColorCorrectionSystemMS0_FvvE12CRefCounted1I8CFunctor24CRefCountServiceDestructI6CRefSTEE18CFuncMemPolicyNoneED0Ev
__ZN15CMemberFunctor0IP22IColorCorrectionSystemMS0_FvvE12CRefCounted1I8CFunctor24CRefCountServiceDestructI6CRefSTEE18CFuncMemPolicyNoneED1Ev
__ZN15CMemberFunctor0IP22IColorCorrectionSystemMS0_FvvE12CRefCounted1I8CFunctor24CRefCountServiceDestructI6CRefSTEE18CFuncMemPolicyNoneEclEv
__ZN15CMemberFunctor0IP9CMaterialMS0_FvvE12CRefCounted1I8CFunctor24CRefCountServiceDestructI6CRefSTEE18CFuncMemPolicyNoneED0Ev
__ZN15CMemberFunctor0IP9CMaterialMS0_FvvE12CRefCounted1I8CFunctor24CRefCountServiceDestructI6CRefSTEE18CFuncMemPolicyNoneED1Ev
__ZN15CMemberFunctor0IP9CMaterialMS0_FvvE12CRefCounted1I8CFunctor24CRefCountServiceDestructI6CRefSTEE18CFuncMemPolicyNoneEclEv
__ZN15CMemberFunctor1I13CLateBoundPtrI5IMeshEMS1_Fv23MaterialPrimitiveType_tES3_12CRefCounted1I8CFunctor24CRefCountServiceDestructI6CRefSTEE18CFuncMemPolicyNoneED0Ev
__ZN15CMemberFunctor1I13CLateBoundPtrI5IMeshEMS1_Fv23MaterialPrimitiveType_tES3_12CRefCounted1I8CFunctor24CRefCountServiceDestructI6CRefSTEE18CFuncMemPolicyNoneED1Ev
__ZN15CMemberFunctor1I13CLateBoundPtrI5IMeshEMS1_Fv23MaterialPrimitiveType_tES3_12CRefCounted1I8CFunctor24CRefCountServiceDestructI6CRefSTEE18CFuncMemPolicyNoneEclEv
__ZN15CMemberFunctor1IP12CMaterialVarMS0_FvP12IMaterialVarES3_12CRefCounted1I8CFunctor24CRefCountServiceDestructI6CRefSTEE18CFuncMemPolicyNoneED0Ev
__ZN15CMemberFunctor1IP12CMaterialVarMS0_FvP12IMaterialVarES3_12CRefCounted1I8CFunctor24CRefCountServiceDestructI6CRefSTEE18CFuncMemPolicyNoneED1Ev
__ZN15CMemberFunctor1IP12CMaterialVarMS0_FvP12IMaterialVarES3_12CRefCounted1I8CFunctor24CRefCountServiceDestructI6CRefSTEE18CFuncMemPolicyNoneEclEv
__ZN15CMemberFunctor1IP12CMaterialVarMS0_FvP8ITextureES3_12CRefCounted1I8CFunctor24CRefCountServiceDestructI6CRefSTEE18CFuncMemPolicyNoneED0Ev
__ZN15CMemberFunctor1IP12CMaterialVarMS0_FvP8ITextureES3_12CRefCounted1I8CFunctor24CRefCountServiceDestructI6CRefSTEE18CFuncMemPolicyNoneED1Ev
__ZN15CMemberFunctor1IP12CMaterialVarMS0_FvP8ITextureES3_12CRefCounted1I8CFunctor24CRefCountServiceDestructI6CRefSTEE18CFuncMemPolicyNoneEclEv
__ZN15CMemberFunctor1IP12CMaterialVarMS0_FvP9IMaterialES3_12CRefCounted1I8CFunctor24CRefCountServiceDestructI6CRefSTEE18CFuncMemPolicyNoneED0Ev
__ZN15CMemberFunctor1IP12CMaterialVarMS0_FvP9IMaterialES3_12CRefCounted1I8CFunctor24CRefCountServiceDestructI6CRefSTEE18CFuncMemPolicyNoneED1Ev
__ZN15CMemberFunctor1IP12CMaterialVarMS0_FvP9IMaterialES3_12CRefCounted1I8CFunctor24CRefCountServiceDestructI6CRefSTEE18CFuncMemPolicyNoneEclEv
__ZN15CMemberFunctor1IP12CMaterialVarMS0_FvPKcE12CUtlEnvelopeIS3_E12CRefCounted1I8CFunctor24CRefCountServiceDestructI6CRefSTEE18CFuncMemPolicyNoneED0Ev
__ZN15CMemberFunctor1IP12CMaterialVarMS0_FvPKcE12CUtlEnvelopeIS3_E12CRefCounted1I8CFunctor24CRefCountServiceDestructI6CRefSTEE18CFuncMemPolicyNoneED1Ev
__ZN15CMemberFunctor1IP12CMaterialVarMS0_FvPKcE12CUtlEnvelopeIS3_E12CRefCounted1I8CFunctor24CRefCountServiceDestructI6CRefSTEE18CFuncMemPolicyNoneEclEv
__ZN15CMemberFunctor1IP12CMaterialVarMS0_FvRK7VMatrixES2_12CRefCounted1I8CFunctor24CRefCountServiceDestructI6CRefSTEE18CFuncMemPolicyNoneED0Ev
__ZN15CMemberFunctor1IP12CMaterialVarMS0_FvRK7VMatrixES2_12CRefCounted1I8CFunctor24CRefCountServiceDestructI6CRefSTEE18CFuncMemPolicyNoneED1Ev
__ZN15CMemberFunctor1IP12CMaterialVarMS0_FvRK7VMatrixES2_12CRefCounted1I8CFunctor24CRefCountServiceDestructI6CRefSTEE18CFuncMemPolicyNoneEclEv
__ZN15CMemberFunctor1IP12CMaterialVarMS0_FvfEf12CRefCounted1I8CFunctor24CRefCountServiceDestructI6CRefSTEE18CFuncMemPolicyNoneED0Ev
__ZN15CMemberFunctor1IP12CMaterialVarMS0_FvfEf12CRefCounted1I8CFunctor24CRefCountServiceDestructI6CRefSTEE18CFuncMemPolicyNoneED1Ev
__ZN15CMemberFunctor1IP12CMaterialVarMS0_FvfEf12CRefCounted1I8CFunctor24CRefCountServiceDestructI6CRefSTEE18CFuncMemPolicyNoneEclEv
__ZN15CMemberFunctor1IP12CMaterialVarMS0_FviEi12CRefCounted1I8CFunctor24CRefCountServiceDestructI6CRefSTEE18CFuncMemPolicyNoneED0Ev
__ZN15CMemberFunctor1IP12CMaterialVarMS0_FviEi12CRefCounted1I8CFunctor24CRefCountServiceDestructI6CRefSTEE18CFuncMemPolicyNoneED1Ev
__ZN15CMemberFunctor1IP12CMaterialVarMS0_FviEi12CRefCounted1I8CFunctor24CRefCountServiceDestructI6CRefSTEE18CFuncMemPolicyNoneEclEv
__ZN15CMemberFunctor1IP15CMaterialSystemMS0_FvP23CMatQueuedRenderContextES3_12CRefCounted1I8CFunctor20CRefCountServiceBaseILb1E6CRefMTEE18CFuncMemPolicyNoneED0Ev
__ZN15CMemberFunctor1IP15CMaterialSystemMS0_FvP23CMatQueuedRenderContextES3_12CRefCounted1I8CFunctor20CRefCountServiceBaseILb1E6CRefMTEE18CFuncMemPolicyNoneED1Ev
__ZN15CMemberFunctor1IP15CMaterialSystemMS0_FvP23CMatQueuedRenderContextES3_12CRefCounted1I8CFunctor20CRefCountServiceBaseILb1E6CRefMTEE18CFuncMemPolicyNoneEclEv
__ZN15CMemberFunctor1IP17IMaterialInternalM9IMaterialFvbEb12CRefCounted1I8CFunctor20CRefCountServiceBaseILb1E6CRefMTEE18CFuncMemPolicyNoneED0Ev
__ZN15CMemberFunctor1IP17IMaterialInternalM9IMaterialFvbEb12CRefCounted1I8CFunctor20CRefCountServiceBaseILb1E6CRefMTEE18CFuncMemPolicyNoneED1Ev
__ZN15CMemberFunctor1IP17IMaterialInternalM9IMaterialFvbEb12CRefCounted1I8CFunctor20CRefCountServiceBaseILb1E6CRefMTEE18CFuncMemPolicyNoneEclEv
__ZN15CMemberFunctor1IP17IMaterialInternalM9IMaterialFvfEf12CRefCounted1I8CFunctor20CRefCountServiceBaseILb1E6CRefMTEE18CFuncMemPolicyNoneED0Ev
__ZN15CMemberFunctor1IP17IMaterialInternalM9IMaterialFvfEf12CRefCounted1I8CFunctor20CRefCountServiceBaseILb1E6CRefMTEE18CFuncMemPolicyNoneED1Ev
__ZN15CMemberFunctor1IP17IMaterialInternalM9IMaterialFvfEf12CRefCounted1I8CFunctor20CRefCountServiceBaseILb1E6CRefMTEE18CFuncMemPolicyNoneEclEv
__ZN15CMemberFunctor1IP18COcclusionQueryMgrMS0_FvP30OcclusionQueryObjectHandle_t__ES3_12CRefCounted1I8CFunctor24CRefCountServiceDestructI6CRefSTEE18CFuncMemPolicyNoneED0Ev
__ZN15CMemberFunctor1IP18COcclusionQueryMgrMS0_FvP30OcclusionQueryObjectHandle_t__ES3_12CRefCounted1I8CFunctor24CRefCountServiceDestructI6CRefSTEE18CFuncMemPolicyNoneED1Ev
__ZN15CMemberFunctor1IP18COcclusionQueryMgrMS0_FvP30OcclusionQueryObjectHandle_t__ES3_12CRefCounted1I8CFunctor24CRefCountServiceDestructI6CRefSTEE18CFuncMemPolicyNoneEclEv
__ZN15CMemberFunctor1IP21CMatRenderContextBaseM17IMatRenderContextFbbEb12CRefCounted1I8CFunctor24CRefCountServiceDestructI6CRefSTEE18CFuncMemPolicyNoneED0Ev
__ZN15CMemberFunctor1IP21CMatRenderContextBaseM17IMatRenderContextFbbEb12CRefCounted1I8CFunctor24CRefCountServiceDestructI6CRefSTEE18CFuncMemPolicyNoneED1Ev
__ZN15CMemberFunctor1IP21CMatRenderContextBaseM17IMatRenderContextFbbEb12CRefCounted1I8CFunctor24CRefCountServiceDestructI6CRefSTEE18CFuncMemPolicyNoneEclEv
__ZN15CMemberFunctor1IP21CMatRenderContextBaseM17IMatRenderContextFv17MaterialFogMode_tES3_12CRefCounted1I8CFunctor24CRefCountServiceDestructI6CRefSTEE18CFuncMemPolicyNoneED0Ev
__ZN15CMemberFunctor1IP21CMatRenderContextBaseM17IMatRenderContextFv17MaterialFogMode_tES3_12CRefCounted1I8CFunctor24CRefCountServiceDestructI6CRefSTEE18CFuncMemPolicyNoneED1Ev
__ZN15CMemberFunctor1IP21CMatRenderContextBaseM17IMatRenderContextFv17MaterialFogMode_tES3_12CRefCounted1I8CFunctor24CRefCountServiceDestructI6CRefSTEE18CFuncMemPolicyNoneEclEv
__ZN15CMemberFunctor1IP21CMatRenderContextBaseM17IMatRenderContextFv18MaterialCullMode_tES3_12CRefCounted1I8CFunctor24CRefCountServiceDestructI6CRefSTEE18CFuncMemPolicyNoneED0Ev
__ZN15CMemberFunctor1IP21CMatRenderContextBaseM17IMatRenderContextFv18MaterialCullMode_tES3_12CRefCounted1I8CFunctor24CRefCountServiceDestructI6CRefSTEE18CFuncMemPolicyNoneED1Ev
__ZN15CMemberFunctor1IP21CMatRenderContextBaseM17IMatRenderContextFv18MaterialCullMode_tES3_12CRefCounted1I8CFunctor24CRefCountServiceDestructI6CRefSTEE18CFuncMemPolicyNoneEclEv
__ZN15CMemberFunctor1IP21CMatRenderContextBaseM17IMatRenderContextFv18StencilOperation_tES3_12CRefCounted1I8CFunctor24CRefCountServiceDestructI6CRefSTEE18CFuncMemPolicyNoneED0Ev
__ZN15CMemberFunctor1IP21CMatRenderContextBaseM17IMatRenderContextFv18StencilOperation_tES3_12CRefCounted1I8CFunctor24CRefCountServiceDestructI6CRefSTEE18CFuncMemPolicyNoneED1Ev
__ZN15CMemberFunctor1IP21CMatRenderContextBaseM17IMatRenderContextFv18StencilOperation_tES3_12CRefCounted1I8CFunctor24CRefCountServiceDestructI6CRefSTEE18CFuncMemPolicyNoneEclEv
__ZN15CMemberFunctor1IP21CMatRenderContextBaseM17IMatRenderContextFv20MaterialMatrixMode_tES3_12CRefCounted1I8CFunctor24CRefCountServiceDestructI6CRefSTEE18CFuncMemPolicyNoneED0Ev
__ZN15CMemberFunctor1IP21CMatRenderContextBaseM17IMatRenderContextFv20MaterialMatrixMode_tES3_12CRefCounted1I8CFunctor24CRefCountServiceDestructI6CRefSTEE18CFuncMemPolicyNoneED1Ev
__ZN15CMemberFunctor1IP21CMatRenderContextBaseM17IMatRenderContextFv20MaterialMatrixMode_tES3_12CRefCounted1I8CFunctor24CRefCountServiceDestructI6CRefSTEE18CFuncMemPolicyNoneEclEv
__ZN15CMemberFunctor1IP21CMatRenderContextBaseM17IMatRenderContextFv24MaterialHeightClipMode_tES3_12CRefCounted1I8CFunctor24CRefCountServiceDestructI6CRefSTEE18CFuncMemPolicyNoneED0Ev
__ZN15CMemberFunctor1IP21CMatRenderContextBaseM17IMatRenderContextFv24MaterialHeightClipMode_tES3_12CRefCounted1I8CFunctor24CRefCountServiceDestructI6CRefSTEE18CFuncMemPolicyNoneED1Ev
__ZN15CMemberFunctor1IP21CMatRenderContextBaseM17IMatRenderContextFv24MaterialHeightClipMode_tES3_12CRefCounted1I8CFunctor24CRefCountServiceDestructI6CRefSTEE18CFuncMemPolicyNoneEclEv
__ZN15CMemberFunctor1IP21CMatRenderContextBaseM17IMatRenderContextFv27StencilComparisonFunction_tES3_12CRefCounted1I8CFunctor24CRefCountServiceDestructI6CRefSTEE18CFuncMemPolicyNoneED0Ev
__ZN15CMemberFunctor1IP21CMatRenderContextBaseM17IMatRenderContextFv27StencilComparisonFunction_tES3_12CRefCounted1I8CFunctor24CRefCountServiceDestructI6CRefSTEE18CFuncMemPolicyNoneED1Ev
__ZN15CMemberFunctor1IP21CMatRenderContextBaseM17IMatRenderContextFv27StencilComparisonFunction_tES3_12CRefCounted1I8CFunctor24CRefCountServiceDestructI6CRefSTEE18CFuncMemPolicyNoneEclEv
__ZN15CMemberFunctor1IP21CMatRenderContextBaseM17IMatRenderContextFv28MaterialNonInteractiveMode_tES3_12CRefCounted1I8CFunctor24CRefCountServiceDestructI6CRefSTEE18CFuncMemPolicyNoneED0Ev
__ZN15CMemberFunctor1IP21CMatRenderContextBaseM17IMatRenderContextFv28MaterialNonInteractiveMode_tES3_12CRefCounted1I8CFunctor24CRefCountServiceDestructI6CRefSTEE18CFuncMemPolicyNoneED1Ev
__ZN15CMemberFunctor1IP21CMatRenderContextBaseM17IMatRenderContextFv28MaterialNonInteractiveMode_tES3_12CRefCounted1I8CFunctor24CRefCountServiceDestructI6CRefSTEE18CFuncMemPolicyNoneEclEv
__ZN15CMemberFunctor1IP21CMatRenderContextBaseM17IMatRenderContextFv6VectorES3_12CRefCounted1I8CFunctor24CRefCountServiceDestructI6CRefSTEE18CFuncMemPolicyNoneED0Ev
__ZN15CMemberFunctor1IP21CMatRenderContextBaseM17IMatRenderContextFv6VectorES3_12CRefCounted1I8CFunctor24CRefCountServiceDestructI6CRefSTEE18CFuncMemPolicyNoneED1Ev
__ZN15CMemberFunctor1IP21CMatRenderContextBaseM17IMatRenderContextFv6VectorES3_12CRefCounted1I8CFunctor24CRefCountServiceDestructI6CRefSTEE18CFuncMemPolicyNoneEclEv
__ZN15CMemberFunctor1IP21CMatRenderContextBaseM17IMatRenderContextFvP30OcclusionQueryObjectHandle_t__ES4_12CRefCounted1I8CFunctor24CRefCountServiceDestructI6CRefSTEE18CFuncMemPolicyNoneED0Ev
__ZN15CMemberFunctor1IP21CMatRenderContextBaseM17IMatRenderContextFvP30OcclusionQueryObjectHandle_t__ES4_12CRefCounted1I8CFunctor24CRefCountServiceDestructI6CRefSTEE18CFuncMemPolicyNoneED1Ev
__ZN15CMemberFunctor1IP21CMatRenderContextBaseM17IMatRenderContextFvP30OcclusionQueryObjectHandle_t__ES4_12CRefCounted1I8CFunctor24CRefCountServiceDestructI6CRefSTEE18CFuncMemPolicyNoneEclEv
__ZN15CMemberFunctor1IP21CMatRenderContextBaseM17IMatRenderContextFvP5IMeshES4_12CRefCounted1I8CFunctor24CRefCountServiceDestructI6CRefSTEE18CFuncMemPolicyNoneED0Ev
__ZN15CMemberFunctor1IP21CMatRenderContextBaseM17IMatRenderContextFvP5IMeshES4_12CRefCounted1I8CFunctor24CRefCountServiceDestructI6CRefSTEE18CFuncMemPolicyNoneED1Ev
__ZN15CMemberFunctor1IP21CMatRenderContextBaseM17IMatRenderContextFvP5IMeshES4_12CRefCounted1I8CFunctor24CRefCountServiceDestructI6CRefSTEE18CFuncMemPolicyNoneEclEv
__ZN15CMemberFunctor1IP21CMatRenderContextBaseM17IMatRenderContextFvP6IMorphES4_12CRefCounted1I8CFunctor24CRefCountServiceDestructI6CRefSTEE18CFuncMemPolicyNoneED0Ev
__ZN15CMemberFunctor1IP21CMatRenderContextBaseM17IMatRenderContextFvP6IMorphES4_12CRefCounted1I8CFunctor24CRefCountServiceDestructI6CRefSTEE18CFuncMemPolicyNoneED1Ev
__ZN15CMemberFunctor1IP21CMatRenderContextBaseM17IMatRenderContextFvP6IMorphES4_12CRefCounted1I8CFunctor24CRefCountServiceDestructI6CRefSTEE18CFuncMemPolicyNoneEclEv
__ZN15CMemberFunctor1IP21CMatRenderContextBaseM17IMatRenderContextFvP8ITextureES4_12CRefCounted1I8CFunctor24CRefCountServiceDestructI6CRefSTEE18CFuncMemPolicyNoneED0Ev
__ZN15CMemberFunctor1IP21CMatRenderContextBaseM17IMatRenderContextFvP8ITextureES4_12CRefCounted1I8CFunctor24CRefCountServiceDestructI6CRefSTEE18CFuncMemPolicyNoneED1Ev
__ZN15CMemberFunctor1IP21CMatRenderContextBaseM17IMatRenderContextFvP8ITextureES4_12CRefCounted1I8CFunctor24CRefCountServiceDestructI6CRefSTEE18CFuncMemPolicyNoneEclEv
__ZN15CMemberFunctor1IP21CMatRenderContextBaseM17IMatRenderContextFvP8Vector4DE12CUtlEnvelopeIS3_E12CRefCounted1I8CFunctor24CRefCountServiceDestructI6CRefSTEE18CFuncMemPolicyNoneED0Ev
__ZN15CMemberFunctor1IP21CMatRenderContextBaseM17IMatRenderContextFvP8Vector4DE12CUtlEnvelopeIS3_E12CRefCounted1I8CFunctor24CRefCountServiceDestructI6CRefSTEE18CFuncMemPolicyNoneED1Ev
__ZN15CMemberFunctor1IP21CMatRenderContextBaseM17IMatRenderContextFvP8Vector4DE12CUtlEnvelopeIS3_E12CRefCounted1I8CFunctor24CRefCountServiceDestructI6CRefSTEE18CFuncMemPolicyNoneEclEv
__ZN15CMemberFunctor1IP21CMatRenderContextBaseM17IMatRenderContextFvP9IMaterialES4_12CRefCounted1I8CFunctor24CRefCountServiceDestructI6CRefSTEE18CFuncMemPolicyNoneED0Ev
__ZN15CMemberFunctor1IP21CMatRenderContextBaseM17IMatRenderContextFvP9IMaterialES4_12CRefCounted1I8CFunctor24CRefCountServiceDestructI6CRefSTEE18CFuncMemPolicyNoneED1Ev
__ZN15CMemberFunctor1IP21CMatRenderContextBaseM17IMatRenderContextFvP9IMaterialES4_12CRefCounted1I8CFunctor24CRefCountServiceDestructI6CRefSTEE18CFuncMemPolicyNoneEclEv
__ZN15CMemberFunctor1IP21CMatRenderContextBaseM17IMatRenderContextFvPKcE12CUtlEnvelopeIS4_E12CRefCounted1I8CFunctor24CRefCountServiceDestructI6CRefSTEE18CFuncMemPolicyNoneED0Ev
__ZN15CMemberFunctor1IP21CMatRenderContextBaseM17IMatRenderContextFvPKcE12CUtlEnvelopeIS4_E12CRefCounted1I8CFunctor24CRefCountServiceDestructI6CRefSTEE18CFuncMemPolicyNoneED1Ev
__ZN15CMemberFunctor1IP21CMatRenderContextBaseM17IMatRenderContextFvPKcE12CUtlEnvelopeIS4_E12CRefCounted1I8CFunctor24CRefCountServiceDestructI6CRefSTEE18CFuncMemPolicyNoneEclEv
__ZN15CMemberFunctor1IP21CMatRenderContextBaseM17IMatRenderContextFvPKfE12CUtlEnvelopeIfE12CRefCounted1I8CFunctor24CRefCountServiceDestructI6CRefSTEE18CFuncMemPolicyNoneED0Ev
__ZN15CMemberFunctor1IP21CMatRenderContextBaseM17IMatRenderContextFvPKfE12CUtlEnvelopeIfE12CRefCounted1I8CFunctor24CRefCountServiceDestructI6CRefSTEE18CFuncMemPolicyNoneED1Ev
__ZN15CMemberFunctor1IP21CMatRenderContextBaseM17IMatRenderContextFvPKfE12CUtlEnvelopeIfE12CRefCounted1I8CFunctor24CRefCountServiceDestructI6CRefSTEE18CFuncMemPolicyNoneEclEv
__ZN15CMemberFunctor1IP21CMatRenderContextBaseM17IMatRenderContextFvRK6VectorES3_12CRefCounted1I8CFunctor24CRefCountServiceDestructI6CRefSTEE18CFuncMemPolicyNoneED0Ev
__ZN15CMemberFunctor1IP21CMatRenderContextBaseM17IMatRenderContextFvRK6VectorES3_12CRefCounted1I8CFunctor24CRefCountServiceDestructI6CRefSTEE18CFuncMemPolicyNoneED1Ev
__ZN15CMemberFunctor1IP21CMatRenderContextBaseM17IMatRenderContextFvRK6VectorES3_12CRefCounted1I8CFunctor24CRefCountServiceDestructI6CRefSTEE18CFuncMemPolicyNoneEclEv
__ZN15CMemberFunctor1IP21CMatRenderContextBaseM17IMatRenderContextFvRK7VMatrixES3_12CRefCounted1I8CFunctor24CRefCountServiceDestructI6CRefSTEE18CFuncMemPolicyNoneED0Ev
__ZN15CMemberFunctor1IP21CMatRenderContextBaseM17IMatRenderContextFvRK7VMatrixES3_12CRefCounted1I8CFunctor24CRefCountServiceDestructI6CRefSTEE18CFuncMemPolicyNoneED1Ev
__ZN15CMemberFunctor1IP21CMatRenderContextBaseM17IMatRenderContextFvRK7VMatrixES3_12CRefCounted1I8CFunctor24CRefCountServiceDestructI6CRefSTEE18CFuncMemPolicyNoneEclEv
__ZN15CMemberFunctor1IP21CMatRenderContextBaseM17IMatRenderContextFvbEb12CRefCounted1I8CFunctor24CRefCountServiceDestructI6CRefSTEE18CFuncMemPolicyNoneED0Ev
__ZN15CMemberFunctor1IP21CMatRenderContextBaseM17IMatRenderContextFvbEb12CRefCounted1I8CFunctor24CRefCountServiceDestructI6CRefSTEE18CFuncMemPolicyNoneED1Ev
__ZN15CMemberFunctor1IP21CMatRenderContextBaseM17IMatRenderContextFvbEb12CRefCounted1I8CFunctor24CRefCountServiceDestructI6CRefSTEE18CFuncMemPolicyNoneEclEv
__ZN15CMemberFunctor1IP21CMatRenderContextBaseM17IMatRenderContextFvfEf12CRefCounted1I8CFunctor24CRefCountServiceDestructI6CRefSTEE18CFuncMemPolicyNoneED0Ev
__ZN15CMemberFunctor1IP21CMatRenderContextBaseM17IMatRenderContextFvfEf12CRefCounted1I8CFunctor24CRefCountServiceDestructI6CRefSTEE18CFuncMemPolicyNoneED1Ev
__ZN15CMemberFunctor1IP21CMatRenderContextBaseM17IMatRenderContextFvfEf12CRefCounted1I8CFunctor24CRefCountServiceDestructI6CRefSTEE18CFuncMemPolicyNoneEclEv
__ZN15CMemberFunctor1IP21CMatRenderContextBaseM17IMatRenderContextFviEi12CRefCounted1I8CFunctor24CRefCountServiceDestructI6CRefSTEE18CFuncMemPolicyNoneED0Ev
__ZN15CMemberFunctor1IP21CMatRenderContextBaseM17IMatRenderContextFviEi12CRefCounted1I8CFunctor24CRefCountServiceDestructI6CRefSTEE18CFuncMemPolicyNoneED1Ev
__ZN15CMemberFunctor1IP21CMatRenderContextBaseM17IMatRenderContextFviEi12CRefCounted1I8CFunctor24CRefCountServiceDestructI6CRefSTEE18CFuncMemPolicyNoneEclEv
__ZN15CMemberFunctor1IP21CMatRenderContextBaseM17IMatRenderContextFvjEj12CRefCounted1I8CFunctor24CRefCountServiceDestructI6CRefSTEE18CFuncMemPolicyNoneED0Ev
__ZN15CMemberFunctor1IP21CMatRenderContextBaseM17IMatRenderContextFvjEj12CRefCounted1I8CFunctor24CRefCountServiceDestructI6CRefSTEE18CFuncMemPolicyNoneED1Ev
__ZN15CMemberFunctor1IP21CMatRenderContextBaseM17IMatRenderContextFvjEj12CRefCounted1I8CFunctor24CRefCountServiceDestructI6CRefSTEE18CFuncMemPolicyNoneEclEv
__ZN15CMemberFunctor1IP21CMatRenderContextBaseM25IMatRenderContextInternalFvP16ITextureInternalES4_12CRefCounted1I8CFunctor24CRefCountServiceDestructI6CRefSTEE18CFuncMemPolicyNoneED0Ev
__ZN15CMemberFunctor1IP21CMatRenderContextBaseM25IMatRenderContextInternalFvP16ITextureInternalES4_12CRefCounted1I8CFunctor24CRefCountServiceDestructI6CRefSTEE18CFuncMemPolicyNoneED1Ev
__ZN15CMemberFunctor1IP21CMatRenderContextBaseM25IMatRenderContextInternalFvP16ITextureInternalES4_12CRefCounted1I8CFunctor24CRefCountServiceDestructI6CRefSTEE18CFuncMemPolicyNoneEclEv
__ZN15CMemberFunctor1IP21CMatRenderContextBaseM25IMatRenderContextInternalFvP17IMaterialInternalES4_12CRefCounted1I8CFunctor24CRefCountServiceDestructI6CRefSTEE18CFuncMemPolicyNoneED0Ev
__ZN15CMemberFunctor1IP21CMatRenderContextBaseM25IMatRenderContextInternalFvP17IMaterialInternalES4_12CRefCounted1I8CFunctor24CRefCountServiceDestructI6CRefSTEE18CFuncMemPolicyNoneED1Ev
__ZN15CMemberFunctor1IP21CMatRenderContextBaseM25IMatRenderContextInternalFvP17IMaterialInternalES4_12CRefCounted1I8CFunctor24CRefCountServiceDestructI6CRefSTEE18CFuncMemPolicyNoneEclEv
__ZN15CMemberFunctor1IP21CMatRenderContextBaseM25IMatRenderContextInternalFvPvES3_12CRefCounted1I8CFunctor24CRefCountServiceDestructI6CRefSTEE18CFuncMemPolicyNoneED0Ev
__ZN15CMemberFunctor1IP21CMatRenderContextBaseM25IMatRenderContextInternalFvPvES3_12CRefCounted1I8CFunctor24CRefCountServiceDestructI6CRefSTEE18CFuncMemPolicyNoneED1Ev
__ZN15CMemberFunctor1IP21CMatRenderContextBaseM25IMatRenderContextInternalFvPvES3_12CRefCounted1I8CFunctor24CRefCountServiceDestructI6CRefSTEE18CFuncMemPolicyNoneEclEv
__ZN15CMemberFunctor1IP21CMatRenderContextBaseM25IMatRenderContextInternalFvfEf12CRefCounted1I8CFunctor24CRefCountServiceDestructI6CRefSTEE18CFuncMemPolicyNoneED0Ev
__ZN15CMemberFunctor1IP21CMatRenderContextBaseM25IMatRenderContextInternalFvfEf12CRefCounted1I8CFunctor24CRefCountServiceDestructI6CRefSTEE18CFuncMemPolicyNoneED1Ev
__ZN15CMemberFunctor1IP21CMatRenderContextBaseM25IMatRenderContextInternalFvfEf12CRefCounted1I8CFunctor24CRefCountServiceDestructI6CRefSTEE18CFuncMemPolicyNoneEclEv
__ZN15CMemberFunctor1IP22IColorCorrectionSystemMS0_FvbEb12CRefCounted1I8CFunctor24CRefCountServiceDestructI6CRefSTEE18CFuncMemPolicyNoneED0Ev
__ZN15CMemberFunctor1IP22IColorCorrectionSystemMS0_FvbEb12CRefCounted1I8CFunctor24CRefCountServiceDestructI6CRefSTEE18CFuncMemPolicyNoneED1Ev
__ZN15CMemberFunctor1IP22IColorCorrectionSystemMS0_FvbEb12CRefCounted1I8CFunctor24CRefCountServiceDestructI6CRefSTEE18CFuncMemPolicyNoneEclEv
__ZN15CMemberFunctor1IP5IMeshMS0_Fv23MaterialPrimitiveType_tES2_12CRefCounted1I8CFunctor24CRefCountServiceDestructI6CRefSTEE18CFuncMemPolicyNoneED0Ev
__ZN15CMemberFunctor1IP5IMeshMS0_Fv23MaterialPrimitiveType_tES2_12CRefCounted1I8CFunctor24CRefCountServiceDestructI6CRefSTEE18CFuncMemPolicyNoneED1Ev
__ZN15CMemberFunctor1IP5IMeshMS0_Fv23MaterialPrimitiveType_tES2_12CRefCounted1I8CFunctor24CRefCountServiceDestructI6CRefSTEE18CFuncMemPolicyNoneEclEv
__ZN15CMemberFunctor1IP8CTextureMS0_FvP8ITextureES3_12CRefCounted1I8CFunctor20CRefCountServiceBaseILb1E6CRefMTEE18CFuncMemPolicyNoneED0Ev
__ZN15CMemberFunctor1IP8CTextureMS0_FvP8ITextureES3_12CRefCounted1I8CFunctor20CRefCountServiceBaseILb1E6CRefMTEE18CFuncMemPolicyNoneED1Ev
__ZN15CMemberFunctor1IP8CTextureMS0_FvP8ITextureES3_12CRefCounted1I8CFunctor20CRefCountServiceBaseILb1E6CRefMTEE18CFuncMemPolicyNoneEclEv
__ZN15CMemberFunctor2I13CLateBoundPtrI5IMeshEMS1_FvPS1_iES3_i12CRefCounted1I8CFunctor24CRefCountServiceDestructI6CRefSTEE18CFuncMemPolicyNoneED0Ev
__ZN15CMemberFunctor2I13CLateBoundPtrI5IMeshEMS1_FvPS1_iES3_i12CRefCounted1I8CFunctor24CRefCountServiceDestructI6CRefSTEE18CFuncMemPolicyNoneED1Ev
__ZN15CMemberFunctor2I13CLateBoundPtrI5IMeshEMS1_FvPS1_iES3_i12CRefCounted1I8CFunctor24CRefCountServiceDestructI6CRefSTEE18CFuncMemPolicyNoneEclEv
__ZN15CMemberFunctor2I13CLateBoundPtrI5IMeshEMS1_FviiEii12CRefCounted1I8CFunctor24CRefCountServiceDestructI6CRefSTEE18CFuncMemPolicyNoneED0Ev
__ZN15CMemberFunctor2I13CLateBoundPtrI5IMeshEMS1_FviiEii12CRefCounted1I8CFunctor24CRefCountServiceDestructI6CRefSTEE18CFuncMemPolicyNoneED1Ev
__ZN15CMemberFunctor2I13CLateBoundPtrI5IMeshEMS1_FviiEii12CRefCounted1I8CFunctor24CRefCountServiceDestructI6CRefSTEE18CFuncMemPolicyNoneEclEv
__ZN15CMemberFunctor2IP12CMaterialVarMS0_FvRK8Vector4DiES2_i12CRefCounted1I8CFunctor24CRefCountServiceDestructI6CRefSTEE18CFuncMemPolicyNoneED0Ev
__ZN15CMemberFunctor2IP12CMaterialVarMS0_FvRK8Vector4DiES2_i12CRefCounted1I8CFunctor24CRefCountServiceDestructI6CRefSTEE18CFuncMemPolicyNoneED1Ev
__ZN15CMemberFunctor2IP12CMaterialVarMS0_FvRK8Vector4DiES2_i12CRefCounted1I8CFunctor24CRefCountServiceDestructI6CRefSTEE18CFuncMemPolicyNoneEclEv
__ZN15CMemberFunctor2IP12CMaterialVarMS0_FvfiEfi12CRefCounted1I8CFunctor24CRefCountServiceDestructI6CRefSTEE18CFuncMemPolicyNoneED0Ev
__ZN15CMemberFunctor2IP12CMaterialVarMS0_FvfiEfi12CRefCounted1I8CFunctor24CRefCountServiceDestructI6CRefSTEE18CFuncMemPolicyNoneED1Ev
__ZN15CMemberFunctor2IP12CMaterialVarMS0_FvfiEfi12CRefCounted1I8CFunctor24CRefCountServiceDestructI6CRefSTEE18CFuncMemPolicyNoneEclEv
__ZN15CMemberFunctor2IP12CMaterialVarMS0_FvmPvEmS2_12CRefCounted1I8CFunctor24CRefCountServiceDestructI6CRefSTEE18CFuncMemPolicyNoneED0Ev
__ZN15CMemberFunctor2IP12CMaterialVarMS0_FvmPvEmS2_12CRefCounted1I8CFunctor24CRefCountServiceDestructI6CRefSTEE18CFuncMemPolicyNoneED1Ev
__ZN15CMemberFunctor2IP12CMaterialVarMS0_FvmPvEmS2_12CRefCounted1I8CFunctor24CRefCountServiceDestructI6CRefSTEE18CFuncMemPolicyNoneEclEv
__ZN15CMemberFunctor2IP17IMaterialInternalM9IMaterialFv18MaterialVarFlags_tbES3_b12CRefCounted1I8CFunctor20CRefCountServiceBaseILb1E6CRefMTEE18CFuncMemPolicyNoneED0Ev
__ZN15CMemberFunctor2IP17IMaterialInternalM9IMaterialFv18MaterialVarFlags_tbES3_b12CRefCounted1I8CFunctor20CRefCountServiceBaseILb1E6CRefMTEE18CFuncMemPolicyNoneED1Ev
__ZN15CMemberFunctor2IP17IMaterialInternalM9IMaterialFv18MaterialVarFlags_tbES3_b12CRefCounted1I8CFunctor20CRefCountServiceBaseILb1E6CRefMTEE18CFuncMemPolicyNoneEclEv
__ZN15CMemberFunctor2IP21CMatRenderContextBaseM17IMatRenderContextFvP5IMeshP9IMaterialES4_S6_12CRefCounted1I8CFunctor24CRefCountServiceDestructI6CRefSTEE18CFuncMemPolicyNoneED0Ev
__ZN15CMemberFunctor2IP21CMatRenderContextBaseM17IMatRenderContextFvP5IMeshP9IMaterialES4_S6_12CRefCounted1I8CFunctor24CRefCountServiceDestructI6CRefSTEE18CFuncMemPolicyNoneED1Ev
__ZN15CMemberFunctor2IP21CMatRenderContextBaseM17IMatRenderContextFvP5IMeshP9IMaterialES4_S6_12CRefCounted1I8CFunctor24CRefCountServiceDestructI6CRefSTEE18CFuncMemPolicyNoneEclEv
__ZN15CMemberFunctor2IP21CMatRenderContextBaseM17IMatRenderContextFvP8ITexture28MaterialNonInteractiveMode_tES4_S5_12CRefCounted1I8CFunctor24CRefCountServiceDestructI6CRefSTEE18CFuncMemPolicyNoneED0Ev
__ZN15CMemberFunctor2IP21CMatRenderContextBaseM17IMatRenderContextFvP8ITexture28MaterialNonInteractiveMode_tES4_S5_12CRefCounted1I8CFunctor24CRefCountServiceDestructI6CRefSTEE18CFuncMemPolicyNoneED1Ev
__ZN15CMemberFunctor2IP21CMatRenderContextBaseM17IMatRenderContextFvP8ITexture28MaterialNonInteractiveMode_tES4_S5_12CRefCounted1I8CFunctor24CRefCountServiceDestructI6CRefSTEE18CFuncMemPolicyNoneEclEv
__ZN15CMemberFunctor2IP21CMatRenderContextBaseM17IMatRenderContextFvP8ITextureiES4_i12CRefCounted1I8CFunctor24CRefCountServiceDestructI6CRefSTEE18CFuncMemPolicyNoneED0Ev
__ZN15CMemberFunctor2IP21CMatRenderContextBaseM17IMatRenderContextFvP8ITextureiES4_i12CRefCounted1I8CFunctor24CRefCountServiceDestructI6CRefSTEE18CFuncMemPolicyNoneED1Ev
__ZN15CMemberFunctor2IP21CMatRenderContextBaseM17IMatRenderContextFvP8ITextureiES4_i12CRefCounted1I8CFunctor24CRefCountServiceDestructI6CRefSTEE18CFuncMemPolicyNoneEclEv
__ZN15CMemberFunctor2IP21CMatRenderContextBaseM17IMatRenderContextFvP9IMaterialPvES4_S5_12CRefCounted1I8CFunctor24CRefCountServiceDestructI6CRefSTEE18CFuncMemPolicyNoneED0Ev
__ZN15CMemberFunctor2IP21CMatRenderContextBaseM17IMatRenderContextFvP9IMaterialPvES4_S5_12CRefCounted1I8CFunctor24CRefCountServiceDestructI6CRefSTEE18CFuncMemPolicyNoneED1Ev
__ZN15CMemberFunctor2IP21CMatRenderContextBaseM17IMatRenderContextFvP9IMaterialPvES4_S5_12CRefCounted1I8CFunctor24CRefCountServiceDestructI6CRefSTEE18CFuncMemPolicyNoneEclEv
__ZN15CMemberFunctor2IP21CMatRenderContextBaseM17IMatRenderContextFvRK17FlashlightState_tRK7VMatrixES3_S6_12CRefCounted1I8CFunctor24CRefCountServiceDestructI6CRefSTEE18CFuncMemPolicyNoneED0Ev
__ZN15CMemberFunctor2IP21CMatRenderContextBaseM17IMatRenderContextFvRK17FlashlightState_tRK7VMatrixES3_S6_12CRefCounted1I8CFunctor24CRefCountServiceDestructI6CRefSTEE18CFuncMemPolicyNoneED1Ev
__ZN15CMemberFunctor2IP21CMatRenderContextBaseM17IMatRenderContextFvRK17FlashlightState_tRK7VMatrixES3_S6_12CRefCounted1I8CFunctor24CRefCountServiceDestructI6CRefSTEE18CFuncMemPolicyNoneEclEv
__ZN15CMemberFunctor2IP21CMatRenderContextBaseM17IMatRenderContextFvbbEbb12CRefCounted1I8CFunctor24CRefCountServiceDestructI6CRefSTEE18CFuncMemPolicyNoneED0Ev
__ZN15CMemberFunctor2IP21CMatRenderContextBaseM17IMatRenderContextFvbbEbb12CRefCounted1I8CFunctor24CRefCountServiceDestructI6CRefSTEE18CFuncMemPolicyNoneED1Ev
__ZN15CMemberFunctor2IP21CMatRenderContextBaseM17IMatRenderContextFvbbEbb12CRefCounted1I8CFunctor24CRefCountServiceDestructI6CRefSTEE18CFuncMemPolicyNoneEclEv
__ZN15CMemberFunctor2IP21CMatRenderContextBaseM17IMatRenderContextFvffEff12CRefCounted1I8CFunctor24CRefCountServiceDestructI6CRefSTEE18CFuncMemPolicyNoneED0Ev
__ZN15CMemberFunctor2IP21CMatRenderContextBaseM17IMatRenderContextFvffEff12CRefCounted1I8CFunctor24CRefCountServiceDestructI6CRefSTEE18CFuncMemPolicyNoneED1Ev
__ZN15CMemberFunctor2IP21CMatRenderContextBaseM17IMatRenderContextFvffEff12CRefCounted1I8CFunctor24CRefCountServiceDestructI6CRefSTEE18CFuncMemPolicyNoneEclEv
__ZN15CMemberFunctor2IP21CMatRenderContextBaseM17IMatRenderContextFviP8ITextureEiS4_12CRefCounted1I8CFunctor24CRefCountServiceDestructI6CRefSTEE18CFuncMemPolicyNoneED0Ev
__ZN15CMemberFunctor2IP21CMatRenderContextBaseM17IMatRenderContextFviP8ITextureEiS4_12CRefCounted1I8CFunctor24CRefCountServiceDestructI6CRefSTEE18CFuncMemPolicyNoneED1Ev
__ZN15CMemberFunctor2IP21CMatRenderContextBaseM17IMatRenderContextFviP8ITextureEiS4_12CRefCounted1I8CFunctor24CRefCountServiceDestructI6CRefSTEE18CFuncMemPolicyNoneEclEv
__ZN15CMemberFunctor2IP21CMatRenderContextBaseM17IMatRenderContextFviRK11LightDesc_tEiS3_12CRefCounted1I8CFunctor24CRefCountServiceDestructI6CRefSTEE18CFuncMemPolicyNoneED0Ev
__ZN15CMemberFunctor2IP21CMatRenderContextBaseM17IMatRenderContextFviRK11LightDesc_tEiS3_12CRefCounted1I8CFunctor24CRefCountServiceDestructI6CRefSTEE18CFuncMemPolicyNoneED1Ev
__ZN15CMemberFunctor2IP21CMatRenderContextBaseM17IMatRenderContextFviRK11LightDesc_tEiS3_12CRefCounted1I8CFunctor24CRefCountServiceDestructI6CRefSTEE18CFuncMemPolicyNoneEclEv
__ZN15CMemberFunctor2IP21CMatRenderContextBaseM17IMatRenderContextFviRK11matrix3x4_tEiS3_12CRefCounted1I8CFunctor24CRefCountServiceDestructI6CRefSTEE18CFuncMemPolicyNoneED0Ev
__ZN15CMemberFunctor2IP21CMatRenderContextBaseM17IMatRenderContextFviRK11matrix3x4_tEiS3_12CRefCounted1I8CFunctor24CRefCountServiceDestructI6CRefSTEE18CFuncMemPolicyNoneED1Ev
__ZN15CMemberFunctor2IP21CMatRenderContextBaseM17IMatRenderContextFviRK11matrix3x4_tEiS3_12CRefCounted1I8CFunctor24CRefCountServiceDestructI6CRefSTEE18CFuncMemPolicyNoneEclEv
__ZN15CMemberFunctor2IP21CMatRenderContextBaseM17IMatRenderContextFviRK6VectorEiS3_12CRefCounted1I8CFunctor24CRefCountServiceDestructI6CRefSTEE18CFuncMemPolicyNoneED0Ev
__ZN15CMemberFunctor2IP21CMatRenderContextBaseM17IMatRenderContextFviRK6VectorEiS3_12CRefCounted1I8CFunctor24CRefCountServiceDestructI6CRefSTEE18CFuncMemPolicyNoneED1Ev
__ZN15CMemberFunctor2IP21CMatRenderContextBaseM17IMatRenderContextFviRK6VectorEiS3_12CRefCounted1I8CFunctor24CRefCountServiceDestructI6CRefSTEE18CFuncMemPolicyNoneEclEv
__ZN15CMemberFunctor2IP21CMatRenderContextBaseM17IMatRenderContextFvifEif12CRefCounted1I8CFunctor24CRefCountServiceDestructI6CRefSTEE18CFuncMemPolicyNoneED0Ev
__ZN15CMemberFunctor2IP21CMatRenderContextBaseM17IMatRenderContextFvifEif12CRefCounted1I8CFunctor24CRefCountServiceDestructI6CRefSTEE18CFuncMemPolicyNoneED1Ev
__ZN15CMemberFunctor2IP21CMatRenderContextBaseM17IMatRenderContextFvifEif12CRefCounted1I8CFunctor24CRefCountServiceDestructI6CRefSTEE18CFuncMemPolicyNoneEclEv
__ZN15CMemberFunctor2IP21CMatRenderContextBaseM17IMatRenderContextFviiEii12CRefCounted1I8CFunctor24CRefCountServiceDestructI6CRefSTEE18CFuncMemPolicyNoneED0Ev
__ZN15CMemberFunctor2IP21CMatRenderContextBaseM17IMatRenderContextFviiEii12CRefCounted1I8CFunctor24CRefCountServiceDestructI6CRefSTEE18CFuncMemPolicyNoneED1Ev
__ZN15CMemberFunctor2IP21CMatRenderContextBaseM17IMatRenderContextFviiEii12CRefCounted1I8CFunctor24CRefCountServiceDestructI6CRefSTEE18CFuncMemPolicyNoneEclEv
__ZN15CMemberFunctor2IP21CMatRenderContextBaseM17IMatRenderContextFvmPKcEm12CUtlEnvelopeIS4_E12CRefCounted1I8CFunctor24CRefCountServiceDestructI6CRefSTEE18CFuncMemPolicyNoneED0Ev
__ZN15CMemberFunctor2IP21CMatRenderContextBaseM17IMatRenderContextFvmPKcEm12CUtlEnvelopeIS4_E12CRefCounted1I8CFunctor24CRefCountServiceDestructI6CRefSTEE18CFuncMemPolicyNoneED1Ev
__ZN15CMemberFunctor2IP21CMatRenderContextBaseM17IMatRenderContextFvmPKcEm12CUtlEnvelopeIS4_E12CRefCounted1I8CFunctor24CRefCountServiceDestructI6CRefSTEE18CFuncMemPolicyNoneEclEv
__ZN15CMemberFunctor2IP22IColorCorrectionSystemMS0_FvjbEjb12CRefCounted1I8CFunctor24CRefCountServiceDestructI6CRefSTEE18CFuncMemPolicyNoneED0Ev
__ZN15CMemberFunctor2IP22IColorCorrectionSystemMS0_FvjbEjb12CRefCounted1I8CFunctor24CRefCountServiceDestructI6CRefSTEE18CFuncMemPolicyNoneED1Ev
__ZN15CMemberFunctor2IP22IColorCorrectionSystemMS0_FvjbEjb12CRefCounted1I8CFunctor24CRefCountServiceDestructI6CRefSTEE18CFuncMemPolicyNoneEclEv
__ZN15CMemberFunctor2IP22IColorCorrectionSystemMS0_FvjfEjf12CRefCounted1I8CFunctor24CRefCountServiceDestructI6CRefSTEE18CFuncMemPolicyNoneED0Ev
__ZN15CMemberFunctor2IP22IColorCorrectionSystemMS0_FvjfEjf12CRefCounted1I8CFunctor24CRefCountServiceDestructI6CRefSTEE18CFuncMemPolicyNoneED1Ev
__ZN15CMemberFunctor2IP22IColorCorrectionSystemMS0_FvjfEjf12CRefCounted1I8CFunctor24CRefCountServiceDestructI6CRefSTEE18CFuncMemPolicyNoneEclEv
__ZN15CMemberFunctor2IP23CMatQueuedRenderContextMS0_FvP5IMeshiES3_i12CRefCounted1I8CFunctor24CRefCountServiceDestructI6CRefSTEE18CFuncMemPolicyNoneED0Ev
__ZN15CMemberFunctor2IP23CMatQueuedRenderContextMS0_FvP5IMeshiES3_i12CRefCounted1I8CFunctor24CRefCountServiceDestructI6CRefSTEE18CFuncMemPolicyNoneED1Ev
__ZN15CMemberFunctor2IP23CMatQueuedRenderContextMS0_FvP5IMeshiES3_i12CRefCounted1I8CFunctor24CRefCountServiceDestructI6CRefSTEE18CFuncMemPolicyNoneEclEv
__ZN15CMemberFunctor2IP23CMatQueuedRenderContextMS0_FvPtiES2_i12CRefCounted1I8CFunctor24CRefCountServiceDestructI6CRefSTEE18CFuncMemPolicyNoneED0Ev
__ZN15CMemberFunctor2IP23CMatQueuedRenderContextMS0_FvPtiES2_i12CRefCounted1I8CFunctor24CRefCountServiceDestructI6CRefSTEE18CFuncMemPolicyNoneED1Ev
__ZN15CMemberFunctor2IP23CMatQueuedRenderContextMS0_FvPtiES2_i12CRefCounted1I8CFunctor24CRefCountServiceDestructI6CRefSTEE18CFuncMemPolicyNoneEclEv
__ZN15CMemberFunctor2IP5IMeshMS0_FvS1_iES1_i12CRefCounted1I8CFunctor24CRefCountServiceDestructI6CRefSTEE18CFuncMemPolicyNoneED0Ev
__ZN15CMemberFunctor2IP5IMeshMS0_FvS1_iES1_i12CRefCounted1I8CFunctor24CRefCountServiceDestructI6CRefSTEE18CFuncMemPolicyNoneED1Ev
__ZN15CMemberFunctor2IP5IMeshMS0_FvS1_iES1_i12CRefCounted1I8CFunctor24CRefCountServiceDestructI6CRefSTEE18CFuncMemPolicyNoneEclEv
__ZN15CMemberFunctor2IP5IMeshMS0_FviiEii12CRefCounted1I8CFunctor24CRefCountServiceDestructI6CRefSTEE18CFuncMemPolicyNoneED0Ev
__ZN15CMemberFunctor2IP5IMeshMS0_FviiEii12CRefCounted1I8CFunctor24CRefCountServiceDestructI6CRefSTEE18CFuncMemPolicyNoneED1Ev
__ZN15CMemberFunctor2IP5IMeshMS0_FviiEii12CRefCounted1I8CFunctor24CRefCountServiceDestructI6CRefSTEE18CFuncMemPolicyNoneEclEv
__ZN15CMemberFunctor2IP9CMaterialMS0_Fv18MaterialVarFlags_tbES2_b12CRefCounted1I8CFunctor24CRefCountServiceDestructI6CRefSTEE18CFuncMemPolicyNoneED0Ev
__ZN15CMemberFunctor2IP9CMaterialMS0_Fv18MaterialVarFlags_tbES2_b12CRefCounted1I8CFunctor24CRefCountServiceDestructI6CRefSTEE18CFuncMemPolicyNoneED1Ev
__ZN15CMemberFunctor2IP9CMaterialMS0_Fv18MaterialVarFlags_tbES2_b12CRefCounted1I8CFunctor24CRefCountServiceDestructI6CRefSTEE18CFuncMemPolicyNoneEclEv
__ZN15CMemberFunctor3IP17IMaterialInternalM9IMaterialFvfffEfff12CRefCounted1I8CFunctor20CRefCountServiceBaseILb1E6CRefMTEE18CFuncMemPolicyNoneED0Ev
__ZN15CMemberFunctor3IP17IMaterialInternalM9IMaterialFvfffEfff12CRefCounted1I8CFunctor20CRefCountServiceBaseILb1E6CRefMTEE18CFuncMemPolicyNoneED1Ev
__ZN15CMemberFunctor3IP17IMaterialInternalM9IMaterialFvfffEfff12CRefCounted1I8CFunctor20CRefCountServiceBaseILb1E6CRefMTEE18CFuncMemPolicyNoneEclEv
__ZN15CMemberFunctor3IP21CMatRenderContextBaseM17IMatRenderContextFvRK17FlashlightState_tRK7VMatrixP8ITextureES3_S6_SA_12CRefCounted1I8CFunctor24CRefCountServiceDestructI6CRefSTEE18CFuncMemPolicyNoneED0Ev
__ZN15CMemberFunctor3IP21CMatRenderContextBaseM17IMatRenderContextFvRK17FlashlightState_tRK7VMatrixP8ITextureES3_S6_SA_12CRefCounted1I8CFunctor24CRefCountServiceDestructI6CRefSTEE18CFuncMemPolicyNoneED1Ev
__ZN15CMemberFunctor3IP21CMatRenderContextBaseM17IMatRenderContextFvRK17FlashlightState_tRK7VMatrixP8ITextureES3_S6_SA_12CRefCounted1I8CFunctor24CRefCountServiceDestructI6CRefSTEE18CFuncMemPolicyNoneEclEv
__ZN15CMemberFunctor3IP21CMatRenderContextBaseM17IMatRenderContextFvbbbEbbb12CRefCounted1I8CFunctor24CRefCountServiceDestructI6CRefSTEE18CFuncMemPolicyNoneED0Ev
__ZN15CMemberFunctor3IP21CMatRenderContextBaseM17IMatRenderContextFvbbbEbbb12CRefCounted1I8CFunctor24CRefCountServiceDestructI6CRefSTEE18CFuncMemPolicyNoneED1Ev
__ZN15CMemberFunctor3IP21CMatRenderContextBaseM17IMatRenderContextFvbbbEbbb12CRefCounted1I8CFunctor24CRefCountServiceDestructI6CRefSTEE18CFuncMemPolicyNoneEclEv
__ZN15CMemberFunctor3IP21CMatRenderContextBaseM17IMatRenderContextFvfffEfff12CRefCounted1I8CFunctor24CRefCountServiceDestructI6CRefSTEE18CFuncMemPolicyNoneED0Ev
__ZN15CMemberFunctor3IP21CMatRenderContextBaseM17IMatRenderContextFvfffEfff12CRefCounted1I8CFunctor24CRefCountServiceDestructI6CRefSTEE18CFuncMemPolicyNoneED1Ev
__ZN15CMemberFunctor3IP21CMatRenderContextBaseM17IMatRenderContextFvfffEfff12CRefCounted1I8CFunctor24CRefCountServiceDestructI6CRefSTEE18CFuncMemPolicyNoneEclEv
__ZN15CMemberFunctor3IP21CMatRenderContextBaseM17IMatRenderContextFvhhhEhhh12CRefCounted1I8CFunctor24CRefCountServiceDestructI6CRefSTEE18CFuncMemPolicyNoneED0Ev
__ZN15CMemberFunctor3IP21CMatRenderContextBaseM17IMatRenderContextFvhhhEhhh12CRefCounted1I8CFunctor24CRefCountServiceDestructI6CRefSTEE18CFuncMemPolicyNoneED1Ev
__ZN15CMemberFunctor3IP21CMatRenderContextBaseM17IMatRenderContextFvhhhEhhh12CRefCounted1I8CFunctor24CRefCountServiceDestructI6CRefSTEE18CFuncMemPolicyNoneEclEv
__ZN15CMemberFunctor3IP21CMatRenderContextBaseM25IMatRenderContextInternalFvP16ITextureInternalP30IAsyncTextureOperationReceiverPvES4_S6_S7_12CRefCounted1I8CFunctor24CRefCountServiceDestructI6CRefSTEE18CFuncMemPolicyNoneED0Ev
__ZN15CMemberFunctor3IP21CMatRenderContextBaseM25IMatRenderContextInternalFvP16ITextureInternalP30IAsyncTextureOperationReceiverPvES4_S6_S7_12CRefCounted1I8CFunctor24CRefCountServiceDestructI6CRefSTEE18CFuncMemPolicyNoneED1Ev
__ZN15CMemberFunctor3IP21CMatRenderContextBaseM25IMatRenderContextInternalFvP16ITextureInternalP30IAsyncTextureOperationReceiverPvES4_S6_S7_12CRefCounted1I8CFunctor24CRefCountServiceDestructI6CRefSTEE18CFuncMemPolicyNoneEclEv
__ZN15CMemberFunctor3IP23CMatQueuedRenderContextMS0_FvP5IMeshP9CPrimListiES3_S5_i12CRefCounted1I8CFunctor24CRefCountServiceDestructI6CRefSTEE18CFuncMemPolicyNoneED0Ev
__ZN15CMemberFunctor3IP23CMatQueuedRenderContextMS0_FvP5IMeshP9CPrimListiES3_S5_i12CRefCounted1I8CFunctor24CRefCountServiceDestructI6CRefSTEE18CFuncMemPolicyNoneED1Ev
__ZN15CMemberFunctor3IP23CMatQueuedRenderContextMS0_FvP5IMeshP9CPrimListiES3_S5_i12CRefCounted1I8CFunctor24CRefCountServiceDestructI6CRefSTEE18CFuncMemPolicyNoneEclEv
__ZN15CMemberFunctor4IP21CMatRenderContextBaseM17IMatRenderContextFvP8ITexturefffES4_fff12CRefCounted1I8CFunctor24CRefCountServiceDestructI6CRefSTEE18CFuncMemPolicyNoneED0Ev
__ZN15CMemberFunctor4IP21CMatRenderContextBaseM17IMatRenderContextFvP8ITexturefffES4_fff12CRefCounted1I8CFunctor24CRefCountServiceDestructI6CRefSTEE18CFuncMemPolicyNoneED1Ev
__ZN15CMemberFunctor4IP21CMatRenderContextBaseM17IMatRenderContextFvP8ITexturefffES4_fff12CRefCounted1I8CFunctor24CRefCountServiceDestructI6CRefSTEE18CFuncMemPolicyNoneEclEv
__ZN15CMemberFunctor4IP21CMatRenderContextBaseM17IMatRenderContextFvP8ITextureiP6Rect_tS6_ES4_i12CUtlEnvelopeIS5_ESA_12CRefCounted1I8CFunctor24CRefCountServiceDestructI6CRefSTEE18CFuncMemPolicyNoneEC2ES1_S8_RKS4_RKiRKSA_SO_
__ZN15CMemberFunctor4IP21CMatRenderContextBaseM17IMatRenderContextFvP8ITextureiP6Rect_tS6_ES4_i12CUtlEnvelopeIS5_ESA_12CRefCounted1I8CFunctor24CRefCountServiceDestructI6CRefSTEE18CFuncMemPolicyNoneED0Ev
__ZN15CMemberFunctor4IP21CMatRenderContextBaseM17IMatRenderContextFvP8ITextureiP6Rect_tS6_ES4_i12CUtlEnvelopeIS5_ESA_12CRefCounted1I8CFunctor24CRefCountServiceDestructI6CRefSTEE18CFuncMemPolicyNoneED1Ev
__ZN15CMemberFunctor4IP21CMatRenderContextBaseM17IMatRenderContextFvP8ITextureiP6Rect_tS6_ES4_i12CUtlEnvelopeIS5_ESA_12CRefCounted1I8CFunctor24CRefCountServiceDestructI6CRefSTEE18CFuncMemPolicyNoneEclEv
__ZN15CMemberFunctor4IP21CMatRenderContextBaseM17IMatRenderContextFvhhhhEhhhh12CRefCounted1I8CFunctor24CRefCountServiceDestructI6CRefSTEE18CFuncMemPolicyNoneED0Ev
__ZN15CMemberFunctor4IP21CMatRenderContextBaseM17IMatRenderContextFvhhhhEhhhh12CRefCounted1I8CFunctor24CRefCountServiceDestructI6CRefSTEE18CFuncMemPolicyNoneED1Ev
__ZN15CMemberFunctor4IP21CMatRenderContextBaseM17IMatRenderContextFvhhhhEhhhh12CRefCounted1I8CFunctor24CRefCountServiceDestructI6CRefSTEE18CFuncMemPolicyNoneEclEv
__ZN15CMemberFunctor4IP21CMatRenderContextBaseM17IMatRenderContextFviP8ITextureP6Rect_tS6_EiS4_12CUtlEnvelopeIS5_ESA_12CRefCounted1I8CFunctor24CRefCountServiceDestructI6CRefSTEE18CFuncMemPolicyNoneEC2ES1_S8_RKiRKS4_RKSA_SO_
__ZN15CMemberFunctor4IP21CMatRenderContextBaseM17IMatRenderContextFviP8ITextureP6Rect_tS6_EiS4_12CUtlEnvelopeIS5_ESA_12CRefCounted1I8CFunctor24CRefCountServiceDestructI6CRefSTEE18CFuncMemPolicyNoneED0Ev
__ZN15CMemberFunctor4IP21CMatRenderContextBaseM17IMatRenderContextFviP8ITextureP6Rect_tS6_EiS4_12CUtlEnvelopeIS5_ESA_12CRefCounted1I8CFunctor24CRefCountServiceDestructI6CRefSTEE18CFuncMemPolicyNoneED1Ev
__ZN15CMemberFunctor4IP21CMatRenderContextBaseM17IMatRenderContextFviP8ITextureP6Rect_tS6_EiS4_12CUtlEnvelopeIS5_ESA_12CRefCounted1I8CFunctor24CRefCountServiceDestructI6CRefSTEE18CFuncMemPolicyNoneEclEv
__ZN15CMemberFunctor4IP21CMatRenderContextBaseM17IMatRenderContextFviiiiEiiii12CRefCounted1I8CFunctor24CRefCountServiceDestructI6CRefSTEE18CFuncMemPolicyNoneED0Ev
__ZN15CMemberFunctor4IP21CMatRenderContextBaseM17IMatRenderContextFviiiiEiiii12CRefCounted1I8CFunctor24CRefCountServiceDestructI6CRefSTEE18CFuncMemPolicyNoneED1Ev
__ZN15CMemberFunctor4IP21CMatRenderContextBaseM17IMatRenderContextFviiiiEiiii12CRefCounted1I8CFunctor24CRefCountServiceDestructI6CRefSTEE18CFuncMemPolicyNoneEclEv
__ZN15CMemberFunctor4IP21CMatRenderContextBaseM25IMatRenderContextInternalFvP8ITextureS4_P30IAsyncTextureOperationReceiverPvES4_S4_S6_S7_12CRefCounted1I8CFunctor24CRefCountServiceDestructI6CRefSTEE18CFuncMemPolicyNoneED0Ev
__ZN15CMemberFunctor4IP21CMatRenderContextBaseM25IMatRenderContextInternalFvP8ITextureS4_P30IAsyncTextureOperationReceiverPvES4_S4_S6_S7_12CRefCounted1I8CFunctor24CRefCountServiceDestructI6CRefSTEE18CFuncMemPolicyNoneED1Ev
__ZN15CMemberFunctor4IP21CMatRenderContextBaseM25IMatRenderContextInternalFvP8ITextureS4_P30IAsyncTextureOperationReceiverPvES4_S4_S6_S7_12CRefCounted1I8CFunctor24CRefCountServiceDestructI6CRefSTEE18CFuncMemPolicyNoneEclEv
__ZN15CMemberFunctor5IP14CMatQueuedMeshMS0_FvPhiiPtiES2_iiS3_i12CRefCounted1I8CFunctor24CRefCountServiceDestructI6CRefSTEE18CFuncMemPolicyNoneED0Ev
__ZN15CMemberFunctor5IP14CMatQueuedMeshMS0_FvPhiiPtiES2_iiS3_i12CRefCounted1I8CFunctor24CRefCountServiceDestructI6CRefSTEE18CFuncMemPolicyNoneED1Ev
__ZN15CMemberFunctor5IP14CMatQueuedMeshMS0_FvPhiiPtiES2_iiS3_i12CRefCounted1I8CFunctor24CRefCountServiceDestructI6CRefSTEE18CFuncMemPolicyNoneEclEv
__ZN15CMemberFunctor5IP14CMatQueuedMeshMS0_FvyjP5IMeshS3_P17IMaterialInternalEyjS3_S3_S5_12CRefCounted1I8CFunctor24CRefCountServiceDestructI6CRefSTEE18CFuncMemPolicyNoneED0Ev
__ZN15CMemberFunctor5IP14CMatQueuedMeshMS0_FvyjP5IMeshS3_P17IMaterialInternalEyjS3_S3_S5_12CRefCounted1I8CFunctor24CRefCountServiceDestructI6CRefSTEE18CFuncMemPolicyNoneED1Ev
__ZN15CMemberFunctor5IP14CMatQueuedMeshMS0_FvyjP5IMeshS3_P17IMaterialInternalEyjS3_S3_S5_12CRefCounted1I8CFunctor24CRefCountServiceDestructI6CRefSTEE18CFuncMemPolicyNoneEclEv
__ZN15CMemberFunctor5IP21CMatRenderContextBaseM17IMatRenderContextFvP8ITextureiiiiES4_iiii12CRefCounted1I8CFunctor24CRefCountServiceDestructI6CRefSTEE18CFuncMemPolicyNoneED0Ev
__ZN15CMemberFunctor5IP21CMatRenderContextBaseM17IMatRenderContextFvP8ITextureiiiiES4_iiii12CRefCounted1I8CFunctor24CRefCountServiceDestructI6CRefSTEE18CFuncMemPolicyNoneED1Ev
__ZN15CMemberFunctor5IP21CMatRenderContextBaseM17IMatRenderContextFvP8ITextureiiiiES4_iiii12CRefCounted1I8CFunctor24CRefCountServiceDestructI6CRefSTEE18CFuncMemPolicyNoneEclEv
__ZN15CMemberFunctor5IP21CMatRenderContextBaseM17IMatRenderContextFviiiibEiiiib12CRefCounted1I8CFunctor24CRefCountServiceDestructI6CRefSTEE18CFuncMemPolicyNoneED0Ev
__ZN15CMemberFunctor5IP21CMatRenderContextBaseM17IMatRenderContextFviiiibEiiiib12CRefCounted1I8CFunctor24CRefCountServiceDestructI6CRefSTEE18CFuncMemPolicyNoneED1Ev
__ZN15CMemberFunctor5IP21CMatRenderContextBaseM17IMatRenderContextFviiiibEiiiib12CRefCounted1I8CFunctor24CRefCountServiceDestructI6CRefSTEE18CFuncMemPolicyNoneEclEv
__ZN15CMemberFunctor5IP21CMatRenderContextBaseM17IMatRenderContextFviiiiiEiiiii12CRefCounted1I8CFunctor24CRefCountServiceDestructI6CRefSTEE18CFuncMemPolicyNoneED0Ev
__ZN15CMemberFunctor5IP21CMatRenderContextBaseM17IMatRenderContextFviiiiiEiiiii12CRefCounted1I8CFunctor24CRefCountServiceDestructI6CRefSTEE18CFuncMemPolicyNoneED1Ev
__ZN15CMemberFunctor5IP21CMatRenderContextBaseM17IMatRenderContextFviiiiiEiiiii12CRefCounted1I8CFunctor24CRefCountServiceDestructI6CRefSTEE18CFuncMemPolicyNoneEclEv
__ZN15CMemberFunctor6IP21CMatRenderContextBaseM17IMatRenderContextFvP8ITextureS4_iiiiES4_S4_iiii12CRefCounted1I8CFunctor24CRefCountServiceDestructI6CRefSTEE18CFuncMemPolicyNoneED0Ev
__ZN15CMemberFunctor6IP21CMatRenderContextBaseM17IMatRenderContextFvP8ITextureS4_iiiiES4_S4_iiii12CRefCounted1I8CFunctor24CRefCountServiceDestructI6CRefSTEE18CFuncMemPolicyNoneED1Ev
__ZN15CMemberFunctor6IP21CMatRenderContextBaseM17IMatRenderContextFvP8ITextureS4_iiiiES4_S4_iiii12CRefCounted1I8CFunctor24CRefCountServiceDestructI6CRefSTEE18CFuncMemPolicyNoneEclEv
__ZN15CMemberFunctor7IP21CMatRenderContextBaseM17IMatRenderContextFvP8ITexturePKc11ImageFormatbiP30IAsyncTextureOperationReceiverPvES4_S6_S7_biS9_SA_12CRefCounted1I8CFunctor24CRefCountServiceDestructI6CRefSTEE18CFuncMemPolicyNoneED0Ev
__ZN15CMemberFunctor7IP21CMatRenderContextBaseM17IMatRenderContextFvP8ITexturePKc11ImageFormatbiP30IAsyncTextureOperationReceiverPvES4_S6_S7_biS9_SA_12CRefCounted1I8CFunctor24CRefCountServiceDestructI6CRefSTEE18CFuncMemPolicyNoneED1Ev
__ZN15CMemberFunctor7IP21CMatRenderContextBaseM17IMatRenderContextFvP8ITexturePKc11ImageFormatbiP30IAsyncTextureOperationReceiverPvES4_S6_S7_biS9_SA_12CRefCounted1I8CFunctor24CRefCountServiceDestructI6CRefSTEE18CFuncMemPolicyNoneEclEv
__ZN15CTCCombineStage11ResolveThisEP18CTextureCompositor
__ZN15CTCCombineStage15RequestTexturesEv
__ZN15CTCCombineStage23ComputeRandomValuesThisEP20CUniformRandomStream
__ZN15CTCCombineStageC2ERK22CombineStageParametersj
__ZN15CTCCombineStageD0Ev
__ZN15CTCCombineStageD1Ev
__ZN15CTCCombineStageD2Ev
__ZN15CTCTextureStage11ResolveThisEP18CTextureCompositor
__ZN15CTCTextureStage15RequestTexturesEv
__ZN15CTCTextureStage19OnAsyncFindCompleteEP8ITexturePv
__ZN15CTCTextureStage23ComputeRandomValuesThisEP20CUniformRandomStream
__ZN15CTCTextureStageC2ERK22TextureStageParametersj
__ZN15CTCTextureStageD0Ev
__ZN15CTCTextureStageD1Ev
__ZN15CTCTextureStageD2Ev
__ZN15CTextureManager11FindTextureEPKc
__ZN15CTextureManager11LoadTextureEPKcS1_ib
__ZN15CTextureManager12ErrorTextureEv
__ZN15CTextureManager13DebugLuxels2DEv
__ZN15CTextureManager13RemoveTextureEP16ITextureInternal
__ZN15CTextureManager13ShadowNoise2DEv
__ZN15CTextureManager14ReloadTexturesEv
__ZN15CTextureManager15AddTextureAliasEPKcS1_
__ZN15CTextureManager15FindFilesToLoadEP8CUtlDictIiiEPKc
__ZN15CTextureManager15IsTextureLoadedEPKc
__ZN15CTextureManager15ReadFilesToLoadEP8CUtlDictIiiEPKc
__ZN15CTextureManager15ReleaseTexturesEv
__ZN15CTextureManager15UpdatePostAsyncEv
__ZN15CTextureManager16CoolTextureCacheEv
__ZN15CTextureManager16EvictAllTexturesEv
__ZN15CTextureManager16WarmTextureCacheEv
__ZN15CTextureManager17CompleteAsyncLoadEP14AsyncLoadJob_t
__ZN15CTextureManager17CompleteAsyncReadEP14AsyncReadJob_t
__ZN15CTextureManager17FindOrLoadTextureEPKcS1_i
__ZN15CTextureManager17IdentityLightWarpEv
__ZN15CTextureManager17ReloadFilesInListEP9IFileList
__ZN15CTextureManager17RequestAllMipmapsEP16ITextureInternal
__ZN15CTextureManager18RemoveTextureAliasEPKc
__ZN15CTextureManager19SetExcludedTexturesEPKc
__ZN15CTextureManager20GenerateErrorTextureEP8ITextureP11IVTFTexture
__ZN15CTextureManager20NormalizationCubemapEv
__ZN15CTextureManager20RemoveUnusedTexturesEv
__ZN15CTextureManager20RequestNextTextureIDEv
__ZN15CTextureManager20RestoreRenderTargetsEv
__ZN15CTextureManager21FullFrameDepthTextureEv
__ZN15CTextureManager22AcquireReadbackTextureEii11ImageFormat
__ZN15CTextureManager22AsyncFindOrLoadTextureEPKcS1_P30IAsyncTextureOperationReceiverPvbi
__ZN15CTextureManager22ColorCorrectionTextureEi
__ZN15CTextureManager22DebugPrintUsedTexturesEv
__ZN15CTextureManager22ReleaseAsyncScratchVTFEP11IVTFTexture
__ZN15CTextureManager22ResumeTextureStreamingEv
__ZN15CTextureManager22UpdateExcludedTexturesEv
__ZN15CTextureManager23CreateProceduralTextureEPKcS1_iii11ImageFormatiP19ITextureRegenerator
__ZN15CTextureManager23SuspendTextureStreamingEv
__ZN15CTextureManager25CreateRenderTargetTextureEPKcii22RenderTargetSizeMode_t11ImageFormat18RenderTargetType_tjj
__ZN15CTextureManager25FreeStandardRenderTargetsEv
__ZN15CTextureManager25SetColorCorrectionTextureEiP16ITextureInternal
__ZN15CTextureManager26ResetTextureFilteringStateEv
__ZN15CTextureManager26SignedNormalizationCubemapEv
__ZN15CTextureManager27ReleaseTempRenderTargetBitsEv
__ZN15CTextureManager28AddTextureCompositorTemplateEPKcP9KeyValues
__ZN15CTextureManager28ForceAllTexturesIntoHardwareEv
__ZN15CTextureManager29AllocateStandardRenderTargetsEv
__ZN15CTextureManager29FindTextureCompositorTemplateEPKc
__ZN15CTextureManager30RestoreNonRenderTargetTexturesEv
__ZN15CTextureManager32VerifyTextureCompositorTemplatesEv
__ZN15CTextureManager33MarkUnreferencedTextureForCleanupEP16ITextureInternal
__ZN15CTextureManager34AsyncCreateTextureFromRenderTargetEP8ITexturePKc11ImageFormatbiP30IAsyncTextureOperationReceiverPv
__ZN15CTextureManager34CacheExternalStandardRenderTargetsEv
__ZN15CTextureManager35CleanupPossiblyUnreferencedTexturesEv
__ZN15CTextureManager4InitEi
__ZN15CTextureManager6UpdateEv
__ZN15CTextureManager8FindNextEiPP16ITextureInternal
__ZN15CTextureManager8ShutdownEv
__ZN15CTextureManager9AsyncLoadERK14AsyncLoadJob_t
__ZN15CTextureManagerC2Ev
__ZN15CTextureManagerD1Ev
__ZN15CTextureManagerD2Ev
__ZN15CUtlSymbolTable9AddStringEPKc
__ZN15CUtlSymbolTableC1Eiib
__ZN15CUtlSymbolTableC2Eiib
__ZN15CUtlSymbolTableD1Ev
__ZN15CUtlSymbolTableD2Ev
__ZN15VTFFileHeader_t9m_DataMapE
__ZN16CDefaultAccessor22RegisterConCommandBaseEP14ConCommandBase
__ZN16CMaterialSubRect10IsTwoSidedEv
__ZN16CMaterialSubRect11FindVarFastEPKcPj
__ZN16CMaterialSubRect11IsVertexLitEv
__ZN16CMaterialSubRect11s_AllocatorE
__ZN16CMaterialSubRect12GetNumPassesEv
__ZN16CMaterialSubRect12IsSpriteCardEv
__ZN16CMaterialSubRect12PrecacheVarsEP9KeyValuesS1_P10CUtlVectorIPv10CUtlMemoryIS3_iEEi
__ZN16CMaterialSubRect13AlphaModulateEf
__ZN16CMaterialSubRect13CallBindProxyEPv
__ZN16CMaterialSubRect13ColorModulateEfff
__ZN16CMaterialSubRect13IsAlphaTestedEv
__ZN16CMaterialSubRect13IsTranslucentEv
__ZN16CMaterialSubRect14AddMaterialVarEP12IMaterialVar
__ZN16CMaterialSubRect14GetRenderStateEv
__ZN16CMaterialSubRect14InMaterialPageEv
__ZN16CMaterialSubRect14ReloadTexturesEv
__ZN16CMaterialSubRect14UsesEnvCubemapEv
__ZN16CMaterialSubRect15GetMappingWidthEv
__ZN16CMaterialSubRect15GetMaterialPageEv
__ZN16CMaterialSubRect15GetPropertyFlagE23MaterialPropertyTypes_t
__ZN16CMaterialSubRect15GetReflectivityER6Vector
__ZN16CMaterialSubRect15GetShaderParamsEv
__ZN16CMaterialSubRect15MarkAsPreloadedEb
__ZN16CMaterialSubRect16ArtificialAddRefEv
__ZN16CMaterialSubRect16GetMappingHeightEv
__ZN16CMaterialSubRect16GetMaterialScaleEPf
__ZN16CMaterialSubRect16ReportVarChangedEP12IMaterialVar
__ZN16CMaterialSubRect16SetEnumerationIDEi
__ZN16CMaterialSubRect16ToggleDebugTraceEv
__ZN16CMaterialSubRect17ArtificialReleaseEv
__ZN16CMaterialSubRect17GetMaterialOffsetEPf
__ZN16CMaterialSubRect17NeedsTangentSpaceEv
__ZN16CMaterialSubRect17ParseMaterialVarsER9KeyValues
__ZN16CMaterialSubRect17ToggleSuppressionEv
__ZN16CMaterialSubRect18GetAlphaModulationEv
__ZN16CMaterialSubRect18GetColorModulationEPfS0_S0_
__ZN16CMaterialSubRect18GetRealTimeVersionEv
__ZN16CMaterialSubRect18SetMaterialVarFlagE18MaterialVarFlags_tb
__ZN16CMaterialSubRect18SetShaderAndParamsEP9KeyValues
__ZN16CMaterialSubRect20DeleteIfUnreferencedEv
__ZN16CMaterialSubRect20SetMaxLightmapPageIDEi
__ZN16CMaterialSubRect20SetMinLightmapPageIDEi
__ZN16CMaterialSubRect21CheckProxyReplacementEPv
__ZN16CMaterialSubRect21GetNumAnimationFramesEv
__ZN16CMaterialSubRect21GetTextureMemoryBytesEv
__ZN16CMaterialSubRect21NeedsSoftwareLightingEv
__ZN16CMaterialSubRect21NeedsSoftwareSkinningEv
__ZN16CMaterialSubRect21SetNeedsWhiteLightmapEb
__ZN16CMaterialSubRect23DecrementReferenceCountEv
__ZN16CMaterialSubRect23GetQueueFriendlyVersionEv
__ZN16CMaterialSubRect23IncrementReferenceCountEv
__ZN16CMaterialSubRect23NeedsLightmapBlendAlphaEv
__ZN16CMaterialSubRect23RecomputeStateSnapshotsEv
__ZN16CMaterialSubRect24WasReloadedFromWhitelistEv
__ZN16CMaterialSubRect25FindRepresentativeTextureEv
__ZN16CMaterialSubRect25PrecacheMappingDimensionsEv
__ZN16CMaterialSubRect27NeedsFullFrameBufferTextureEb
__ZN16CMaterialSubRect27ReloadFromWhitelistIfMarkedEv
__ZN16CMaterialSubRect29RefreshPreservingMaterialVarsEv
__ZN16CMaterialSubRect31DecideShouldReloadFromWhitelistEP9IFileList
__ZN16CMaterialSubRect32SetUseFixedFunctionBakedLightingEb
__ZN16CMaterialSubRect33NeedsPowerOfTwoFrameBufferTextureEb
__ZN16CMaterialSubRect7FindVarEPKcPbb
__ZN16CMaterialSubRect7RefreshEv
__ZN16CMaterialSubRect7UncacheEb
__ZN16CMaterialSubRect8DrawMeshE23VertexCompressionType_t
__ZN16CMaterialSubRect8PrecacheEv
__ZN16CMaterialSubRect9SetShaderEPKc
__ZN16CMaterialSubRectC2EPKcS1_P9KeyValuesS3_b
__ZN16CMaterialSubRectD0Ev
__ZN16CMaterialSubRectD1Ev
__ZN16CMaterialSubRectD2Ev
__ZN16CMemberFunctor14IP21CMatRenderContextBaseM17IMatRenderContextFvP9IMaterialiiiiffffiiPviiES4_iiiiffffiiS5_ii12CRefCounted1I8CFunctor24CRefCountServiceDestructI6CRefSTEE18CFuncMemPolicyNoneED0Ev
__ZN16CMemberFunctor14IP21CMatRenderContextBaseM17IMatRenderContextFvP9IMaterialiiiiffffiiPviiES4_iiiiffffiiS5_ii12CRefCounted1I8CFunctor24CRefCountServiceDestructI6CRefSTEE18CFuncMemPolicyNoneED1Ev
__ZN16CMemberFunctor14IP21CMatRenderContextBaseM17IMatRenderContextFvP9IMaterialiiiiffffiiPviiES4_iiiiffffiiS5_ii12CRefCounted1I8CFunctor24CRefCountServiceDestructI6CRefSTEE18CFuncMemPolicyNoneEclEv
__ZN16CThreadLocalBase3SetEPv
__ZN16CThreadLocalBaseC2Ev
__ZN16CThreadLocalBaseD2Ev
__ZN16CVertexMorphDict8AddMorphERK17MorphVertexInfo_t
__ZN16ITextureInternal17CreateFileTextureEPKcS1_
__ZN16ITextureInternal18ChangeRenderTargetEPS_ii22RenderTargetSizeMode_t11ImageFormat18RenderTargetType_tjj
__ZN16ITextureInternal18CreateRenderTargetEPKcii22RenderTargetSizeMode_t11ImageFormat18RenderTargetType_tjj
__ZN16ITextureInternal23CreateProceduralTextureEPKcS1_iii11ImageFormatiP19ITextureRegenerator
__ZN16ITextureInternal32CreateReferenceTextureFromHandleEPKcS1_i
__ZN16ITextureInternal7DestroyEPS_b
__ZN17CAsyncCopyRequest18OnAsyncMapCompleteEP8ITexturePvS2_i
__ZN17CAsyncCopyRequest19OnAsyncFindCompleteEP8ITexturePv
__ZN17CAsyncCopyRequest20OnAsyncReadbackBeginEP8ITextureS1_Pv
__ZN17CAsyncCopyRequest21OnAsyncCreateCompleteEP8ITexturePv
__ZN17CAsyncCopyRequest6AddRefEv
__ZN17CAsyncCopyRequest7ReleaseEv
__ZN17CAsyncCopyRequestD0Ev
__ZN17CAsyncCopyRequestD1Ev
__ZN17CDummyMaterialVar11SetIntValueEi
__ZN17CDummyMaterialVar11SetVecValueEPKfi
__ZN17CDummyMaterialVar11SetVecValueEff
__ZN17CDummyMaterialVar11SetVecValueEfff
__ZN17CDummyMaterialVar11SetVecValueEffff
__ZN17CDummyMaterialVar12SetUndefinedEv
__ZN17CDummyMaterialVar13SetFloatValueEf
__ZN17CDummyMaterialVar14GetFourCCValueEPmPPv
__ZN17CDummyMaterialVar14GetMatrixValueEv
__ZN17CDummyMaterialVar14SetFourCCValueEmPv
__ZN17CDummyMaterialVar14SetMatrixValueERK7VMatrix
__ZN17CDummyMaterialVar14SetStringValueEPKc
__ZN17CDummyMaterialVar15GetTextureValueEv
__ZN17CDummyMaterialVar15SetTextureValueEP8ITexture
__ZN17CDummyMaterialVar16GetMaterialValueEv
__ZN17CDummyMaterialVar16SetMaterialValueEP9IMaterial
__ZN17CDummyMaterialVar17GetOwningMaterialEv
__ZN17CDummyMaterialVar20SetVecComponentValueEfi
__ZN17CDummyMaterialVar22SetValueAutodetectTypeEPKc
__ZN17CDummyMaterialVar8CopyFromEP12IMaterialVar
__ZN17CDummyMaterialVarcvP8ITextureEv
__ZN17CMatRenderContext10AsyncUnmapEP16ITextureInternal
__ZN17CMatRenderContext10BeginBatchEP5IMesh
__ZN17CMatRenderContext10BeginFrameEv
__ZN17CMatRenderContext10DepthRangeEff
__ZN17CMatRenderContext10FogColor3fEfff
__ZN17CMatRenderContext10GetFogModeEv
__ZN17CMatRenderContext10LoadLookupEjPKc
__ZN17CMatRenderContext10LoadMatrixERK11matrix3x4_t
__ZN17CMatRenderContext10LoadMatrixERK7VMatrix
__ZN17CMatRenderContext10LockLookupEj
__ZN17CMatRenderContext10MatrixModeE20MaterialMatrixMode_t
__ZN17CMatRenderContext10MultMatrixERK11matrix3x4_t
__ZN17CMatRenderContext10MultMatrixERK7VMatrix
__ZN17CMatRenderContext10OnDrawMeshEP5IMeshP9CPrimListi
__ZN17CMatRenderContext10OnDrawMeshEP5IMeshii
__ZN17CMatRenderContext10PickMatrixEiiii
__ZN17CMatRenderContext10PushMatrixEv
__ZN17CMatRenderContext10ReadPixelsEiiiiPh11ImageFormat
__ZN17CMatRenderContext10SyncMatrixE20MaterialMatrixMode_t
__ZN17CMatRenderContext11BeginRenderEv
__ZN17CMatRenderContext11CreateMorphEjPKc
__ZN17CMatRenderContext11EndPIXEventEv
__ZN17CMatRenderContext11FogColor3fvEPKf
__ZN17CMatRenderContext11FogColor3ubEhhh
__ZN17CMatRenderContext11GetFlexMeshEv
__ZN17CMatRenderContext11GetFogColorEPh
__ZN17CMatRenderContext11SwapBuffersEv
__ZN17CMatRenderContext12BindLightmapE9Sampler_t
__ZN17CMatRenderContext12ClearBuffersEbbb
__ZN17CMatRenderContext12DestroyMorphEP6IMorph
__ZN17CMatRenderContext12FogColor3ubvEPKh
__ZN17CMatRenderContext12LoadIdentityEv
__ZN17CMatRenderContext12PerspectiveXEdddd
__ZN17CMatRenderContext12RemoveLookupEj
__ZN17CMatRenderContext12SetPIXMarkerEmPKc
__ZN17CMatRenderContext12SetResetableEjb
__ZN17CMatRenderContext12SyncMatricesEv
__ZN17CMatRenderContext12UnlockLookupEj
__ZN17CMatRenderContext13BeginPIXEventEmPKc
__ZN17CMatRenderContext13ClearColor3ubEhhh
__ZN17CMatRenderContext13ClearColor4ubEhhhh
__ZN17CMatRenderContext13FogMaxDensityEf
__ZN17CMatRenderContext13OnSetFlexMeshEP5IMeshS1_i
__ZN17CMatRenderContext13SelectionModeEb
__ZN17CMatRenderContext14GetDynamicMeshEbP5IMeshS1_P9IMaterial
__ZN17CMatRenderContext14GetMaxToRenderEP5IMeshbPiS2_
__ZN17CMatRenderContext14LoadBoneMatrixEiRK11matrix3x4_t
__ZN17CMatRenderContext14OnSetColorMeshEP5IMeshS1_i
__ZN17CMatRenderContext14PopDeformationEv
__ZN17CMatRenderContext14SetFlexWeightsEiiPK13MorphWeight_t
__ZN17CMatRenderContext14SetScissorRectEiiiib
__ZN17CMatRenderContext15AccumulateMorphEP6IMorphiPK13MorphWeight_t
__ZN17CMatRenderContext15BindIndexBufferEP12IIndexBufferi
__ZN17CMatRenderContext15ForceSyncMatrixE20MaterialMatrixMode_t
__ZN17CMatRenderContext15GetFogDistancesEPfS0_S0_
__ZN17CMatRenderContext15GetLocalCubemapEv
__ZN17CMatRenderContext15MultMatrixLocalERK11matrix3x4_t
__ZN17CMatRenderContext15MultMatrixLocalERK7VMatrix
__ZN17CMatRenderContext15PushDeformationEPK17DeformationBase_t
__ZN17CMatRenderContext15SelectionBufferEPji
__ZN17CMatRenderContext15SetAmbientLightEfff
__ZN17CMatRenderContext15SetLookupWeightEjf
__ZN17CMatRenderContext16BindBumpLightmapE9Sampler_t
__ZN17CMatRenderContext16BindLightmapPageEi
__ZN17CMatRenderContext16BindLocalCubemapEP8ITexture
__ZN17CMatRenderContext16BindVertexBufferEiP13IVertexBufferiiiyi
__ZN17CMatRenderContext16CreateStaticMeshEyPKcP9IMaterial
__ZN17CMatRenderContext16GetDynamicMeshExEybP5IMeshS1_P9IMaterial
__ZN17CMatRenderContext16PopSelectionNameEv
__ZN17CMatRenderContext16SetStencilEnableEb
__ZN17CMatRenderContext17DestroyStaticMeshEP5IMesh
__ZN17CMatRenderContext17ForceHardwareSyncEv
__ZN17CMatRenderContext17LoadSelectionNameEi
__ZN17CMatRenderContext17PushSelectionNameEi
__ZN17CMatRenderContext17SetFlashlightModeEb
__ZN17CMatRenderContext17SetLightingOriginE6Vector
__ZN17CMatRenderContext17SetNumBoneWeightsEi
__ZN17CMatRenderContext17SetRenderTargetExEiP8ITexture
__ZN17CMatRenderContext17UserClipTransformERK7VMatrix
__ZN17CMatRenderContext18DestroyIndexBufferEP12IIndexBuffer
__ZN17CMatRenderContext18OnSetPrimitiveTypeEP5IMesh23MaterialPrimitiveType_t
__ZN17CMatRenderContext18PopCustomClipPlaneEv
__ZN17CMatRenderContext18ResetLookupWeightsEv
__ZN17CMatRenderContext18SetFlashlightStateERK17FlashlightState_tRK7VMatrix
__ZN17CMatRenderContext18SetStencilTestMaskEj
__ZN17CMatRenderContext19BindLightmapTextureEP8ITexture
__ZN17CMatRenderContext19BindStandardTextureE9Sampler_t19StandardTextureId_t
__ZN17CMatRenderContext19ClearSelectionNamesEv
__ZN17CMatRenderContext19DestroyVertexBufferEP13IVertexBuffer
__ZN17CMatRenderContext19DrawClearBufferQuadEhhhhbbb
__ZN17CMatRenderContext19DrawScreenSpaceQuadEP9IMaterial
__ZN17CMatRenderContext19GetBoundMorphFormatEv
__ZN17CMatRenderContext19OverrideDepthEnableEbb
__ZN17CMatRenderContext19PushCustomClipPlaneEPKf
__ZN17CMatRenderContext19SetAmbientLightCubeEP8Vector4D
__ZN17CMatRenderContext19SetStencilWriteMaskEj
__ZN17CMatRenderContext20EndMorphAccumulationEv
__ZN17CMatRenderContext20ForceDepthFuncEqualsEb
__ZN17CMatRenderContext20ReadPixelsAndStretchEP6Rect_tS1_Ph11ImageFormati
__ZN17CMatRenderContext20SetFlashlightStateExERK17FlashlightState_tRK7VMatrixP8ITexture
__ZN17CMatRenderContext20TextureManagerUpdateEv
__ZN17CMatRenderContext21ApplyCustomClipPlanesEv
__ZN17CMatRenderContext21CompareMaterialCombosEP9IMaterialS1_ii
__ZN17CMatRenderContext21DisableAllLocalLightsEv
__ZN17CMatRenderContext21EnableColorCorrectionEb
__ZN17CMatRenderContext21GetDynamicIndexBufferE21MaterialIndexFormat_tb
__ZN17CMatRenderContext21GetLightmapDimensionsEPiS0_
__ZN17CMatRenderContext21GetMaxIndicesToRenderEv
__ZN17CMatRenderContext21PerspectiveOffCenterXEdddddddd
__ZN17CMatRenderContext22BeginMorphAccumulationEv
__ZN17CMatRenderContext22GetDynamicVertexBufferEiyb
__ZN17CMatRenderContext22GetMaxVerticesToRenderEP9IMaterial
__ZN17CMatRenderContext22OnReleaseShaderObjectsEv
__ZN17CMatRenderContext23ClearBuffersObeyStencilEbb
__ZN17CMatRenderContext23CreateStaticIndexBufferE21MaterialIndexFormat_tiPKc
__ZN17CMatRenderContext23SetStencilFailOperationE18StencilOperation_t
__ZN17CMatRenderContext23SetStencilPassOperationE18StencilOperation_t
__ZN17CMatRenderContext24CreateStaticVertexBufferEyiPKc
__ZN17CMatRenderContext24DrawScreenSpaceRectangleEP9IMaterialiiiiffffiiPvii
__ZN17CMatRenderContext24EnableNonInteractiveModeE28MaterialNonInteractiveMode_t
__ZN17CMatRenderContext24EndOcclusionQueryDrawingEP30OcclusionQueryObjectHandle_t__
__ZN17CMatRenderContext24OnRenderDataUnreferencedEv
__ZN17CMatRenderContext24OverrideAlphaWriteEnableEbb
__ZN17CMatRenderContext24OverrideColorWriteEnableEbb
__ZN17CMatRenderContext24SetIntRenderingParameterEii
__ZN17CMatRenderContext24SetStencilReferenceValueEi
__ZN17CMatRenderContext24SetStencilZFailOperationE18StencilOperation_t
__ZN17CMatRenderContext25BindStandardVertexTextureE22VertexTextureSampler_t19StandardTextureId_t
__ZN17CMatRenderContext25ClearBuffersObeyStencilExEbbb
__ZN17CMatRenderContext25CopyRenderTargetToTextureEP8ITexture
__ZN17CMatRenderContext25DoStartupShaderPreloadingEv
__ZN17CMatRenderContext25OnFlushBufferedPrimitivesEv
__ZN17CMatRenderContext25ResetOcclusionQueryObjectEP30OcclusionQueryObjectHandle_t__
__ZN17CMatRenderContext25SetFrameBufferCopyTextureEP8ITexturei
__ZN17CMatRenderContext25SetShadowDepthBiasFactorsEff
__ZN17CMatRenderContext25SetStencilCompareFunctionE27StencilComparisonFunction_t
__ZN17CMatRenderContext25SetToneMappingScaleLinearERK6Vector
__ZN17CMatRenderContext26BeginOcclusionQueryDrawingEP30OcclusionQueryObjectHandle_t__
__ZN17CMatRenderContext26CreateOcclusionQueryObjectEv
__ZN17CMatRenderContext26SetFloatRenderingParameterEif
__ZN17CMatRenderContext27ClearStencilBufferRectangleEiiiii
__ZN17CMatRenderContext27CopyRenderTargetToTextureExEP8ITextureiP6Rect_tS3_
__ZN17CMatRenderContext27CopyTextureToRenderTargetExEiP8ITextureP6Rect_tS3_
__ZN17CMatRenderContext27DestroyOcclusionQueryObjectEP30OcclusionQueryObjectHandle_t__
__ZN17CMatRenderContext27GetMorphAccumulatorTexCoordEP8Vector2DP6IMorphi
__ZN17CMatRenderContext27SetVectorRenderingParameterEiRK6Vector
__ZN17CMatRenderContext28GetStandardTextureDimensionsEPiS0_19StandardTextureId_t
__ZN17CMatRenderContext29CommitRenderTargetAndViewportEv
__ZN17CMatRenderContext29UpdateHeightClipUserClipPlaneEv
__ZN17CMatRenderContext31EnableUserClipTransformOverrideEb
__ZN17CMatRenderContext32RefreshFrontBufferNonInteractiveEv
__ZN17CMatRenderContext32SetNonInteractivePacifierTextureEP8ITexturefff
__ZN17CMatRenderContext33PerformFullScreenStencilOperationEv
__ZN17CMatRenderContext34AsyncCreateTextureFromRenderTargetEP8ITexturePKc11ImageFormatbiP30IAsyncTextureOperationReceiverPv
__ZN17CMatRenderContext35OcclusionQuery_GetNumPixelsRenderedEP30OcclusionQueryObjectHandle_t__
__ZN17CMatRenderContext37AsyncCopyRenderTargetToStagingTextureEP8ITextureS1_P30IAsyncTextureOperationReceiverPv
__ZN17CMatRenderContext37SetFullScreenDepthTextureValidityFlagEb
__ZN17CMatRenderContext37SetNonInteractiveTempFullscreenBufferEP8ITexture28MaterialNonInteractiveMode_t
__ZN17CMatRenderContext4BindEP9IMaterialPv
__ZN17CMatRenderContext4DrawE23MaterialPrimitiveType_tii
__ZN17CMatRenderContext4InitEP15CMaterialSystem
__ZN17CMatRenderContext4KnobEPcPf
__ZN17CMatRenderContext5FlushEb
__ZN17CMatRenderContext5OrthoEdddddd
__ZN17CMatRenderContext5ScaleEfff
__ZN17CMatRenderContext6FogEndEf
__ZN17CMatRenderContext6PrintfEPKcz
__ZN17CMatRenderContext6RotateEffff
__ZN17CMatRenderContext7FogModeE17MaterialFogMode_t
__ZN17CMatRenderContext7SetFogZEf
__ZN17CMatRenderContext8AsyncMapEP16ITextureInternalP30IAsyncTextureOperationReceiverPv
__ZN17CMatRenderContext8CullModeE18MaterialCullMode_t
__ZN17CMatRenderContext8EndBatchEv
__ZN17CMatRenderContext8EndFrameEv
__ZN17CMatRenderContext8FogStartEf
__ZN17CMatRenderContext8PrintfVAEPcS0_
__ZN17CMatRenderContext8SetLightEiRK11LightDesc_t
__ZN17CMatRenderContext8ShutdownEv
__ZN17CMatRenderContext8ViewportEiiii
__ZN17CMatRenderContext9AddLookupEPKc
__ZN17CMatRenderContext9BindBatchEP5IMeshP9IMaterial
__ZN17CMatRenderContext9BindMorphEP6IMorph
__ZN17CMatRenderContext9DrawBatchEii
__ZN17CMatRenderContext9EndRenderEv
__ZN17CMatRenderContext9GetMatrixE20MaterialMatrixMode_tP11matrix3x4_t
__ZN17CMatRenderContext9GetMatrixE20MaterialMatrixMode_tP7VMatrix
__ZN17CMatRenderContext9PopMatrixEv
__ZN17CMatRenderContext9SyncTokenEPKc
__ZN17CMatRenderContext9TranslateEfff
__ZN17CMatRenderContextC1Ev
__ZN17CMatRenderContextC2Ev
__ZN17CMatRenderContextD0Ev
__ZN17CMatRenderContextD1Ev
__ZN17CReplacementProxy11GetMaterialEv
__ZN17CReplacementProxy4InitEP9IMaterialP9KeyValues
__ZN17CReplacementProxy6OnBindEPv
__ZN17CReplacementProxy7ReleaseEv
__ZN17CReplacementProxyD0Ev
__ZN17CReplacementProxyD1Ev
__ZN17CTextureReference4InitEP8ITexture
__ZN17CTextureReferenceC1Ev
__ZN17CTextureReferenceD1Ev
__ZN17CThreadSyncObjectD2Ev
__ZN17CUtlSymbolTableMTD1Ev
__ZN17IMatRenderContext7Unused3Ev
__ZN17IMatRenderContext7Unused4Ev
__ZN17IMatRenderContext7Unused5Ev
__ZN17IMatRenderContext7Unused6Ev
__ZN17IMatRenderContext7Unused7Ev
__ZN17IMatRenderContext7Unused8Ev
__ZN17IMaterialInternal14CreateMaterialEPKcS1_P9KeyValues
__ZN17IMaterialInternal15DestroyMaterialEPS_
__ZN17IMaterialInternal16ClearContextDataEv
__ZN17IMaterialInternal21CreateMaterialSubRectEPKcS1_P9KeyValuesS3_b
__ZN17IMaterialInternal22DestroyMaterialSubRectEPS_
__ZN18CCopyableUtlVectorI14AsyncLoadJob_tED0Ev
__ZN18CCopyableUtlVectorI14AsyncLoadJob_tED1Ev
__ZN18CCopyableUtlVectorI9Sticker_tED0Ev
__ZN18CCopyableUtlVectorI9Sticker_tED1Ev
__ZN18CCopyableUtlVectorIiED0Ev
__ZN18CCopyableUtlVectorIiED1Ev
__ZN18CMaterialReference4InitEPKcP9KeyValues
__ZN18CMaterialReference8ShutdownEv
__ZN18CMaterialReferenceC1EPKcS1_b
__ZN18CMaterialReferenceD1Ev
__ZN18COcclusionQueryMgr12AdvanceFrameEv
__ZN18COcclusionQueryMgr24EndOcclusionQueryDrawingEP30OcclusionQueryObjectHandle_t__
__ZN18COcclusionQueryMgr25FreeOcclusionQueryObjectsEv
__ZN18COcclusionQueryMgr25ResetOcclusionQueryObjectEP30OcclusionQueryObjectHandle_t__
__ZN18COcclusionQueryMgr26AllocOcclusionQueryObjectsEv
__ZN18COcclusionQueryMgr26BeginOcclusionQueryDrawingEP30OcclusionQueryObjectHandle_t__
__ZN18COcclusionQueryMgr26CreateOcclusionQueryObjectEv
__ZN18COcclusionQueryMgr27DestroyOcclusionQueryObjectEP30OcclusionQueryObjectHandle_t__
__ZN18COcclusionQueryMgr28OnCreateOcclusionQueryObjectEP30OcclusionQueryObjectHandle_t__
__ZN18COcclusionQueryMgr35OcclusionQuery_GetNumPixelsRenderedEP30OcclusionQueryObjectHandle_t__b
__ZN18COcclusionQueryMgr42OcclusionQuery_IssueNumPixelsRenderedQueryEP30OcclusionQueryObjectHandle_t__
__ZN18COcclusionQueryMgrD1Ev
__ZN18CTextureCompositor12SetRootStageEP8CTCStage
__ZN18CTextureCompositor15ScheduleResolveEv
__ZN18CTextureCompositor29ReleaseCompositorRenderTargetEP8ITexture
__ZN18CTextureCompositor30AllocateCompositorRenderTargetEv
__ZN18CTextureCompositor5ErrorEbPKcz
__ZN18CTextureCompositor6AddRefEv
__ZN18CTextureCompositor6UpdateEv
__ZN18CTextureCompositor7ReleaseEv
__ZN18CTextureCompositor7ResolveEv
__ZN18CTextureCompositorD0Ev
__ZN18CTextureCompositorD1Ev
__ZN18CTextureCompositorD2Ev
__ZN18CUtlCharConversion14FindConversionEPKcPi
__ZN18TextureLodOverride13s_OverrideMapE
__ZN18TextureLodOverride3AddEPKcNS_12OverrideInfoE
__ZN19CUtlNoEscConversion14FindConversionEPKcPi
__ZN19VTFFileBaseHeader_t9m_DataMapE
__ZN19VTFFileHeaderV7_1_t9m_DataMapE
__ZN19VTFFileHeaderV7_2_t9m_DataMapE
__ZN19VTFFileHeaderV7_3_t9m_DataMapE
__ZN19VTFFileHeaderX360_t9m_DataMapE
__ZN20CCheckerboardTexture21RegenerateTextureBitsEP8ITextureP11IVTFTextureP6Rect_t
__ZN20CCheckerboardTexture7ReleaseEv
__ZN20CCheckerboardTextureD0Ev
__ZN20CCheckerboardTextureD1Ev
__ZN20CDummyHardwareConfig13SetHDREnabledEb
__ZN20CDummyHardwareConfig27OverrideStreamOffsetSupportEbb
__ZN20CDummyMaterialSystem10BeginBatchEP5IMesh
__ZN20CDummyMaterialSystem10BeginFrameEf
__ZN20CDummyMaterialSystem10DepthRangeEff
__ZN20CDummyMaterialSystem10DisconnectEv
__ZN20CDummyMaterialSystem10FogColor3fEfff
__ZN20CDummyMaterialSystem10GetFogModeEv
__ZN20CDummyMaterialSystem10IsDX10CardEv
__ZN20CDummyMaterialSystem10LoadLookupEjPKc
__ZN20CDummyMaterialSystem10LoadMatrixERK11matrix3x4_t
__ZN20CDummyMaterialSystem10LoadMatrixERK7VMatrix
__ZN20CDummyMaterialSystem10LockLookupEj
__ZN20CDummyMaterialSystem10MatrixModeE20MaterialMatrixMode_t
__ZN20CDummyMaterialSystem10MultMatrixERK11matrix3x4_t
__ZN20CDummyMaterialSystem10MultMatrixERK7VMatrix
__ZN20CDummyMaterialSystem10PickMatrixEiiii
__ZN20CDummyMaterialSystem10PushMatrixEv
__ZN20CDummyMaterialSystem10ReadPixelsEiiiiPh11ImageFormat
__ZN20CDummyMaterialSystem10RemoveViewEPv
__ZN20CDummyMaterialSystem10SetAdapterEii
__ZN20CDummyMaterialSystem11BeginRenderEv
__ZN20CDummyMaterialSystem11CreateMorphEjPKc
__ZN20CDummyMaterialSystem11EndPIXEventEv
__ZN20CDummyMaterialSystem11FindTextureEPKcS1_bi
__ZN20CDummyMaterialSystem11FogColor3fvEPKf
__ZN20CDummyMaterialSystem11FogColor3ubEhhh
__ZN20CDummyMaterialSystem11GetFlexMeshEv
__ZN20CDummyMaterialSystem11GetFogColorEPh
__ZN20CDummyMaterialSystem11GetSortInfoEP25MaterialSystem_SortInfo_t
__ZN20CDummyMaterialSystem11ModShutdownEv
__ZN20CDummyMaterialSystem11SwapBuffersEv
__ZN20CDummyMaterialSystem12ClearBuffersEbbb
__ZN20CDummyMaterialSystem12DestroyMorphEP6IMorph
__ZN20CDummyMaterialSystem12FindMaterialEPKcS1_bS1_
__ZN20CDummyMaterialSystem12FogColor3ubvEPKh
__ZN20CDummyMaterialSystem12GetCallQueueEv
__ZN20CDummyMaterialSystem12LoadIdentityEv
__ZN20CDummyMaterialSystem12PerspectiveXEdddd
__ZN20CDummyMaterialSystem12RemoveLookupEj
__ZN20CDummyMaterialSystem12SetPIXMarkerEmPKc
__ZN20CDummyMaterialSystem12SetResetableEjb
__ZN20CDummyMaterialSystem12SetShaderAPIEPKc
__ZN20CDummyMaterialSystem12UnlockLookupEj
__ZN20CDummyMaterialSystem12UpdateConfigEb
__ZN20CDummyMaterialSystem13BeginPIXEventEmPKc
__ZN20CDummyMaterialSystem13ClearColor3ubEhhh
__ZN20CDummyMaterialSystem13ClearColor4ubEhhhh
__ZN20CDummyMaterialSystem13CompactMemoryEv
__ZN20CDummyMaterialSystem13ExecuteQueuedEv
__ZN20CDummyMaterialSystem13FogMaxDensityEf
__ZN20CDummyMaterialSystem13GetNumSortIDsEv
__ZN20CDummyMaterialSystem13GetThreadModeEv
__ZN20CDummyMaterialSystem13SelectionModeEb
__ZN20CDummyMaterialSystem13SetInStubModeEb
__ZN20CDummyMaterialSystem13SetThreadModeE20MaterialThreadMode_ti
__ZN20CDummyMaterialSystem14AddReleaseFuncEPFvvE
__ZN20CDummyMaterialSystem14AddRestoreFuncEPFviE
__ZN20CDummyMaterialSystem14AllowThreadingEbi
__ZN20CDummyMaterialSystem14CreateMaterialEPKcP9KeyValues
__ZN20CDummyMaterialSystem14EnableClippingEb
__ZN20CDummyMaterialSystem14FindMaterialExEPKcS1_ibS1_
__ZN20CDummyMaterialSystem14FlushLightmapsEv
__ZN20CDummyMaterialSystem14GetDynamicMeshEbP5IMeshS1_P9IMaterial
__ZN20CDummyMaterialSystem14GetMaxToRenderEP5IMeshbPiS2_
__ZN20CDummyMaterialSystem14LoadBoneMatrixEiRK11matrix3x4_t
__ZN20CDummyMaterialSystem14LockRenderDataEi
__ZN20CDummyMaterialSystem14OverrideConfigERK23MaterialSystem_Config_tb
__ZN20CDummyMaterialSystem14PopDeformationEv
__ZN20CDummyMaterialSystem14QueryInterfaceEPKc
__ZN20CDummyMaterialSystem14ReloadTexturesEv
__ZN20CDummyMaterialSystem14SetFlexWeightsEiiPK13MorphWeight_t
__ZN20CDummyMaterialSystem14SetHeightClipZEf
__ZN20CDummyMaterialSystem14SetScissorRectEiiiib
__ZN20CDummyMaterialSystem14SupportsFetch4Ev
__ZN20CDummyMaterialSystem14UpdateLightmapEiPiS0_PfS1_S1_S1_
__ZN20CDummyMaterialSystem15AccumulateMorphEP6IMorphiPK13MorphWeight_t
__ZN20CDummyMaterialSystem15AddTextureAliasEPKcS1_
__ZN20CDummyMaterialSystem15BindIndexBufferEP12IIndexBufferi
__ZN20CDummyMaterialSystem15GetCurrentProxyEv
__ZN20CDummyMaterialSystem15GetFogDistancesEPfS0_S0_
__ZN20CDummyMaterialSystem15GetLocalCubemapEv
__ZN20CDummyMaterialSystem15GetRenderTargetEv
__ZN20CDummyMaterialSystem15MultMatrixLocalERK11matrix3x4_t
__ZN20CDummyMaterialSystem15MultMatrixLocalERK7VMatrix
__ZN20CDummyMaterialSystem15PushDeformationEPK17DeformationBase_t
__ZN20CDummyMaterialSystem15ReloadMaterialsEPKc
__ZN20CDummyMaterialSystem15SelectionBufferEPji
__ZN20CDummyMaterialSystem15SetAmbientLightEfff
__ZN20CDummyMaterialSystem15SetLookupWeightEjf
__ZN20CDummyMaterialSystem15SetRenderTargetEP8ITexture
__ZN20CDummyMaterialSystem15SupportsHDRModeE9HDRType_t
__ZN20CDummyMaterialSystem16AddRefRenderDataEv
__ZN20CDummyMaterialSystem16AllocateLightmapEiiPiP9IMaterial
__ZN20CDummyMaterialSystem16AsyncFindTextureEPKcS1_P30IAsyncTextureOperationReceiverPvbi
__ZN20CDummyMaterialSystem16BindLightmapPageEi
__ZN20CDummyMaterialSystem16BindLocalCubemapEP8ITexture
__ZN20CDummyMaterialSystem16BindVertexBufferEiP13IVertexBufferiiiyi
__ZN20CDummyMaterialSystem16CreateStaticMeshEyPKcP9IMaterial
__ZN20CDummyMaterialSystem16GetDynamicMeshExEybP5IMeshS1_P9IMaterial
__ZN20CDummyMaterialSystem16GetRenderContextEv
__ZN20CDummyMaterialSystem16HandleDeviceLostEv
__ZN20CDummyMaterialSystem16IsMaterialLoadedEPKc
__ZN20CDummyMaterialSystem16PopSelectionNameEv
__ZN20CDummyMaterialSystem16ReleaseResourcesEv
__ZN20CDummyMaterialSystem16SetRenderContextEP17IMatRenderContext
__ZN20CDummyMaterialSystem16SetStencilEnableEb
__ZN20CDummyMaterialSystem16SupportsCSAAModeEii
__ZN20CDummyMaterialSystem16SupportsMSAAModeEi
__ZN20CDummyMaterialSystem16UnlockRenderDataEPv
__ZN20CDummyMaterialSystem17DestroyStaticMeshEP5IMesh
__ZN20CDummyMaterialSystem17GetHardwareConfigEPKcPi
__ZN20CDummyMaterialSystem17GetHeightClipModeEv
__ZN20CDummyMaterialSystem17GetRenderTargetExEi
__ZN20CDummyMaterialSystem17GetShaderFallbackEPKcPci
__ZN20CDummyMaterialSystem17LoadSelectionNameEi
__ZN20CDummyMaterialSystem17PushSelectionNameEi
__ZN20CDummyMaterialSystem17ReleaseRenderDataEv
__ZN20CDummyMaterialSystem17ReloadFilesInListEP9IFileList
__ZN20CDummyMaterialSystem17RemoveReleaseFuncEPFvvE
__ZN20CDummyMaterialSystem17RemoveRestoreFuncEPFviE
__ZN20CDummyMaterialSystem17ResetTempHWMemoryEb
__ZN20CDummyMaterialSystem17SetFlashlightModeEb
__ZN20CDummyMaterialSystem17SetHeightClipModeE24MaterialHeightClipMode_t
__ZN20CDummyMaterialSystem17SetLightingOriginE6Vector
__ZN20CDummyMaterialSystem17SetNumBoneWeightsEi
__ZN20CDummyMaterialSystem17SetRenderTargetExEiP8ITexture
__ZN20CDummyMaterialSystem17StencilBufferBitsEv
__ZN20CDummyMaterialSystem17TurnOnToneMappingEv
__ZN20CDummyMaterialSystem17UserClipTransformERK7VMatrix
__ZN20CDummyMaterialSystem17UsingFastClippingEv
__ZN20CDummyMaterialSystem18CacheUsedMaterialsEv
__ZN20CDummyMaterialSystem18DestroyIndexBufferEP12IIndexBuffer
__ZN20CDummyMaterialSystem18EndUpdateLightmapsEv
__ZN20CDummyMaterialSystem18GetCurrentMaterialEv
__ZN20CDummyMaterialSystem18GetDXLevelDefaultsERjS0_
__ZN20CDummyMaterialSystem18IsRenderThreadSafeEv
__ZN20CDummyMaterialSystem18PopCustomClipPlaneEv
__ZN20CDummyMaterialSystem18ReacquireResourcesEv
__ZN20CDummyMaterialSystem18RemoveTextureAliasEPKc
__ZN20CDummyMaterialSystem18ResetLookupWeightsEv
__ZN20CDummyMaterialSystem18SetFlashlightStateERK17FlashlightState_tRK7VMatrix
__ZN20CDummyMaterialSystem18SetStencilTestMaskEj
__ZN20CDummyMaterialSystem19BindLightmapTextureEP8ITexture
__ZN20CDummyMaterialSystem19ClearSelectionNamesEv
__ZN20CDummyMaterialSystem19CreateRenderContextE21MaterialContextType_t
__ZN20CDummyMaterialSystem19DestroyVertexBufferEP13IVertexBuffer
__ZN20CDummyMaterialSystem19DrawScreenSpaceQuadEP9IMaterial
__ZN20CDummyMaterialSystem19OverrideDepthEnableEbb
__ZN20CDummyMaterialSystem19PushCustomClipPlaneEPKf
__ZN20CDummyMaterialSystem19PushHeightClipPlaneEv
__ZN20CDummyMaterialSystem19SetAmbientLightCubeEP8Vector4D
__ZN20CDummyMaterialSystem19SetExcludedTexturesEPKc
__ZN20CDummyMaterialSystem19SetStencilWriteMaskEj
__ZN20CDummyMaterialSystem19SupportsBorderColorEv
__ZN20CDummyMaterialSystem19ToggleDebugMaterialEPKc
__ZN20CDummyMaterialSystem19UncacheAllMaterialsEv
__ZN20CDummyMaterialSystem20AppUsesRenderTargetsEv
__ZN20CDummyMaterialSystem20BeginUpdateLightmapsEv
__ZN20CDummyMaterialSystem20EndMorphAccumulationEv
__ZN20CDummyMaterialSystem20GetNullTextureFormatEv
__ZN20CDummyMaterialSystem20NewTextureCompositorEiiPKciyP9KeyValuesj
__ZN20CDummyMaterialSystem20ReadPixelsAndStretchEP6Rect_tS1_Ph11ImageFormati
__ZN20CDummyMaterialSystem20SetFlashlightStateExERK17FlashlightState_tRK7VMatrixP8ITexture
__ZN20CDummyMaterialSystem21AddModeChangeCallBackEPFvvE
__ZN20CDummyMaterialSystem21AllocateWhiteLightmapEP9IMaterial
__ZN20CDummyMaterialSystem21CompareMaterialCombosEP9IMaterialS1_ii
__ZN20CDummyMaterialSystem21CreateTextureFromBitsEiii11ImageFormatiPh
__ZN20CDummyMaterialSystem21DisableAllLocalLightsEv
__ZN20CDummyMaterialSystem21EnableColorCorrectionEb
__ZN20CDummyMaterialSystem21EnableEditorMaterialsEv
__ZN20CDummyMaterialSystem21EndLightmapAllocationEv
__ZN20CDummyMaterialSystem21EvictManagedResourcesEv
__ZN20CDummyMaterialSystem21GetDynamicIndexBufferE21MaterialIndexFormat_tb
__ZN20CDummyMaterialSystem21GetDynamicIndexBufferEb
__ZN20CDummyMaterialSystem21GetMaxIndicesToRenderEv
__ZN20CDummyMaterialSystem21PerspectiveOffCenterXEdddddddd
__ZN20CDummyMaterialSystem21ResetToneMappingScaleEf
__ZN20CDummyMaterialSystem21SetMorphTargetFactorsEiPfi
__ZN20CDummyMaterialSystem21SetRealMaterialSystemEP15IMaterialSystem
__ZN20CDummyMaterialSystem22BeginMorphAccumulationEv
__ZN20CDummyMaterialSystem22DebugPrintUsedTexturesEv
__ZN20CDummyMaterialSystem22FindProceduralMaterialEPKcS1_P9KeyValues
__ZN20CDummyMaterialSystem22GetDynamicVertexBufferEb
__ZN20CDummyMaterialSystem22GetDynamicVertexBufferEiyb
__ZN20CDummyMaterialSystem22GetMaxVerticesToRenderEP9IMaterial
__ZN20CDummyMaterialSystem22ResumeTextureStreamingEv
__ZN20CDummyMaterialSystem22ToggleSuppressMaterialEPKc
__ZN20CDummyMaterialSystem22UncacheUnusedMaterialsEb
__ZN20CDummyMaterialSystem22UpdateExcludedTexturesEv
__ZN20CDummyMaterialSystem23AllocateDynamicLightmapEPiS0_i
__ZN20CDummyMaterialSystem23BeginLightmapAllocationEv
__ZN20CDummyMaterialSystem23ClearBuffersObeyStencilEbb
__ZN20CDummyMaterialSystem23CreateProceduralTextureEPKcS1_ii11ImageFormati
__ZN20CDummyMaterialSystem23CreateStaticIndexBufferE21MaterialIndexFormat_tiPKc
__ZN20CDummyMaterialSystem23DebugPrintUsedMaterialsEPKcb
__ZN20CDummyMaterialSystem23GetMaterialProxyFactoryEv
__ZN20CDummyMaterialSystem23SetGoalToneMappingScaleEf
__ZN20CDummyMaterialSystem23SetMaterialProxyFactoryEP21IMaterialProxyFactory
__ZN20CDummyMaterialSystem23SetStencilFailOperationE18StencilOperation_t
__ZN20CDummyMaterialSystem23SetStencilPassOperationE18StencilOperation_t
__ZN20CDummyMaterialSystem23SuspendTextureStreamingEv
__ZN20CDummyMaterialSystem24CreateStaticVertexBufferEyiPKc
__ZN20CDummyMaterialSystem24DrawScreenSpaceRectangleEP9IMaterialiiiiffffiiPvii
__ZN20CDummyMaterialSystem24EnableNonInteractiveModeE28MaterialNonInteractiveMode_t
__ZN20CDummyMaterialSystem24EndOcclusionQueryDrawingEP30OcclusionQueryObjectHandle_t__
__ZN20CDummyMaterialSystem24OverrideAlphaWriteEnableEbb
__ZN20CDummyMaterialSystem24OverrideColorWriteEnableEbb
__ZN20CDummyMaterialSystem24RemoveModeChangeCallBackEPFvvE
__ZN20CDummyMaterialSystem24SetAsyncTextureLoadCacheEPv
__ZN20CDummyMaterialSystem24SetIntRenderingParameterEii
__ZN20CDummyMaterialSystem24SetStencilReferenceValueEi
__ZN20CDummyMaterialSystem24SetStencilZFailOperationE18StencilOperation_t
__ZN20CDummyMaterialSystem25ClearBuffersObeyStencilExEbbb
__ZN20CDummyMaterialSystem25ComputePixelWidthOfSphereERK6Vectorf
__ZN20CDummyMaterialSystem25CopyRenderTargetToTextureEP8ITexture
__ZN20CDummyMaterialSystem25CreateRenderTargetTextureEii22RenderTargetSizeMode_t11ImageFormat27MaterialRenderTargetDepth_t
__ZN20CDummyMaterialSystem25DoStartupShaderPreloadingEv
__ZN20CDummyMaterialSystem25EndRenderTargetAllocationEv
__ZN20CDummyMaterialSystem25GetFrameBufferCopyTextureEi
__ZN20CDummyMaterialSystem25GetToneMappingScaleLinearEv
__ZN20CDummyMaterialSystem25ResetOcclusionQueryObjectEP30OcclusionQueryObjectHandle_t__
__ZN20CDummyMaterialSystem25SetFrameBufferCopyTextureEP8ITexturei
__ZN20CDummyMaterialSystem25SetShadowDepthBiasFactorsEff
__ZN20CDummyMaterialSystem25SetStencilCompareFunctionE27StencilComparisonFunction_t
__ZN20CDummyMaterialSystem25SetToneMappingScaleLinearERK6Vector
__ZN20CDummyMaterialSystem26BeginOcclusionQueryDrawingEP30OcclusionQueryObjectHandle_t__
__ZN20CDummyMaterialSystem26CreateOcclusionQueryObjectEv
__ZN20CDummyMaterialSystem26GetWorldSpaceCameraVectorsEP6VectorS1_S1_
__ZN20CDummyMaterialSystem26PopRenderTargetAndViewportEv
__ZN20CDummyMaterialSystem26SetFloatRenderingParameterEif
__ZN20CDummyMaterialSystem27BeginRenderTargetAllocationEv
__ZN20CDummyMaterialSystem27ClearStencilBufferRectangleEiiiii
__ZN20CDummyMaterialSystem27CopyRenderTargetToTextureExEP8ITextureiP6Rect_tS3_
__ZN20CDummyMaterialSystem27CopyTextureToRenderTargetExEiP8ITextureP6Rect_tS3_
__ZN20CDummyMaterialSystem27DestroyOcclusionQueryObjectEP30OcclusionQueryObjectHandle_t__
__ZN20CDummyMaterialSystem27GetMorphAccumulatorTexCoordEP8Vector2DP6IMorphi
__ZN20CDummyMaterialSystem27GetShadowDepthTextureFormatEv
__ZN20CDummyMaterialSystem27GetWorldSpaceCameraPositionEP6Vector
__ZN20CDummyMaterialSystem27PushRenderTargetAndViewportEP8ITexture
__ZN20CDummyMaterialSystem27PushRenderTargetAndViewportEP8ITextureS1_iiii
__ZN20CDummyMaterialSystem27PushRenderTargetAndViewportEP8ITextureiiii
__ZN20CDummyMaterialSystem27PushRenderTargetAndViewportEv
__ZN20CDummyMaterialSystem27SetVectorRenderingParameterEiRK6Vector
__ZN20CDummyMaterialSystem27SupportsShadowDepthTexturesEv
__ZN20CDummyMaterialSystem28AddTextureCompositorTemplateEPKcP9KeyValuesi
__ZN20CDummyMaterialSystem28ComputePixelDiameterOfSphereERK6Vectorf
__ZN20CDummyMaterialSystem28CreateNamedTextureFromBitsExEPKcS1_iii11ImageFormatiPhi
__ZN20CDummyMaterialSystem29ResetMaterialLightmapPageInfoEv
__ZN20CDummyMaterialSystem30CreateNamedRenderTargetTextureEPKcii22RenderTargetSizeMode_t11ImageFormat27MaterialRenderTargetDepth_tbb
__ZN20CDummyMaterialSystem30OverrideRenderTargetAllocationEb
__ZN20CDummyMaterialSystem31EnableUserClipTransformOverrideEb
__ZN20CDummyMaterialSystem31GetRecommendedConfigurationInfoEiP9KeyValues
__ZN20CDummyMaterialSystem32CreateNamedRenderTargetTextureExEPKcii22RenderTargetSizeMode_t11ImageFormat27MaterialRenderTargetDepth_tjj
__ZN20CDummyMaterialSystem32RefreshFrontBufferNonInteractiveEv
__ZN20CDummyMaterialSystem32SetNonInteractivePacifierTextureEP8ITexturefff
__ZN20CDummyMaterialSystem32VerifyTextureCompositorTemplatesEv
__ZN20CDummyMaterialSystem33CreateNamedRenderTargetTextureEx2EPKcii22RenderTargetSizeMode_t11ImageFormat27MaterialRenderTargetDepth_tjj
__ZN20CDummyMaterialSystem33PerformFullScreenStencilOperationEv
__ZN20CDummyMaterialSystem34AsyncCreateTextureFromRenderTargetEP8ITexturePKc11ImageFormatbiP30IAsyncTextureOperationReceiverPv
__ZN20CDummyMaterialSystem35OcclusionQuery_GetNumPixelsRenderedEP30OcclusionQueryObjectHandle_t__
__ZN20CDummyMaterialSystem36GetRenderTargetFrameBufferDimensionsERiS0_
__ZN20CDummyMaterialSystem37SetFullScreenDepthTextureValidityFlagEb
__ZN20CDummyMaterialSystem37SetNonInteractiveTempFullscreenBufferEP8ITexture28MaterialNonInteractiveMode_t
__ZN20CDummyMaterialSystem39SetRenderTargetFrameBufferSizeOverridesEii
__ZN20CDummyMaterialSystem4BindEP9IMaterialPv
__ZN20CDummyMaterialSystem4DrawE23MaterialPrimitiveType_tii
__ZN20CDummyMaterialSystem4InitEPKcP21IMaterialProxyFactoryPFPvS1_PiES7_
__ZN20CDummyMaterialSystem4InitEv
__ZN20CDummyMaterialSystem4KnobEPcPf
__ZN20CDummyMaterialSystem4LockEv
__ZN20CDummyMaterialSystem5FlushEb
__ZN20CDummyMaterialSystem5OrthoEdddddd
__ZN20CDummyMaterialSystem5ScaleEfff
__ZN20CDummyMaterialSystem6FogEndEf
__ZN20CDummyMaterialSystem6PrintfEPKcz
__ZN20CDummyMaterialSystem6RotateEffff
__ZN20CDummyMaterialSystem6UnlockEP16MaterialLock_t__
__ZN20CDummyMaterialSystem7AddViewEPv
__ZN20CDummyMaterialSystem7ConnectEPFPvPKcPiE
__ZN20CDummyMaterialSystem7FogModeE17MaterialFogMode_t
__ZN20CDummyMaterialSystem7ModInitEv
__ZN20CDummyMaterialSystem7SetFogZEf
__ZN20CDummyMaterialSystem7SetModeEPvRK23MaterialSystem_Config_t
__ZN20CDummyMaterialSystem7SetViewEPv
__ZN20CDummyMaterialSystem8CullModeE18MaterialCullMode_t
__ZN20CDummyMaterialSystem8EndBatchEv
__ZN20CDummyMaterialSystem8EndFrameEv
__ZN20CDummyMaterialSystem8FogStartEf
__ZN20CDummyMaterialSystem8PrintfVAEPcS0_
__ZN20CDummyMaterialSystem8SetLightEiRK11LightDesc_t
__ZN20CDummyMaterialSystem8ShutdownEv
__ZN20CDummyMaterialSystem8ViewportEiiii
__ZN20CDummyMaterialSystem9AddLookupEPKc
__ZN20CDummyMaterialSystem9BindBatchEP5IMeshP9IMaterial
__ZN20CDummyMaterialSystem9BindMorphEP6IMorph
__ZN20CDummyMaterialSystem9DrawBatchEii
__ZN20CDummyMaterialSystem9EndRenderEv
__ZN20CDummyMaterialSystem9GetMatrixE20MaterialMatrixMode_tP11matrix3x4_t
__ZN20CDummyMaterialSystem9GetMatrixE20MaterialMatrixMode_tP7VMatrix
__ZN20CDummyMaterialSystem9PopMatrixEv
__ZN20CDummyMaterialSystem9SyncTokenEPKc
__ZN20CDummyMaterialSystem9TranslateEfff
__ZN20CDummyMaterialSystemD0Ev
__ZN20CDummyMaterialSystemD1Ev
__ZN20CKeyValuesErrorStack11ReportErrorEPKc
__ZN20CRefCountServiceBaseILb1E6CRefMTE14OnFinalReleaseEv
__ZN20CTCApplyStickerStage11ResolveThisEP18CTextureCompositor
__ZN20CTCApplyStickerStage15RequestTexturesEv
__ZN20CTCApplyStickerStage19OnAsyncFindCompleteEP8ITexturePv
__ZN20CTCApplyStickerStage23ComputeRandomValuesThisEP20CUniformRandomStream
__ZN20CTCApplyStickerStageC2ERK27ApplyStickerStageParametersj
__ZN20CTCApplyStickerStageD0Ev
__ZN20CTCApplyStickerStageD1Ev
__ZN20CTCApplyStickerStageD2Ev
__ZN20CTextureStreamingJob18OnAsyncMapCompleteEP8ITexturePvS2_i
__ZN20CTextureStreamingJob19OnAsyncFindCompleteEP8ITexturePv
__ZN20CTextureStreamingJob20OnAsyncReadbackBeginEP8ITextureS1_Pv
__ZN20CTextureStreamingJob21OnAsyncCreateCompleteEP8ITexturePv
__ZN20CTextureStreamingJob6AddRefEv
__ZN20CTextureStreamingJob7ReleaseEv
__ZN20CTextureStreamingJobD0Ev
__ZN20CTextureStreamingJobD1Ev
__ZN20CUniformRandomStreamC1Ev
__ZN21CMatNullRenderContext10AsyncUnmapEP16ITextureInternal
__ZN21CMatNullRenderContext10BeginBatchEP5IMesh
__ZN21CMatNullRenderContext10BeginFrameEv
__ZN21CMatNullRenderContext10DepthRangeEff
__ZN21CMatNullRenderContext10FogColor3fEfff
__ZN21CMatNullRenderContext10GetFogModeEv
__ZN21CMatNullRenderContext10LoadLookupEjPKc
__ZN21CMatNullRenderContext10LockLookupEj
__ZN21CMatNullRenderContext10OnDrawMeshEP5IMeshP9CPrimListi
__ZN21CMatNullRenderContext10OnDrawMeshEP5IMeshii
__ZN21CMatNullRenderContext10ReadPixelsEiiiiPh11ImageFormat
__ZN21CMatNullRenderContext11BeginRenderEv
__ZN21CMatNullRenderContext11CreateMorphEjPKc
__ZN21CMatNullRenderContext11EndPIXEventEv
__ZN21CMatNullRenderContext11FogColor3fvEPKf
__ZN21CMatNullRenderContext11FogColor3ubEhhh
__ZN21CMatNullRenderContext11GetFlexMeshEv
__ZN21CMatNullRenderContext11GetFogColorEPh
__ZN21CMatNullRenderContext11SwapBuffersEv
__ZN21CMatNullRenderContext12ClearBuffersEbbb
__ZN21CMatNullRenderContext12DestroyMorphEP6IMorph
__ZN21CMatNullRenderContext12FogColor3ubvEPKh
__ZN21CMatNullRenderContext12RemoveLookupEj
__ZN21CMatNullRenderContext12SetPIXMarkerEmPKc
__ZN21CMatNullRenderContext12SetResetableEjb
__ZN21CMatNullRenderContext12UnlockLookupEj
__ZN21CMatNullRenderContext13BeginPIXEventEmPKc
__ZN21CMatNullRenderContext13ClearColor3ubEhhh
__ZN21CMatNullRenderContext13ClearColor4ubEhhhh
__ZN21CMatNullRenderContext13FogMaxDensityEf
__ZN21CMatNullRenderContext13OnSetFlexMeshEP5IMeshS1_i
__ZN21CMatNullRenderContext13SelectionModeEb
__ZN21CMatNullRenderContext14GetDynamicMeshEbP5IMeshS1_P9IMaterial
__ZN21CMatNullRenderContext14GetMaxToRenderEP5IMeshbPiS2_
__ZN21CMatNullRenderContext14InitializeFromEP21CMatRenderContextBase
__ZN21CMatNullRenderContext14LoadBoneMatrixEiRK11matrix3x4_t
__ZN21CMatNullRenderContext14OnSetColorMeshEP5IMeshS1_i
__ZN21CMatNullRenderContext14PopDeformationEv
__ZN21CMatNullRenderContext14SetFlexWeightsEiiPK13MorphWeight_t
__ZN21CMatNullRenderContext14SetScissorRectEiiiib
__ZN21CMatNullRenderContext15AccumulateMorphEP6IMorphiPK13MorphWeight_t
__ZN21CMatNullRenderContext15BindIndexBufferEP12IIndexBufferi
__ZN21CMatNullRenderContext15GetFogDistancesEPfS0_S0_
__ZN21CMatNullRenderContext15GetLocalCubemapEv
__ZN21CMatNullRenderContext15PushDeformationEPK17DeformationBase_t
__ZN21CMatNullRenderContext15SelectionBufferEPji
__ZN21CMatNullRenderContext15SetAmbientLightEfff
__ZN21CMatNullRenderContext15SetLookupWeightEjf
__ZN21CMatNullRenderContext16BindVertexBufferEiP13IVertexBufferiiiyi
__ZN21CMatNullRenderContext16CreateStaticMeshEyPKcP9IMaterial
__ZN21CMatNullRenderContext16GetDynamicMeshExEybP5IMeshS1_P9IMaterial
__ZN21CMatNullRenderContext16PopSelectionNameEv
__ZN21CMatNullRenderContext16SetStencilEnableEb
__ZN21CMatNullRenderContext17DestroyStaticMeshEP5IMesh
__ZN21CMatNullRenderContext17ForceHardwareSyncEv
__ZN21CMatNullRenderContext17LoadSelectionNameEi
__ZN21CMatNullRenderContext17PushSelectionNameEi
__ZN21CMatNullRenderContext17SetFlashlightModeEb
__ZN21CMatNullRenderContext17SetLightingOriginE6Vector
__ZN21CMatNullRenderContext17SetNumBoneWeightsEi
__ZN21CMatNullRenderContext17UserClipTransformERK7VMatrix
__ZN21CMatNullRenderContext18DestroyIndexBufferEP12IIndexBuffer
__ZN21CMatNullRenderContext18OnSetPrimitiveTypeEP5IMesh23MaterialPrimitiveType_t
__ZN21CMatNullRenderContext18PopCustomClipPlaneEv
__ZN21CMatNullRenderContext18ResetLookupWeightsEv
__ZN21CMatNullRenderContext18SetFlashlightStateERK17FlashlightState_tRK7VMatrix
__ZN21CMatNullRenderContext18SetStencilTestMaskEj
__ZN21CMatNullRenderContext19BindLightmapTextureEP8ITexture
__ZN21CMatNullRenderContext19BindStandardTextureE9Sampler_t19StandardTextureId_t
__ZN21CMatNullRenderContext19ClearSelectionNamesEv
__ZN21CMatNullRenderContext19DestroyVertexBufferEP13IVertexBuffer
__ZN21CMatNullRenderContext19DrawClearBufferQuadEhhhhbbb
__ZN21CMatNullRenderContext19DrawScreenSpaceQuadEP9IMaterial
__ZN21CMatNullRenderContext19GetBoundMorphFormatEv
__ZN21CMatNullRenderContext19OverrideDepthEnableEbb
__ZN21CMatNullRenderContext19PushCustomClipPlaneEPKf
__ZN21CMatNullRenderContext19SetAmbientLightCubeEP8Vector4D
__ZN21CMatNullRenderContext19SetStencilWriteMaskEj
__ZN21CMatNullRenderContext20EndMorphAccumulationEv
__ZN21CMatNullRenderContext20ForceDepthFuncEqualsEb
__ZN21CMatNullRenderContext20ReadPixelsAndStretchEP6Rect_tS1_Ph11ImageFormati
__ZN21CMatNullRenderContext20SetFlashlightStateExERK17FlashlightState_tRK7VMatrixP8ITexture
__ZN21CMatNullRenderContext20TextureManagerUpdateEv
__ZN21CMatNullRenderContext21CompareMaterialCombosEP9IMaterialS1_ii
__ZN21CMatNullRenderContext21DisableAllLocalLightsEv
__ZN21CMatNullRenderContext21EnableColorCorrectionEb
__ZN21CMatNullRenderContext21GetDynamicIndexBufferE21MaterialIndexFormat_tb
__ZN21CMatNullRenderContext21GetLightmapDimensionsEPiS0_
__ZN21CMatNullRenderContext21GetMaxIndicesToRenderEv
__ZN21CMatNullRenderContext22BeginMorphAccumulationEv
__ZN21CMatNullRenderContext22GetDynamicVertexBufferEiyb
__ZN21CMatNullRenderContext22GetMaxVerticesToRenderEP9IMaterial
__ZN21CMatNullRenderContext23ClearBuffersObeyStencilEbb
__ZN21CMatNullRenderContext23CreateStaticIndexBufferE21MaterialIndexFormat_tiPKc
__ZN21CMatNullRenderContext23SetStencilFailOperationE18StencilOperation_t
__ZN21CMatNullRenderContext23SetStencilPassOperationE18StencilOperation_t
__ZN21CMatNullRenderContext24CreateStaticVertexBufferEyiPKc
__ZN21CMatNullRenderContext24DrawScreenSpaceRectangleEP9IMaterialiiiiffffiiPvii
__ZN21CMatNullRenderContext24EnableNonInteractiveModeE28MaterialNonInteractiveMode_t
__ZN21CMatNullRenderContext24EndOcclusionQueryDrawingEP30OcclusionQueryObjectHandle_t__
__ZN21CMatNullRenderContext24OverrideAlphaWriteEnableEbb
__ZN21CMatNullRenderContext24OverrideColorWriteEnableEbb
__ZN21CMatNullRenderContext24SetIntRenderingParameterEii
__ZN21CMatNullRenderContext24SetStencilReferenceValueEi
__ZN21CMatNullRenderContext24SetStencilZFailOperationE18StencilOperation_t
__ZN21CMatNullRenderContext25ClearBuffersObeyStencilExEbbb
__ZN21CMatNullRenderContext25CopyRenderTargetToTextureEP8ITexture
__ZN21CMatNullRenderContext25DoStartupShaderPreloadingEv
__ZN21CMatNullRenderContext25GetFrameBufferCopyTextureEi
__ZN21CMatNullRenderContext25OnFlushBufferedPrimitivesEv
__ZN21CMatNullRenderContext25ResetOcclusionQueryObjectEP30OcclusionQueryObjectHandle_t__
__ZN21CMatNullRenderContext25SetFrameBufferCopyTextureEP8ITexturei
__ZN21CMatNullRenderContext25SetShadowDepthBiasFactorsEff
__ZN21CMatNullRenderContext25SetStencilCompareFunctionE27StencilComparisonFunction_t
__ZN21CMatNullRenderContext25SetToneMappingScaleLinearERK6Vector
__ZN21CMatNullRenderContext26BeginOcclusionQueryDrawingEP30OcclusionQueryObjectHandle_t__
__ZN21CMatNullRenderContext26CreateOcclusionQueryObjectEv
__ZN21CMatNullRenderContext26SetFloatRenderingParameterEif
__ZN21CMatNullRenderContext27ClearStencilBufferRectangleEiiiii
__ZN21CMatNullRenderContext27CopyRenderTargetToTextureExEP8ITextureiP6Rect_tS3_
__ZN21CMatNullRenderContext27CopyTextureToRenderTargetExEiP8ITextureP6Rect_tS3_
__ZN21CMatNullRenderContext27DestroyOcclusionQueryObjectEP30OcclusionQueryObjectHandle_t__
__ZN21CMatNullRenderContext27GetMorphAccumulatorTexCoordEP8Vector2DP6IMorphi
__ZN21CMatNullRenderContext27SetVectorRenderingParameterEiRK6Vector
__ZN21CMatNullRenderContext31EnableUserClipTransformOverrideEb
__ZN21CMatNullRenderContext32RefreshFrontBufferNonInteractiveEv
__ZN21CMatNullRenderContext32SetNonInteractivePacifierTextureEP8ITexturefff
__ZN21CMatNullRenderContext33PerformFullScreenStencilOperationEv
__ZN21CMatNullRenderContext34AsyncCreateTextureFromRenderTargetEP8ITexturePKc11ImageFormatbiP30IAsyncTextureOperationReceiverPv
__ZN21CMatNullRenderContext35OcclusionQuery_GetNumPixelsRenderedEP30OcclusionQueryObjectHandle_t__
__ZN21CMatNullRenderContext37AsyncCopyRenderTargetToStagingTextureEP8ITextureS1_P30IAsyncTextureOperationReceiverPv
__ZN21CMatNullRenderContext37SetFullScreenDepthTextureValidityFlagEb
__ZN21CMatNullRenderContext37SetNonInteractiveTempFullscreenBufferEP8ITexture28MaterialNonInteractiveMode_t
__ZN21CMatNullRenderContext4DrawE23MaterialPrimitiveType_tii
__ZN21CMatNullRenderContext5FlushEb
__ZN21CMatNullRenderContext6FogEndEf
__ZN21CMatNullRenderContext7FogModeE17MaterialFogMode_t
__ZN21CMatNullRenderContext7SetFogZEf
__ZN21CMatNullRenderContext8AsyncMapEP16ITextureInternalP30IAsyncTextureOperationReceiverPv
__ZN21CMatNullRenderContext8CullModeE18MaterialCullMode_t
__ZN21CMatNullRenderContext8EndBatchEv
__ZN21CMatNullRenderContext8EndFrameEv
__ZN21CMatNullRenderContext8FogStartEf
__ZN21CMatNullRenderContext8SetLightEiRK11LightDesc_t
__ZN21CMatNullRenderContext9AddLookupEPKc
__ZN21CMatNullRenderContext9BindBatchEP5IMeshP9IMaterial
__ZN21CMatNullRenderContext9BindMorphEP6IMorph
__ZN21CMatNullRenderContext9DrawBatchEii
__ZN21CMatNullRenderContext9EndRenderEv
__ZN21CMatNullRenderContext9SyncTokenEPKc
__ZN21CMatNullRenderContextD0Ev
__ZN21CMatNullRenderContextD1Ev
__ZN21CMatRenderContextBase10LoadMatrixERK11matrix3x4_t
__ZN21CMatRenderContextBase10LoadMatrixERK7VMatrix
__ZN21CMatRenderContextBase10MatrixModeE20MaterialMatrixMode_t
__ZN21CMatRenderContextBase10MultMatrixERK11matrix3x4_t
__ZN21CMatRenderContextBase10MultMatrixERK7VMatrix
__ZN21CMatRenderContextBase10OnAsyncMapEP16ITextureInternalP30IAsyncTextureOperationReceiverPv
__ZN21CMatRenderContextBase10PickMatrixEiiii
__ZN21CMatRenderContextBase10PushMatrixEv
__ZN21CMatRenderContextBase10SyncMatrixE20MaterialMatrixMode_t
__ZN21CMatRenderContextBase12GetCallQueueEv
__ZN21CMatRenderContextBase12LoadIdentityEv
__ZN21CMatRenderContextBase12OnAsyncUnmapEP16ITextureInternal
__ZN21CMatRenderContextBase12PerspectiveXEdddd
__ZN21CMatRenderContextBase12SetFrameTimeEf
__ZN21CMatRenderContextBase12SyncMatricesEv
__ZN21CMatRenderContextBase13CompactMemoryEv
__ZN21CMatRenderContextBase13sm_RenderDataE
__ZN21CMatRenderContextBase14EnableClippingEb
__ZN21CMatRenderContextBase14InitializeFromEPS_
__ZN21CMatRenderContextBase14LockRenderDataEi
__ZN21CMatRenderContextBase14SetHeightClipZEf
__ZN21CMatRenderContextBase15GetCurrentProxyEv
__ZN21CMatRenderContextBase15GetLightmapPageEv
__ZN21CMatRenderContextBase15GetRenderTargetEv
__ZN21CMatRenderContextBase15MultMatrixLocalERK11matrix3x4_t
__ZN21CMatRenderContextBase15MultMatrixLocalERK7VMatrix
__ZN21CMatRenderContextBase15SetCurrentProxyEPv
__ZN21CMatRenderContextBase15SetRenderTargetEP8ITexture
__ZN21CMatRenderContextBase15sm_nRenderStackE
__ZN21CMatRenderContextBase16AddRefRenderDataEv
__ZN21CMatRenderContextBase16BindLightmapPageEi
__ZN21CMatRenderContextBase16BindLocalCubemapEP8ITexture
__ZN21CMatRenderContextBase16UnlockRenderDataEPv
__ZN21CMatRenderContextBase17GetHeightClipModeEv
__ZN21CMatRenderContextBase17GetRenderTargetExEi
__ZN21CMatRenderContextBase17ReleaseRenderDataEv
__ZN21CMatRenderContextBase17SetHeightClipModeE24MaterialHeightClipMode_t
__ZN21CMatRenderContextBase17SetRenderTargetExEiP8ITexture
__ZN21CMatRenderContextBase17TurnOnToneMappingEv
__ZN21CMatRenderContextBase18GetCurrentMaterialEv
__ZN21CMatRenderContextBase18RecomputeViewStateEv
__ZN21CMatRenderContextBase19sm_nInitializeCountE
__ZN21CMatRenderContextBase19sm_nRenderLockCountE
__ZN21CMatRenderContextBase20GetCallQueueInternalEv
__ZN21CMatRenderContextBase20MarkRenderDataUnusedEb
__ZN21CMatRenderContextBase21ApplyCustomClipPlanesEv
__ZN21CMatRenderContextBase21PerspectiveOffCenterXEdddddddd
__ZN21CMatRenderContextBase21ResetToneMappingScaleEf
__ZN21CMatRenderContextBase23SetGoalToneMappingScaleEf
__ZN21CMatRenderContextBase24OnRenderDataUnreferencedEv
__ZN21CMatRenderContextBase25ComputePixelWidthOfSphereERK6Vectorf
__ZN21CMatRenderContextBase25GetFrameBufferCopyTextureEi
__ZN21CMatRenderContextBase25GetToneMappingScaleLinearEv
__ZN21CMatRenderContextBase25SetFrameBufferCopyTextureEP8ITexturei
__ZN21CMatRenderContextBase26GetWorldSpaceCameraVectorsEP6VectorS1_S1_
__ZN21CMatRenderContextBase26PopRenderTargetAndViewportEv
__ZN21CMatRenderContextBase26SetCurrentMaterialInternalEP17IMaterialInternal
__ZN21CMatRenderContextBase27GetWorldSpaceCameraPositionEP6Vector
__ZN21CMatRenderContextBase27PushRenderTargetAndViewportEP8ITexture
__ZN21CMatRenderContextBase27PushRenderTargetAndViewportEP8ITextureS1_iiii
__ZN21CMatRenderContextBase27PushRenderTargetAndViewportEP8ITextureiiii
__ZN21CMatRenderContextBase27PushRenderTargetAndViewportEv
__ZN21CMatRenderContextBase28ComputePixelDiameterOfSphereERK6Vectorf
__ZN21CMatRenderContextBase29CommitRenderTargetAndViewportEv
__ZN21CMatRenderContextBase29UpdateHeightClipUserClipPlaneEv
__ZN21CMatRenderContextBase36OnAsyncCreateTextureFromRenderTargetEP8ITexturePPKcP30IAsyncTextureOperationReceiver
__ZN21CMatRenderContextBase39OnAsyncCopyRenderTargetToStagingTextureEP8ITextureS1_P30IAsyncTextureOperationReceiver
__ZN21CMatRenderContextBase4BindEP9IMaterialPv
__ZN21CMatRenderContextBase4InitEv
__ZN21CMatRenderContextBase4KnobEPcPf
__ZN21CMatRenderContextBase5OrthoEdddddd
__ZN21CMatRenderContextBase5ScaleEfff
__ZN21CMatRenderContextBase6PrintfEPKcz
__ZN21CMatRenderContextBase6RotateEffff
__ZN21CMatRenderContextBase8PrintfVAEPcS0_
__ZN21CMatRenderContextBase8ShutdownEv
__ZN21CMatRenderContextBase8ViewportEiiii
__ZN21CMatRenderContextBase9GetMatrixE20MaterialMatrixMode_tP11matrix3x4_t
__ZN21CMatRenderContextBase9GetMatrixE20MaterialMatrixMode_tP7VMatrix
__ZN21CMatRenderContextBase9PopMatrixEv
__ZN21CMatRenderContextBase9TranslateEfff
__ZN21CMatRenderContextBaseC2Ev
__ZN21CMatRenderContextBaseD0Ev
__ZN21CMatRenderContextBaseD1Ev
__ZN21CNormalizationCubemap21RegenerateTextureBitsEP8ITextureP11IVTFTextureP6Rect_t
__ZN21CNormalizationCubemap7ReleaseEv
__ZN21CUtlCStringConversion14FindConversionEPKcPi
__ZN21CUtlCStringConversionC2EcPKciPN18CUtlCharConversion17ConversionArray_tE
__ZN22CCleanupUtlSymbolTableD1Ev
__ZN22CColorCorrectionSystem10CopyLookupEPK7color24
__ZN22CColorCorrectionSystem10CopyLookupEjPK7color24
__ZN22CColorCorrectionSystem10LoadLookupEPKc
__ZN22CColorCorrectionSystem10LoadLookupEjPKc
__ZN22CColorCorrectionSystem10LockLookupEj
__ZN22CColorCorrectionSystem10LockLookupEv
__ZN22CColorCorrectionSystem11ResetLookupEj
__ZN22CColorCorrectionSystem11ResetLookupEv
__ZN22CColorCorrectionSystem11SortLookupsEv
__ZN22CColorCorrectionSystem12RemoveLookupEj
__ZN22CColorCorrectionSystem12SetResetableEjb
__ZN22CColorCorrectionSystem12UnlockLookupEj
__ZN22CColorCorrectionSystem12UnlockLookupEv
__ZN22CColorCorrectionSystem13GetNumLookupsEv
__ZN22CColorCorrectionSystem15GetLookupWeightEi
__ZN22CColorCorrectionSystem15GetLookupWeightEj
__ZN22CColorCorrectionSystem15ReleaseTexturesEv
__ZN22CColorCorrectionSystem15RestoreTexturesEv
__ZN22CColorCorrectionSystem15SetLookupWeightEjf
__ZN22CColorCorrectionSystem16ConvertToColor24E10RGBX5551_t
__ZN22CColorCorrectionSystem18ResetLookupWeightsEv
__ZN22CColorCorrectionSystem21EnableColorCorrectionEb
__ZN22CColorCorrectionSystem25GetCurrentColorCorrectionEP27ShaderColorCorrectionInfo_t
__ZN22CColorCorrectionSystem4InitEv
__ZN22CColorCorrectionSystem8ShutdownEv
__ZN22CColorCorrectionSystem9AddLookupEPKc
__ZN22CColorCorrectionSystem9GetLookupE10RGBX5551_t
__ZN22CColorCorrectionSystem9GetLookupEj10RGBX5551_t
__ZN22CColorCorrectionSystem9SetLookupE10RGBX5551_t7color24
__ZN22CColorCorrectionSystem9SetLookupEj10RGBX5551_t7color24
__ZN22CColorCorrectionSystemD1Ev
__ZN23CColorCorrectionTexture21RegenerateTextureBitsEP8ITextureP11IVTFTextureP6Rect_t
__ZN23CColorCorrectionTexture7ReleaseEv
__ZN23CColorCorrectionTextureD0Ev
__ZN23CColorCorrectionTextureD1Ev
__ZN23CMatQueuedRenderContext10AsyncUnmapEP16ITextureInternal
__ZN23CMatQueuedRenderContext10BeginBatchEP5IMesh
__ZN23CMatQueuedRenderContext10BeginFrameEv
__ZN23CMatQueuedRenderContext10BeginQueueEP21CMatRenderContextBase
__ZN23CMatQueuedRenderContext10CallQueuedEb
__ZN23CMatQueuedRenderContext10DepthRangeEff
__ZN23CMatQueuedRenderContext10FogColor3fEfff
__ZN23CMatQueuedRenderContext10GetFogModeEv
__ZN23CMatQueuedRenderContext10LoadLookupEjPKc
__ZN23CMatQueuedRenderContext10LoadMatrixERK11matrix3x4_t
__ZN23CMatQueuedRenderContext10LoadMatrixERK7VMatrix
__ZN23CMatQueuedRenderContext10LockLookupEj
__ZN23CMatQueuedRenderContext10MatrixModeE20MaterialMatrixMode_t
__ZN23CMatQueuedRenderContext10MultMatrixERK11matrix3x4_t
__ZN23CMatQueuedRenderContext10MultMatrixERK7VMatrix
__ZN23CMatQueuedRenderContext10OnDrawMeshEP5IMeshP9CPrimListi
__ZN23CMatQueuedRenderContext10OnDrawMeshEP5IMeshii
__ZN23CMatQueuedRenderContext10PickMatrixEiiii
__ZN23CMatQueuedRenderContext10PushMatrixEv
__ZN23CMatQueuedRenderContext10ReadPixelsEiiiiPh11ImageFormat
__ZN23CMatQueuedRenderContext11BeginRenderEv
__ZN23CMatQueuedRenderContext11CreateMorphEjPKc
__ZN23CMatQueuedRenderContext11EndPIXEventEv
__ZN23CMatQueuedRenderContext11FogColor3fvEPKf
__ZN23CMatQueuedRenderContext11FogColor3ubEhhh
__ZN23CMatQueuedRenderContext11GetFlexMeshEv
__ZN23CMatQueuedRenderContext11GetFogColorEPh
__ZN23CMatQueuedRenderContext11SwapBuffersEv
__ZN23CMatQueuedRenderContext12ClearBuffersEbbb
__ZN23CMatQueuedRenderContext12DestroyMorphEP6IMorph
__ZN23CMatQueuedRenderContext12FogColor3ubvEPKh
__ZN23CMatQueuedRenderContext12GetCallQueueEv
__ZN23CMatQueuedRenderContext12LoadIdentityEv
__ZN23CMatQueuedRenderContext12PerspectiveXEdddd
__ZN23CMatQueuedRenderContext12RemoveLookupEj
__ZN23CMatQueuedRenderContext12SetFrameTimeEf
__ZN23CMatQueuedRenderContext12SetPIXMarkerEmPKc
__ZN23CMatQueuedRenderContext12SetResetableEjb
__ZN23CMatQueuedRenderContext12UnlockLookupEj
__ZN23CMatQueuedRenderContext13BeginPIXEventEmPKc
__ZN23CMatQueuedRenderContext13ClearColor3ubEhhh
__ZN23CMatQueuedRenderContext13ClearColor4ubEhhhh
__ZN23CMatQueuedRenderContext13CompactMemoryEv
__ZN23CMatQueuedRenderContext13FogMaxDensityEf
__ZN23CMatQueuedRenderContext13OnSetFlexMeshEP5IMeshS1_i
__ZN23CMatQueuedRenderContext13SelectionModeEb
__ZN23CMatQueuedRenderContext14EnableClippingEb
__ZN23CMatQueuedRenderContext14GetDynamicMeshEbP5IMeshS1_P9IMaterial
__ZN23CMatQueuedRenderContext14GetMaxToRenderEP5IMeshbPiS2_
__ZN23CMatQueuedRenderContext14LoadBoneMatrixEiRK11matrix3x4_t
__ZN23CMatQueuedRenderContext14OnSetColorMeshEP5IMeshS1_i
__ZN23CMatQueuedRenderContext14PopDeformationEv
__ZN23CMatQueuedRenderContext14SetFlexWeightsEiiPK13MorphWeight_t
__ZN23CMatQueuedRenderContext14SetHeightClipZEf
__ZN23CMatQueuedRenderContext14SetScissorRectEiiiib
__ZN23CMatQueuedRenderContext15AccumulateMorphEP6IMorphiPK13MorphWeight_t
__ZN23CMatQueuedRenderContext15BindIndexBufferEP12IIndexBufferi
__ZN23CMatQueuedRenderContext15GetFogDistancesEPfS0_S0_
__ZN23CMatQueuedRenderContext15GetLightmapPageEv
__ZN23CMatQueuedRenderContext15GetLocalCubemapEv
__ZN23CMatQueuedRenderContext15MultMatrixLocalERK11matrix3x4_t
__ZN23CMatQueuedRenderContext15MultMatrixLocalERK7VMatrix
__ZN23CMatQueuedRenderContext15PushDeformationEPK17DeformationBase_t
__ZN23CMatQueuedRenderContext15SelectionBufferEPji
__ZN23CMatQueuedRenderContext15SetAmbientLightEfff
__ZN23CMatQueuedRenderContext15SetCurrentProxyEPv
__ZN23CMatQueuedRenderContext15SetLookupWeightEjf
__ZN23CMatQueuedRenderContext16BindLightmapPageEi
__ZN23CMatQueuedRenderContext16BindLocalCubemapEP8ITexture
__ZN23CMatQueuedRenderContext16BindVertexBufferEiP13IVertexBufferiiiyi
__ZN23CMatQueuedRenderContext16CreateStaticMeshEyPKcP9IMaterial
__ZN23CMatQueuedRenderContext16GetDynamicMeshExEybP5IMeshS1_P9IMaterial
__ZN23CMatQueuedRenderContext16PopSelectionNameEv
__ZN23CMatQueuedRenderContext16SetStencilEnableEb
__ZN23CMatQueuedRenderContext17DestroyStaticMeshEP5IMesh
__ZN23CMatQueuedRenderContext17ForceHardwareSyncEv
__ZN23CMatQueuedRenderContext17LoadSelectionNameEi
__ZN23CMatQueuedRenderContext17PushSelectionNameEi
__ZN23CMatQueuedRenderContext17SetFlashlightModeEb
__ZN23CMatQueuedRenderContext17SetHeightClipModeE24MaterialHeightClipMode_t
__ZN23CMatQueuedRenderContext17SetLightingOriginE6Vector
__ZN23CMatQueuedRenderContext17SetNumBoneWeightsEi
__ZN23CMatQueuedRenderContext17SetRenderTargetExEiP8ITexture
__ZN23CMatQueuedRenderContext17UserClipTransformERK7VMatrix
__ZN23CMatQueuedRenderContext18CCallQueueExternal20QueueFunctorInternalEP8CFunctor
__ZN23CMatQueuedRenderContext18DeferredBeginBatchEPti
__ZN23CMatQueuedRenderContext18DestroyIndexBufferEP12IIndexBuffer
__ZN23CMatQueuedRenderContext18OnSetPrimitiveTypeEP5IMesh23MaterialPrimitiveType_t
__ZN23CMatQueuedRenderContext18PopCustomClipPlaneEv
__ZN23CMatQueuedRenderContext18ResetLookupWeightsEv
__ZN23CMatQueuedRenderContext18SetFlashlightStateERK17FlashlightState_tRK7VMatrix
__ZN23CMatQueuedRenderContext18SetStencilTestMaskEj
__ZN23CMatQueuedRenderContext19BindLightmapTextureEP8ITexture
__ZN23CMatQueuedRenderContext19BindStandardTextureE9Sampler_t19StandardTextureId_t
__ZN23CMatQueuedRenderContext19ClearSelectionNamesEv
__ZN23CMatQueuedRenderContext19DeferredSetFlexMeshEP5IMeshi
__ZN23CMatQueuedRenderContext19DestroyVertexBufferEP13IVertexBuffer
__ZN23CMatQueuedRenderContext19DrawClearBufferQuadEhhhhbbb
__ZN23CMatQueuedRenderContext19DrawScreenSpaceQuadEP9IMaterial
__ZN23CMatQueuedRenderContext19GetBoundMorphFormatEv
__ZN23CMatQueuedRenderContext19OverrideDepthEnableEbb
__ZN23CMatQueuedRenderContext19PushCustomClipPlaneEPKf
__ZN23CMatQueuedRenderContext19SetAmbientLightCubeEP8Vector4D
__ZN23CMatQueuedRenderContext19SetStencilWriteMaskEj
__ZN23CMatQueuedRenderContext20DeferredDrawPrimListEP5IMeshP9CPrimListi
__ZN23CMatQueuedRenderContext20EndMorphAccumulationEv
__ZN23CMatQueuedRenderContext20ForceDepthFuncEqualsEb
__ZN23CMatQueuedRenderContext20GetCallQueueInternalEv
__ZN23CMatQueuedRenderContext20ReadPixelsAndStretchEP6Rect_tS1_Ph11ImageFormati
__ZN23CMatQueuedRenderContext20SetFlashlightStateExERK17FlashlightState_tRK7VMatrixP8ITexture
__ZN23CMatQueuedRenderContext20TextureManagerUpdateEv
__ZN23CMatQueuedRenderContext21CompareMaterialCombosEP9IMaterialS1_ii
__ZN23CMatQueuedRenderContext21DisableAllLocalLightsEv
__ZN23CMatQueuedRenderContext21EnableColorCorrectionEb
__ZN23CMatQueuedRenderContext21GetDynamicIndexBufferE21MaterialIndexFormat_tb
__ZN23CMatQueuedRenderContext21GetLightmapDimensionsEPiS0_
__ZN23CMatQueuedRenderContext21GetMaxIndicesToRenderEv
__ZN23CMatQueuedRenderContext21PerspectiveOffCenterXEdddddddd
__ZN23CMatQueuedRenderContext22BeginMorphAccumulationEv
__ZN23CMatQueuedRenderContext22GetDynamicVertexBufferEiyb
__ZN23CMatQueuedRenderContext22GetMaxVerticesToRenderEP9IMaterial
__ZN23CMatQueuedRenderContext23ClearBuffersObeyStencilEbb
__ZN23CMatQueuedRenderContext23CreateStaticIndexBufferE21MaterialIndexFormat_tiPKc
__ZN23CMatQueuedRenderContext23SetStencilFailOperationE18StencilOperation_t
__ZN23CMatQueuedRenderContext23SetStencilPassOperationE18StencilOperation_t
__ZN23CMatQueuedRenderContext24CreateStaticVertexBufferEyiPKc
__ZN23CMatQueuedRenderContext24DrawScreenSpaceRectangleEP9IMaterialiiiiffffiiPvii
__ZN23CMatQueuedRenderContext24EnableNonInteractiveModeE28MaterialNonInteractiveMode_t
__ZN23CMatQueuedRenderContext24EndOcclusionQueryDrawingEP30OcclusionQueryObjectHandle_t__
__ZN23CMatQueuedRenderContext24OverrideAlphaWriteEnableEbb
__ZN23CMatQueuedRenderContext24OverrideColorWriteEnableEbb
__ZN23CMatQueuedRenderContext24SetIntRenderingParameterEii
__ZN23CMatQueuedRenderContext24SetStencilReferenceValueEi
__ZN23CMatQueuedRenderContext24SetStencilZFailOperationE18StencilOperation_t
__ZN23CMatQueuedRenderContext25ClearBuffersObeyStencilExEbbb
__ZN23CMatQueuedRenderContext25CopyRenderTargetToTextureEP8ITexture
__ZN23CMatQueuedRenderContext25DoStartupShaderPreloadingEv
__ZN23CMatQueuedRenderContext25OnFlushBufferedPrimitivesEv
__ZN23CMatQueuedRenderContext25ResetOcclusionQueryObjectEP30OcclusionQueryObjectHandle_t__
__ZN23CMatQueuedRenderContext25SetFrameBufferCopyTextureEP8ITexturei
__ZN23CMatQueuedRenderContext25SetShadowDepthBiasFactorsEff
__ZN23CMatQueuedRenderContext25SetStencilCompareFunctionE27StencilComparisonFunction_t
__ZN23CMatQueuedRenderContext25SetToneMappingScaleLinearERK6Vector
__ZN23CMatQueuedRenderContext26BeginOcclusionQueryDrawingEP30OcclusionQueryObjectHandle_t__
__ZN23CMatQueuedRenderContext26CreateOcclusionQueryObjectEv
__ZN23CMatQueuedRenderContext26PopRenderTargetAndViewportEv
__ZN23CMatQueuedRenderContext26SetCurrentMaterialInternalEP17IMaterialInternal
__ZN23CMatQueuedRenderContext26SetFloatRenderingParameterEif
__ZN23CMatQueuedRenderContext27ClearStencilBufferRectangleEiiiii
__ZN23CMatQueuedRenderContext27CopyRenderTargetToTextureExEP8ITextureiP6Rect_tS3_
__ZN23CMatQueuedRenderContext27CopyTextureToRenderTargetExEiP8ITextureP6Rect_tS3_
__ZN23CMatQueuedRenderContext27DestroyOcclusionQueryObjectEP30OcclusionQueryObjectHandle_t__
__ZN23CMatQueuedRenderContext27GetMorphAccumulatorTexCoordEP8Vector2DP6IMorphi
__ZN23CMatQueuedRenderContext27PushRenderTargetAndViewportEP8ITexture
__ZN23CMatQueuedRenderContext27PushRenderTargetAndViewportEP8ITextureS1_iiii
__ZN23CMatQueuedRenderContext27PushRenderTargetAndViewportEP8ITextureiiii
__ZN23CMatQueuedRenderContext27PushRenderTargetAndViewportEv
__ZN23CMatQueuedRenderContext27SetVectorRenderingParameterEiRK6Vector
__ZN23CMatQueuedRenderContext31EnableUserClipTransformOverrideEb
__ZN23CMatQueuedRenderContext32RefreshFrontBufferNonInteractiveEv
__ZN23CMatQueuedRenderContext32SetNonInteractivePacifierTextureEP8ITexturefff
__ZN23CMatQueuedRenderContext33PerformFullScreenStencilOperationEv
__ZN23CMatQueuedRenderContext34AsyncCreateTextureFromRenderTargetEP8ITexturePKc11ImageFormatbiP30IAsyncTextureOperationReceiverPv
__ZN23CMatQueuedRenderContext35OcclusionQuery_GetNumPixelsRenderedEP30OcclusionQueryObjectHandle_t__
__ZN23CMatQueuedRenderContext37AsyncCopyRenderTargetToStagingTextureEP8ITextureS1_P30IAsyncTextureOperationReceiverPv
__ZN23CMatQueuedRenderContext37SetFullScreenDepthTextureValidityFlagEb
__ZN23CMatQueuedRenderContext37SetNonInteractiveTempFullscreenBufferEP8ITexture28MaterialNonInteractiveMode_t
__ZN23CMatQueuedRenderContext4BindEP9IMaterialPv
__ZN23CMatQueuedRenderContext4DrawE23MaterialPrimitiveType_tii
__ZN23CMatQueuedRenderContext4InitEP15CMaterialSystemP21CMatRenderContextBase
__ZN23CMatQueuedRenderContext4KnobEPcPf
__ZN23CMatQueuedRenderContext5FlushEb
__ZN23CMatQueuedRenderContext5OrthoEdddddd
__ZN23CMatQueuedRenderContext5ScaleEfff
__ZN23CMatQueuedRenderContext6FogEndEf
__ZN23CMatQueuedRenderContext6PrintfEPKcz
__ZN23CMatQueuedRenderContext6RotateEffff
__ZN23CMatQueuedRenderContext7FogModeE17MaterialFogMode_t
__ZN23CMatQueuedRenderContext7SetFogZEf
__ZN23CMatQueuedRenderContext8AsyncMapEP16ITextureInternalP30IAsyncTextureOperationReceiverPv
__ZN23CMatQueuedRenderContext8CullModeE18MaterialCullMode_t
__ZN23CMatQueuedRenderContext8EndBatchEv
__ZN23CMatQueuedRenderContext8EndFrameEv
__ZN23CMatQueuedRenderContext8EndQueueEb
__ZN23CMatQueuedRenderContext8FogStartEf
__ZN23CMatQueuedRenderContext8PrintfVAEPcS0_
__ZN23CMatQueuedRenderContext8SetLightEiRK11LightDesc_t
__ZN23CMatQueuedRenderContext8ViewportEiiii
__ZN23CMatQueuedRenderContext9AddLookupEPKc
__ZN23CMatQueuedRenderContext9BindBatchEP5IMeshP9IMaterial
__ZN23CMatQueuedRenderContext9BindMorphEP6IMorph
__ZN23CMatQueuedRenderContext9DrawBatchEii
__ZN23CMatQueuedRenderContext9EndRenderEv
__ZN23CMatQueuedRenderContext9PopMatrixEv
__ZN23CMatQueuedRenderContext9SyncTokenEPKc
__ZN23CMatQueuedRenderContext9TranslateEfff
__ZN23CMatQueuedRenderContextC2Ev
__ZN23CMatQueuedRenderContextD0Ev
__ZN23CMatQueuedRenderContextD1Ev
__ZN23CMaterial_QueueFriendly10IsTwoSidedEv
__ZN23CMaterial_QueueFriendly11FindVarFastEPKcPj
__ZN23CMaterial_QueueFriendly11IsVertexLitEv
__ZN23CMaterial_QueueFriendly12GetNumPassesEv
__ZN23CMaterial_QueueFriendly12IsSpriteCardEv
__ZN23CMaterial_QueueFriendly12PrecacheVarsEP9KeyValuesS1_P10CUtlVectorIPv10CUtlMemoryIS3_iEEi
__ZN23CMaterial_QueueFriendly13AlphaModulateEf
__ZN23CMaterial_QueueFriendly13CallBindProxyEPv
__ZN23CMaterial_QueueFriendly13ColorModulateEfff
__ZN23CMaterial_QueueFriendly13IsAlphaTestedEv
__ZN23CMaterial_QueueFriendly13IsTranslucentEv
__ZN23CMaterial_QueueFriendly14AddMaterialVarEP12IMaterialVar
__ZN23CMaterial_QueueFriendly14GetRenderStateEv
__ZN23CMaterial_QueueFriendly14InMaterialPageEv
__ZN23CMaterial_QueueFriendly14ReloadTexturesEv
__ZN23CMaterial_QueueFriendly14UsesEnvCubemapEv
__ZN23CMaterial_QueueFriendly15GetMappingWidthEv
__ZN23CMaterial_QueueFriendly15GetMaterialPageEv
__ZN23CMaterial_QueueFriendly15GetPropertyFlagE23MaterialPropertyTypes_t
__ZN23CMaterial_QueueFriendly15GetReflectivityER6Vector
__ZN23CMaterial_QueueFriendly15GetShaderParamsEv
__ZN23CMaterial_QueueFriendly15MarkAsPreloadedEb
__ZN23CMaterial_QueueFriendly16ArtificialAddRefEv
__ZN23CMaterial_QueueFriendly16GetMappingHeightEv
__ZN23CMaterial_QueueFriendly16GetMaterialScaleEPf
__ZN23CMaterial_QueueFriendly16ReportVarChangedEP12IMaterialVar
__ZN23CMaterial_QueueFriendly16SetEnumerationIDEi
__ZN23CMaterial_QueueFriendly16ToggleDebugTraceEv
__ZN23CMaterial_QueueFriendly16UpdateToRealTimeEv
__ZN23CMaterial_QueueFriendly17ArtificialReleaseEv
__ZN23CMaterial_QueueFriendly17GetMaterialOffsetEPf
__ZN23CMaterial_QueueFriendly17NeedsTangentSpaceEv
__ZN23CMaterial_QueueFriendly17ToggleSuppressionEv
__ZN23CMaterial_QueueFriendly18GetAlphaModulationEv
__ZN23CMaterial_QueueFriendly18GetColorModulationEPfS0_S0_
__ZN23CMaterial_QueueFriendly18GetRealTimeVersionEv
__ZN23CMaterial_QueueFriendly18SetMaterialVarFlagE18MaterialVarFlags_tb
__ZN23CMaterial_QueueFriendly18SetShaderAndParamsEP9KeyValues
__ZN23CMaterial_QueueFriendly20DeleteIfUnreferencedEv
__ZN23CMaterial_QueueFriendly20SetMaxLightmapPageIDEi
__ZN23CMaterial_QueueFriendly20SetMinLightmapPageIDEi
__ZN23CMaterial_QueueFriendly21CheckProxyReplacementEPv
__ZN23CMaterial_QueueFriendly21GetNumAnimationFramesEv
__ZN23CMaterial_QueueFriendly21GetTextureMemoryBytesEv
__ZN23CMaterial_QueueFriendly21NeedsSoftwareLightingEv
__ZN23CMaterial_QueueFriendly21NeedsSoftwareSkinningEv
__ZN23CMaterial_QueueFriendly21SetNeedsWhiteLightmapEb
__ZN23CMaterial_QueueFriendly23DecrementReferenceCountEv
__ZN23CMaterial_QueueFriendly23GetQueueFriendlyVersionEv
__ZN23CMaterial_QueueFriendly23IncrementReferenceCountEv
__ZN23CMaterial_QueueFriendly23NeedsLightmapBlendAlphaEv
__ZN23CMaterial_QueueFriendly23RecomputeStateSnapshotsEv
__ZN23CMaterial_QueueFriendly24WasReloadedFromWhitelistEv
__ZN23CMaterial_QueueFriendly25FindRepresentativeTextureEv
__ZN23CMaterial_QueueFriendly25PrecacheMappingDimensionsEv
__ZN23CMaterial_QueueFriendly27NeedsFullFrameBufferTextureEb
__ZN23CMaterial_QueueFriendly27ReloadFromWhitelistIfMarkedEv
__ZN23CMaterial_QueueFriendly29RefreshPreservingMaterialVarsEv
__ZN23CMaterial_QueueFriendly31DecideShouldReloadFromWhitelistEP9IFileList
__ZN23CMaterial_QueueFriendly32SetUseFixedFunctionBakedLightingEb
__ZN23CMaterial_QueueFriendly33NeedsPowerOfTwoFrameBufferTextureEb
__ZN23CMaterial_QueueFriendly7FindVarEPKcPbb
__ZN23CMaterial_QueueFriendly7RefreshEv
__ZN23CMaterial_QueueFriendly7UncacheEb
__ZN23CMaterial_QueueFriendly8DrawMeshE23VertexCompressionType_t
__ZN23CMaterial_QueueFriendly8PrecacheEv
__ZN23CMaterial_QueueFriendly9SetShaderEPKc
__ZN23CTextureBitsRegenerator21RegenerateTextureBitsEP8ITextureP11IVTFTextureP6Rect_t
__ZN23CTextureBitsRegenerator7ReleaseEv
__ZN23ColorCorrectionLookup_tD2Ev
__ZN23EditorRenderStateList_t11s_AllocatorE
__ZN24CShaderLibConVarAccessor22RegisterConCommandBaseEP14ConCommandBase
__ZN25CConCommandMemberAccessorI15CMaterialSystemE15CommandCallbackERK8CCommand
__ZN25CConCommandMemberAccessorI15CMaterialSystemE25CommandCompletionCallbackEPKcR10CUtlVectorI10CUtlString10CUtlMemoryIS5_iEE
__ZN25CConCommandMemberAccessorI15CMaterialSystemED0Ev
__ZN25CConCommandMemberAccessorI15CMaterialSystemED1Ev
__ZN25CReferenceToHandleTexture10SaveToFileEPKc
__ZN25CReferenceToHandleTexture12MakeResidentE15ResidencyType_t
__ZN25CReferenceToHandleTexture12SwapContentsEP8ITexture
__ZN25CReferenceToHandleTexture13ReleaseMemoryEv
__ZN25CReferenceToHandleTexture13UpdateLodBiasEv
__ZN25CReferenceToHandleTexture14MarkAsExcludedEbi
__ZN25CReferenceToHandleTexture15GetReflectivityER6Vector
__ZN25CReferenceToHandleTexture15MarkAsPreloadedEb
__ZN25CReferenceToHandleTexture15SetErrorTextureEb
__ZN25CReferenceToHandleTexture15SetRenderTargetEi
__ZN25CReferenceToHandleTexture15SetRenderTargetEiP8ITexture
__ZN25CReferenceToHandleTexture16ForceLODOverrideEi
__ZN25CReferenceToHandleTexture16GetTextureHandleEii
__ZN25CReferenceToHandleTexture17BindVertexTextureE22VertexTextureSampler_ti
__ZN25CReferenceToHandleTexture17GetReferenceCountEv
__ZN25CReferenceToHandleTexture17ReloadFilesInListEP9IFileList
__ZN25CReferenceToHandleTexture18GetEmbeddedTextureEi
__ZN25CReferenceToHandleTexture19CopyFrameBufferToMeEiP6Rect_tS1_
__ZN25CReferenceToHandleTexture19CopyMeToFrameBufferEiP6Rect_tS1_
__ZN25CReferenceToHandleTexture19UpdateExcludedStateEv
__ZN25CReferenceToHandleTexture20CopyToStagingTextureEP8ITexture
__ZN25CReferenceToHandleTexture20DeleteIfUnreferencedEv
__ZN25CReferenceToHandleTexture21SetTextureRegeneratorEP19ITextureRegenerator
__ZN25CReferenceToHandleTexture22AsyncCancelReadTextureEv
__ZN25CReferenceToHandleTexture23DecrementReferenceCountEv
__ZN25CReferenceToHandleTexture23IncrementReferenceCountEv
__ZN25CReferenceToHandleTexture24AsyncReadTextureFromFileEP11IVTFTexturej
__ZN25CReferenceToHandleTexture27SetFilteringAndClampingModeEb
__ZN25CReferenceToHandleTexture3MapEPPvPi
__ZN25CReferenceToHandleTexture4BindE9Sampler_t
__ZN25CReferenceToHandleTexture4BindE9Sampler_tiS0_
__ZN25CReferenceToHandleTexture5UnmapEv
__ZN25CReferenceToHandleTexture7SetNameEPKc
__ZN25CReferenceToHandleTexture8DownloadEP6Rect_ti
__ZN25CReferenceToHandleTexture8PrecacheEv
__ZN25CReferenceToHandleTexture9BDownloadEP6Rect_ti
__ZN25CReferenceToHandleTexture9OnRestoreEv
__ZN25CReferenceToHandleTextureD0Ev
__ZN25CReferenceToHandleTextureD1Ev
__ZN25StandardRenderStateList_t11s_AllocatorE
__ZN26CTextureCompositorTemplate19HasDependencyCyclesEv
__ZN26CTextureCompositorTemplate6CreateEPKcP9KeyValues
__ZN26CTextureCompositorTemplateD1Ev
__ZN27CSignedNormalizationCubemap21RegenerateTextureBitsEP8ITextureP11IVTFTextureP6Rect_t
__ZN27CSignedNormalizationCubemap7ReleaseEv
__ZN27IKeyValuesDumpContextAsText12KvWriteValueEP9KeyValuesi
__ZN27IKeyValuesDumpContextAsText13KvWriteIndentEi
__ZN27IKeyValuesDumpContextAsText8KvEndKeyEP9KeyValuesi
__ZN28CDatadescGeneratedNameHolderD1Ev
__ZN28VTFFileHeader_t_DataDescInit15g_DataMapHolderE
__ZN29CKeyValuesDumpContextAsDevMsg10KvBeginKeyEP9KeyValuesi
__ZN29CKeyValuesDumpContextAsDevMsg11KvWriteTextEPKc
__ZN32VTFFileBaseHeader_t_DataDescInit15g_DataMapHolderE
__ZN32VTFFileHeaderV7_1_t_DataDescInit15g_DataMapHolderE
__ZN32VTFFileHeaderV7_2_t_DataDescInit15g_DataMapHolderE
__ZN32VTFFileHeaderV7_3_t_DataDescInit15g_DataMapHolderE
__ZN32VTFFileHeaderX360_t_DataDescInit15g_DataMapHolderE
__ZN4CJob14SetDescriptionEPKc
__ZN4CJob7DoAbortEb
__ZN4CJob8DescribeEv
__ZN4CJob9DoCleanupEv
__ZN4CJobC2E13JobPriority_t
__ZN4CJobD0Ev
__ZN4CJobD1Ev
__ZN6CMorph11s_nUniqueIdE
__ZN6CMorph13BuildQuadListERK10CUtlVectorIS0_INS_14MorphSegment_tE10CUtlMemoryIS1_iEES2_IS4_iEE
__ZN6CMorph13PackMorphDataEv
__ZN6CMorph15AccumulateMorphEi
__ZN6CMorph16BuildSegmentListER10CUtlVectorIS0_INS_14MorphSegment_tE10CUtlMemoryIS1_iEES2_IS4_iEE
__ZN6CMorph16CreateStaticMeshEv
__ZN6CMorph16RenderMorphQuadsEP17IMatRenderContextiiiPiPK13MorphWeight_t
__ZN6CMorph18RenderMorphWeightsEP17IMatRenderContextiiPK13MorphWeight_t
__ZN6CMorph21RegenerateTextureBitsEP8ITextureP11IVTFTextureP6Rect_t
__ZN6CMorph23WriteSideSpeedToTextureER12CPixelWriteriiRK17MorphVertexInfo_t
__ZN6CMorph24ComputeTextureDimensionsERK10CUtlVectorIS0_INS_14MorphSegment_tE10CUtlMemoryIS1_iEES2_IS4_iEE
__ZN6CMorph25CreateAccumulatorMaterialEi
__ZN6CMorph33WriteDeltaPositionNormalToTextureER12CPixelWriteriiRK17MorphVertexInfo_t
__ZN6CMorph4BindEP22IMorphMgrRenderContext
__ZN6CMorph4InitEjPKc
__ZN6CMorph4LockEf
__ZN6CMorph6UnlockEv
__ZN6CMorph7CleanUpEv
__ZN6CMorph7ReleaseEv
__ZN6CMorph8AddMorphERK17MorphVertexInfo_t
__ZN6CMorphD2Ev
__ZN6ConVar10ClampValueERf
__ZN6ConVar16InternalSetValueEPKc
__ZN6ConVar17ChangeStringValueEPKcf
__ZN6ConVar19InternalSetIntValueEi
__ZN6ConVar21InternalSetFloatValueEfb
__ZN6ConVar4InitEv
__ZN6ConVar6CreateEPKcS1_iS1_bfbfbfbfPFvP7IConVarS1_fE
__ZN6ConVar8AddFlagsEi
__ZN6ConVar8SetValueEPKc
__ZN6ConVar8SetValueEf
__ZN6ConVar8SetValueEi
__ZN6ConVarC1EPKcS1_i
__ZN6ConVarC1EPKcS1_iS1_
__ZN6ConVarC1EPKcS1_iS1_PFvP7IConVarS1_fE
__ZN6ConVarC1EPKcS1_iS1_bfbf
__ZN6ConVarC1EPKcS1_iS1_bfbfPFvP7IConVarS1_fE
__ZN6ConVarD0Ev
__ZN6ConVarD1Ev
__ZN7CDefOpsIP16ITextureInternalE8LessFuncERKS1_S4_
__ZN7CDefOpsIP26CTextureCompositorTemplateE8LessFuncERKS1_S4_
__ZN7CDefOpsIP8ITextureE8LessFuncERKS1_S4_
__ZN7CUtlMapIP8ITexture16CInterlockedIntTIiEtPFbRKS1_S5_EED1Ev
__ZN7VMatrix5ScaleERK6Vector
__ZN7VMatrixaSERKS_
__ZN7float1620ConvertFloatTo16bitsEf
__ZN8CTCStage18OnAsyncMapCompleteEP8ITexturePvS2_i
__ZN8CTCStage19ComputeRandomValuesEPiP20CUniformRandomStreami
__ZN8CTCStage19OnAsyncFindCompleteEP8ITexturePv
__ZN8CTCStage20OnAsyncReadbackBeginEP8ITextureS1_Pv
__ZN8CTCStage21OnAsyncCreateCompleteEP8ITexturePv
__ZN8CTCStage6AddRefEv
__ZN8CTCStage6RenderEP8ITextureP9IMaterialRK10CUtlVectorI16CTCStageResult_t10CUtlMemoryIS5_iEEP18CTextureCompositorb
__ZN8CTCStage7CleanupEP18CTextureCompositor
__ZN8CTCStage7ReleaseEv
__ZN8CTCStage7ResolveEbP18CTextureCompositor
__ZN8CTCStageD0Ev
__ZN8CTCStageD1Ev
__ZN8CTSQueueIP11IVTFTextureLb0EE3PopEv
__ZN8CTSQueueIP11IVTFTextureLb0EE4PushEPNS2_6Node_tE
__ZN8CTSQueueIP11IVTFTextureLb0EE5PurgeEv
__ZN8CTSQueueIP11IVTFTextureLb0EE7PopItemEPS1_
__ZN8CTSQueueIP11IVTFTextureLb0EE8PushItemERKS1_
__ZN8CTSQueueIP11IVTFTextureLb0EEC2Ev
__ZN8CTSQueueIP11IVTFTextureLb0EED2Ev
__ZN8CTSQueueIP14AsyncLoadJob_tLb0EE3PopEv
__ZN8CTSQueueIP14AsyncLoadJob_tLb0EE4PushEPNS2_6Node_tE
__ZN8CTSQueueIP14AsyncLoadJob_tLb0EE5PurgeEv
__ZN8CTSQueueIP14AsyncLoadJob_tLb0EE7PopItemEPS1_
__ZN8CTSQueueIP14AsyncLoadJob_tLb0EE8PushItemERKS1_
__ZN8CTSQueueIP14AsyncLoadJob_tLb0EEC2Ev
__ZN8CTSQueueIP14AsyncLoadJob_tLb0EED2Ev
__ZN8CTSQueueIP14AsyncReadJob_tLb0EE3PopEv
__ZN8CTSQueueIP14AsyncReadJob_tLb0EE4PushEPNS2_6Node_tE
__ZN8CTSQueueIP14AsyncReadJob_tLb0EE5PurgeEv
__ZN8CTSQueueIP14AsyncReadJob_tLb0EE7PopItemEPS1_
__ZN8CTSQueueIP14AsyncReadJob_tLb0EE8PushItemERKS1_
__ZN8CTSQueueIP14AsyncReadJob_tLb0EEC2Ev
__ZN8CTSQueueIP14AsyncReadJob_tLb0EED2Ev
__ZN8CTSQueueIP16ITextureInternalLb0EE3PopEv
__ZN8CTSQueueIP16ITextureInternalLb0EE4PushEPNS2_6Node_tE
__ZN8CTSQueueIP16ITextureInternalLb0EE5PurgeEv
__ZN8CTSQueueIP16ITextureInternalLb0EE7PopItemEPS1_
__ZN8CTSQueueIP16ITextureInternalLb0EE8PushItemERKS1_
__ZN8CTSQueueIP16ITextureInternalLb0EEC2Ev
__ZN8CTSQueueIP16ITextureInternalLb0EED2Ev
__ZN8CTexture10SaveToFileEPKc
__ZN8CTexture12MakeResidentE15ResidencyType_t
__ZN8CTexture12SetWrapStateEv
__ZN8CTexture12SwapContentsEP8ITexture
__ZN8CTexture13ReleaseMemoryEv
__ZN8CTexture13UpdateLodBiasEv
__ZN8CTexture14MarkAsExcludedEbi
__ZN8CTexture14SetFilterStateEv
__ZN8CTexture15GetReflectivityER6Vector
__ZN8CTexture15MarkAsPreloadedEb
__ZN8CTexture15SetErrorTextureEb
__ZN8CTexture15SetRenderTargetEi
__ZN8CTexture15SetRenderTargetEiP8ITexture
__ZN8CTexture16ForceLODOverrideEi
__ZN8CTexture16GetTextureHandleEii
__ZN8CTexture16InitRenderTargetEPKcii22RenderTargetSizeMode_t11ImageFormat18RenderTargetType_tjj
__ZN8CTexture17BindVertexTextureE22VertexTextureSampler_ti
__ZN8CTexture17GetReferenceCountEv
__ZN8CTexture17LoadLowResTextureEP11IVTFTexture
__ZN8CTexture17MakeFullyResidentEv
__ZN8CTexture17ReloadFilesInListEP9IFileList
__ZN8CTexture18GetEmbeddedTextureEi
__ZN8CTexture18NotifyUnloadedFileEv
__ZN8CTexture18ReconstructTextureEb
__ZN8CTexture19ComputeActualFormatE11ImageFormat
__ZN8CTexture19CopyFrameBufferToMeEiP6Rect_tS1_
__ZN8CTexture19CopyMeToFrameBufferEiP6Rect_tS1_
__ZN8CTexture19UpdateExcludedStateEv
__ZN8CTexture20CopyToStagingTextureEP8ITexture
__ZN8CTexture20DeleteIfUnreferencedEv
__ZN8CTexture20GetScratchVTFTextureEv
__ZN8CTexture21ConvertToActualFormatEP11IVTFTexture
__ZN8CTexture21FreeShaderAPITexturesEv
__ZN8CTexture21MakePartiallyResidentEv
__ZN8CTexture21SetTextureRegeneratorEP19ITextureRegenerator
__ZN8CTexture22AsyncCancelReadTextureEv
__ZN8CTexture22OnStreamingJobCompleteE15ResidencyType_t
__ZN8CTexture22SetupDebuggingTexturesEP11IVTFTexture
__ZN8CTexture23DecrementReferenceCountEv
__ZN8CTexture23IncrementReferenceCountEv
__ZN8CTexture23LoadTextureBitsFromFileEPcPS0_
__ZN8CTexture24AsyncReadTextureFromFileEP11IVTFTexturej
__ZN8CTexture24CopyLowResImageToTextureEP11IVTFTexture
__ZN8CTexture24MigrateShaderAPITexturesEv
__ZN8CTexture25AllocateShaderAPITexturesEv
__ZN8CTexture25ApplyRenderTargetSizeModeERiS0_11ImageFormat
__ZN8CTexture25ReconstructPartialTextureEPK6Rect_t
__ZN8CTexture25ReconstructProceduralBitsEv
__ZN8CTexture27HandleFileLoadFailedTextureEP11IVTFTexture
__ZN8CTexture27SetFilteringAndClampingModeEb
__ZN8CTexture29GenerateShowMipLevelsTexturesEP11IVTFTexture
__ZN8CTexture32ReconstructPartialProceduralBitsEPK6Rect_tPS0_
__ZN8CTexture3MapEPPvPi
__ZN8CTexture4BindE9Sampler_t
__ZN8CTexture4BindE9Sampler_tiS0_
__ZN8CTexture4InitEiii11ImageFormatii
__ZN8CTexture5UnmapEv
__ZN8CTexture7SetNameEPKc
__ZN8CTexture8DownloadEP6Rect_ti
__ZN8CTexture8PrecacheEv
__ZN8CTexture8ShutdownEv
__ZN8CTexture9BDownloadEP6Rect_ti
__ZN8CTexture9OnRestoreEv
__ZN8CTextureC2Ev
__ZN8CTextureD0Ev
__ZN8CTextureD1Ev
__ZN8CUtlDictI18CCopyableUtlVectorI14AsyncLoadJob_tEiE6InsertEPKc
__ZN8CUtlDictI18CCopyableUtlVectorI14AsyncLoadJob_tEiED1Ev
__ZN8CUtlDictIP16ITextureInternaltE9RemoveAllEv
__ZN8CUtlDictIP26CTextureCompositorTemplatetE9RemoveAllEv
__ZN8CUtlDictIP7IShadertE9RemoveAllEv
__ZN8CUtlDictIP9KeyValuesiE9RemoveAllEv
__ZN8CUtlDictIPKciE9RemoveAllEv
__ZN8CUtlDictIPKctE9RemoveAllEv
__ZN8CUtlDictIiiE9RemoveAllEv
__ZN8CUtlDictIitE9RemoveAllEv
__ZN9CMaterial10IsTwoSidedEv
__ZN9CMaterial11FindVarFastEPKcPj
__ZN9CMaterial11IsVertexLitEv
__ZN9CMaterial11s_AllocatorE
__ZN9CMaterial12GetNumPassesEv
__ZN9CMaterial12IsSpriteCardEv
__ZN9CMaterial12PrecacheVarsEP9KeyValuesS1_P10CUtlVectorIPv10CUtlMemoryIS3_iEEi
__ZN9CMaterial13AlphaModulateEf
__ZN9CMaterial13CallBindProxyEPv
__ZN9CMaterial13ColorModulateEfff
__ZN9CMaterial13IsAlphaTestedEv
__ZN9CMaterial13IsTranslucentEv
__ZN9CMaterial13ShouldSkipVarEP9KeyValuesPb
__ZN9CMaterial14AddMaterialVarEP12IMaterialVar
__ZN9CMaterial14GetRenderStateEv
__ZN9CMaterial14InMaterialPageEv
__ZN9CMaterial14ReloadTexturesEv
__ZN9CMaterial14UsesEnvCubemapEv
__ZN9CMaterial15GetMappingWidthEv
__ZN9CMaterial15GetMaterialPageEv
__ZN9CMaterial15GetPropertyFlagE23MaterialPropertyTypes_t
__ZN9CMaterial15GetReflectivityER6Vector
__ZN9CMaterial15GetShaderParamsEv
__ZN9CMaterial15MarkAsPreloadedEb
__ZN9CMaterial16ArtificialAddRefEv
__ZN9CMaterial16ClearContextDataEv
__ZN9CMaterial16GetMappingHeightEv
__ZN9CMaterial16GetMaterialScaleEPf
__ZN9CMaterial16InitializeShaderER9KeyValuesS1_i
__ZN9CMaterial16ReportVarChangedEP12IMaterialVar
__ZN9CMaterial16SetEnumerationIDEi
__ZN9CMaterial16SetupErrorShaderEv
__ZN9CMaterial16ToggleDebugTraceEv
__ZN9CMaterial17ArtificialReleaseEv
__ZN9CMaterial17GetMaterialOffsetEPf
__ZN9CMaterial17NeedsTangentSpaceEv
__ZN9CMaterial17ParseMaterialFlagEP9KeyValuesP12IMaterialVarS3_bRiS4_
__ZN9CMaterial17ParseMaterialVarsEP7IShaderR9KeyValuesPS2_bPP12IMaterialVari
__ZN9CMaterial17ToggleSuppressionEv
__ZN9CMaterial18GetAlphaModulationEv
__ZN9CMaterial18GetColorModulationEPfS0_S0_
__ZN9CMaterial18GetRealTimeVersionEv
__ZN9CMaterial18SetMaterialVarFlagE18MaterialVarFlags_tb
__ZN9CMaterial18SetShaderAndParamsEP9KeyValues
__ZN9CMaterial19GetPreviewImageNameEv
__ZN9CMaterial20DeleteIfUnreferencedEv
__ZN9CMaterial20SetMaxLightmapPageIDEi
__ZN9CMaterial20SetMinLightmapPageIDEi
__ZN9CMaterial21CheckProxyReplacementEPv
__ZN9CMaterial21DestroyRenderPassListEP16RenderPassList_t
__ZN9CMaterial21GetNumAnimationFramesEv
__ZN9CMaterial21GetTextureMemoryBytesEv
__ZN9CMaterial21NeedsSoftwareLightingEv
__ZN9CMaterial21NeedsSoftwareSkinningEv
__ZN9CMaterial21SetNeedsWhiteLightmapEb
__ZN9CMaterial23DecrementReferenceCountEv
__ZN9CMaterial23GetQueueFriendlyVersionEv
__ZN9CMaterial23IncrementReferenceCountEv
__ZN9CMaterial23InitializeMaterialProxyEP9KeyValues
__ZN9CMaterial23NeedsLightmapBlendAlphaEv
__ZN9CMaterial23RecomputeStateSnapshotsEv
__ZN9CMaterial24InitializeStateSnapshotsEv
__ZN9CMaterial24WasReloadedFromWhitelistEv
__ZN9CMaterial25FindRepresentativeTextureEv
__ZN9CMaterial25PrecacheMappingDimensionsEv
__ZN9CMaterial27NeedsFullFrameBufferTextureEb
__ZN9CMaterial27ReloadFromWhitelistIfMarkedEv
__ZN9CMaterial29RefreshPreservingMaterialVarsEv
__ZN9CMaterial31DecideShouldReloadFromWhitelistEP9IFileList
__ZN9CMaterial32SetUseFixedFunctionBakedLightingEb
__ZN9CMaterial33NeedsPowerOfTwoFrameBufferTextureEb
__ZN9CMaterial7FindVarEPKcPbb
__ZN9CMaterial7RefreshEv
__ZN9CMaterial7UncacheEb
__ZN9CMaterial8DrawMeshE23VertexCompressionType_t
__ZN9CMaterial8PrecacheEv
__ZN9CMaterial9SetShaderEPKc
__ZN9CMaterialC2EPKcS1_P9KeyValues
__ZN9CMaterialD0Ev
__ZN9CMaterialD1Ev
__ZN9CMaterialD2Ev
__ZN9CMorphMgr11CreateMorphEv
__ZN9CMorphMgr12AdvanceFrameEv
__ZN9CMorphMgr12DestroyMorphEP14IMorphInternal
__ZN9CMorphMgr12MorphWeightsEv
__ZN9CMorphMgr13FreeMaterialsEv
__ZN9CMorphMgr15AccumulateMorphEP22IMorphMgrRenderContextP6IMorphiPK13MorphWeight_t
__ZN9CMorphMgr16MorphAccumulatorEv
__ZN9CMorphMgr17AllocateMaterialsEv
__ZN9CMorphMgr17FreeRenderContextEP22IMorphMgrRenderContext
__ZN9CMorphMgr19FreeScratchTexturesEv
__ZN9CMorphMgr20EndMorphAccumulationEP22IMorphMgrRenderContext
__ZN9CMorphMgr21AllocateRenderContextEv
__ZN9CMorphMgr22BeginMorphAccumulationEP22IMorphMgrRenderContext
__ZN9CMorphMgr23AllocateScratchTexturesEv
__ZN9CMorphMgr27GetMorphAccumulatorTexCoordEP22IMorphMgrRenderContextP8Vector2DP6IMorphi
__ZN9CMorphMgr29ShouldAllocateScratchTexturesEv
__ZN9CUtlQueueIP14AsyncReadJob_t10CUtlMemoryIS1_iEE6InsertERKS1_
__ZN9CUtlQueueIZN9KeyValues26CopyKeyValuesFromRecursiveERKS0_E10CopyStruct10CUtlMemoryIS3_iEE6InsertERKS3_
__ZN9CUtlStackIN21CMatRenderContextBase17MatrixStackItem_tE10CUtlMemoryIS1_iEE4PushEv
__ZN9CUtlStackIN21CMatRenderContextBase17MatrixStackItem_tE10CUtlMemoryIS1_iEE8CopyFromERKS4_
__ZN9CUtlStackIN21CMatRenderContextBase17MatrixStackItem_tE10CUtlMemoryIS1_iEED2Ev
__ZN9CUtlStackIN21CMatRenderContextBase26RenderTargetStackElement_tE10CUtlMemoryIS1_iEE4PushERKS1_
__ZN9CUtlStackIN21CMatRenderContextBase26RenderTargetStackElement_tE10CUtlMemoryIS1_iEED2Ev
__ZN9CVProfile19FindOrCreateCounterEPKc14CounterGroup_t
__ZN9ConVarRefC1EP7IConVar
__ZN9ConVarRefC1EPKc
__ZN9KeyValues10GetWStringEPKcPKw
__ZN9KeyValues10SetWStringEPKcPKw
__ZN9KeyValues10deleteThisEv
__ZN9KeyValues11GetDataTypeEPKc
__ZN9KeyValues12CopyKeyValueERKS_mPc
__ZN9KeyValues12GetNextValueEv
__ZN9KeyValues12LoadFromFileEP15IBaseFileSystemPKcS3_b
__ZN9KeyValues12RemoveSubKeyEPS_
__ZN9KeyValues13ChainKeyValueEPS_
__ZN9KeyValues13GetFirstValueEv
__ZN9KeyValues14LoadFromBufferEPKcR10CUtlBufferP15IBaseFileSystemS1_
__ZN9KeyValues14LoadFromBufferEPKcS1_P15IBaseFileSystemS1_
__ZN9KeyValues14SetStringValueEPKc
__ZN9KeyValues16RemoveEverythingEv
__ZN9KeyValues17GetNextTrueSubKeyEv
__ZN9KeyValues17ParseIncludedKeysEPKcS1_P15IBaseFileSystemS1_R10CUtlVectorIPS_10CUtlMemoryIS5_iEE
__ZN9KeyValues18GetFirstTrueSubKeyEv
__ZN9KeyValues22s_pfGetStringForSymbolE
__ZN9KeyValues22s_pfGetSymbolForStringE
__ZN9KeyValues23RecursiveLoadFromBufferEPKcR10CUtlBuffer
__ZN9KeyValues23RecursiveMergeKeyValuesEPS_
__ZN9KeyValues25GetStringForSymbolClassicEi
__ZN9KeyValues25GetSymbolForStringClassicEPKcb
__ZN9KeyValues26CopyKeyValuesFromRecursiveERKS_
__ZN9KeyValues28CreateKeyUsingKnownLastChildEPKcPS_
__ZN9KeyValues4DumpEP21IKeyValuesDumpContextib
__ZN9KeyValues5ClearEv
__ZN9KeyValues6GetIntEPKci
__ZN9KeyValues6GetPtrEPKcPv
__ZN9KeyValues6SetIntEPKci
__ZN9KeyValues6SetPtrEPKcPv
__ZN9KeyValues7FindKeyEPKcb
__ZN9KeyValues7GetBoolEPKcbPb
__ZN9KeyValues7IsEmptyEPKc
__ZN9KeyValues7SetNameEPKc
__ZN9KeyValues8GetFloatEPKcf
__ZN9KeyValues8SetFloatEPKcf
__ZN9KeyValues9AddSubKeyEPS_
__ZN9KeyValues9GetStringEPKcS1_
__ZN9KeyValues9ReadTokenER10CUtlBufferRbS2_
__ZN9KeyValues9SetStringEPKcS1_
__ZN9KeyValuesC1EPKc
__ZN9KeyValuesaSERKS_
__ZN9KeyValuesdlEPv
__ZN9KeyValuesnwEm
__ZN9TGAWriter12WriteTGAFileEPKcii11ImageFormatPKhi
__ZNK10CDummyMesh10IndexCountEv
__ZNK10CDummyMesh11IndexFormatEv
__ZNK10CDummyMesh11VertexCountEv
__ZNK10CDummyMesh15GetVertexFormatEv
__ZNK10CDummyMesh16GetRoomRemainingEv
__ZNK10CDummyMesh9IsDynamicEv
__ZNK10CShaderDLL11ShaderCountEv
__ZNK10CUtlRBTreeIN13CMaterialDict16MaterialLookup_tEtPFbRKS1_S3_E10CUtlMemoryI15UtlRBTreeNode_tIS1_tEtEE11NextInorderEt
__ZNK10CUtlRBTreeIN7CUtlMapIPKcP16ITextureInternaltPFbRKS2_S6_EE6Node_tEtNS9_8CKeyLessE10CUtlMemoryI15UtlRBTreeNode_tISA_tEtEE11NextInorderEt
__ZNK10CUtlRBTreeIN7CUtlMapIPKcP26CTextureCompositorTemplatetPFbRKS2_S6_EE6Node_tEtNS9_8CKeyLessE10CUtlMemoryI15UtlRBTreeNode_tISA_tEtEE11NextInorderEt
__ZNK10CUtlRBTreeIN7CUtlMapIPKcP7IShadertPFbRKS2_S6_EE6Node_tEtNS9_8CKeyLessE10CUtlMemoryI15UtlRBTreeNode_tISA_tEtEE11NextInorderEt
__ZNK10CUtlRBTreeIN7CUtlMapIPKcS2_tPFbRKS2_S4_EE6Node_tEtNS7_8CKeyLessE10CUtlMemoryI15UtlRBTreeNode_tIS8_tEtEE11NextInorderEt
__ZNK10CUtlRBTreeIN7CUtlMapIPKcitPFbRKS2_S4_EE6Node_tEtNS7_8CKeyLessE10CUtlMemoryI15UtlRBTreeNode_tIS8_tEtEE11NextInorderEt
__ZNK10CUtlString12GetExtensionEv
__ZNK10CUtlString14StripExtensionEv
__ZNK10CUtlString3GetEv
__ZNK10CUtlStringplEPKc
__ZNK10CUtlStringplERKS_
__ZNK10CUtlSymbol6StringEv
__ZNK10ConCommand9IsCommandEv
__ZNK11CVTFTexture10FrameCountEv
__ZNK11CVTFTexture11IsNormalMapEv
__ZNK11CVTFTexture11LowResWidthEv
__ZNK11CVTFTexture12LowResFormatEv
__ZNK11CVTFTexture12LowResHeightEv
__ZNK11CVTFTexture12ReflectivityEv
__ZNK11CVTFTexture13ImageFileInfoEiiiPiS0_
__ZNK11CVTFTexture14ComputeMipSizeEi
__ZNK11CVTFTexture14GetImageOffsetEiii11ImageFormat
__ZNK11CVTFTexture14LowResFileInfoEPiS0_
__ZNK11CVTFTexture14RowSizeInBytesEi
__ZNK11CVTFTexture15ComputeFaceSizeEi
__ZNK11CVTFTexture15FaceSizeInBytesEi
__ZNK11CVTFTexture15GetResourceDataEjPm
__ZNK11CVTFTexture15IsVolumeTextureEv
__ZNK11CVTFTexture16ComputeTotalSizeEv
__ZNK11CVTFTexture16GetResourceTypesEPji
__ZNK11CVTFTexture16HasResourceEntryEj
__ZNK11CVTFTexture22ComputeMipLevelSubRectEP6Rect_tiS1_
__ZNK11CVTFTexture25ComputeMipLevelDimensionsEiPiS0_S0_
__ZNK11CVTFTexture5DepthEv
__ZNK11CVTFTexture5FlagsEv
__ZNK11CVTFTexture5WidthEv
__ZNK11CVTFTexture6FormatEv
__ZNK11CVTFTexture6HeightEv
__ZNK11CVTFTexture8FileSizeEi
__ZNK11CVTFTexture8MipCountEv
__ZNK11CVTFTexture9BumpScaleEv
__ZNK11CVTFTexture9FaceCountEv
__ZNK11CVTFTexture9IsCubeMapEv
__ZNK12CEmptyConVar7GetNameEv
__ZNK12CEmptyConVar9IsFlagSetEi
__ZNK12CMaterialVar14GetStringValueEv
__ZNK12CMaterialVar15GetNameAsSymbolEv
__ZNK12CMaterialVar16MatrixIsIdentityEv
__ZNK12CMaterialVar17GetLinearVecValueEPfi
__ZNK12CMaterialVar18VectorSizeInternalEv
__ZNK12CMaterialVar19GetIntValueInternalEv
__ZNK12CMaterialVar19GetVecValueInternalEPfi
__ZNK12CMaterialVar19GetVecValueInternalEv
__ZNK12CMaterialVar21GetFloatValueInternalEv
__ZNK12CMaterialVar7GetNameEv
__ZNK12CMaterialVar9IsDefinedEv
__ZNK12CTCCopyStage20HasTeamSpecificsThisEv
__ZNK12CTCCopyStage22DoesTargetRenderTargetEv
__ZNK13CDummyTexture11IsMipmappedEv
__ZNK13CDummyTexture11IsNormalMapEv
__ZNK13CDummyTexture12IsProceduralEv
__ZNK13CDummyTexture13IsTranslucentEv
__ZNK13CDummyTexture14GetActualDepthEv
__ZNK13CDummyTexture14GetActualWidthEv
__ZNK13CDummyTexture14GetImageFormatEv
__ZNK13CDummyTexture14IsRenderTargetEv
__ZNK13CDummyTexture15GetActualHeightEv
__ZNK13CDummyTexture15GetMappingDepthEv
__ZNK13CDummyTexture15GetMappingWidthEv
__ZNK13CDummyTexture15GetResourceDataEjPm
__ZNK13CDummyTexture15IsVolumeTextureEv
__ZNK13CDummyTexture16GetMappingHeightEv
__ZNK13CDummyTexture19GetNormalDecodeModeEv
__ZNK13CDummyTexture20GetLowResColorSampleEffPf
__ZNK13CDummyTexture21GetNumAnimationFramesEv
__ZNK13CDummyTexture25GetApproximateVidMemBytesEv
__ZNK13CDummyTexture7GetNameEv
__ZNK13CDummyTexture7IsErrorEv
__ZNK13CDummyTexture8GetFlagsEv
__ZNK13CDummyTexture9IsCubeMapEv
__ZNK13CMatLightmaps16GetLightmapWidthEi
__ZNK13CMatLightmaps17GetLightmapHeightEi
__ZNK13CMatLightmaps19GetLightmapPageSizeEiPiS0_
__ZNK13CShaderSystem10GetShadersEiiPP7IShader
__ZNK13CShaderSystem11ShaderCountEv
__ZNK13CShaderSystem15IsUsingGraphicsEv
__ZNK13CShaderSystem16ShaderStateCountEv
__ZNK13CShaderSystem17ShaderStateStringEi
__ZNK13CShaderSystem21CanUseEditorMaterialsEv
__ZNK14CDummyMaterial11IsPrecachedEv
__ZNK14CDummyMaterial13GetShaderNameEv
__ZNK14CDummyMaterial14GetMorphFormatEv
__ZNK14CDummyMaterial15GetPreviewImageEPhii11ImageFormat
__ZNK14CDummyMaterial15GetVertexFormatEv
__ZNK14CDummyMaterial15IsErrorMaterialEv
__ZNK14CDummyMaterial16GetEnumerationIDEv
__ZNK14CDummyMaterial16ShaderParamCountEv
__ZNK14CDummyMaterial18GetMaterialVarFlagE18MaterialVarFlags_t
__ZNK14CDummyMaterial19GetTextureGroupNameEv
__ZNK14CDummyMaterial20GetLowResColorSampleEffPf
__ZNK14CDummyMaterial25GetPreviewImagePropertiesEPiS0_P11ImageFormatPb
__ZNK14CDummyMaterial7GetNameEv
__ZNK14CDummyMaterial8HasProxyEv
__ZNK14CMatQueuedMesh10IndexCountEv
__ZNK14CMatQueuedMesh11IndexFormatEv
__ZNK14CMatQueuedMesh11VertexCountEv
__ZNK14CMatQueuedMesh15GetVertexFormatEv
__ZNK14CMatQueuedMesh16GetRoomRemainingEv
__ZNK14CMatQueuedMesh9IsDynamicEv
__ZNK14CTCSelectStage20HasTeamSpecificsThisEv
__ZNK14CTCSelectStage22DoesTargetRenderTargetEv
__ZNK14CUtlSortVectorIN16CVertexMorphDict17MorphVertexList_tENS0_19VertexMorphDictLessE10CUtlVectorIS1_10CUtlMemoryIS1_iEEE15FindLessOrEqualIS1_EEiRKT_Pb
__ZNK14CUtlSortVectorIN16CVertexMorphDict17MorphVertexList_tENS0_19VertexMorphDictLessE10CUtlVectorIS1_10CUtlMemoryIS1_iEEE4FindIS1_EEiRKT_
__ZNK14ConCommandBase11GetHelpTextEv
__ZNK14ConCommandBase12IsRegisteredEv
__ZNK14ConCommandBase16GetDLLIdentifierEv
__ZNK14ConCommandBase7GetNameEv
__ZNK14ConCommandBase9IsFlagSetEi
__ZNK15CAsyncMapResult11GetRefCountEv
__ZNK15CMaterialSystem10GetShadersEiiPP7IShader
__ZNK15CMaterialSystem11GetMaterialEt
__ZNK15CMaterialSystem11GetModeInfoEiiR19MaterialVideoMode_t
__ZNK15CMaterialSystem11ShaderCountEv
__ZNK15CMaterialSystem12GetModeCountEi
__ZNK15CMaterialSystem12InEditorModeEv
__ZNK15CMaterialSystem12NextMaterialEt
__ZNK15CMaterialSystem13FirstMaterialEv
__ZNK15CMaterialSystem14GetDisplayModeER19MaterialVideoMode_t
__ZNK15CMaterialSystem14ShaderFlagNameEi
__ZNK15CMaterialSystem14SpewDriverInfoEv
__ZNK15CMaterialSystem15GetNumMaterialsEv
__ZNK15CMaterialSystem15ImageFormatInfoE11ImageFormat
__ZNK15CMaterialSystem15InvalidMaterialEv
__ZNK15CMaterialSystem15IsTextureLoadedEPKc
__ZNK15CMaterialSystem15ShaderFlagCountEv
__ZNK15CMaterialSystem16GetLightmapWidthEi
__ZNK15CMaterialSystem16InFlashlightModeEv
__ZNK15CMaterialSystem17GetCurrentAdapterEv
__ZNK15CMaterialSystem17GetLightmapHeightEi
__ZNK15CMaterialSystem17GetRenderThreadIdEv
__ZNK15CMaterialSystem19GetBackBufferFormatEv
__ZNK15CMaterialSystem19GetLightmapPageSizeEiPiS0_
__ZNK15CMaterialSystem20GetDisplayDeviceNameEv
__ZNK15CMaterialSystem20MaxHWMorphBatchCountEv
__ZNK15CMaterialSystem21CanUseEditorMaterialsEv
__ZNK15CMaterialSystem21GetDisplayAdapterInfoEiR21MaterialAdapterInfo_t
__ZNK15CMaterialSystem22GetDisplayAdapterCountEv
__ZNK15CMaterialSystem22GetVideoCardIdentifierEv
__ZNK15CMaterialSystem23GetBackBufferDimensionsERiS0_
__ZNK15CMaterialSystem28GetCurrentConfigForVideoCardEv
__ZNK15CMaterialSystem9IsInFrameEv
__ZNK15CTCCombineStage20HasTeamSpecificsThisEv
__ZNK15CTCCombineStage22DoesTargetRenderTargetEv
__ZNK15CTCTextureStage20HasTeamSpecificsThisEv
__ZNK15CTCTextureStage22DoesTargetRenderTargetEv
__ZNK15CTextureManager23ThreadInAsyncLoadThreadEv
__ZNK15CTextureManager23ThreadInAsyncReadThreadEv
__ZNK15CTextureManager25HasPendingTextureDestroysEv
__ZNK15CUtlSymbolTable4FindEPKc
__ZNK15CUtlSymbolTable5CLessclERKNS_16CStringPoolIndexES3_
__ZNK15CUtlSymbolTable6StringE10CUtlSymbol
__ZNK16CMaterialSubRect11GetChangeIDEv
__ZNK16CMaterialSubRect11IsPrecachedEv
__ZNK16CMaterialSubRect11IsPreloadedEv
__ZNK16CMaterialSubRect12IsSuppressedEv
__ZNK16CMaterialSubRect13GetShaderNameEv
__ZNK16CMaterialSubRect14GetMorphFormatEv
__ZNK16CMaterialSubRect14GetVertexUsageEv
__ZNK16CMaterialSubRect15GetPreviewImageEPhii11ImageFormat
__ZNK16CMaterialSubRect15GetVertexFormatEv
__ZNK16CMaterialSubRect15IsErrorMaterialEv
__ZNK16CMaterialSubRect15IsPrecachedVarsEv
__ZNK16CMaterialSubRect15IsUsingVertexIDEv
__ZNK16CMaterialSubRect15NoDebugOverrideEv
__ZNK16CMaterialSubRect16GetEnumerationIDEv
__ZNK16CMaterialSubRect16ShaderParamCountEv
__ZNK16CMaterialSubRect17GetReferenceCountEv
__ZNK16CMaterialSubRect17IsManuallyCreatedEv
__ZNK16CMaterialSubRect17IsRealTimeVersionEv
__ZNK16CMaterialSubRect17PerformDebugTraceEv
__ZNK16CMaterialSubRect18GetMaterialVarFlagE18MaterialVarFlags_t
__ZNK16CMaterialSubRect19GetTextureGroupNameEv
__ZNK16CMaterialSubRect20GetLowResColorSampleEffPf
__ZNK16CMaterialSubRect20GetMaxLightmapPageIDEv
__ZNK16CMaterialSubRect20GetMinLightmapPageIDEv
__ZNK16CMaterialSubRect21GetNeedsWhiteLightmapEv
__ZNK16CMaterialSubRect21IsTranslucentInternalEf
__ZNK16CMaterialSubRect25GetPreviewImagePropertiesEPiS0_P11ImageFormatPb
__ZNK16CMaterialSubRect28NeedsFixedFunctionFlashlightEv
__ZNK16CMaterialSubRect6UseFogEv
__ZNK16CMaterialSubRect7GetNameEv
__ZNK16CMaterialSubRect8HasProxyEv
__ZNK16CMaterialSubRect9GetShaderEv
__ZNK16CThreadLocalBase3GetEv
__ZNK17CAsyncCopyRequest11GetRefCountEv
__ZNK17CDummyMaterialVar14GetStringValueEv
__ZNK17CDummyMaterialVar15GetNameAsSymbolEv
__ZNK17CDummyMaterialVar16MatrixIsIdentityEv
__ZNK17CDummyMaterialVar17GetLinearVecValueEPfi
__ZNK17CDummyMaterialVar18VectorSizeInternalEv
__ZNK17CDummyMaterialVar19GetIntValueInternalEv
__ZNK17CDummyMaterialVar19GetVecValueInternalEPfi
__ZNK17CDummyMaterialVar19GetVecValueInternalEv
__ZNK17CDummyMaterialVar21GetFloatValueInternalEv
__ZNK17CDummyMaterialVar7GetNameEv
__ZNK17CDummyMaterialVar7GetTypeEv
__ZNK17CDummyMaterialVar9IsDefinedEv
__ZNK17CMatRenderContext11GetViewportERiS0_S0_S0_
__ZNK17CMatRenderContext13GetWindowSizeERiS0_
__ZNK17CMatRenderContext16InFlashlightModeEv
__ZNK17CMatRenderContext17GetFlashlightModeEv
__ZNK17CMatRenderContext18GetCurrentNumBonesEv
__ZNK17CMatRenderContext24GetIntRenderingParameterEi
__ZNK17CMatRenderContext24GetNumActiveDeformationsEv
__ZNK17CMatRenderContext25GetRenderTargetDimensionsERiS0_
__ZNK17CMatRenderContext26GetFloatRenderingParameterEi
__ZNK17CMatRenderContext27GetVectorRenderingParameterEi
__ZNK17CUtlSymbolTableMT4FindEPKc
__ZNK17CUtlSymbolTableMT6StringE10CUtlSymbol
__ZNK18CTextureCompositor11GetRefCountEv
__ZNK18CTextureCompositor14GetTextureNameEPci
__ZNK18CTextureCompositor16GetResolveStatusEv
__ZNK18CTextureCompositor16GetResultTextureEv
__ZNK20CDummyHardwareConfig10GetHDRTypeEv
__ZNK20CDummyHardwareConfig10IsDX10CardEv
__ZNK20CDummyHardwareConfig11IsAAEnabledEv
__ZNK20CDummyHardwareConfig11SupportsHDREv
__ZNK20CDummyHardwareConfig12MaxNumLightsEv
__ZNK20CDummyHardwareConfig12MaxViewportsEv
__ZNK20CDummyHardwareConfig12NeedsAAClampEv
__ZNK20CDummyHardwareConfig12SupportsSRGBEv
__ZNK20CDummyHardwareConfig13FakeSRGBWriteEv
__ZNK20CDummyHardwareConfig13GetHDREnabledEv
__ZNK20CDummyHardwareConfig14HasFastZRejectEv
__ZNK20CDummyHardwareConfig14SupportsFetch4Ev
__ZNK20CDummyHardwareConfig14UseFastZRejectEv
__ZNK20CDummyHardwareConfig15GetSamplerCountEv
__ZNK20CDummyHardwareConfig15MaxTextureDepthEv
__ZNK20CDummyHardwareConfig15MaxTextureWidthEv
__ZNK20CDummyHardwareConfig15SupportsHDRModeE9HDRType_t
__ZNK20CDummyHardwareConfig15UseFastClippingEv
__ZNK20CDummyHardwareConfig16GetShaderDLLNameEv
__ZNK20CDummyHardwareConfig16HasStencilBufferEv
__ZNK20CDummyHardwareConfig16MaxBlendMatricesEv
__ZNK20CDummyHardwareConfig16MaxTextureHeightEv
__ZNK20CDummyHardwareConfig16SupportsCubeMapsEv
__ZNK20CDummyHardwareConfig17GetDXSupportLevelEv
__ZNK20CDummyHardwareConfig17MaxUserClipPlanesEv
__ZNK20CDummyHardwareConfig17StencilBufferBitsEv
__ZNK20CDummyHardwareConfig17TextureMemorySizeEv
__ZNK20CDummyHardwareConfig18GetHardwareHDRTypeEv
__ZNK20CDummyHardwareConfig18HasDestAlphaBufferEv
__ZNK20CDummyHardwareConfig18SupportsOverbrightEv
__ZNK20CDummyHardwareConfig19GetShadowFilterModeEv
__ZNK20CDummyHardwareConfig19HasProjectedBumpEnvEv
__ZNK20CDummyHardwareConfig19SupportsBorderColorEv
__ZNK20CDummyHardwareConfig20CanDoSRGBReadFromRTsEv
__ZNK20CDummyHardwareConfig20GetMaxDXSupportLevelEv
__ZNK20CDummyHardwareConfig20GetTextureStageCountEv
__ZNK20CDummyHardwareConfig20MaxHWMorphBatchCountEv
__ZNK20CDummyHardwareConfig20NeedsATICentroidHackEv
__ZNK20CDummyHardwareConfig20SupportsStreamOffsetEv
__ZNK20CDummyHardwareConfig21GetVertexTextureCountEv
__ZNK20CDummyHardwareConfig21HasFastVertexTexturesEv
__ZNK20CDummyHardwareConfig21HasSetDeviceGammaRampEv
__ZNK20CDummyHardwareConfig21MaxBlendMatrixIndicesEv
__ZNK20CDummyHardwareConfig21MaxTextureAspectRatioEv
__ZNK20CDummyHardwareConfig21PreferDynamicTexturesEv
__ZNK20CDummyHardwareConfig21PreferReducedFillrateEv
__ZNK20CDummyHardwareConfig21SupportsSpheremappingEv
__ZNK20CDummyHardwareConfig23MaximumAnisotropicLevelEv
__ZNK20CDummyHardwareConfig23NumPixelShaderConstantsEv
__ZNK20CDummyHardwareConfig23SupportsNonPow2TexturesEv
__ZNK20CDummyHardwareConfig23SupportsShaderModel_3_0Ev
__ZNK20CDummyHardwareConfig23UsesSRGBCorrectBlendingEv
__ZNK20CDummyHardwareConfig24GetFrameBufferColorDepthEv
__ZNK20CDummyHardwareConfig24NumVertexShaderConstantsEv
__ZNK20CDummyHardwareConfig24SupportsHardwareLightingEv
__ZNK20CDummyHardwareConfig24SupportsPixelShaders_1_4Ev
__ZNK20CDummyHardwareConfig24SupportsPixelShaders_2_0Ev
__ZNK20CDummyHardwareConfig24SupportsPixelShaders_2_bEv
__ZNK20CDummyHardwareConfig25NeedsShaderSRGBConversionEv
__ZNK20CDummyHardwareConfig25ReadPixelsFromFrontBufferEv
__ZNK20CDummyHardwareConfig25SupportsMipmappedCubemapsEv
__ZNK20CDummyHardwareConfig25SupportsStaticControlFlowEv
__ZNK20CDummyHardwareConfig25SupportsVertexShaders_2_0Ev
__ZNK20CDummyHardwareConfig26CanStretchRectFromTexturesEv
__ZNK20CDummyHardwareConfig26SupportsCompressedTexturesEv
__ZNK20CDummyHardwareConfig26SupportsCompressedVerticesEv
__ZNK20CDummyHardwareConfig26SupportsGLMixedSizeTargetsEv
__ZNK20CDummyHardwareConfig27SupportsColorOnSecondStreamEv
__ZNK20CDummyHardwareConfig28GetMaxVertexTextureDimensionEv
__ZNK20CDummyHardwareConfig28MaxVertexShaderBlendMatricesEv
__ZNK20CDummyHardwareConfig29SupportsVertexAndPixelShadersEv
__ZNK20CDummyHardwareConfig30SpecifiesFogColorInLinearSpaceEv
__ZNK20CDummyHardwareConfig31NumBooleanVertexShaderConstantsEv
__ZNK20CDummyHardwareConfig31NumIntegerVertexShaderConstantsEv
__ZNK20CDummyHardwareConfig32ActuallySupportsPixelShaders_2_bEv
__ZNK20CDummyHardwareConfig33SupportsStaticPlusDynamicLightingEv
__ZNK20CDummyMaterialSystem10GetShadersEiiPP7IShader
__ZNK20CDummyMaterialSystem11GetMaterialEt
__ZNK20CDummyMaterialSystem11GetModeInfoEiiR19MaterialVideoMode_t
__ZNK20CDummyMaterialSystem11GetViewportERiS0_S0_S0_
__ZNK20CDummyMaterialSystem11ShaderCountEv
__ZNK20CDummyMaterialSystem12GetModeCountEi
__ZNK20CDummyMaterialSystem12IsRenderDataEPKv
__ZNK20CDummyMaterialSystem12NextMaterialEt
__ZNK20CDummyMaterialSystem13FirstMaterialEv
__ZNK20CDummyMaterialSystem13GetNumShadersEv
__ZNK20CDummyMaterialSystem13GetShaderNameEi
__ZNK20CDummyMaterialSystem13GetWindowSizeERiS0_
__ZNK20CDummyMaterialSystem14GetDisplayModeER19MaterialVideoMode_t
__ZNK20CDummyMaterialSystem14ShaderFlagNameEi
__ZNK20CDummyMaterialSystem14SpewDriverInfoEv
__ZNK20CDummyMaterialSystem15GetNumMaterialsEv
__ZNK20CDummyMaterialSystem15InvalidMaterialEv
__ZNK20CDummyMaterialSystem15IsTextureLoadedEPKc
__ZNK20CDummyMaterialSystem15ShaderFlagCountEv
__ZNK20CDummyMaterialSystem16InFlashlightModeEv
__ZNK20CDummyMaterialSystem17GetCurrentAdapterEv
__ZNK20CDummyMaterialSystem17GetFlashlightModeEv
__ZNK20CDummyMaterialSystem18GetCurrentNumBonesEv
__ZNK20CDummyMaterialSystem18GetNumShaderParamsEi
__ZNK20CDummyMaterialSystem18GetShaderParamHelpEii
__ZNK20CDummyMaterialSystem18GetShaderParamNameEii
__ZNK20CDummyMaterialSystem18GetShaderParamTypeEii
__ZNK20CDummyMaterialSystem19GetBackBufferFormatEv
__ZNK20CDummyMaterialSystem19GetLightmapPageSizeEiPiS0_
__ZNK20CDummyMaterialSystem20GetDisplayDeviceNameEv
__ZNK20CDummyMaterialSystem21GetDisplayAdapterInfoEiR21MaterialAdapterInfo_t
__ZNK20CDummyMaterialSystem21GetShaderParamDefaultEii
__ZNK20CDummyMaterialSystem22GetDisplayAdapterCountEv
__ZNK20CDummyMaterialSystem22GetVideoCardIdentifierEv
__ZNK20CDummyMaterialSystem23GetBackBufferDimensionsERiS0_
__ZNK20CDummyMaterialSystem24GetNumActiveDeformationsEv
__ZNK20CDummyMaterialSystem25GetRenderTargetDimensionsERiS0_
__ZNK20CDummyMaterialSystem28GetCurrentConfigForVideoCardEv
__ZNK20CDummyMaterialSystem9IsInFrameEv
__ZNK20CTCApplyStickerStage20HasTeamSpecificsThisEv
__ZNK20CTCApplyStickerStage22DoesTargetRenderTargetEv
__ZNK20CTextureStreamingJob11GetRefCountEv
__ZNK21CMatNullRenderContext11GetViewportERiS0_S0_S0_
__ZNK21CMatNullRenderContext13GetWindowSizeERiS0_
__ZNK21CMatNullRenderContext16InFlashlightModeEv
__ZNK21CMatNullRenderContext17GetFlashlightModeEv
__ZNK21CMatNullRenderContext18GetCurrentNumBonesEv
__ZNK21CMatNullRenderContext24GetIntRenderingParameterEi
__ZNK21CMatNullRenderContext24GetNumActiveDeformationsEv
__ZNK21CMatNullRenderContext25GetRenderTargetDimensionsERiS0_
__ZNK21CMatNullRenderContext26GetFloatRenderingParameterEi
__ZNK21CMatNullRenderContext27GetVectorRenderingParameterEi
__ZNK21CMatRenderContextBase12IsRenderDataEPKv
__ZNK21CMatRenderContextBase18RenderDataSizeUsedEv
__ZNK21CMatRenderContextBase26GetCurrentMaterialInternalEv
__ZNK23CMatQueuedRenderContext11GetViewportERiS0_S0_S0_
__ZNK23CMatQueuedRenderContext13GetWindowSizeERiS0_
__ZNK23CMatQueuedRenderContext16InFlashlightModeEv
__ZNK23CMatQueuedRenderContext17GetFlashlightModeEv
__ZNK23CMatQueuedRenderContext18GetCurrentNumBonesEv
__ZNK23CMatQueuedRenderContext24GetIntRenderingParameterEi
__ZNK23CMatQueuedRenderContext24GetNumActiveDeformationsEv
__ZNK23CMatQueuedRenderContext25GetRenderTargetDimensionsERiS0_
__ZNK23CMatQueuedRenderContext26GetFloatRenderingParameterEi
__ZNK23CMatQueuedRenderContext27GetVectorRenderingParameterEi
__ZNK23CMaterial_QueueFriendly11GetChangeIDEv
__ZNK23CMaterial_QueueFriendly11IsPrecachedEv
__ZNK23CMaterial_QueueFriendly11IsPreloadedEv
__ZNK23CMaterial_QueueFriendly12IsSuppressedEv
__ZNK23CMaterial_QueueFriendly13GetShaderNameEv
__ZNK23CMaterial_QueueFriendly14GetMorphFormatEv
__ZNK23CMaterial_QueueFriendly14GetVertexUsageEv
__ZNK23CMaterial_QueueFriendly15GetPreviewImageEPhii11ImageFormat
__ZNK23CMaterial_QueueFriendly15GetVertexFormatEv
__ZNK23CMaterial_QueueFriendly15IsErrorMaterialEv
__ZNK23CMaterial_QueueFriendly15IsPrecachedVarsEv
__ZNK23CMaterial_QueueFriendly15IsUsingVertexIDEv
__ZNK23CMaterial_QueueFriendly15NoDebugOverrideEv
__ZNK23CMaterial_QueueFriendly16GetEnumerationIDEv
__ZNK23CMaterial_QueueFriendly16ShaderParamCountEv
__ZNK23CMaterial_QueueFriendly17GetReferenceCountEv
__ZNK23CMaterial_QueueFriendly17IsManuallyCreatedEv
__ZNK23CMaterial_QueueFriendly17IsRealTimeVersionEv
__ZNK23CMaterial_QueueFriendly17PerformDebugTraceEv
__ZNK23CMaterial_QueueFriendly18GetMaterialVarFlagE18MaterialVarFlags_t
__ZNK23CMaterial_QueueFriendly19GetTextureGroupNameEv
__ZNK23CMaterial_QueueFriendly20GetLowResColorSampleEffPf
__ZNK23CMaterial_QueueFriendly20GetMaxLightmapPageIDEv
__ZNK23CMaterial_QueueFriendly20GetMinLightmapPageIDEv
__ZNK23CMaterial_QueueFriendly21GetNeedsWhiteLightmapEv
__ZNK23CMaterial_QueueFriendly21IsTranslucentInternalEf
__ZNK23CMaterial_QueueFriendly25GetPreviewImagePropertiesEPiS0_P11ImageFormatPb
__ZNK23CMaterial_QueueFriendly28NeedsFixedFunctionFlashlightEv
__ZNK23CMaterial_QueueFriendly6UseFogEv
__ZNK23CMaterial_QueueFriendly7GetNameEv
__ZNK23CMaterial_QueueFriendly8HasProxyEv
__ZNK23CMaterial_QueueFriendly9GetShaderEv
__ZNK25CReferenceToHandleTexture11IsMipmappedEv
__ZNK25CReferenceToHandleTexture11IsNormalMapEv
__ZNK25CReferenceToHandleTexture11IsPreloadedEv
__ZNK25CReferenceToHandleTexture12IsProceduralEv
__ZNK25CReferenceToHandleTexture13IsTranslucentEv
__ZNK25CReferenceToHandleTexture14GetActualDepthEv
__ZNK25CReferenceToHandleTexture14GetActualWidthEv
__ZNK25CReferenceToHandleTexture14GetImageFormatEv
__ZNK25CReferenceToHandleTexture14IsRenderTargetEv
__ZNK25CReferenceToHandleTexture15GetActualHeightEv
__ZNK25CReferenceToHandleTexture15GetMappingDepthEv
__ZNK25CReferenceToHandleTexture15GetMappingWidthEv
__ZNK25CReferenceToHandleTexture15GetResourceDataEjPm
__ZNK25CReferenceToHandleTexture15IsVolumeTextureEv
__ZNK25CReferenceToHandleTexture16GetMappingHeightEv
__ZNK25CReferenceToHandleTexture18GetTargetResidenceEv
__ZNK25CReferenceToHandleTexture18IsTempRenderTargetEv
__ZNK25CReferenceToHandleTexture19GetCurrentResidenceEv
__ZNK25CReferenceToHandleTexture19GetNormalDecodeModeEv
__ZNK25CReferenceToHandleTexture20GetLowResColorSampleEffPf
__ZNK25CReferenceToHandleTexture21GetNumAnimationFramesEv
__ZNK25CReferenceToHandleTexture25GetApproximateVidMemBytesEv
__ZNK25CReferenceToHandleTexture7GetNameEv
__ZNK25CReferenceToHandleTexture7IsErrorEv
__ZNK25CReferenceToHandleTexture8GetFlagsEv
__ZNK25CReferenceToHandleTexture9IsCubeMapEv
__ZNK26CTextureCompositorTemplate19ResolveDependenciesEv
__ZNK29IMaterialSystemHardwareConfig28SupportsNormalMapCompressionEv
__ZNK6CMorph14GetMorphFormatEv
__ZNK6CMorph30ComputeMorphTextureSizeInBytesEv
__ZNK6ConVar11GetHelpTextEv
__ZNK6ConVar12IsRegisteredEv
__ZNK6ConVar7GetNameEv
__ZNK6ConVar9IsCommandEv
__ZNK6ConVar9IsFlagSetEi
__ZNK7VMatrix9MatrixMulERKS_RS_
__ZNK7VMatrixmlERKS_
__ZNK8CTCStage11GetRefCountEv
__ZNK8CTCStage16HasTeamSpecificsEv
__ZNK8CTexture11IsMipmappedEv
__ZNK8CTexture11IsNormalMapEv
__ZNK8CTexture11IsPreloadedEv
__ZNK8CTexture12IsProceduralEv
__ZNK8CTexture13GetFileHandleEPPvPcPS2_
__ZNK8CTexture13IsTranslucentEv
__ZNK8CTexture14GetActualDepthEv
__ZNK8CTexture14GetActualWidthEv
__ZNK8CTexture14GetImageFormatEv
__ZNK8CTexture14IsRenderTargetEv
__ZNK8CTexture15GetActualHeightEv
__ZNK8CTexture15GetMappingDepthEv
__ZNK8CTexture15GetMappingWidthEv
__ZNK8CTexture15GetResourceDataEjPm
__ZNK8CTexture15IsVolumeTextureEv
__ZNK8CTexture16GetCacheFilenameEPci
__ZNK8CTexture16GetMappingHeightEv
__ZNK8CTexture18GetTargetResidenceEv
__ZNK8CTexture18IsTempRenderTargetEv
__ZNK8CTexture19GetCurrentResidenceEv
__ZNK8CTexture19GetNormalDecodeModeEv
__ZNK8CTexture20GetLowResColorSampleEffPf
__ZNK8CTexture21GetNumAnimationFramesEv
__ZNK8CTexture25GetApproximateVidMemBytesEv
__ZNK8CTexture7GetNameEv
__ZNK8CTexture7IsErrorEv
__ZNK8CTexture8GetFlagsEv
__ZNK8CTexture9IsCubeMapEv
__ZNK9CMaterial11GetChangeIDEv
__ZNK9CMaterial11IsPrecachedEv
__ZNK9CMaterial11IsPreloadedEv
__ZNK9CMaterial12IsSuppressedEv
__ZNK9CMaterial13GetShaderNameEv
__ZNK9CMaterial14GetMorphFormatEv
__ZNK9CMaterial14GetVertexUsageEv
__ZNK9CMaterial15GetPreviewImageEPhii11ImageFormat
__ZNK9CMaterial15GetVertexFormatEv
__ZNK9CMaterial15IsErrorMaterialEv
__ZNK9CMaterial15IsPrecachedVarsEv
__ZNK9CMaterial15IsUsingVertexIDEv
__ZNK9CMaterial15NoDebugOverrideEv
__ZNK9CMaterial16GetEnumerationIDEv
__ZNK9CMaterial16ShaderParamCountEv
__ZNK9CMaterial17GetReferenceCountEv
__ZNK9CMaterial17IsManuallyCreatedEv
__ZNK9CMaterial17IsRealTimeVersionEv
__ZNK9CMaterial17PerformDebugTraceEv
__ZNK9CMaterial18GetMaterialVarFlagE18MaterialVarFlags_t
__ZNK9CMaterial19FindMaterialVarFlagEPKc
__ZNK9CMaterial19GetTextureGroupNameEv
__ZNK9CMaterial20GetLowResColorSampleEffPf
__ZNK9CMaterial20GetMaxLightmapPageIDEv
__ZNK9CMaterial20GetMinLightmapPageIDEv
__ZNK9CMaterial21GetNeedsWhiteLightmapEv
__ZNK9CMaterial21IsTranslucentInternalEf
__ZNK9CMaterial23GetPreviewImageFileNameEv
__ZNK9CMaterial25GetPreviewImagePropertiesEPiS0_P11ImageFormatPb
__ZNK9CMaterial28NeedsFixedFunctionFlashlightEv
__ZNK9CMaterial6UseFogEv
__ZNK9CMaterial7GetNameEv
__ZNK9CMaterial8HasProxyEv
__ZNK9CMaterial9GetShaderEv
__ZNK9CMorphMgr19GetTotalMemoryUsageEv
__ZNK9CMorphMgr20MaxHWMorphBatchCountEv
__ZNK9ConVarRef7IsValidEv
__ZNK9KeyValues7GetNameEv
__ZNK9KeyValues8MakeCopyEv
__ZNV16CThreadFastMutex4LockEjj
__ZSt9terminatev
__ZTI10CDummyMesh
__ZTI10CShaderDLL
__ZTI10CUtlVectorI14AsyncLoadJob_t10CUtlMemoryIS0_iEE
__ZTI10CUtlVectorI9Sticker_t10CUtlMemoryIS0_iEE
__ZTI10CUtlVectorIi10CUtlMemoryIiiEE
__ZTI10ConCommand
__ZTI10IAppSystem
__ZTI10ICallQueue
__ZTI10IShaderDLL
__ZTI11CDummyMorph
__ZTI11CFunctorJob
__ZTI11CVTFTexture
__ZTI11IRefCounted
__ZTI11IShaderInit
__ZTI11IShaderUtil
__ZTI11IVTFTexture
__ZTI12CEmptyConVar
__ZTI12CMaterialVar
__ZTI12CRefCounted1I11IRefCounted20CRefCountServiceBaseILb1E6CRefMTEE
__ZTI12CRefCounted1I17IMatRenderContext20CRefCountServiceNullE
__ZTI12CRefCounted1I25IMatRenderContextInternal20CRefCountServiceBaseILb1E6CRefMTEE
__ZTI12CRefCounted1I8CFunctor20CRefCountServiceBaseILb1E6CRefMTEE
__ZTI12CRefCounted1I8CFunctor24CRefCountServiceDestructI6CRefSTEE
__ZTI12CTCCopyStage
__ZTI12IIndexBuffer
__ZTI12IMaterialVar
__ZTI13CDummyTexture
__ZTI13CShaderSystem
__ZTI13CSolidTexture
__ZTI13IShaderSystem
__ZTI13IVertexBuffer
__ZTI13base_vector_t
__ZTI14CBaseAppSystemI23IMaterialSystemInternalE
__ZTI14CDummyMaterial
__ZTI14CMatQueuedMesh
__ZTI14CTCSelectStage
__ZTI14CThreadAcquire
__ZTI14CThreadRelease
__ZTI14ConCommandBase
__ZTI14IMaterialProxy
__ZTI14IMorphInternal
__ZTI15CAsyncMapResult
__ZTI15CMaterialSystem
__ZTI15CMemberFunctor0I13CLateBoundPtrI5IMeshEMS1_FvvE12CRefCounted1I8CFunctor24CRefCountServiceDestructI6CRefSTEE18CFuncMemPolicyNoneE
__ZTI15CMemberFunctor0IP10IShaderAPIMS0_FvvE12CRefCounted1I8CFunctor24CRefCountServiceDestructI6CRefSTEE18CFuncMemPolicyNoneE
__ZTI15CMemberFunctor0IP12CMaterialVarMS0_FvvE12CRefCounted1I8CFunctor24CRefCountServiceDestructI6CRefSTEE18CFuncMemPolicyNoneE
__ZTI15CMemberFunctor0IP13CMatLightmapsMS0_FvvE12CRefCounted1I8CFunctor24CRefCountServiceDestructI6CRefSTEE18CFuncMemPolicyNoneE
__ZTI15CMemberFunctor0IP17IMaterialInternalM9IMaterialFvvE12CRefCounted1I8CFunctor20CRefCountServiceBaseILb1E6CRefMTEE18CFuncMemPolicyNoneE
__ZTI15CMemberFunctor0IP21CMatRenderContextBaseM17IMatRenderContextFvvE12CRefCounted1I8CFunctor24CRefCountServiceDestructI6CRefSTEE18CFuncMemPolicyNoneE
__ZTI15CMemberFunctor0IP21CMatRenderContextBaseM25IMatRenderContextInternalFvvE12CRefCounted1I8CFunctor24CRefCountServiceDestructI6CRefSTEE18CFuncMemPolicyNoneE
__ZTI15CMemberFunctor0IP22IColorCorrectionSystemMS0_FvvE12CRefCounted1I8CFunctor24CRefCountServiceDestructI6CRefSTEE18CFuncMemPolicyNoneE
__ZTI15CMemberFunctor0IP9CMaterialMS0_FvvE12CRefCounted1I8CFunctor24CRefCountServiceDestructI6CRefSTEE18CFuncMemPolicyNoneE
__ZTI15CMemberFunctor1I13CLateBoundPtrI5IMeshEMS1_Fv23MaterialPrimitiveType_tES3_12CRefCounted1I8CFunctor24CRefCountServiceDestructI6CRefSTEE18CFuncMemPolicyNoneE
__ZTI15CMemberFunctor1IP12CMaterialVarMS0_FvP12IMaterialVarES3_12CRefCounted1I8CFunctor24CRefCountServiceDestructI6CRefSTEE18CFuncMemPolicyNoneE
__ZTI15CMemberFunctor1IP12CMaterialVarMS0_FvP8ITextureES3_12CRefCounted1I8CFunctor24CRefCountServiceDestructI6CRefSTEE18CFuncMemPolicyNoneE
__ZTI15CMemberFunctor1IP12CMaterialVarMS0_FvP9IMaterialES3_12CRefCounted1I8CFunctor24CRefCountServiceDestructI6CRefSTEE18CFuncMemPolicyNoneE
__ZTI15CMemberFunctor1IP12CMaterialVarMS0_FvPKcE12CUtlEnvelopeIS3_E12CRefCounted1I8CFunctor24CRefCountServiceDestructI6CRefSTEE18CFuncMemPolicyNoneE
__ZTI15CMemberFunctor1IP12CMaterialVarMS0_FvRK7VMatrixES2_12CRefCounted1I8CFunctor24CRefCountServiceDestructI6CRefSTEE18CFuncMemPolicyNoneE
__ZTI15CMemberFunctor1IP12CMaterialVarMS0_FvfEf12CRefCounted1I8CFunctor24CRefCountServiceDestructI6CRefSTEE18CFuncMemPolicyNoneE
__ZTI15CMemberFunctor1IP12CMaterialVarMS0_FviEi12CRefCounted1I8CFunctor24CRefCountServiceDestructI6CRefSTEE18CFuncMemPolicyNoneE
__ZTI15CMemberFunctor1IP15CMaterialSystemMS0_FvP23CMatQueuedRenderContextES3_12CRefCounted1I8CFunctor20CRefCountServiceBaseILb1E6CRefMTEE18CFuncMemPolicyNoneE
__ZTI15CMemberFunctor1IP17IMaterialInternalM9IMaterialFvbEb12CRefCounted1I8CFunctor20CRefCountServiceBaseILb1E6CRefMTEE18CFuncMemPolicyNoneE
__ZTI15CMemberFunctor1IP17IMaterialInternalM9IMaterialFvfEf12CRefCounted1I8CFunctor20CRefCountServiceBaseILb1E6CRefMTEE18CFuncMemPolicyNoneE
__ZTI15CMemberFunctor1IP18COcclusionQueryMgrMS0_FvP30OcclusionQueryObjectHandle_t__ES3_12CRefCounted1I8CFunctor24CRefCountServiceDestructI6CRefSTEE18CFuncMemPolicyNoneE
__ZTI15CMemberFunctor1IP21CMatRenderContextBaseM17IMatRenderContextFbbEb12CRefCounted1I8CFunctor24CRefCountServiceDestructI6CRefSTEE18CFuncMemPolicyNoneE
__ZTI15CMemberFunctor1IP21CMatRenderContextBaseM17IMatRenderContextFv17MaterialFogMode_tES3_12CRefCounted1I8CFunctor24CRefCountServiceDestructI6CRefSTEE18CFuncMemPolicyNoneE
__ZTI15CMemberFunctor1IP21CMatRenderContextBaseM17IMatRenderContextFv18MaterialCullMode_tES3_12CRefCounted1I8CFunctor24CRefCountServiceDestructI6CRefSTEE18CFuncMemPolicyNoneE
__ZTI15CMemberFunctor1IP21CMatRenderContextBaseM17IMatRenderContextFv18StencilOperation_tES3_12CRefCounted1I8CFunctor24CRefCountServiceDestructI6CRefSTEE18CFuncMemPolicyNoneE
__ZTI15CMemberFunctor1IP21CMatRenderContextBaseM17IMatRenderContextFv20MaterialMatrixMode_tES3_12CRefCounted1I8CFunctor24CRefCountServiceDestructI6CRefSTEE18CFuncMemPolicyNoneE
__ZTI15CMemberFunctor1IP21CMatRenderContextBaseM17IMatRenderContextFv24MaterialHeightClipMode_tES3_12CRefCounted1I8CFunctor24CRefCountServiceDestructI6CRefSTEE18CFuncMemPolicyNoneE
__ZTI15CMemberFunctor1IP21CMatRenderContextBaseM17IMatRenderContextFv27StencilComparisonFunction_tES3_12CRefCounted1I8CFunctor24CRefCountServiceDestructI6CRefSTEE18CFuncMemPolicyNoneE
__ZTI15CMemberFunctor1IP21CMatRenderContextBaseM17IMatRenderContextFv28MaterialNonInteractiveMode_tES3_12CRefCounted1I8CFunctor24CRefCountServiceDestructI6CRefSTEE18CFuncMemPolicyNoneE
__ZTI15CMemberFunctor1IP21CMatRenderContextBaseM17IMatRenderContextFv6VectorES3_12CRefCounted1I8CFunctor24CRefCountServiceDestructI6CRefSTEE18CFuncMemPolicyNoneE
__ZTI15CMemberFunctor1IP21CMatRenderContextBaseM17IMatRenderContextFvP30OcclusionQueryObjectHandle_t__ES4_12CRefCounted1I8CFunctor24CRefCountServiceDestructI6CRefSTEE18CFuncMemPolicyNoneE
__ZTI15CMemberFunctor1IP21CMatRenderContextBaseM17IMatRenderContextFvP5IMeshES4_12CRefCounted1I8CFunctor24CRefCountServiceDestructI6CRefSTEE18CFuncMemPolicyNoneE
__ZTI15CMemberFunctor1IP21CMatRenderContextBaseM17IMatRenderContextFvP6IMorphES4_12CRefCounted1I8CFunctor24CRefCountServiceDestructI6CRefSTEE18CFuncMemPolicyNoneE
__ZTI15CMemberFunctor1IP21CMatRenderContextBaseM17IMatRenderContextFvP8ITextureES4_12CRefCounted1I8CFunctor24CRefCountServiceDestructI6CRefSTEE18CFuncMemPolicyNoneE
__ZTI15CMemberFunctor1IP21CMatRenderContextBaseM17IMatRenderContextFvP8Vector4DE12CUtlEnvelopeIS3_E12CRefCounted1I8CFunctor24CRefCountServiceDestructI6CRefSTEE18CFuncMemPolicyNoneE
__ZTI15CMemberFunctor1IP21CMatRenderContextBaseM17IMatRenderContextFvP9IMaterialES4_12CRefCounted1I8CFunctor24CRefCountServiceDestructI6CRefSTEE18CFuncMemPolicyNoneE
__ZTI15CMemberFunctor1IP21CMatRenderContextBaseM17IMatRenderContextFvPKcE12CUtlEnvelopeIS4_E12CRefCounted1I8CFunctor24CRefCountServiceDestructI6CRefSTEE18CFuncMemPolicyNoneE
__ZTI15CMemberFunctor1IP21CMatRenderContextBaseM17IMatRenderContextFvPKfE12CUtlEnvelopeIfE12CRefCounted1I8CFunctor24CRefCountServiceDestructI6CRefSTEE18CFuncMemPolicyNoneE
__ZTI15CMemberFunctor1IP21CMatRenderContextBaseM17IMatRenderContextFvRK6VectorES3_12CRefCounted1I8CFunctor24CRefCountServiceDestructI6CRefSTEE18CFuncMemPolicyNoneE
__ZTI15CMemberFunctor1IP21CMatRenderContextBaseM17IMatRenderContextFvRK7VMatrixES3_12CRefCounted1I8CFunctor24CRefCountServiceDestructI6CRefSTEE18CFuncMemPolicyNoneE
__ZTI15CMemberFunctor1IP21CMatRenderContextBaseM17IMatRenderContextFvbEb12CRefCounted1I8CFunctor24CRefCountServiceDestructI6CRefSTEE18CFuncMemPolicyNoneE
__ZTI15CMemberFunctor1IP21CMatRenderContextBaseM17IMatRenderContextFvfEf12CRefCounted1I8CFunctor24CRefCountServiceDestructI6CRefSTEE18CFuncMemPolicyNoneE
__ZTI15CMemberFunctor1IP21CMatRenderContextBaseM17IMatRenderContextFviEi12CRefCounted1I8CFunctor24CRefCountServiceDestructI6CRefSTEE18CFuncMemPolicyNoneE
__ZTI15CMemberFunctor1IP21CMatRenderContextBaseM17IMatRenderContextFvjEj12CRefCounted1I8CFunctor24CRefCountServiceDestructI6CRefSTEE18CFuncMemPolicyNoneE
__ZTI15CMemberFunctor1IP21CMatRenderContextBaseM25IMatRenderContextInternalFvP16ITextureInternalES4_12CRefCounted1I8CFunctor24CRefCountServiceDestructI6CRefSTEE18CFuncMemPolicyNoneE
__ZTI15CMemberFunctor1IP21CMatRenderContextBaseM25IMatRenderContextInternalFvP17IMaterialInternalES4_12CRefCounted1I8CFunctor24CRefCountServiceDestructI6CRefSTEE18CFuncMemPolicyNoneE
__ZTI15CMemberFunctor1IP21CMatRenderContextBaseM25IMatRenderContextInternalFvPvES3_12CRefCounted1I8CFunctor24CRefCountServiceDestructI6CRefSTEE18CFuncMemPolicyNoneE
__ZTI15CMemberFunctor1IP21CMatRenderContextBaseM25IMatRenderContextInternalFvfEf12CRefCounted1I8CFunctor24CRefCountServiceDestructI6CRefSTEE18CFuncMemPolicyNoneE
__ZTI15CMemberFunctor1IP22IColorCorrectionSystemMS0_FvbEb12CRefCounted1I8CFunctor24CRefCountServiceDestructI6CRefSTEE18CFuncMemPolicyNoneE
__ZTI15CMemberFunctor1IP5IMeshMS0_Fv23MaterialPrimitiveType_tES2_12CRefCounted1I8CFunctor24CRefCountServiceDestructI6CRefSTEE18CFuncMemPolicyNoneE
__ZTI15CMemberFunctor1IP8CTextureMS0_FvP8ITextureES3_12CRefCounted1I8CFunctor20CRefCountServiceBaseILb1E6CRefMTEE18CFuncMemPolicyNoneE
__ZTI15CMemberFunctor2I13CLateBoundPtrI5IMeshEMS1_FvPS1_iES3_i12CRefCounted1I8CFunctor24CRefCountServiceDestructI6CRefSTEE18CFuncMemPolicyNoneE
__ZTI15CMemberFunctor2I13CLateBoundPtrI5IMeshEMS1_FviiEii12CRefCounted1I8CFunctor24CRefCountServiceDestructI6CRefSTEE18CFuncMemPolicyNoneE
__ZTI15CMemberFunctor2IP12CMaterialVarMS0_FvRK8Vector4DiES2_i12CRefCounted1I8CFunctor24CRefCountServiceDestructI6CRefSTEE18CFuncMemPolicyNoneE
__ZTI15CMemberFunctor2IP12CMaterialVarMS0_FvfiEfi12CRefCounted1I8CFunctor24CRefCountServiceDestructI6CRefSTEE18CFuncMemPolicyNoneE
__ZTI15CMemberFunctor2IP12CMaterialVarMS0_FvmPvEmS2_12CRefCounted1I8CFunctor24CRefCountServiceDestructI6CRefSTEE18CFuncMemPolicyNoneE
__ZTI15CMemberFunctor2IP17IMaterialInternalM9IMaterialFv18MaterialVarFlags_tbES3_b12CRefCounted1I8CFunctor20CRefCountServiceBaseILb1E6CRefMTEE18CFuncMemPolicyNoneE
__ZTI15CMemberFunctor2IP21CMatRenderContextBaseM17IMatRenderContextFvP5IMeshP9IMaterialES4_S6_12CRefCounted1I8CFunctor24CRefCountServiceDestructI6CRefSTEE18CFuncMemPolicyNoneE
__ZTI15CMemberFunctor2IP21CMatRenderContextBaseM17IMatRenderContextFvP8ITexture28MaterialNonInteractiveMode_tES4_S5_12CRefCounted1I8CFunctor24CRefCountServiceDestructI6CRefSTEE18CFuncMemPolicyNoneE
__ZTI15CMemberFunctor2IP21CMatRenderContextBaseM17IMatRenderContextFvP8ITextureiES4_i12CRefCounted1I8CFunctor24CRefCountServiceDestructI6CRefSTEE18CFuncMemPolicyNoneE
__ZTI15CMemberFunctor2IP21CMatRenderContextBaseM17IMatRenderContextFvP9IMaterialPvES4_S5_12CRefCounted1I8CFunctor24CRefCountServiceDestructI6CRefSTEE18CFuncMemPolicyNoneE
__ZTI15CMemberFunctor2IP21CMatRenderContextBaseM17IMatRenderContextFvRK17FlashlightState_tRK7VMatrixES3_S6_12CRefCounted1I8CFunctor24CRefCountServiceDestructI6CRefSTEE18CFuncMemPolicyNoneE
__ZTI15CMemberFunctor2IP21CMatRenderContextBaseM17IMatRenderContextFvbbEbb12CRefCounted1I8CFunctor24CRefCountServiceDestructI6CRefSTEE18CFuncMemPolicyNoneE
__ZTI15CMemberFunctor2IP21CMatRenderContextBaseM17IMatRenderContextFvffEff12CRefCounted1I8CFunctor24CRefCountServiceDestructI6CRefSTEE18CFuncMemPolicyNoneE
__ZTI15CMemberFunctor2IP21CMatRenderContextBaseM17IMatRenderContextFviP8ITextureEiS4_12CRefCounted1I8CFunctor24CRefCountServiceDestructI6CRefSTEE18CFuncMemPolicyNoneE
__ZTI15CMemberFunctor2IP21CMatRenderContextBaseM17IMatRenderContextFviRK11LightDesc_tEiS3_12CRefCounted1I8CFunctor24CRefCountServiceDestructI6CRefSTEE18CFuncMemPolicyNoneE
__ZTI15CMemberFunctor2IP21CMatRenderContextBaseM17IMatRenderContextFviRK11matrix3x4_tEiS3_12CRefCounted1I8CFunctor24CRefCountServiceDestructI6CRefSTEE18CFuncMemPolicyNoneE
__ZTI15CMemberFunctor2IP21CMatRenderContextBaseM17IMatRenderContextFviRK6VectorEiS3_12CRefCounted1I8CFunctor24CRefCountServiceDestructI6CRefSTEE18CFuncMemPolicyNoneE
__ZTI15CMemberFunctor2IP21CMatRenderContextBaseM17IMatRenderContextFvifEif12CRefCounted1I8CFunctor24CRefCountServiceDestructI6CRefSTEE18CFuncMemPolicyNoneE
__ZTI15CMemberFunctor2IP21CMatRenderContextBaseM17IMatRenderContextFviiEii12CRefCounted1I8CFunctor24CRefCountServiceDestructI6CRefSTEE18CFuncMemPolicyNoneE
__ZTI15CMemberFunctor2IP21CMatRenderContextBaseM17IMatRenderContextFvmPKcEm12CUtlEnvelopeIS4_E12CRefCounted1I8CFunctor24CRefCountServiceDestructI6CRefSTEE18CFuncMemPolicyNoneE
__ZTI15CMemberFunctor2IP22IColorCorrectionSystemMS0_FvjbEjb12CRefCounted1I8CFunctor24CRefCountServiceDestructI6CRefSTEE18CFuncMemPolicyNoneE
__ZTI15CMemberFunctor2IP22IColorCorrectionSystemMS0_FvjfEjf12CRefCounted1I8CFunctor24CRefCountServiceDestructI6CRefSTEE18CFuncMemPolicyNoneE
__ZTI15CMemberFunctor2IP23CMatQueuedRenderContextMS0_FvP5IMeshiES3_i12CRefCounted1I8CFunctor24CRefCountServiceDestructI6CRefSTEE18CFuncMemPolicyNoneE
__ZTI15CMemberFunctor2IP23CMatQueuedRenderContextMS0_FvPtiES2_i12CRefCounted1I8CFunctor24CRefCountServiceDestructI6CRefSTEE18CFuncMemPolicyNoneE
__ZTI15CMemberFunctor2IP5IMeshMS0_FvS1_iES1_i12CRefCounted1I8CFunctor24CRefCountServiceDestructI6CRefSTEE18CFuncMemPolicyNoneE
__ZTI15CMemberFunctor2IP5IMeshMS0_FviiEii12CRefCounted1I8CFunctor24CRefCountServiceDestructI6CRefSTEE18CFuncMemPolicyNoneE
__ZTI15CMemberFunctor2IP9CMaterialMS0_Fv18MaterialVarFlags_tbES2_b12CRefCounted1I8CFunctor24CRefCountServiceDestructI6CRefSTEE18CFuncMemPolicyNoneE
__ZTI15CMemberFunctor3IP17IMaterialInternalM9IMaterialFvfffEfff12CRefCounted1I8CFunctor20CRefCountServiceBaseILb1E6CRefMTEE18CFuncMemPolicyNoneE
__ZTI15CMemberFunctor3IP21CMatRenderContextBaseM17IMatRenderContextFvRK17FlashlightState_tRK7VMatrixP8ITextureES3_S6_SA_12CRefCounted1I8CFunctor24CRefCountServiceDestructI6CRefSTEE18CFuncMemPolicyNoneE
__ZTI15CMemberFunctor3IP21CMatRenderContextBaseM17IMatRenderContextFvbbbEbbb12CRefCounted1I8CFunctor24CRefCountServiceDestructI6CRefSTEE18CFuncMemPolicyNoneE
__ZTI15CMemberFunctor3IP21CMatRenderContextBaseM17IMatRenderContextFvfffEfff12CRefCounted1I8CFunctor24CRefCountServiceDestructI6CRefSTEE18CFuncMemPolicyNoneE
__ZTI15CMemberFunctor3IP21CMatRenderContextBaseM17IMatRenderContextFvhhhEhhh12CRefCounted1I8CFunctor24CRefCountServiceDestructI6CRefSTEE18CFuncMemPolicyNoneE
__ZTI15CMemberFunctor3IP21CMatRenderContextBaseM25IMatRenderContextInternalFvP16ITextureInternalP30IAsyncTextureOperationReceiverPvES4_S6_S7_12CRefCounted1I8CFunctor24CRefCountServiceDestructI6CRefSTEE18CFuncMemPolicyNoneE
__ZTI15CMemberFunctor3IP23CMatQueuedRenderContextMS0_FvP5IMeshP9CPrimListiES3_S5_i12CRefCounted1I8CFunctor24CRefCountServiceDestructI6CRefSTEE18CFuncMemPolicyNoneE
__ZTI15CMemberFunctor4IP21CMatRenderContextBaseM17IMatRenderContextFvP8ITexturefffES4_fff12CRefCounted1I8CFunctor24CRefCountServiceDestructI6CRefSTEE18CFuncMemPolicyNoneE
__ZTI15CMemberFunctor4IP21CMatRenderContextBaseM17IMatRenderContextFvP8ITextureiP6Rect_tS6_ES4_i12CUtlEnvelopeIS5_ESA_12CRefCounted1I8CFunctor24CRefCountServiceDestructI6CRefSTEE18CFuncMemPolicyNoneE
__ZTI15CMemberFunctor4IP21CMatRenderContextBaseM17IMatRenderContextFvhhhhEhhhh12CRefCounted1I8CFunctor24CRefCountServiceDestructI6CRefSTEE18CFuncMemPolicyNoneE
__ZTI15CMemberFunctor4IP21CMatRenderContextBaseM17IMatRenderContextFviP8ITextureP6Rect_tS6_EiS4_12CUtlEnvelopeIS5_ESA_12CRefCounted1I8CFunctor24CRefCountServiceDestructI6CRefSTEE18CFuncMemPolicyNoneE
__ZTI15CMemberFunctor4IP21CMatRenderContextBaseM17IMatRenderContextFviiiiEiiii12CRefCounted1I8CFunctor24CRefCountServiceDestructI6CRefSTEE18CFuncMemPolicyNoneE
__ZTI15CMemberFunctor4IP21CMatRenderContextBaseM25IMatRenderContextInternalFvP8ITextureS4_P30IAsyncTextureOperationReceiverPvES4_S4_S6_S7_12CRefCounted1I8CFunctor24CRefCountServiceDestructI6CRefSTEE18CFuncMemPolicyNoneE
__ZTI15CMemberFunctor5IP14CMatQueuedMeshMS0_FvPhiiPtiES2_iiS3_i12CRefCounted1I8CFunctor24CRefCountServiceDestructI6CRefSTEE18CFuncMemPolicyNoneE
__ZTI15CMemberFunctor5IP14CMatQueuedMeshMS0_FvyjP5IMeshS3_P17IMaterialInternalEyjS3_S3_S5_12CRefCounted1I8CFunctor24CRefCountServiceDestructI6CRefSTEE18CFuncMemPolicyNoneE
__ZTI15CMemberFunctor5IP21CMatRenderContextBaseM17IMatRenderContextFvP8ITextureiiiiES4_iiii12CRefCounted1I8CFunctor24CRefCountServiceDestructI6CRefSTEE18CFuncMemPolicyNoneE
__ZTI15CMemberFunctor5IP21CMatRenderContextBaseM17IMatRenderContextFviiiibEiiiib12CRefCounted1I8CFunctor24CRefCountServiceDestructI6CRefSTEE18CFuncMemPolicyNoneE
__ZTI15CMemberFunctor5IP21CMatRenderContextBaseM17IMatRenderContextFviiiiiEiiiii12CRefCounted1I8CFunctor24CRefCountServiceDestructI6CRefSTEE18CFuncMemPolicyNoneE
__ZTI15CMemberFunctor6IP21CMatRenderContextBaseM17IMatRenderContextFvP8ITextureS4_iiiiES4_S4_iiii12CRefCounted1I8CFunctor24CRefCountServiceDestructI6CRefSTEE18CFuncMemPolicyNoneE
__ZTI15CMemberFunctor7IP21CMatRenderContextBaseM17IMatRenderContextFvP8ITexturePKc11ImageFormatbiP30IAsyncTextureOperationReceiverPvES4_S6_S7_biS9_SA_12CRefCounted1I8CFunctor24CRefCountServiceDestructI6CRefSTEE18CFuncMemPolicyNoneE
__ZTI15CTCCombineStage
__ZTI15CTCTextureStage
__ZTI15CTextureManager
__ZTI15CTier0AppSystemI23IMaterialSystemInternalE
__ZTI15CTier1AppSystemI23IMaterialSystemInternalLi0EE
__ZTI15CTier2AppSystemI23IMaterialSystemInternalLi0EE
__ZTI15IMaterialSystem
__ZTI15ITextureManager
__ZTI16CDefaultAccessor
__ZTI16CMaterialSubRect
__ZTI16CMemberFunctor14IP21CMatRenderContextBaseM17IMatRenderContextFvP9IMaterialiiiiffffiiPviiES4_iiiiffffiiS5_ii12CRefCounted1I8CFunctor24CRefCountServiceDestructI6CRefSTEE18CFuncMemPolicyNoneE
__ZTI16ICommandCallback
__ZTI16ITextureInternal
__ZTI17CAsyncCopyRequest
__ZTI17CDummyMaterialVar
__ZTI17CMatRenderContext
__ZTI17CReplacementProxy
__ZTI17IMatRenderContext
__ZTI17IMaterialInternal
__ZTI18CCopyableUtlVectorI14AsyncLoadJob_tE
__ZTI18CCopyableUtlVectorI9Sticker_tE
__ZTI18CCopyableUtlVectorIiE
__ZTI18CTextureCompositor
__ZTI18CUtlCharConversion
__ZTI18IShaderDLLInternal
__ZTI18ITextureCompositor
__ZTI19CUtlNoEscConversion
__ZTI19IMaterialSystemStub
__ZTI19ITextureRegenerator
__ZTI20CCheckerboardTexture
__ZTI20CDummyHardwareConfig
__ZTI20CDummyMaterialSystem
__ZTI20CRefCountServiceBaseILb1E6CRefMTE
__ZTI20CRefCountServiceNull
__ZTI20CTCApplyStickerStage
__ZTI20CTextureStreamingJob
__ZTI21CMatNullRenderContext
__ZTI21CMatRenderContextBase
__ZTI21CNormalizationCubemap
__ZTI21CUtlCStringConversion
__ZTI21IKeyValuesDumpContext
__ZTI21IShaderSystemInternal
__ZTI22CColorCorrectionSystem
__ZTI22IColorCorrectionSystem
__ZTI23CColorCorrectionTexture
__ZTI23CMatQueuedRenderContext
__ZTI23CMaterial_QueueFriendly
__ZTI23CTextureBitsRegenerator
__ZTI23IConCommandBaseAccessor
__ZTI23IMaterialSystemInternal
__ZTI24CRefCountServiceDestructI6CRefSTE
__ZTI24CShaderLibConVarAccessor
__ZTI25CConCommandMemberAccessorI15CMaterialSystemE
__ZTI25CReferenceToHandleTexture
__ZTI25IMatRenderContextInternal
__ZTI26ICommandCompletionCallback
__ZTI27CSignedNormalizationCubemap
__ZTI27IKeyValuesDumpContextAsText
__ZTI29CKeyValuesDumpContextAsDevMsg
__ZTI29IMaterialSystemHardwareConfig
__ZTI30IAsyncTextureOperationReceiver
__ZTI4CJob
__ZTI5IMesh
__ZTI6CMorph
__ZTI6ConVar
__ZTI6IMorph
__ZTI7IConVar
__ZTI8CFunctor
__ZTI8CTCStage
__ZTI8CTexture
__ZTI8ITexture
__ZTI9CMaterial
__ZTI9CMorphMgr
__ZTI9IMaterial
__ZTI9IMorphMgr
__ZTIN23CMatQueuedRenderContext18CCallQueueExternalE
__ZTISt9bad_alloc
__ZTS10CDummyMesh
__ZTS10CShaderDLL
__ZTS10CUtlVectorI14AsyncLoadJob_t10CUtlMemoryIS0_iEE
__ZTS10CUtlVectorI9Sticker_t10CUtlMemoryIS0_iEE
__ZTS10CUtlVectorIi10CUtlMemoryIiiEE
__ZTS10ConCommand
__ZTS10IAppSystem
__ZTS10ICallQueue
__ZTS10IShaderDLL
__ZTS11CDummyMorph
__ZTS11CFunctorJob
__ZTS11CVTFTexture
__ZTS11IRefCounted
__ZTS11IShaderInit
__ZTS11IShaderUtil
__ZTS11IVTFTexture
__ZTS12CEmptyConVar
__ZTS12CMaterialVar
__ZTS12CRefCounted1I11IRefCounted20CRefCountServiceBaseILb1E6CRefMTEE
__ZTS12CRefCounted1I17IMatRenderContext20CRefCountServiceNullE
__ZTS12CRefCounted1I25IMatRenderContextInternal20CRefCountServiceBaseILb1E6CRefMTEE
__ZTS12CRefCounted1I8CFunctor20CRefCountServiceBaseILb1E6CRefMTEE
__ZTS12CRefCounted1I8CFunctor24CRefCountServiceDestructI6CRefSTEE
__ZTS12CTCCopyStage
__ZTS12IIndexBuffer
__ZTS12IMaterialVar
__ZTS13CDummyTexture
__ZTS13CShaderSystem
__ZTS13CSolidTexture
__ZTS13IShaderSystem
__ZTS13IVertexBuffer
__ZTS13base_vector_t
__ZTS14CBaseAppSystemI23IMaterialSystemInternalE
__ZTS14CDummyMaterial
__ZTS14CMatQueuedMesh
__ZTS14CTCSelectStage
__ZTS14CThreadAcquire
__ZTS14CThreadRelease
__ZTS14ConCommandBase
__ZTS14IMaterialProxy
__ZTS14IMorphInternal
__ZTS15CAsyncMapResult
__ZTS15CMaterialSystem
__ZTS15CMemberFunctor0I13CLateBoundPtrI5IMeshEMS1_FvvE12CRefCounted1I8CFunctor24CRefCountServiceDestructI6CRefSTEE18CFuncMemPolicyNoneE
__ZTS15CMemberFunctor0IP10IShaderAPIMS0_FvvE12CRefCounted1I8CFunctor24CRefCountServiceDestructI6CRefSTEE18CFuncMemPolicyNoneE
__ZTS15CMemberFunctor0IP12CMaterialVarMS0_FvvE12CRefCounted1I8CFunctor24CRefCountServiceDestructI6CRefSTEE18CFuncMemPolicyNoneE
__ZTS15CMemberFunctor0IP13CMatLightmapsMS0_FvvE12CRefCounted1I8CFunctor24CRefCountServiceDestructI6CRefSTEE18CFuncMemPolicyNoneE
__ZTS15CMemberFunctor0IP17IMaterialInternalM9IMaterialFvvE12CRefCounted1I8CFunctor20CRefCountServiceBaseILb1E6CRefMTEE18CFuncMemPolicyNoneE
__ZTS15CMemberFunctor0IP21CMatRenderContextBaseM17IMatRenderContextFvvE12CRefCounted1I8CFunctor24CRefCountServiceDestructI6CRefSTEE18CFuncMemPolicyNoneE
__ZTS15CMemberFunctor0IP21CMatRenderContextBaseM25IMatRenderContextInternalFvvE12CRefCounted1I8CFunctor24CRefCountServiceDestructI6CRefSTEE18CFuncMemPolicyNoneE
__ZTS15CMemberFunctor0IP22IColorCorrectionSystemMS0_FvvE12CRefCounted1I8CFunctor24CRefCountServiceDestructI6CRefSTEE18CFuncMemPolicyNoneE
__ZTS15CMemberFunctor0IP9CMaterialMS0_FvvE12CRefCounted1I8CFunctor24CRefCountServiceDestructI6CRefSTEE18CFuncMemPolicyNoneE
__ZTS15CMemberFunctor1I13CLateBoundPtrI5IMeshEMS1_Fv23MaterialPrimitiveType_tES3_12CRefCounted1I8CFunctor24CRefCountServiceDestructI6CRefSTEE18CFuncMemPolicyNoneE
__ZTS15CMemberFunctor1IP12CMaterialVarMS0_FvP12IMaterialVarES3_12CRefCounted1I8CFunctor24CRefCountServiceDestructI6CRefSTEE18CFuncMemPolicyNoneE
__ZTS15CMemberFunctor1IP12CMaterialVarMS0_FvP8ITextureES3_12CRefCounted1I8CFunctor24CRefCountServiceDestructI6CRefSTEE18CFuncMemPolicyNoneE
__ZTS15CMemberFunctor1IP12CMaterialVarMS0_FvP9IMaterialES3_12CRefCounted1I8CFunctor24CRefCountServiceDestructI6CRefSTEE18CFuncMemPolicyNoneE
__ZTS15CMemberFunctor1IP12CMaterialVarMS0_FvPKcE12CUtlEnvelopeIS3_E12CRefCounted1I8CFunctor24CRefCountServiceDestructI6CRefSTEE18CFuncMemPolicyNoneE
__ZTS15CMemberFunctor1IP12CMaterialVarMS0_FvRK7VMatrixES2_12CRefCounted1I8CFunctor24CRefCountServiceDestructI6CRefSTEE18CFuncMemPolicyNoneE
__ZTS15CMemberFunctor1IP12CMaterialVarMS0_FvfEf12CRefCounted1I8CFunctor24CRefCountServiceDestructI6CRefSTEE18CFuncMemPolicyNoneE
__ZTS15CMemberFunctor1IP12CMaterialVarMS0_FviEi12CRefCounted1I8CFunctor24CRefCountServiceDestructI6CRefSTEE18CFuncMemPolicyNoneE
__ZTS15CMemberFunctor1IP15CMaterialSystemMS0_FvP23CMatQueuedRenderContextES3_12CRefCounted1I8CFunctor20CRefCountServiceBaseILb1E6CRefMTEE18CFuncMemPolicyNoneE
__ZTS15CMemberFunctor1IP17IMaterialInternalM9IMaterialFvbEb12CRefCounted1I8CFunctor20CRefCountServiceBaseILb1E6CRefMTEE18CFuncMemPolicyNoneE
__ZTS15CMemberFunctor1IP17IMaterialInternalM9IMaterialFvfEf12CRefCounted1I8CFunctor20CRefCountServiceBaseILb1E6CRefMTEE18CFuncMemPolicyNoneE
__ZTS15CMemberFunctor1IP18COcclusionQueryMgrMS0_FvP30OcclusionQueryObjectHandle_t__ES3_12CRefCounted1I8CFunctor24CRefCountServiceDestructI6CRefSTEE18CFuncMemPolicyNoneE
__ZTS15CMemberFunctor1IP21CMatRenderContextBaseM17IMatRenderContextFbbEb12CRefCounted1I8CFunctor24CRefCountServiceDestructI6CRefSTEE18CFuncMemPolicyNoneE
__ZTS15CMemberFunctor1IP21CMatRenderContextBaseM17IMatRenderContextFv17MaterialFogMode_tES3_12CRefCounted1I8CFunctor24CRefCountServiceDestructI6CRefSTEE18CFuncMemPolicyNoneE
__ZTS15CMemberFunctor1IP21CMatRenderContextBaseM17IMatRenderContextFv18MaterialCullMode_tES3_12CRefCounted1I8CFunctor24CRefCountServiceDestructI6CRefSTEE18CFuncMemPolicyNoneE
__ZTS15CMemberFunctor1IP21CMatRenderContextBaseM17IMatRenderContextFv18StencilOperation_tES3_12CRefCounted1I8CFunctor24CRefCountServiceDestructI6CRefSTEE18CFuncMemPolicyNoneE
__ZTS15CMemberFunctor1IP21CMatRenderContextBaseM17IMatRenderContextFv20MaterialMatrixMode_tES3_12CRefCounted1I8CFunctor24CRefCountServiceDestructI6CRefSTEE18CFuncMemPolicyNoneE
__ZTS15CMemberFunctor1IP21CMatRenderContextBaseM17IMatRenderContextFv24MaterialHeightClipMode_tES3_12CRefCounted1I8CFunctor24CRefCountServiceDestructI6CRefSTEE18CFuncMemPolicyNoneE
__ZTS15CMemberFunctor1IP21CMatRenderContextBaseM17IMatRenderContextFv27StencilComparisonFunction_tES3_12CRefCounted1I8CFunctor24CRefCountServiceDestructI6CRefSTEE18CFuncMemPolicyNoneE
__ZTS15CMemberFunctor1IP21CMatRenderContextBaseM17IMatRenderContextFv28MaterialNonInteractiveMode_tES3_12CRefCounted1I8CFunctor24CRefCountServiceDestructI6CRefSTEE18CFuncMemPolicyNoneE
__ZTS15CMemberFunctor1IP21CMatRenderContextBaseM17IMatRenderContextFv6VectorES3_12CRefCounted1I8CFunctor24CRefCountServiceDestructI6CRefSTEE18CFuncMemPolicyNoneE
__ZTS15CMemberFunctor1IP21CMatRenderContextBaseM17IMatRenderContextFvP30OcclusionQueryObjectHandle_t__ES4_12CRefCounted1I8CFunctor24CRefCountServiceDestructI6CRefSTEE18CFuncMemPolicyNoneE
__ZTS15CMemberFunctor1IP21CMatRenderContextBaseM17IMatRenderContextFvP5IMeshES4_12CRefCounted1I8CFunctor24CRefCountServiceDestructI6CRefSTEE18CFuncMemPolicyNoneE
__ZTS15CMemberFunctor1IP21CMatRenderContextBaseM17IMatRenderContextFvP6IMorphES4_12CRefCounted1I8CFunctor24CRefCountServiceDestructI6CRefSTEE18CFuncMemPolicyNoneE
__ZTS15CMemberFunctor1IP21CMatRenderContextBaseM17IMatRenderContextFvP8ITextureES4_12CRefCounted1I8CFunctor24CRefCountServiceDestructI6CRefSTEE18CFuncMemPolicyNoneE
__ZTS15CMemberFunctor1IP21CMatRenderContextBaseM17IMatRenderContextFvP8Vector4DE12CUtlEnvelopeIS3_E12CRefCounted1I8CFunctor24CRefCountServiceDestructI6CRefSTEE18CFuncMemPolicyNoneE
__ZTS15CMemberFunctor1IP21CMatRenderContextBaseM17IMatRenderContextFvP9IMaterialES4_12CRefCounted1I8CFunctor24CRefCountServiceDestructI6CRefSTEE18CFuncMemPolicyNoneE
__ZTS15CMemberFunctor1IP21CMatRenderContextBaseM17IMatRenderContextFvPKcE12CUtlEnvelopeIS4_E12CRefCounted1I8CFunctor24CRefCountServiceDestructI6CRefSTEE18CFuncMemPolicyNoneE
__ZTS15CMemberFunctor1IP21CMatRenderContextBaseM17IMatRenderContextFvPKfE12CUtlEnvelopeIfE12CRefCounted1I8CFunctor24CRefCountServiceDestructI6CRefSTEE18CFuncMemPolicyNoneE
__ZTS15CMemberFunctor1IP21CMatRenderContextBaseM17IMatRenderContextFvRK6VectorES3_12CRefCounted1I8CFunctor24CRefCountServiceDestructI6CRefSTEE18CFuncMemPolicyNoneE
__ZTS15CMemberFunctor1IP21CMatRenderContextBaseM17IMatRenderContextFvRK7VMatrixES3_12CRefCounted1I8CFunctor24CRefCountServiceDestructI6CRefSTEE18CFuncMemPolicyNoneE
__ZTS15CMemberFunctor1IP21CMatRenderContextBaseM17IMatRenderContextFvbEb12CRefCounted1I8CFunctor24CRefCountServiceDestructI6CRefSTEE18CFuncMemPolicyNoneE
__ZTS15CMemberFunctor1IP21CMatRenderContextBaseM17IMatRenderContextFvfEf12CRefCounted1I8CFunctor24CRefCountServiceDestructI6CRefSTEE18CFuncMemPolicyNoneE
__ZTS15CMemberFunctor1IP21CMatRenderContextBaseM17IMatRenderContextFviEi12CRefCounted1I8CFunctor24CRefCountServiceDestructI6CRefSTEE18CFuncMemPolicyNoneE
__ZTS15CMemberFunctor1IP21CMatRenderContextBaseM17IMatRenderContextFvjEj12CRefCounted1I8CFunctor24CRefCountServiceDestructI6CRefSTEE18CFuncMemPolicyNoneE
__ZTS15CMemberFunctor1IP21CMatRenderContextBaseM25IMatRenderContextInternalFvP16ITextureInternalES4_12CRefCounted1I8CFunctor24CRefCountServiceDestructI6CRefSTEE18CFuncMemPolicyNoneE
__ZTS15CMemberFunctor1IP21CMatRenderContextBaseM25IMatRenderContextInternalFvP17IMaterialInternalES4_12CRefCounted1I8CFunctor24CRefCountServiceDestructI6CRefSTEE18CFuncMemPolicyNoneE
__ZTS15CMemberFunctor1IP21CMatRenderContextBaseM25IMatRenderContextInternalFvPvES3_12CRefCounted1I8CFunctor24CRefCountServiceDestructI6CRefSTEE18CFuncMemPolicyNoneE
__ZTS15CMemberFunctor1IP21CMatRenderContextBaseM25IMatRenderContextInternalFvfEf12CRefCounted1I8CFunctor24CRefCountServiceDestructI6CRefSTEE18CFuncMemPolicyNoneE
__ZTS15CMemberFunctor1IP22IColorCorrectionSystemMS0_FvbEb12CRefCounted1I8CFunctor24CRefCountServiceDestructI6CRefSTEE18CFuncMemPolicyNoneE
__ZTS15CMemberFunctor1IP5IMeshMS0_Fv23MaterialPrimitiveType_tES2_12CRefCounted1I8CFunctor24CRefCountServiceDestructI6CRefSTEE18CFuncMemPolicyNoneE
__ZTS15CMemberFunctor1IP8CTextureMS0_FvP8ITextureES3_12CRefCounted1I8CFunctor20CRefCountServiceBaseILb1E6CRefMTEE18CFuncMemPolicyNoneE
__ZTS15CMemberFunctor2I13CLateBoundPtrI5IMeshEMS1_FvPS1_iES3_i12CRefCounted1I8CFunctor24CRefCountServiceDestructI6CRefSTEE18CFuncMemPolicyNoneE
__ZTS15CMemberFunctor2I13CLateBoundPtrI5IMeshEMS1_FviiEii12CRefCounted1I8CFunctor24CRefCountServiceDestructI6CRefSTEE18CFuncMemPolicyNoneE
__ZTS15CMemberFunctor2IP12CMaterialVarMS0_FvRK8Vector4DiES2_i12CRefCounted1I8CFunctor24CRefCountServiceDestructI6CRefSTEE18CFuncMemPolicyNoneE
__ZTS15CMemberFunctor2IP12CMaterialVarMS0_FvfiEfi12CRefCounted1I8CFunctor24CRefCountServiceDestructI6CRefSTEE18CFuncMemPolicyNoneE
__ZTS15CMemberFunctor2IP12CMaterialVarMS0_FvmPvEmS2_12CRefCounted1I8CFunctor24CRefCountServiceDestructI6CRefSTEE18CFuncMemPolicyNoneE
__ZTS15CMemberFunctor2IP17IMaterialInternalM9IMaterialFv18MaterialVarFlags_tbES3_b12CRefCounted1I8CFunctor20CRefCountServiceBaseILb1E6CRefMTEE18CFuncMemPolicyNoneE
__ZTS15CMemberFunctor2IP21CMatRenderContextBaseM17IMatRenderContextFvP5IMeshP9IMaterialES4_S6_12CRefCounted1I8CFunctor24CRefCountServiceDestructI6CRefSTEE18CFuncMemPolicyNoneE
__ZTS15CMemberFunctor2IP21CMatRenderContextBaseM17IMatRenderContextFvP8ITexture28MaterialNonInteractiveMode_tES4_S5_12CRefCounted1I8CFunctor24CRefCountServiceDestructI6CRefSTEE18CFuncMemPolicyNoneE
__ZTS15CMemberFunctor2IP21CMatRenderContextBaseM17IMatRenderContextFvP8ITextureiES4_i12CRefCounted1I8CFunctor24CRefCountServiceDestructI6CRefSTEE18CFuncMemPolicyNoneE
__ZTS15CMemberFunctor2IP21CMatRenderContextBaseM17IMatRenderContextFvP9IMaterialPvES4_S5_12CRefCounted1I8CFunctor24CRefCountServiceDestructI6CRefSTEE18CFuncMemPolicyNoneE
__ZTS15CMemberFunctor2IP21CMatRenderContextBaseM17IMatRenderContextFvRK17FlashlightState_tRK7VMatrixES3_S6_12CRefCounted1I8CFunctor24CRefCountServiceDestructI6CRefSTEE18CFuncMemPolicyNoneE
__ZTS15CMemberFunctor2IP21CMatRenderContextBaseM17IMatRenderContextFvbbEbb12CRefCounted1I8CFunctor24CRefCountServiceDestructI6CRefSTEE18CFuncMemPolicyNoneE
__ZTS15CMemberFunctor2IP21CMatRenderContextBaseM17IMatRenderContextFvffEff12CRefCounted1I8CFunctor24CRefCountServiceDestructI6CRefSTEE18CFuncMemPolicyNoneE
__ZTS15CMemberFunctor2IP21CMatRenderContextBaseM17IMatRenderContextFviP8ITextureEiS4_12CRefCounted1I8CFunctor24CRefCountServiceDestructI6CRefSTEE18CFuncMemPolicyNoneE
__ZTS15CMemberFunctor2IP21CMatRenderContextBaseM17IMatRenderContextFviRK11LightDesc_tEiS3_12CRefCounted1I8CFunctor24CRefCountServiceDestructI6CRefSTEE18CFuncMemPolicyNoneE
__ZTS15CMemberFunctor2IP21CMatRenderContextBaseM17IMatRenderContextFviRK11matrix3x4_tEiS3_12CRefCounted1I8CFunctor24CRefCountServiceDestructI6CRefSTEE18CFuncMemPolicyNoneE
__ZTS15CMemberFunctor2IP21CMatRenderContextBaseM17IMatRenderContextFviRK6VectorEiS3_12CRefCounted1I8CFunctor24CRefCountServiceDestructI6CRefSTEE18CFuncMemPolicyNoneE
__ZTS15CMemberFunctor2IP21CMatRenderContextBaseM17IMatRenderContextFvifEif12CRefCounted1I8CFunctor24CRefCountServiceDestructI6CRefSTEE18CFuncMemPolicyNoneE
__ZTS15CMemberFunctor2IP21CMatRenderContextBaseM17IMatRenderContextFviiEii12CRefCounted1I8CFunctor24CRefCountServiceDestructI6CRefSTEE18CFuncMemPolicyNoneE
__ZTS15CMemberFunctor2IP21CMatRenderContextBaseM17IMatRenderContextFvmPKcEm12CUtlEnvelopeIS4_E12CRefCounted1I8CFunctor24CRefCountServiceDestructI6CRefSTEE18CFuncMemPolicyNoneE
__ZTS15CMemberFunctor2IP22IColorCorrectionSystemMS0_FvjbEjb12CRefCounted1I8CFunctor24CRefCountServiceDestructI6CRefSTEE18CFuncMemPolicyNoneE
__ZTS15CMemberFunctor2IP22IColorCorrectionSystemMS0_FvjfEjf12CRefCounted1I8CFunctor24CRefCountServiceDestructI6CRefSTEE18CFuncMemPolicyNoneE
__ZTS15CMemberFunctor2IP23CMatQueuedRenderContextMS0_FvP5IMeshiES3_i12CRefCounted1I8CFunctor24CRefCountServiceDestructI6CRefSTEE18CFuncMemPolicyNoneE
__ZTS15CMemberFunctor2IP23CMatQueuedRenderContextMS0_FvPtiES2_i12CRefCounted1I8CFunctor24CRefCountServiceDestructI6CRefSTEE18CFuncMemPolicyNoneE
__ZTS15CMemberFunctor2IP5IMeshMS0_FvS1_iES1_i12CRefCounted1I8CFunctor24CRefCountServiceDestructI6CRefSTEE18CFuncMemPolicyNoneE
__ZTS15CMemberFunctor2IP5IMeshMS0_FviiEii12CRefCounted1I8CFunctor24CRefCountServiceDestructI6CRefSTEE18CFuncMemPolicyNoneE
__ZTS15CMemberFunctor2IP9CMaterialMS0_Fv18MaterialVarFlags_tbES2_b12CRefCounted1I8CFunctor24CRefCountServiceDestructI6CRefSTEE18CFuncMemPolicyNoneE
__ZTS15CMemberFunctor3IP17IMaterialInternalM9IMaterialFvfffEfff12CRefCounted1I8CFunctor20CRefCountServiceBaseILb1E6CRefMTEE18CFuncMemPolicyNoneE
__ZTS15CMemberFunctor3IP21CMatRenderContextBaseM17IMatRenderContextFvRK17FlashlightState_tRK7VMatrixP8ITextureES3_S6_SA_12CRefCounted1I8CFunctor24CRefCountServiceDestructI6CRefSTEE18CFuncMemPolicyNoneE
__ZTS15CMemberFunctor3IP21CMatRenderContextBaseM17IMatRenderContextFvbbbEbbb12CRefCounted1I8CFunctor24CRefCountServiceDestructI6CRefSTEE18CFuncMemPolicyNoneE
__ZTS15CMemberFunctor3IP21CMatRenderContextBaseM17IMatRenderContextFvfffEfff12CRefCounted1I8CFunctor24CRefCountServiceDestructI6CRefSTEE18CFuncMemPolicyNoneE
__ZTS15CMemberFunctor3IP21CMatRenderContextBaseM17IMatRenderContextFvhhhEhhh12CRefCounted1I8CFunctor24CRefCountServiceDestructI6CRefSTEE18CFuncMemPolicyNoneE
__ZTS15CMemberFunctor3IP21CMatRenderContextBaseM25IMatRenderContextInternalFvP16ITextureInternalP30IAsyncTextureOperationReceiverPvES4_S6_S7_12CRefCounted1I8CFunctor24CRefCountServiceDestructI6CRefSTEE18CFuncMemPolicyNoneE
__ZTS15CMemberFunctor3IP23CMatQueuedRenderContextMS0_FvP5IMeshP9CPrimListiES3_S5_i12CRefCounted1I8CFunctor24CRefCountServiceDestructI6CRefSTEE18CFuncMemPolicyNoneE
__ZTS15CMemberFunctor4IP21CMatRenderContextBaseM17IMatRenderContextFvP8ITexturefffES4_fff12CRefCounted1I8CFunctor24CRefCountServiceDestructI6CRefSTEE18CFuncMemPolicyNoneE
__ZTS15CMemberFunctor4IP21CMatRenderContextBaseM17IMatRenderContextFvP8ITextureiP6Rect_tS6_ES4_i12CUtlEnvelopeIS5_ESA_12CRefCounted1I8CFunctor24CRefCountServiceDestructI6CRefSTEE18CFuncMemPolicyNoneE
__ZTS15CMemberFunctor4IP21CMatRenderContextBaseM17IMatRenderContextFvhhhhEhhhh12CRefCounted1I8CFunctor24CRefCountServiceDestructI6CRefSTEE18CFuncMemPolicyNoneE
__ZTS15CMemberFunctor4IP21CMatRenderContextBaseM17IMatRenderContextFviP8ITextureP6Rect_tS6_EiS4_12CUtlEnvelopeIS5_ESA_12CRefCounted1I8CFunctor24CRefCountServiceDestructI6CRefSTEE18CFuncMemPolicyNoneE
__ZTS15CMemberFunctor4IP21CMatRenderContextBaseM17IMatRenderContextFviiiiEiiii12CRefCounted1I8CFunctor24CRefCountServiceDestructI6CRefSTEE18CFuncMemPolicyNoneE
__ZTS15CMemberFunctor4IP21CMatRenderContextBaseM25IMatRenderContextInternalFvP8ITextureS4_P30IAsyncTextureOperationReceiverPvES4_S4_S6_S7_12CRefCounted1I8CFunctor24CRefCountServiceDestructI6CRefSTEE18CFuncMemPolicyNoneE
__ZTS15CMemberFunctor5IP14CMatQueuedMeshMS0_FvPhiiPtiES2_iiS3_i12CRefCounted1I8CFunctor24CRefCountServiceDestructI6CRefSTEE18CFuncMemPolicyNoneE
__ZTS15CMemberFunctor5IP14CMatQueuedMeshMS0_FvyjP5IMeshS3_P17IMaterialInternalEyjS3_S3_S5_12CRefCounted1I8CFunctor24CRefCountServiceDestructI6CRefSTEE18CFuncMemPolicyNoneE
__ZTS15CMemberFunctor5IP21CMatRenderContextBaseM17IMatRenderContextFvP8ITextureiiiiES4_iiii12CRefCounted1I8CFunctor24CRefCountServiceDestructI6CRefSTEE18CFuncMemPolicyNoneE
__ZTS15CMemberFunctor5IP21CMatRenderContextBaseM17IMatRenderContextFviiiibEiiiib12CRefCounted1I8CFunctor24CRefCountServiceDestructI6CRefSTEE18CFuncMemPolicyNoneE
__ZTS15CMemberFunctor5IP21CMatRenderContextBaseM17IMatRenderContextFviiiiiEiiiii12CRefCounted1I8CFunctor24CRefCountServiceDestructI6CRefSTEE18CFuncMemPolicyNoneE
__ZTS15CMemberFunctor6IP21CMatRenderContextBaseM17IMatRenderContextFvP8ITextureS4_iiiiES4_S4_iiii12CRefCounted1I8CFunctor24CRefCountServiceDestructI6CRefSTEE18CFuncMemPolicyNoneE
__ZTS15CMemberFunctor7IP21CMatRenderContextBaseM17IMatRenderContextFvP8ITexturePKc11ImageFormatbiP30IAsyncTextureOperationReceiverPvES4_S6_S7_biS9_SA_12CRefCounted1I8CFunctor24CRefCountServiceDestructI6CRefSTEE18CFuncMemPolicyNoneE
__ZTS15CTCCombineStage
__ZTS15CTCTextureStage
__ZTS15CTextureManager
__ZTS15CTier0AppSystemI23IMaterialSystemInternalE
__ZTS15CTier1AppSystemI23IMaterialSystemInternalLi0EE
__ZTS15CTier2AppSystemI23IMaterialSystemInternalLi0EE
__ZTS15IMaterialSystem
__ZTS15ITextureManager
__ZTS16CDefaultAccessor
__ZTS16CMaterialSubRect
__ZTS16CMemberFunctor14IP21CMatRenderContextBaseM17IMatRenderContextFvP9IMaterialiiiiffffiiPviiES4_iiiiffffiiS5_ii12CRefCounted1I8CFunctor24CRefCountServiceDestructI6CRefSTEE18CFuncMemPolicyNoneE
__ZTS16ICommandCallback
__ZTS16ITextureInternal
__ZTS17CAsyncCopyRequest
__ZTS17CDummyMaterialVar
__ZTS17CMatRenderContext
__ZTS17CReplacementProxy
__ZTS17IMatRenderContext
__ZTS17IMaterialInternal
__ZTS18CCopyableUtlVectorI14AsyncLoadJob_tE
__ZTS18CCopyableUtlVectorI9Sticker_tE
__ZTS18CCopyableUtlVectorIiE
__ZTS18CTextureCompositor
__ZTS18CUtlCharConversion
__ZTS18IShaderDLLInternal
__ZTS18ITextureCompositor
__ZTS19CUtlNoEscConversion
__ZTS19IMaterialSystemStub
__ZTS19ITextureRegenerator
__ZTS20CCheckerboardTexture
__ZTS20CDummyHardwareConfig
__ZTS20CDummyMaterialSystem
__ZTS20CRefCountServiceBaseILb1E6CRefMTE
__ZTS20CRefCountServiceNull
__ZTS20CTCApplyStickerStage
__ZTS20CTextureStreamingJob
__ZTS21CMatNullRenderContext
__ZTS21CMatRenderContextBase
__ZTS21CNormalizationCubemap
__ZTS21CUtlCStringConversion
__ZTS21IKeyValuesDumpContext
__ZTS21IShaderSystemInternal
__ZTS22CColorCorrectionSystem
__ZTS22IColorCorrectionSystem
__ZTS23CColorCorrectionTexture
__ZTS23CMatQueuedRenderContext
__ZTS23CMaterial_QueueFriendly
__ZTS23CTextureBitsRegenerator
__ZTS23IConCommandBaseAccessor
__ZTS23IMaterialSystemInternal
__ZTS24CRefCountServiceDestructI6CRefSTE
__ZTS24CShaderLibConVarAccessor
__ZTS25CConCommandMemberAccessorI15CMaterialSystemE
__ZTS25CReferenceToHandleTexture
__ZTS25IMatRenderContextInternal
__ZTS26ICommandCompletionCallback
__ZTS27CSignedNormalizationCubemap
__ZTS27IKeyValuesDumpContextAsText
__ZTS29CKeyValuesDumpContextAsDevMsg
__ZTS29IMaterialSystemHardwareConfig
__ZTS30IAsyncTextureOperationReceiver
__ZTS4CJob
__ZTS5IMesh
__ZTS6CMorph
__ZTS6ConVar
__ZTS6IMorph
__ZTS7IConVar
__ZTS8CFunctor
__ZTS8CTCStage
__ZTS8CTexture
__ZTS8ITexture
__ZTS9CMaterial
__ZTS9CMorphMgr
__ZTS9IMaterial
__ZTS9IMorphMgr
__ZTSN23CMatQueuedRenderContext18CCallQueueExternalE
__ZTV10CDummyMesh
__ZTV10CShaderDLL
__ZTV10ConCommand
__ZTV11CDummyMorph
__ZTV11CFunctorJob
__ZTV11CVTFTexture
__ZTV12CEmptyConVar
__ZTV12CMaterialVar
__ZTV12CTCCopyStage
__ZTV13CDummyTexture
__ZTV13CShaderSystem
__ZTV13CSolidTexture
__ZTV14CDummyMaterial
__ZTV14CMatQueuedMesh
__ZTV14CTCSelectStage
__ZTV14CThreadAcquire
__ZTV14CThreadRelease
__ZTV15CAsyncMapResult
__ZTV15CMaterialSystem
__ZTV15CMemberFunctor0I13CLateBoundPtrI5IMeshEMS1_FvvE12CRefCounted1I8CFunctor24CRefCountServiceDestructI6CRefSTEE18CFuncMemPolicyNoneE
__ZTV15CMemberFunctor0IP10IShaderAPIMS0_FvvE12CRefCounted1I8CFunctor24CRefCountServiceDestructI6CRefSTEE18CFuncMemPolicyNoneE
__ZTV15CMemberFunctor0IP12CMaterialVarMS0_FvvE12CRefCounted1I8CFunctor24CRefCountServiceDestructI6CRefSTEE18CFuncMemPolicyNoneE
__ZTV15CMemberFunctor0IP13CMatLightmapsMS0_FvvE12CRefCounted1I8CFunctor24CRefCountServiceDestructI6CRefSTEE18CFuncMemPolicyNoneE
__ZTV15CMemberFunctor0IP17IMaterialInternalM9IMaterialFvvE12CRefCounted1I8CFunctor20CRefCountServiceBaseILb1E6CRefMTEE18CFuncMemPolicyNoneE
__ZTV15CMemberFunctor0IP21CMatRenderContextBaseM17IMatRenderContextFvvE12CRefCounted1I8CFunctor24CRefCountServiceDestructI6CRefSTEE18CFuncMemPolicyNoneE
__ZTV15CMemberFunctor0IP21CMatRenderContextBaseM25IMatRenderContextInternalFvvE12CRefCounted1I8CFunctor24CRefCountServiceDestructI6CRefSTEE18CFuncMemPolicyNoneE
__ZTV15CMemberFunctor0IP22IColorCorrectionSystemMS0_FvvE12CRefCounted1I8CFunctor24CRefCountServiceDestructI6CRefSTEE18CFuncMemPolicyNoneE
__ZTV15CMemberFunctor0IP9CMaterialMS0_FvvE12CRefCounted1I8CFunctor24CRefCountServiceDestructI6CRefSTEE18CFuncMemPolicyNoneE
__ZTV15CMemberFunctor1I13CLateBoundPtrI5IMeshEMS1_Fv23MaterialPrimitiveType_tES3_12CRefCounted1I8CFunctor24CRefCountServiceDestructI6CRefSTEE18CFuncMemPolicyNoneE
__ZTV15CMemberFunctor1IP12CMaterialVarMS0_FvP12IMaterialVarES3_12CRefCounted1I8CFunctor24CRefCountServiceDestructI6CRefSTEE18CFuncMemPolicyNoneE
__ZTV15CMemberFunctor1IP12CMaterialVarMS0_FvP8ITextureES3_12CRefCounted1I8CFunctor24CRefCountServiceDestructI6CRefSTEE18CFuncMemPolicyNoneE
__ZTV15CMemberFunctor1IP12CMaterialVarMS0_FvP9IMaterialES3_12CRefCounted1I8CFunctor24CRefCountServiceDestructI6CRefSTEE18CFuncMemPolicyNoneE
__ZTV15CMemberFunctor1IP12CMaterialVarMS0_FvPKcE12CUtlEnvelopeIS3_E12CRefCounted1I8CFunctor24CRefCountServiceDestructI6CRefSTEE18CFuncMemPolicyNoneE
__ZTV15CMemberFunctor1IP12CMaterialVarMS0_FvRK7VMatrixES2_12CRefCounted1I8CFunctor24CRefCountServiceDestructI6CRefSTEE18CFuncMemPolicyNoneE
__ZTV15CMemberFunctor1IP12CMaterialVarMS0_FvfEf12CRefCounted1I8CFunctor24CRefCountServiceDestructI6CRefSTEE18CFuncMemPolicyNoneE
__ZTV15CMemberFunctor1IP12CMaterialVarMS0_FviEi12CRefCounted1I8CFunctor24CRefCountServiceDestructI6CRefSTEE18CFuncMemPolicyNoneE
__ZTV15CMemberFunctor1IP15CMaterialSystemMS0_FvP23CMatQueuedRenderContextES3_12CRefCounted1I8CFunctor20CRefCountServiceBaseILb1E6CRefMTEE18CFuncMemPolicyNoneE
__ZTV15CMemberFunctor1IP17IMaterialInternalM9IMaterialFvbEb12CRefCounted1I8CFunctor20CRefCountServiceBaseILb1E6CRefMTEE18CFuncMemPolicyNoneE
__ZTV15CMemberFunctor1IP17IMaterialInternalM9IMaterialFvfEf12CRefCounted1I8CFunctor20CRefCountServiceBaseILb1E6CRefMTEE18CFuncMemPolicyNoneE
__ZTV15CMemberFunctor1IP18COcclusionQueryMgrMS0_FvP30OcclusionQueryObjectHandle_t__ES3_12CRefCounted1I8CFunctor24CRefCountServiceDestructI6CRefSTEE18CFuncMemPolicyNoneE
__ZTV15CMemberFunctor1IP21CMatRenderContextBaseM17IMatRenderContextFbbEb12CRefCounted1I8CFunctor24CRefCountServiceDestructI6CRefSTEE18CFuncMemPolicyNoneE
__ZTV15CMemberFunctor1IP21CMatRenderContextBaseM17IMatRenderContextFv17MaterialFogMode_tES3_12CRefCounted1I8CFunctor24CRefCountServiceDestructI6CRefSTEE18CFuncMemPolicyNoneE
__ZTV15CMemberFunctor1IP21CMatRenderContextBaseM17IMatRenderContextFv18MaterialCullMode_tES3_12CRefCounted1I8CFunctor24CRefCountServiceDestructI6CRefSTEE18CFuncMemPolicyNoneE
__ZTV15CMemberFunctor1IP21CMatRenderContextBaseM17IMatRenderContextFv18StencilOperation_tES3_12CRefCounted1I8CFunctor24CRefCountServiceDestructI6CRefSTEE18CFuncMemPolicyNoneE
__ZTV15CMemberFunctor1IP21CMatRenderContextBaseM17IMatRenderContextFv20MaterialMatrixMode_tES3_12CRefCounted1I8CFunctor24CRefCountServiceDestructI6CRefSTEE18CFuncMemPolicyNoneE
__ZTV15CMemberFunctor1IP21CMatRenderContextBaseM17IMatRenderContextFv24MaterialHeightClipMode_tES3_12CRefCounted1I8CFunctor24CRefCountServiceDestructI6CRefSTEE18CFuncMemPolicyNoneE
__ZTV15CMemberFunctor1IP21CMatRenderContextBaseM17IMatRenderContextFv27StencilComparisonFunction_tES3_12CRefCounted1I8CFunctor24CRefCountServiceDestructI6CRefSTEE18CFuncMemPolicyNoneE
__ZTV15CMemberFunctor1IP21CMatRenderContextBaseM17IMatRenderContextFv28MaterialNonInteractiveMode_tES3_12CRefCounted1I8CFunctor24CRefCountServiceDestructI6CRefSTEE18CFuncMemPolicyNoneE
__ZTV15CMemberFunctor1IP21CMatRenderContextBaseM17IMatRenderContextFv6VectorES3_12CRefCounted1I8CFunctor24CRefCountServiceDestructI6CRefSTEE18CFuncMemPolicyNoneE
__ZTV15CMemberFunctor1IP21CMatRenderContextBaseM17IMatRenderContextFvP30OcclusionQueryObjectHandle_t__ES4_12CRefCounted1I8CFunctor24CRefCountServiceDestructI6CRefSTEE18CFuncMemPolicyNoneE
__ZTV15CMemberFunctor1IP21CMatRenderContextBaseM17IMatRenderContextFvP5IMeshES4_12CRefCounted1I8CFunctor24CRefCountServiceDestructI6CRefSTEE18CFuncMemPolicyNoneE
__ZTV15CMemberFunctor1IP21CMatRenderContextBaseM17IMatRenderContextFvP6IMorphES4_12CRefCounted1I8CFunctor24CRefCountServiceDestructI6CRefSTEE18CFuncMemPolicyNoneE
__ZTV15CMemberFunctor1IP21CMatRenderContextBaseM17IMatRenderContextFvP8ITextureES4_12CRefCounted1I8CFunctor24CRefCountServiceDestructI6CRefSTEE18CFuncMemPolicyNoneE
__ZTV15CMemberFunctor1IP21CMatRenderContextBaseM17IMatRenderContextFvP8Vector4DE12CUtlEnvelopeIS3_E12CRefCounted1I8CFunctor24CRefCountServiceDestructI6CRefSTEE18CFuncMemPolicyNoneE
__ZTV15CMemberFunctor1IP21CMatRenderContextBaseM17IMatRenderContextFvP9IMaterialES4_12CRefCounted1I8CFunctor24CRefCountServiceDestructI6CRefSTEE18CFuncMemPolicyNoneE
__ZTV15CMemberFunctor1IP21CMatRenderContextBaseM17IMatRenderContextFvPKcE12CUtlEnvelopeIS4_E12CRefCounted1I8CFunctor24CRefCountServiceDestructI6CRefSTEE18CFuncMemPolicyNoneE
__ZTV15CMemberFunctor1IP21CMatRenderContextBaseM17IMatRenderContextFvPKfE12CUtlEnvelopeIfE12CRefCounted1I8CFunctor24CRefCountServiceDestructI6CRefSTEE18CFuncMemPolicyNoneE
__ZTV15CMemberFunctor1IP21CMatRenderContextBaseM17IMatRenderContextFvRK6VectorES3_12CRefCounted1I8CFunctor24CRefCountServiceDestructI6CRefSTEE18CFuncMemPolicyNoneE
__ZTV15CMemberFunctor1IP21CMatRenderContextBaseM17IMatRenderContextFvRK7VMatrixES3_12CRefCounted1I8CFunctor24CRefCountServiceDestructI6CRefSTEE18CFuncMemPolicyNoneE
__ZTV15CMemberFunctor1IP21CMatRenderContextBaseM17IMatRenderContextFvbEb12CRefCounted1I8CFunctor24CRefCountServiceDestructI6CRefSTEE18CFuncMemPolicyNoneE
__ZTV15CMemberFunctor1IP21CMatRenderContextBaseM17IMatRenderContextFvfEf12CRefCounted1I8CFunctor24CRefCountServiceDestructI6CRefSTEE18CFuncMemPolicyNoneE
__ZTV15CMemberFunctor1IP21CMatRenderContextBaseM17IMatRenderContextFviEi12CRefCounted1I8CFunctor24CRefCountServiceDestructI6CRefSTEE18CFuncMemPolicyNoneE
__ZTV15CMemberFunctor1IP21CMatRenderContextBaseM17IMatRenderContextFvjEj12CRefCounted1I8CFunctor24CRefCountServiceDestructI6CRefSTEE18CFuncMemPolicyNoneE
__ZTV15CMemberFunctor1IP21CMatRenderContextBaseM25IMatRenderContextInternalFvP16ITextureInternalES4_12CRefCounted1I8CFunctor24CRefCountServiceDestructI6CRefSTEE18CFuncMemPolicyNoneE
__ZTV15CMemberFunctor1IP21CMatRenderContextBaseM25IMatRenderContextInternalFvP17IMaterialInternalES4_12CRefCounted1I8CFunctor24CRefCountServiceDestructI6CRefSTEE18CFuncMemPolicyNoneE
__ZTV15CMemberFunctor1IP21CMatRenderContextBaseM25IMatRenderContextInternalFvPvES3_12CRefCounted1I8CFunctor24CRefCountServiceDestructI6CRefSTEE18CFuncMemPolicyNoneE
__ZTV15CMemberFunctor1IP21CMatRenderContextBaseM25IMatRenderContextInternalFvfEf12CRefCounted1I8CFunctor24CRefCountServiceDestructI6CRefSTEE18CFuncMemPolicyNoneE
__ZTV15CMemberFunctor1IP22IColorCorrectionSystemMS0_FvbEb12CRefCounted1I8CFunctor24CRefCountServiceDestructI6CRefSTEE18CFuncMemPolicyNoneE
__ZTV15CMemberFunctor1IP5IMeshMS0_Fv23MaterialPrimitiveType_tES2_12CRefCounted1I8CFunctor24CRefCountServiceDestructI6CRefSTEE18CFuncMemPolicyNoneE
__ZTV15CMemberFunctor1IP8CTextureMS0_FvP8ITextureES3_12CRefCounted1I8CFunctor20CRefCountServiceBaseILb1E6CRefMTEE18CFuncMemPolicyNoneE
__ZTV15CMemberFunctor2I13CLateBoundPtrI5IMeshEMS1_FvPS1_iES3_i12CRefCounted1I8CFunctor24CRefCountServiceDestructI6CRefSTEE18CFuncMemPolicyNoneE
__ZTV15CMemberFunctor2I13CLateBoundPtrI5IMeshEMS1_FviiEii12CRefCounted1I8CFunctor24CRefCountServiceDestructI6CRefSTEE18CFuncMemPolicyNoneE
__ZTV15CMemberFunctor2IP12CMaterialVarMS0_FvRK8Vector4DiES2_i12CRefCounted1I8CFunctor24CRefCountServiceDestructI6CRefSTEE18CFuncMemPolicyNoneE
__ZTV15CMemberFunctor2IP12CMaterialVarMS0_FvfiEfi12CRefCounted1I8CFunctor24CRefCountServiceDestructI6CRefSTEE18CFuncMemPolicyNoneE
__ZTV15CMemberFunctor2IP12CMaterialVarMS0_FvmPvEmS2_12CRefCounted1I8CFunctor24CRefCountServiceDestructI6CRefSTEE18CFuncMemPolicyNoneE
__ZTV15CMemberFunctor2IP17IMaterialInternalM9IMaterialFv18MaterialVarFlags_tbES3_b12CRefCounted1I8CFunctor20CRefCountServiceBaseILb1E6CRefMTEE18CFuncMemPolicyNoneE
__ZTV15CMemberFunctor2IP21CMatRenderContextBaseM17IMatRenderContextFvP5IMeshP9IMaterialES4_S6_12CRefCounted1I8CFunctor24CRefCountServiceDestructI6CRefSTEE18CFuncMemPolicyNoneE
__ZTV15CMemberFunctor2IP21CMatRenderContextBaseM17IMatRenderContextFvP8ITexture28MaterialNonInteractiveMode_tES4_S5_12CRefCounted1I8CFunctor24CRefCountServiceDestructI6CRefSTEE18CFuncMemPolicyNoneE
__ZTV15CMemberFunctor2IP21CMatRenderContextBaseM17IMatRenderContextFvP8ITextureiES4_i12CRefCounted1I8CFunctor24CRefCountServiceDestructI6CRefSTEE18CFuncMemPolicyNoneE
__ZTV15CMemberFunctor2IP21CMatRenderContextBaseM17IMatRenderContextFvP9IMaterialPvES4_S5_12CRefCounted1I8CFunctor24CRefCountServiceDestructI6CRefSTEE18CFuncMemPolicyNoneE
__ZTV15CMemberFunctor2IP21CMatRenderContextBaseM17IMatRenderContextFvRK17FlashlightState_tRK7VMatrixES3_S6_12CRefCounted1I8CFunctor24CRefCountServiceDestructI6CRefSTEE18CFuncMemPolicyNoneE
__ZTV15CMemberFunctor2IP21CMatRenderContextBaseM17IMatRenderContextFvbbEbb12CRefCounted1I8CFunctor24CRefCountServiceDestructI6CRefSTEE18CFuncMemPolicyNoneE
__ZTV15CMemberFunctor2IP21CMatRenderContextBaseM17IMatRenderContextFvffEff12CRefCounted1I8CFunctor24CRefCountServiceDestructI6CRefSTEE18CFuncMemPolicyNoneE
__ZTV15CMemberFunctor2IP21CMatRenderContextBaseM17IMatRenderContextFviP8ITextureEiS4_12CRefCounted1I8CFunctor24CRefCountServiceDestructI6CRefSTEE18CFuncMemPolicyNoneE
__ZTV15CMemberFunctor2IP21CMatRenderContextBaseM17IMatRenderContextFviRK11LightDesc_tEiS3_12CRefCounted1I8CFunctor24CRefCountServiceDestructI6CRefSTEE18CFuncMemPolicyNoneE
__ZTV15CMemberFunctor2IP21CMatRenderContextBaseM17IMatRenderContextFviRK11matrix3x4_tEiS3_12CRefCounted1I8CFunctor24CRefCountServiceDestructI6CRefSTEE18CFuncMemPolicyNoneE
__ZTV15CMemberFunctor2IP21CMatRenderContextBaseM17IMatRenderContextFviRK6VectorEiS3_12CRefCounted1I8CFunctor24CRefCountServiceDestructI6CRefSTEE18CFuncMemPolicyNoneE
__ZTV15CMemberFunctor2IP21CMatRenderContextBaseM17IMatRenderContextFvifEif12CRefCounted1I8CFunctor24CRefCountServiceDestructI6CRefSTEE18CFuncMemPolicyNoneE
__ZTV15CMemberFunctor2IP21CMatRenderContextBaseM17IMatRenderContextFviiEii12CRefCounted1I8CFunctor24CRefCountServiceDestructI6CRefSTEE18CFuncMemPolicyNoneE
__ZTV15CMemberFunctor2IP21CMatRenderContextBaseM17IMatRenderContextFvmPKcEm12CUtlEnvelopeIS4_E12CRefCounted1I8CFunctor24CRefCountServiceDestructI6CRefSTEE18CFuncMemPolicyNoneE
__ZTV15CMemberFunctor2IP22IColorCorrectionSystemMS0_FvjbEjb12CRefCounted1I8CFunctor24CRefCountServiceDestructI6CRefSTEE18CFuncMemPolicyNoneE
__ZTV15CMemberFunctor2IP22IColorCorrectionSystemMS0_FvjfEjf12CRefCounted1I8CFunctor24CRefCountServiceDestructI6CRefSTEE18CFuncMemPolicyNoneE
__ZTV15CMemberFunctor2IP23CMatQueuedRenderContextMS0_FvP5IMeshiES3_i12CRefCounted1I8CFunctor24CRefCountServiceDestructI6CRefSTEE18CFuncMemPolicyNoneE
__ZTV15CMemberFunctor2IP23CMatQueuedRenderContextMS0_FvPtiES2_i12CRefCounted1I8CFunctor24CRefCountServiceDestructI6CRefSTEE18CFuncMemPolicyNoneE
__ZTV15CMemberFunctor2IP5IMeshMS0_FvS1_iES1_i12CRefCounted1I8CFunctor24CRefCountServiceDestructI6CRefSTEE18CFuncMemPolicyNoneE
__ZTV15CMemberFunctor2IP5IMeshMS0_FviiEii12CRefCounted1I8CFunctor24CRefCountServiceDestructI6CRefSTEE18CFuncMemPolicyNoneE
__ZTV15CMemberFunctor2IP9CMaterialMS0_Fv18MaterialVarFlags_tbES2_b12CRefCounted1I8CFunctor24CRefCountServiceDestructI6CRefSTEE18CFuncMemPolicyNoneE
__ZTV15CMemberFunctor3IP17IMaterialInternalM9IMaterialFvfffEfff12CRefCounted1I8CFunctor20CRefCountServiceBaseILb1E6CRefMTEE18CFuncMemPolicyNoneE
__ZTV15CMemberFunctor3IP21CMatRenderContextBaseM17IMatRenderContextFvRK17FlashlightState_tRK7VMatrixP8ITextureES3_S6_SA_12CRefCounted1I8CFunctor24CRefCountServiceDestructI6CRefSTEE18CFuncMemPolicyNoneE
__ZTV15CMemberFunctor3IP21CMatRenderContextBaseM17IMatRenderContextFvbbbEbbb12CRefCounted1I8CFunctor24CRefCountServiceDestructI6CRefSTEE18CFuncMemPolicyNoneE
__ZTV15CMemberFunctor3IP21CMatRenderContextBaseM17IMatRenderContextFvfffEfff12CRefCounted1I8CFunctor24CRefCountServiceDestructI6CRefSTEE18CFuncMemPolicyNoneE
__ZTV15CMemberFunctor3IP21CMatRenderContextBaseM17IMatRenderContextFvhhhEhhh12CRefCounted1I8CFunctor24CRefCountServiceDestructI6CRefSTEE18CFuncMemPolicyNoneE
__ZTV15CMemberFunctor3IP21CMatRenderContextBaseM25IMatRenderContextInternalFvP16ITextureInternalP30IAsyncTextureOperationReceiverPvES4_S6_S7_12CRefCounted1I8CFunctor24CRefCountServiceDestructI6CRefSTEE18CFuncMemPolicyNoneE
__ZTV15CMemberFunctor3IP23CMatQueuedRenderContextMS0_FvP5IMeshP9CPrimListiES3_S5_i12CRefCounted1I8CFunctor24CRefCountServiceDestructI6CRefSTEE18CFuncMemPolicyNoneE
__ZTV15CMemberFunctor4IP21CMatRenderContextBaseM17IMatRenderContextFvP8ITexturefffES4_fff12CRefCounted1I8CFunctor24CRefCountServiceDestructI6CRefSTEE18CFuncMemPolicyNoneE
__ZTV15CMemberFunctor4IP21CMatRenderContextBaseM17IMatRenderContextFvP8ITextureiP6Rect_tS6_ES4_i12CUtlEnvelopeIS5_ESA_12CRefCounted1I8CFunctor24CRefCountServiceDestructI6CRefSTEE18CFuncMemPolicyNoneE
__ZTV15CMemberFunctor4IP21CMatRenderContextBaseM17IMatRenderContextFvhhhhEhhhh12CRefCounted1I8CFunctor24CRefCountServiceDestructI6CRefSTEE18CFuncMemPolicyNoneE
__ZTV15CMemberFunctor4IP21CMatRenderContextBaseM17IMatRenderContextFviP8ITextureP6Rect_tS6_EiS4_12CUtlEnvelopeIS5_ESA_12CRefCounted1I8CFunctor24CRefCountServiceDestructI6CRefSTEE18CFuncMemPolicyNoneE
__ZTV15CMemberFunctor4IP21CMatRenderContextBaseM17IMatRenderContextFviiiiEiiii12CRefCounted1I8CFunctor24CRefCountServiceDestructI6CRefSTEE18CFuncMemPolicyNoneE
__ZTV15CMemberFunctor4IP21CMatRenderContextBaseM25IMatRenderContextInternalFvP8ITextureS4_P30IAsyncTextureOperationReceiverPvES4_S4_S6_S7_12CRefCounted1I8CFunctor24CRefCountServiceDestructI6CRefSTEE18CFuncMemPolicyNoneE
__ZTV15CMemberFunctor5IP14CMatQueuedMeshMS0_FvPhiiPtiES2_iiS3_i12CRefCounted1I8CFunctor24CRefCountServiceDestructI6CRefSTEE18CFuncMemPolicyNoneE
__ZTV15CMemberFunctor5IP14CMatQueuedMeshMS0_FvyjP5IMeshS3_P17IMaterialInternalEyjS3_S3_S5_12CRefCounted1I8CFunctor24CRefCountServiceDestructI6CRefSTEE18CFuncMemPolicyNoneE
__ZTV15CMemberFunctor5IP21CMatRenderContextBaseM17IMatRenderContextFvP8ITextureiiiiES4_iiii12CRefCounted1I8CFunctor24CRefCountServiceDestructI6CRefSTEE18CFuncMemPolicyNoneE
__ZTV15CMemberFunctor5IP21CMatRenderContextBaseM17IMatRenderContextFviiiibEiiiib12CRefCounted1I8CFunctor24CRefCountServiceDestructI6CRefSTEE18CFuncMemPolicyNoneE
__ZTV15CMemberFunctor5IP21CMatRenderContextBaseM17IMatRenderContextFviiiiiEiiiii12CRefCounted1I8CFunctor24CRefCountServiceDestructI6CRefSTEE18CFuncMemPolicyNoneE
__ZTV15CMemberFunctor6IP21CMatRenderContextBaseM17IMatRenderContextFvP8ITextureS4_iiiiES4_S4_iiii12CRefCounted1I8CFunctor24CRefCountServiceDestructI6CRefSTEE18CFuncMemPolicyNoneE
__ZTV15CMemberFunctor7IP21CMatRenderContextBaseM17IMatRenderContextFvP8ITexturePKc11ImageFormatbiP30IAsyncTextureOperationReceiverPvES4_S6_S7_biS9_SA_12CRefCounted1I8CFunctor24CRefCountServiceDestructI6CRefSTEE18CFuncMemPolicyNoneE
__ZTV15CTCCombineStage
__ZTV15CTCTextureStage
__ZTV15CTextureManager
__ZTV16CDefaultAccessor
__ZTV16CMaterialSubRect
__ZTV16CMemberFunctor14IP21CMatRenderContextBaseM17IMatRenderContextFvP9IMaterialiiiiffffiiPviiES4_iiiiffffiiS5_ii12CRefCounted1I8CFunctor24CRefCountServiceDestructI6CRefSTEE18CFuncMemPolicyNoneE
__ZTV17CAsyncCopyRequest
__ZTV17CDummyMaterialVar
__ZTV17CMatRenderContext
__ZTV17CReplacementProxy
__ZTV18CCopyableUtlVectorI14AsyncLoadJob_tE
__ZTV18CCopyableUtlVectorI9Sticker_tE
__ZTV18CCopyableUtlVectorIiE
__ZTV18CTextureCompositor
__ZTV18CUtlCharConversion
__ZTV19CUtlNoEscConversion
__ZTV20CCheckerboardTexture
__ZTV20CDummyHardwareConfig
__ZTV20CDummyMaterialSystem
__ZTV20CTCApplyStickerStage
__ZTV20CTextureStreamingJob
__ZTV21CMatNullRenderContext
__ZTV21CMatRenderContextBase
__ZTV21CNormalizationCubemap
__ZTV21CUtlCStringConversion
__ZTV22CColorCorrectionSystem
__ZTV23CColorCorrectionTexture
__ZTV23CMatQueuedRenderContext
__ZTV23CMaterial_QueueFriendly
__ZTV23CTextureBitsRegenerator
__ZTV24CShaderLibConVarAccessor
__ZTV25CConCommandMemberAccessorI15CMaterialSystemE
__ZTV25CReferenceToHandleTexture
__ZTV27CSignedNormalizationCubemap
__ZTV29CKeyValuesDumpContextAsDevMsg
__ZTV4CJob
__ZTV6CMorph
__ZTV6ConVar
__ZTV8CTCStage
__ZTV8CTexture
__ZTV9CMaterial
__ZTV9CMorphMgr
__ZTVN10__cxxabiv117__class_type_infoE
__ZTVN10__cxxabiv120__si_class_type_infoE
__ZTVN10__cxxabiv121__vmi_class_type_infoE
__ZTVN23CMatQueuedRenderContext18CCallQueueExternalE
__ZThn24_N12CEmptyConVar8SetValueEPKc
__ZThn24_N12CEmptyConVar8SetValueEf
__ZThn24_N12CEmptyConVar8SetValueEi
__ZThn24_N6ConVar8SetValueEPKc
__ZThn24_N6ConVar8SetValueEf
__ZThn24_N6ConVar8SetValueEi
__ZThn24_NK12CEmptyConVar7GetNameEv
__ZThn24_NK12CEmptyConVar9IsFlagSetEi
__ZThn24_NK6ConVar7GetNameEv
__ZThn24_NK6ConVar9IsFlagSetEi
__ZThn36_N25CConCommandMemberAccessorI15CMaterialSystemE15CommandCallbackERK8CCommand
__ZThn40_N25CConCommandMemberAccessorI15CMaterialSystemE25CommandCompletionCallbackEPKcR10CUtlVectorI10CUtlString10CUtlMemoryIS5_iEE
__ZThn4_N10CDummyMesh11ModifyBeginEbiiR11IndexDesc_t
__ZThn4_N10CDummyMesh12ValidateDataEiRK11IndexDesc_t
__ZThn4_N10CDummyMesh13EndCastBufferEv
__ZThn4_N10CDummyMesh15BeginCastBufferE21MaterialIndexFormat_t
__ZThn4_N10CDummyMesh4LockEibR11IndexDesc_t
__ZThn4_N10CDummyMesh4SpewEiRK11IndexDesc_t
__ZThn4_N10CDummyMesh6UnlockEiR11IndexDesc_t
__ZThn4_N10CDummyMesh9ModifyEndER11IndexDesc_t
__ZThn4_N10CDummyMeshD0Ev
__ZThn4_N10CDummyMeshD1Ev
__ZThn4_N10CShaderDLL12InsertShaderEP7IShader
__ZThn4_N11CFunctorJobD0Ev
__ZThn4_N11CFunctorJobD1Ev
__ZThn4_N13CShaderSystem11BindTextureE9Sampler_tP8ITexturei
__ZThn4_N13CShaderSystem11BindTextureE9Sampler_tS0_P8ITexturei
__ZThn4_N13CShaderSystem12DrawSnapshotEb
__ZThn4_N13CShaderSystem12TakeSnapshotEv
__ZThn4_N13CShaderSystem29GetShaderAPITextureBindHandleEP8ITextureii
__ZThn4_N14CMatQueuedMesh11ModifyBeginEbiiR11IndexDesc_t
__ZThn4_N14CMatQueuedMesh12ValidateDataEiRK11IndexDesc_t
__ZThn4_N14CMatQueuedMesh13EndCastBufferEv
__ZThn4_N14CMatQueuedMesh15BeginCastBufferE21MaterialIndexFormat_t
__ZThn4_N14CMatQueuedMesh4LockEibR11IndexDesc_t
__ZThn4_N14CMatQueuedMesh4SpewEiRK11IndexDesc_t
__ZThn4_N14CMatQueuedMesh6UnlockEiR11IndexDesc_t
__ZThn4_N14CMatQueuedMesh9ModifyEndER11IndexDesc_t
__ZThn4_N14CMatQueuedMeshD0Ev
__ZThn4_N14CMatQueuedMeshD1Ev
__ZThn4_N14CThreadAcquireD0Ev
__ZThn4_N14CThreadAcquireD1Ev
__ZThn4_N14CThreadReleaseD0Ev
__ZThn4_N14CThreadReleaseD1Ev
__ZThn4_N17CMatRenderContextD0Ev
__ZThn4_N17CMatRenderContextD1Ev
__ZThn4_N20CDummyMaterialSystem10BeginBatchEP5IMesh
__ZThn4_N20CDummyMaterialSystem10DepthRangeEff
__ZThn4_N20CDummyMaterialSystem10FogColor3fEfff
__ZThn4_N20CDummyMaterialSystem10GetFogModeEv
__ZThn4_N20CDummyMaterialSystem10LoadLookupEjPKc
__ZThn4_N20CDummyMaterialSystem10LoadMatrixERK11matrix3x4_t
__ZThn4_N20CDummyMaterialSystem10LoadMatrixERK7VMatrix
__ZThn4_N20CDummyMaterialSystem10LockLookupEj
__ZThn4_N20CDummyMaterialSystem10MatrixModeE20MaterialMatrixMode_t
__ZThn4_N20CDummyMaterialSystem10MultMatrixERK11matrix3x4_t
__ZThn4_N20CDummyMaterialSystem10MultMatrixERK7VMatrix
__ZThn4_N20CDummyMaterialSystem10PickMatrixEiiii
__ZThn4_N20CDummyMaterialSystem10PushMatrixEv
__ZThn4_N20CDummyMaterialSystem10ReadPixelsEiiiiPh11ImageFormat
__ZThn4_N20CDummyMaterialSystem11BeginRenderEv
__ZThn4_N20CDummyMaterialSystem11CreateMorphEjPKc
__ZThn4_N20CDummyMaterialSystem11EndPIXEventEv
__ZThn4_N20CDummyMaterialSystem11FogColor3fvEPKf
__ZThn4_N20CDummyMaterialSystem11FogColor3ubEhhh
__ZThn4_N20CDummyMaterialSystem11GetFlexMeshEv
__ZThn4_N20CDummyMaterialSystem11GetFogColorEPh
__ZThn4_N20CDummyMaterialSystem12ClearBuffersEbbb
__ZThn4_N20CDummyMaterialSystem12DestroyMorphEP6IMorph
__ZThn4_N20CDummyMaterialSystem12FogColor3ubvEPKh
__ZThn4_N20CDummyMaterialSystem12GetCallQueueEv
__ZThn4_N20CDummyMaterialSystem12LoadIdentityEv
__ZThn4_N20CDummyMaterialSystem12PerspectiveXEdddd
__ZThn4_N20CDummyMaterialSystem12RemoveLookupEj
__ZThn4_N20CDummyMaterialSystem12SetPIXMarkerEmPKc
__ZThn4_N20CDummyMaterialSystem12SetResetableEjb
__ZThn4_N20CDummyMaterialSystem12UnlockLookupEj
__ZThn4_N20CDummyMaterialSystem13BeginPIXEventEmPKc
__ZThn4_N20CDummyMaterialSystem13ClearColor3ubEhhh
__ZThn4_N20CDummyMaterialSystem13ClearColor4ubEhhhh
__ZThn4_N20CDummyMaterialSystem13FogMaxDensityEf
__ZThn4_N20CDummyMaterialSystem13SelectionModeEb
__ZThn4_N20CDummyMaterialSystem14EnableClippingEb
__ZThn4_N20CDummyMaterialSystem14GetDynamicMeshEbP5IMeshS1_P9IMaterial
__ZThn4_N20CDummyMaterialSystem14GetMaxToRenderEP5IMeshbPiS2_
__ZThn4_N20CDummyMaterialSystem14LoadBoneMatrixEiRK11matrix3x4_t
__ZThn4_N20CDummyMaterialSystem14LockRenderDataEi
__ZThn4_N20CDummyMaterialSystem14PopDeformationEv
__ZThn4_N20CDummyMaterialSystem14SetFlexWeightsEiiPK13MorphWeight_t
__ZThn4_N20CDummyMaterialSystem14SetHeightClipZEf
__ZThn4_N20CDummyMaterialSystem14SetScissorRectEiiiib
__ZThn4_N20CDummyMaterialSystem15AccumulateMorphEP6IMorphiPK13MorphWeight_t
__ZThn4_N20CDummyMaterialSystem15BindIndexBufferEP12IIndexBufferi
__ZThn4_N20CDummyMaterialSystem15GetCurrentProxyEv
__ZThn4_N20CDummyMaterialSystem15GetFogDistancesEPfS0_S0_
__ZThn4_N20CDummyMaterialSystem15GetLocalCubemapEv
__ZThn4_N20CDummyMaterialSystem15GetRenderTargetEv
__ZThn4_N20CDummyMaterialSystem15MultMatrixLocalERK11matrix3x4_t
__ZThn4_N20CDummyMaterialSystem15MultMatrixLocalERK7VMatrix
__ZThn4_N20CDummyMaterialSystem15PushDeformationEPK17DeformationBase_t
__ZThn4_N20CDummyMaterialSystem15SelectionBufferEPji
__ZThn4_N20CDummyMaterialSystem15SetAmbientLightEfff
__ZThn4_N20CDummyMaterialSystem15SetLookupWeightEjf
__ZThn4_N20CDummyMaterialSystem15SetRenderTargetEP8ITexture
__ZThn4_N20CDummyMaterialSystem16AddRefRenderDataEv
__ZThn4_N20CDummyMaterialSystem16BindLightmapPageEi
__ZThn4_N20CDummyMaterialSystem16BindLocalCubemapEP8ITexture
__ZThn4_N20CDummyMaterialSystem16BindVertexBufferEiP13IVertexBufferiiiyi
__ZThn4_N20CDummyMaterialSystem16CreateStaticMeshEyPKcP9IMaterial
__ZThn4_N20CDummyMaterialSystem16GetDynamicMeshExEybP5IMeshS1_P9IMaterial
__ZThn4_N20CDummyMaterialSystem16PopSelectionNameEv
__ZThn4_N20CDummyMaterialSystem16SetStencilEnableEb
__ZThn4_N20CDummyMaterialSystem16UnlockRenderDataEPv
__ZThn4_N20CDummyMaterialSystem17DestroyStaticMeshEP5IMesh
__ZThn4_N20CDummyMaterialSystem17GetHeightClipModeEv
__ZThn4_N20CDummyMaterialSystem17LoadSelectionNameEi
__ZThn4_N20CDummyMaterialSystem17PushSelectionNameEi
__ZThn4_N20CDummyMaterialSystem17ReleaseRenderDataEv
__ZThn4_N20CDummyMaterialSystem17SetFlashlightModeEb
__ZThn4_N20CDummyMaterialSystem17SetHeightClipModeE24MaterialHeightClipMode_t
__ZThn4_N20CDummyMaterialSystem17SetLightingOriginE6Vector
__ZThn4_N20CDummyMaterialSystem17SetNumBoneWeightsEi
__ZThn4_N20CDummyMaterialSystem17SetRenderTargetExEiP8ITexture
__ZThn4_N20CDummyMaterialSystem17TurnOnToneMappingEv
__ZThn4_N20CDummyMaterialSystem17UserClipTransformERK7VMatrix
__ZThn4_N20CDummyMaterialSystem18DestroyIndexBufferEP12IIndexBuffer
__ZThn4_N20CDummyMaterialSystem18GetCurrentMaterialEv
__ZThn4_N20CDummyMaterialSystem18PopCustomClipPlaneEv
__ZThn4_N20CDummyMaterialSystem18ResetLookupWeightsEv
__ZThn4_N20CDummyMaterialSystem18SetFlashlightStateERK17FlashlightState_tRK7VMatrix
__ZThn4_N20CDummyMaterialSystem18SetStencilTestMaskEj
__ZThn4_N20CDummyMaterialSystem19BindLightmapTextureEP8ITexture
__ZThn4_N20CDummyMaterialSystem19ClearSelectionNamesEv
__ZThn4_N20CDummyMaterialSystem19DestroyVertexBufferEP13IVertexBuffer
__ZThn4_N20CDummyMaterialSystem19DrawScreenSpaceQuadEP9IMaterial
__ZThn4_N20CDummyMaterialSystem19OverrideDepthEnableEbb
__ZThn4_N20CDummyMaterialSystem19PushCustomClipPlaneEPKf
__ZThn4_N20CDummyMaterialSystem19SetAmbientLightCubeEP8Vector4D
__ZThn4_N20CDummyMaterialSystem19SetStencilWriteMaskEj
__ZThn4_N20CDummyMaterialSystem20EndMorphAccumulationEv
__ZThn4_N20CDummyMaterialSystem20ReadPixelsAndStretchEP6Rect_tS1_Ph11ImageFormati
__ZThn4_N20CDummyMaterialSystem20SetFlashlightStateExERK17FlashlightState_tRK7VMatrixP8ITexture
__ZThn4_N20CDummyMaterialSystem21CompareMaterialCombosEP9IMaterialS1_ii
__ZThn4_N20CDummyMaterialSystem21DisableAllLocalLightsEv
__ZThn4_N20CDummyMaterialSystem21EnableColorCorrectionEb
__ZThn4_N20CDummyMaterialSystem21GetDynamicIndexBufferE21MaterialIndexFormat_tb
__ZThn4_N20CDummyMaterialSystem21GetMaxIndicesToRenderEv
__ZThn4_N20CDummyMaterialSystem21PerspectiveOffCenterXEdddddddd
__ZThn4_N20CDummyMaterialSystem21ResetToneMappingScaleEf
__ZThn4_N20CDummyMaterialSystem22BeginMorphAccumulationEv
__ZThn4_N20CDummyMaterialSystem22GetDynamicVertexBufferEiyb
__ZThn4_N20CDummyMaterialSystem22GetMaxVerticesToRenderEP9IMaterial
__ZThn4_N20CDummyMaterialSystem23ClearBuffersObeyStencilEbb
__ZThn4_N20CDummyMaterialSystem23CreateStaticIndexBufferE21MaterialIndexFormat_tiPKc
__ZThn4_N20CDummyMaterialSystem23SetGoalToneMappingScaleEf
__ZThn4_N20CDummyMaterialSystem23SetStencilFailOperationE18StencilOperation_t
__ZThn4_N20CDummyMaterialSystem23SetStencilPassOperationE18StencilOperation_t
__ZThn4_N20CDummyMaterialSystem24CreateStaticVertexBufferEyiPKc
__ZThn4_N20CDummyMaterialSystem24DrawScreenSpaceRectangleEP9IMaterialiiiiffffiiPvii
__ZThn4_N20CDummyMaterialSystem24EnableNonInteractiveModeE28MaterialNonInteractiveMode_t
__ZThn4_N20CDummyMaterialSystem24EndOcclusionQueryDrawingEP30OcclusionQueryObjectHandle_t__
__ZThn4_N20CDummyMaterialSystem24OverrideAlphaWriteEnableEbb
__ZThn4_N20CDummyMaterialSystem24OverrideColorWriteEnableEbb
__ZThn4_N20CDummyMaterialSystem24SetIntRenderingParameterEii
__ZThn4_N20CDummyMaterialSystem24SetStencilReferenceValueEi
__ZThn4_N20CDummyMaterialSystem24SetStencilZFailOperationE18StencilOperation_t
__ZThn4_N20CDummyMaterialSystem25ClearBuffersObeyStencilExEbbb
__ZThn4_N20CDummyMaterialSystem25ComputePixelWidthOfSphereERK6Vectorf
__ZThn4_N20CDummyMaterialSystem25CopyRenderTargetToTextureEP8ITexture
__ZThn4_N20CDummyMaterialSystem25GetFrameBufferCopyTextureEi
__ZThn4_N20CDummyMaterialSystem25GetToneMappingScaleLinearEv
__ZThn4_N20CDummyMaterialSystem25ResetOcclusionQueryObjectEP30OcclusionQueryObjectHandle_t__
__ZThn4_N20CDummyMaterialSystem25SetFrameBufferCopyTextureEP8ITexturei
__ZThn4_N20CDummyMaterialSystem25SetShadowDepthBiasFactorsEff
__ZThn4_N20CDummyMaterialSystem25SetStencilCompareFunctionE27StencilComparisonFunction_t
__ZThn4_N20CDummyMaterialSystem25SetToneMappingScaleLinearERK6Vector
__ZThn4_N20CDummyMaterialSystem26BeginOcclusionQueryDrawingEP30OcclusionQueryObjectHandle_t__
__ZThn4_N20CDummyMaterialSystem26CreateOcclusionQueryObjectEv
__ZThn4_N20CDummyMaterialSystem26GetWorldSpaceCameraVectorsEP6VectorS1_S1_
__ZThn4_N20CDummyMaterialSystem26PopRenderTargetAndViewportEv
__ZThn4_N20CDummyMaterialSystem26SetFloatRenderingParameterEif
__ZThn4_N20CDummyMaterialSystem27ClearStencilBufferRectangleEiiiii
__ZThn4_N20CDummyMaterialSystem27CopyRenderTargetToTextureExEP8ITextureiP6Rect_tS3_
__ZThn4_N20CDummyMaterialSystem27CopyTextureToRenderTargetExEiP8ITextureP6Rect_tS3_
__ZThn4_N20CDummyMaterialSystem27DestroyOcclusionQueryObjectEP30OcclusionQueryObjectHandle_t__
__ZThn4_N20CDummyMaterialSystem27GetMorphAccumulatorTexCoordEP8Vector2DP6IMorphi
__ZThn4_N20CDummyMaterialSystem27GetWorldSpaceCameraPositionEP6Vector
__ZThn4_N20CDummyMaterialSystem27PushRenderTargetAndViewportEP8ITexture
__ZThn4_N20CDummyMaterialSystem27PushRenderTargetAndViewportEP8ITextureS1_iiii
__ZThn4_N20CDummyMaterialSystem27PushRenderTargetAndViewportEP8ITextureiiii
__ZThn4_N20CDummyMaterialSystem27PushRenderTargetAndViewportEv
__ZThn4_N20CDummyMaterialSystem27SetVectorRenderingParameterEiRK6Vector
__ZThn4_N20CDummyMaterialSystem28ComputePixelDiameterOfSphereERK6Vectorf
__ZThn4_N20CDummyMaterialSystem31EnableUserClipTransformOverrideEb
__ZThn4_N20CDummyMaterialSystem32RefreshFrontBufferNonInteractiveEv
__ZThn4_N20CDummyMaterialSystem32SetNonInteractivePacifierTextureEP8ITexturefff
__ZThn4_N20CDummyMaterialSystem33PerformFullScreenStencilOperationEv
__ZThn4_N20CDummyMaterialSystem34AsyncCreateTextureFromRenderTargetEP8ITexturePKc11ImageFormatbiP30IAsyncTextureOperationReceiverPv
__ZThn4_N20CDummyMaterialSystem35OcclusionQuery_GetNumPixelsRenderedEP30OcclusionQueryObjectHandle_t__
__ZThn4_N20CDummyMaterialSystem37SetFullScreenDepthTextureValidityFlagEb
__ZThn4_N20CDummyMaterialSystem37SetNonInteractiveTempFullscreenBufferEP8ITexture28MaterialNonInteractiveMode_t
__ZThn4_N20CDummyMaterialSystem4BindEP9IMaterialPv
__ZThn4_N20CDummyMaterialSystem4DrawE23MaterialPrimitiveType_tii
__ZThn4_N20CDummyMaterialSystem4KnobEPcPf
__ZThn4_N20CDummyMaterialSystem5FlushEb
__ZThn4_N20CDummyMaterialSystem5OrthoEdddddd
__ZThn4_N20CDummyMaterialSystem5ScaleEfff
__ZThn4_N20CDummyMaterialSystem6FogEndEf
__ZThn4_N20CDummyMaterialSystem6PrintfEPKcz
__ZThn4_N20CDummyMaterialSystem6RotateEffff
__ZThn4_N20CDummyMaterialSystem7FogModeE17MaterialFogMode_t
__ZThn4_N20CDummyMaterialSystem7SetFogZEf
__ZThn4_N20CDummyMaterialSystem8CullModeE18MaterialCullMode_t
__ZThn4_N20CDummyMaterialSystem8EndBatchEv
__ZThn4_N20CDummyMaterialSystem8FogStartEf
__ZThn4_N20CDummyMaterialSystem8PrintfVAEPcS0_
__ZThn4_N20CDummyMaterialSystem8SetLightEiRK11LightDesc_t
__ZThn4_N20CDummyMaterialSystem8ViewportEiiii
__ZThn4_N20CDummyMaterialSystem9AddLookupEPKc
__ZThn4_N20CDummyMaterialSystem9BindBatchEP5IMeshP9IMaterial
__ZThn4_N20CDummyMaterialSystem9BindMorphEP6IMorph
__ZThn4_N20CDummyMaterialSystem9DrawBatchEii
__ZThn4_N20CDummyMaterialSystem9EndRenderEv
__ZThn4_N20CDummyMaterialSystem9GetMatrixE20MaterialMatrixMode_tP11matrix3x4_t
__ZThn4_N20CDummyMaterialSystem9GetMatrixE20MaterialMatrixMode_tP7VMatrix
__ZThn4_N20CDummyMaterialSystem9PopMatrixEv
__ZThn4_N20CDummyMaterialSystem9SyncTokenEPKc
__ZThn4_N20CDummyMaterialSystem9TranslateEfff
__ZThn4_N20CDummyMaterialSystemD0Ev
__ZThn4_N20CDummyMaterialSystemD1Ev
__ZThn4_N21CMatNullRenderContextD0Ev
__ZThn4_N21CMatNullRenderContextD1Ev
__ZThn4_N21CMatRenderContextBaseD0Ev
__ZThn4_N21CMatRenderContextBaseD1Ev
__ZThn4_N23CMatQueuedRenderContextD0Ev
__ZThn4_N23CMatQueuedRenderContextD1Ev
__ZThn4_N4CJobD0Ev
__ZThn4_N4CJobD1Ev
__ZThn4_N6CMorph21RegenerateTextureBitsEP8ITextureP11IVTFTextureP6Rect_t
__ZThn4_N6CMorph7ReleaseEv
__ZThn4_NK10CDummyMesh10IndexCountEv
__ZThn4_NK10CDummyMesh11IndexFormatEv
__ZThn4_NK10CDummyMesh16GetRoomRemainingEv
__ZThn4_NK10CDummyMesh9IsDynamicEv
__ZThn4_NK13CShaderSystem15IsUsingGraphicsEv
__ZThn4_NK13CShaderSystem21CanUseEditorMaterialsEv
__ZThn4_NK14CMatQueuedMesh10IndexCountEv
__ZThn4_NK14CMatQueuedMesh11IndexFormatEv
__ZThn4_NK14CMatQueuedMesh16GetRoomRemainingEv
__ZThn4_NK14CMatQueuedMesh9IsDynamicEv
__ZThn4_NK20CDummyMaterialSystem11GetViewportERiS0_S0_S0_
__ZThn4_NK20CDummyMaterialSystem12IsRenderDataEPKv
__ZThn4_NK20CDummyMaterialSystem13GetWindowSizeERiS0_
__ZThn4_NK20CDummyMaterialSystem17GetFlashlightModeEv
__ZThn4_NK20CDummyMaterialSystem18GetCurrentNumBonesEv
__ZThn4_NK20CDummyMaterialSystem24GetNumActiveDeformationsEv
__ZThn4_NK20CDummyMaterialSystem25GetRenderTargetDimensionsERiS0_
__ZThn8_N15CMaterialSystem10DisconnectEv
__ZThn8_N15CMaterialSystem10OnDrawMeshEP5IMeshP9CPrimListi
__ZThn8_N15CMaterialSystem10OnDrawMeshEP5IMeshii
__ZThn8_N15CMaterialSystem10SyncMatrixE20MaterialMatrixMode_t
__ZThn8_N15CMaterialSystem12IsInStubModeEv
__ZThn8_N15CMaterialSystem12SyncMatricesEv
__ZThn8_N15CMaterialSystem13GetThreadModeEv
__ZThn8_N15CMaterialSystem13OnSetFlexMeshEP5IMeshS1_i
__ZThn8_N15CMaterialSystem13OnThreadEventEj
__ZThn8_N15CMaterialSystem14GetMemRequiredEiii11ImageFormatb
__ZThn8_N15CMaterialSystem14OnSetColorMeshEP5IMeshS1_i
__ZThn8_N15CMaterialSystem14QueryInterfaceEPKc
__ZThn8_N15CMaterialSystem17GetRenderTargetExEi
__ZThn8_N15CMaterialSystem18ConvertImageFormatEPh11ImageFormatS0_S1_iiii
__ZThn8_N15CMaterialSystem18IsRenderThreadSafeEv
__ZThn8_N15CMaterialSystem18OnSetPrimitiveTypeEP5IMesh23MaterialPrimitiveType_t
__ZThn8_N15CMaterialSystem19BindStandardTextureE9Sampler_t19StandardTextureId_t
__ZThn8_N15CMaterialSystem19DrawClearBufferQuadEhhhhbbb
__ZThn8_N15CMaterialSystem19GetBoundMorphFormatEv
__ZThn8_N15CMaterialSystem20NoteAnisotropicLevelEi
__ZThn8_N15CMaterialSystem20ReleaseShaderObjectsEv
__ZThn8_N15CMaterialSystem20RestoreShaderObjectsEPFPvPKcPiEi
__ZThn8_N15CMaterialSystem21GetLightmapDimensionsEPiS0_
__ZThn8_N15CMaterialSystem22UncacheUnusedMaterialsEb
__ZThn8_N15CMaterialSystem25BindStandardVertexTextureE22VertexTextureSampler_t19StandardTextureId_t
__ZThn8_N15CMaterialSystem25GetCurrentColorCorrectionEP27ShaderColorCorrectionInfo_t
__ZThn8_N15CMaterialSystem25OnFlushBufferedPrimitivesEv
__ZThn8_N15CMaterialSystem28GetStandardTextureDimensionsEPiS0_19StandardTextureId_t
__ZThn8_N15CMaterialSystem4InitEv
__ZThn8_N15CMaterialSystem7ConnectEPFPvPKcPiE
__ZThn8_N15CMaterialSystem8ShutdownEv
__ZThn8_N15CMaterialSystem9GetConfigEv
__ZThn8_N15CMemberFunctor0I13CLateBoundPtrI5IMeshEMS1_FvvE12CRefCounted1I8CFunctor24CRefCountServiceDestructI6CRefSTEE18CFuncMemPolicyNoneED0Ev
__ZThn8_N15CMemberFunctor0I13CLateBoundPtrI5IMeshEMS1_FvvE12CRefCounted1I8CFunctor24CRefCountServiceDestructI6CRefSTEE18CFuncMemPolicyNoneED1Ev
__ZThn8_N15CMemberFunctor0IP10IShaderAPIMS0_FvvE12CRefCounted1I8CFunctor24CRefCountServiceDestructI6CRefSTEE18CFuncMemPolicyNoneED0Ev
__ZThn8_N15CMemberFunctor0IP10IShaderAPIMS0_FvvE12CRefCounted1I8CFunctor24CRefCountServiceDestructI6CRefSTEE18CFuncMemPolicyNoneED1Ev
__ZThn8_N15CMemberFunctor0IP12CMaterialVarMS0_FvvE12CRefCounted1I8CFunctor24CRefCountServiceDestructI6CRefSTEE18CFuncMemPolicyNoneED0Ev
__ZThn8_N15CMemberFunctor0IP12CMaterialVarMS0_FvvE12CRefCounted1I8CFunctor24CRefCountServiceDestructI6CRefSTEE18CFuncMemPolicyNoneED1Ev
__ZThn8_N15CMemberFunctor0IP13CMatLightmapsMS0_FvvE12CRefCounted1I8CFunctor24CRefCountServiceDestructI6CRefSTEE18CFuncMemPolicyNoneED0Ev
__ZThn8_N15CMemberFunctor0IP13CMatLightmapsMS0_FvvE12CRefCounted1I8CFunctor24CRefCountServiceDestructI6CRefSTEE18CFuncMemPolicyNoneED1Ev
__ZThn8_N15CMemberFunctor0IP17IMaterialInternalM9IMaterialFvvE12CRefCounted1I8CFunctor20CRefCountServiceBaseILb1E6CRefMTEE18CFuncMemPolicyNoneED0Ev
__ZThn8_N15CMemberFunctor0IP17IMaterialInternalM9IMaterialFvvE12CRefCounted1I8CFunctor20CRefCountServiceBaseILb1E6CRefMTEE18CFuncMemPolicyNoneED1Ev
__ZThn8_N15CMemberFunctor0IP21CMatRenderContextBaseM17IMatRenderContextFvvE12CRefCounted1I8CFunctor24CRefCountServiceDestructI6CRefSTEE18CFuncMemPolicyNoneED0Ev
__ZThn8_N15CMemberFunctor0IP21CMatRenderContextBaseM17IMatRenderContextFvvE12CRefCounted1I8CFunctor24CRefCountServiceDestructI6CRefSTEE18CFuncMemPolicyNoneED1Ev
__ZThn8_N15CMemberFunctor0IP21CMatRenderContextBaseM25IMatRenderContextInternalFvvE12CRefCounted1I8CFunctor24CRefCountServiceDestructI6CRefSTEE18CFuncMemPolicyNoneED0Ev
__ZThn8_N15CMemberFunctor0IP21CMatRenderContextBaseM25IMatRenderContextInternalFvvE12CRefCounted1I8CFunctor24CRefCountServiceDestructI6CRefSTEE18CFuncMemPolicyNoneED1Ev
__ZThn8_N15CMemberFunctor0IP22IColorCorrectionSystemMS0_FvvE12CRefCounted1I8CFunctor24CRefCountServiceDestructI6CRefSTEE18CFuncMemPolicyNoneED0Ev
__ZThn8_N15CMemberFunctor0IP22IColorCorrectionSystemMS0_FvvE12CRefCounted1I8CFunctor24CRefCountServiceDestructI6CRefSTEE18CFuncMemPolicyNoneED1Ev
__ZThn8_N15CMemberFunctor0IP9CMaterialMS0_FvvE12CRefCounted1I8CFunctor24CRefCountServiceDestructI6CRefSTEE18CFuncMemPolicyNoneED0Ev
__ZThn8_N15CMemberFunctor0IP9CMaterialMS0_FvvE12CRefCounted1I8CFunctor24CRefCountServiceDestructI6CRefSTEE18CFuncMemPolicyNoneED1Ev
__ZThn8_N15CMemberFunctor1I13CLateBoundPtrI5IMeshEMS1_Fv23MaterialPrimitiveType_tES3_12CRefCounted1I8CFunctor24CRefCountServiceDestructI6CRefSTEE18CFuncMemPolicyNoneED0Ev
__ZThn8_N15CMemberFunctor1I13CLateBoundPtrI5IMeshEMS1_Fv23MaterialPrimitiveType_tES3_12CRefCounted1I8CFunctor24CRefCountServiceDestructI6CRefSTEE18CFuncMemPolicyNoneED1Ev
__ZThn8_N15CMemberFunctor1IP12CMaterialVarMS0_FvP12IMaterialVarES3_12CRefCounted1I8CFunctor24CRefCountServiceDestructI6CRefSTEE18CFuncMemPolicyNoneED0Ev
__ZThn8_N15CMemberFunctor1IP12CMaterialVarMS0_FvP12IMaterialVarES3_12CRefCounted1I8CFunctor24CRefCountServiceDestructI6CRefSTEE18CFuncMemPolicyNoneED1Ev
__ZThn8_N15CMemberFunctor1IP12CMaterialVarMS0_FvP8ITextureES3_12CRefCounted1I8CFunctor24CRefCountServiceDestructI6CRefSTEE18CFuncMemPolicyNoneED0Ev
__ZThn8_N15CMemberFunctor1IP12CMaterialVarMS0_FvP8ITextureES3_12CRefCounted1I8CFunctor24CRefCountServiceDestructI6CRefSTEE18CFuncMemPolicyNoneED1Ev
__ZThn8_N15CMemberFunctor1IP12CMaterialVarMS0_FvP9IMaterialES3_12CRefCounted1I8CFunctor24CRefCountServiceDestructI6CRefSTEE18CFuncMemPolicyNoneED0Ev
__ZThn8_N15CMemberFunctor1IP12CMaterialVarMS0_FvP9IMaterialES3_12CRefCounted1I8CFunctor24CRefCountServiceDestructI6CRefSTEE18CFuncMemPolicyNoneED1Ev
__ZThn8_N15CMemberFunctor1IP12CMaterialVarMS0_FvPKcE12CUtlEnvelopeIS3_E12CRefCounted1I8CFunctor24CRefCountServiceDestructI6CRefSTEE18CFuncMemPolicyNoneED0Ev
__ZThn8_N15CMemberFunctor1IP12CMaterialVarMS0_FvPKcE12CUtlEnvelopeIS3_E12CRefCounted1I8CFunctor24CRefCountServiceDestructI6CRefSTEE18CFuncMemPolicyNoneED1Ev
__ZThn8_N15CMemberFunctor1IP12CMaterialVarMS0_FvRK7VMatrixES2_12CRefCounted1I8CFunctor24CRefCountServiceDestructI6CRefSTEE18CFuncMemPolicyNoneED0Ev
__ZThn8_N15CMemberFunctor1IP12CMaterialVarMS0_FvRK7VMatrixES2_12CRefCounted1I8CFunctor24CRefCountServiceDestructI6CRefSTEE18CFuncMemPolicyNoneED1Ev
__ZThn8_N15CMemberFunctor1IP12CMaterialVarMS0_FvfEf12CRefCounted1I8CFunctor24CRefCountServiceDestructI6CRefSTEE18CFuncMemPolicyNoneED0Ev
__ZThn8_N15CMemberFunctor1IP12CMaterialVarMS0_FvfEf12CRefCounted1I8CFunctor24CRefCountServiceDestructI6CRefSTEE18CFuncMemPolicyNoneED1Ev
__ZThn8_N15CMemberFunctor1IP12CMaterialVarMS0_FviEi12CRefCounted1I8CFunctor24CRefCountServiceDestructI6CRefSTEE18CFuncMemPolicyNoneED0Ev
__ZThn8_N15CMemberFunctor1IP12CMaterialVarMS0_FviEi12CRefCounted1I8CFunctor24CRefCountServiceDestructI6CRefSTEE18CFuncMemPolicyNoneED1Ev
__ZThn8_N15CMemberFunctor1IP15CMaterialSystemMS0_FvP23CMatQueuedRenderContextES3_12CRefCounted1I8CFunctor20CRefCountServiceBaseILb1E6CRefMTEE18CFuncMemPolicyNoneED0Ev
__ZThn8_N15CMemberFunctor1IP15CMaterialSystemMS0_FvP23CMatQueuedRenderContextES3_12CRefCounted1I8CFunctor20CRefCountServiceBaseILb1E6CRefMTEE18CFuncMemPolicyNoneED1Ev
__ZThn8_N15CMemberFunctor1IP17IMaterialInternalM9IMaterialFvbEb12CRefCounted1I8CFunctor20CRefCountServiceBaseILb1E6CRefMTEE18CFuncMemPolicyNoneED0Ev
__ZThn8_N15CMemberFunctor1IP17IMaterialInternalM9IMaterialFvbEb12CRefCounted1I8CFunctor20CRefCountServiceBaseILb1E6CRefMTEE18CFuncMemPolicyNoneED1Ev
__ZThn8_N15CMemberFunctor1IP17IMaterialInternalM9IMaterialFvfEf12CRefCounted1I8CFunctor20CRefCountServiceBaseILb1E6CRefMTEE18CFuncMemPolicyNoneED0Ev
__ZThn8_N15CMemberFunctor1IP17IMaterialInternalM9IMaterialFvfEf12CRefCounted1I8CFunctor20CRefCountServiceBaseILb1E6CRefMTEE18CFuncMemPolicyNoneED1Ev
__ZThn8_N15CMemberFunctor1IP18COcclusionQueryMgrMS0_FvP30OcclusionQueryObjectHandle_t__ES3_12CRefCounted1I8CFunctor24CRefCountServiceDestructI6CRefSTEE18CFuncMemPolicyNoneED0Ev
__ZThn8_N15CMemberFunctor1IP18COcclusionQueryMgrMS0_FvP30OcclusionQueryObjectHandle_t__ES3_12CRefCounted1I8CFunctor24CRefCountServiceDestructI6CRefSTEE18CFuncMemPolicyNoneED1Ev
__ZThn8_N15CMemberFunctor1IP21CMatRenderContextBaseM17IMatRenderContextFbbEb12CRefCounted1I8CFunctor24CRefCountServiceDestructI6CRefSTEE18CFuncMemPolicyNoneED0Ev
__ZThn8_N15CMemberFunctor1IP21CMatRenderContextBaseM17IMatRenderContextFbbEb12CRefCounted1I8CFunctor24CRefCountServiceDestructI6CRefSTEE18CFuncMemPolicyNoneED1Ev
__ZThn8_N15CMemberFunctor1IP21CMatRenderContextBaseM17IMatRenderContextFv17MaterialFogMode_tES3_12CRefCounted1I8CFunctor24CRefCountServiceDestructI6CRefSTEE18CFuncMemPolicyNoneED0Ev
__ZThn8_N15CMemberFunctor1IP21CMatRenderContextBaseM17IMatRenderContextFv17MaterialFogMode_tES3_12CRefCounted1I8CFunctor24CRefCountServiceDestructI6CRefSTEE18CFuncMemPolicyNoneED1Ev
__ZThn8_N15CMemberFunctor1IP21CMatRenderContextBaseM17IMatRenderContextFv18MaterialCullMode_tES3_12CRefCounted1I8CFunctor24CRefCountServiceDestructI6CRefSTEE18CFuncMemPolicyNoneED0Ev
__ZThn8_N15CMemberFunctor1IP21CMatRenderContextBaseM17IMatRenderContextFv18MaterialCullMode_tES3_12CRefCounted1I8CFunctor24CRefCountServiceDestructI6CRefSTEE18CFuncMemPolicyNoneED1Ev
__ZThn8_N15CMemberFunctor1IP21CMatRenderContextBaseM17IMatRenderContextFv18StencilOperation_tES3_12CRefCounted1I8CFunctor24CRefCountServiceDestructI6CRefSTEE18CFuncMemPolicyNoneED0Ev
__ZThn8_N15CMemberFunctor1IP21CMatRenderContextBaseM17IMatRenderContextFv18StencilOperation_tES3_12CRefCounted1I8CFunctor24CRefCountServiceDestructI6CRefSTEE18CFuncMemPolicyNoneED1Ev
__ZThn8_N15CMemberFunctor1IP21CMatRenderContextBaseM17IMatRenderContextFv20MaterialMatrixMode_tES3_12CRefCounted1I8CFunctor24CRefCountServiceDestructI6CRefSTEE18CFuncMemPolicyNoneED0Ev
__ZThn8_N15CMemberFunctor1IP21CMatRenderContextBaseM17IMatRenderContextFv20MaterialMatrixMode_tES3_12CRefCounted1I8CFunctor24CRefCountServiceDestructI6CRefSTEE18CFuncMemPolicyNoneED1Ev
__ZThn8_N15CMemberFunctor1IP21CMatRenderContextBaseM17IMatRenderContextFv24MaterialHeightClipMode_tES3_12CRefCounted1I8CFunctor24CRefCountServiceDestructI6CRefSTEE18CFuncMemPolicyNoneED0Ev
__ZThn8_N15CMemberFunctor1IP21CMatRenderContextBaseM17IMatRenderContextFv24MaterialHeightClipMode_tES3_12CRefCounted1I8CFunctor24CRefCountServiceDestructI6CRefSTEE18CFuncMemPolicyNoneED1Ev
__ZThn8_N15CMemberFunctor1IP21CMatRenderContextBaseM17IMatRenderContextFv27StencilComparisonFunction_tES3_12CRefCounted1I8CFunctor24CRefCountServiceDestructI6CRefSTEE18CFuncMemPolicyNoneED0Ev
__ZThn8_N15CMemberFunctor1IP21CMatRenderContextBaseM17IMatRenderContextFv27StencilComparisonFunction_tES3_12CRefCounted1I8CFunctor24CRefCountServiceDestructI6CRefSTEE18CFuncMemPolicyNoneED1Ev
__ZThn8_N15CMemberFunctor1IP21CMatRenderContextBaseM17IMatRenderContextFv28MaterialNonInteractiveMode_tES3_12CRefCounted1I8CFunctor24CRefCountServiceDestructI6CRefSTEE18CFuncMemPolicyNoneED0Ev
__ZThn8_N15CMemberFunctor1IP21CMatRenderContextBaseM17IMatRenderContextFv28MaterialNonInteractiveMode_tES3_12CRefCounted1I8CFunctor24CRefCountServiceDestructI6CRefSTEE18CFuncMemPolicyNoneED1Ev
__ZThn8_N15CMemberFunctor1IP21CMatRenderContextBaseM17IMatRenderContextFv6VectorES3_12CRefCounted1I8CFunctor24CRefCountServiceDestructI6CRefSTEE18CFuncMemPolicyNoneED0Ev
__ZThn8_N15CMemberFunctor1IP21CMatRenderContextBaseM17IMatRenderContextFv6VectorES3_12CRefCounted1I8CFunctor24CRefCountServiceDestructI6CRefSTEE18CFuncMemPolicyNoneED1Ev
__ZThn8_N15CMemberFunctor1IP21CMatRenderContextBaseM17IMatRenderContextFvP30OcclusionQueryObjectHandle_t__ES4_12CRefCounted1I8CFunctor24CRefCountServiceDestructI6CRefSTEE18CFuncMemPolicyNoneED0Ev
__ZThn8_N15CMemberFunctor1IP21CMatRenderContextBaseM17IMatRenderContextFvP30OcclusionQueryObjectHandle_t__ES4_12CRefCounted1I8CFunctor24CRefCountServiceDestructI6CRefSTEE18CFuncMemPolicyNoneED1Ev
__ZThn8_N15CMemberFunctor1IP21CMatRenderContextBaseM17IMatRenderContextFvP5IMeshES4_12CRefCounted1I8CFunctor24CRefCountServiceDestructI6CRefSTEE18CFuncMemPolicyNoneED0Ev
__ZThn8_N15CMemberFunctor1IP21CMatRenderContextBaseM17IMatRenderContextFvP5IMeshES4_12CRefCounted1I8CFunctor24CRefCountServiceDestructI6CRefSTEE18CFuncMemPolicyNoneED1Ev
__ZThn8_N15CMemberFunctor1IP21CMatRenderContextBaseM17IMatRenderContextFvP6IMorphES4_12CRefCounted1I8CFunctor24CRefCountServiceDestructI6CRefSTEE18CFuncMemPolicyNoneED0Ev
__ZThn8_N15CMemberFunctor1IP21CMatRenderContextBaseM17IMatRenderContextFvP6IMorphES4_12CRefCounted1I8CFunctor24CRefCountServiceDestructI6CRefSTEE18CFuncMemPolicyNoneED1Ev
__ZThn8_N15CMemberFunctor1IP21CMatRenderContextBaseM17IMatRenderContextFvP8ITextureES4_12CRefCounted1I8CFunctor24CRefCountServiceDestructI6CRefSTEE18CFuncMemPolicyNoneED0Ev
__ZThn8_N15CMemberFunctor1IP21CMatRenderContextBaseM17IMatRenderContextFvP8ITextureES4_12CRefCounted1I8CFunctor24CRefCountServiceDestructI6CRefSTEE18CFuncMemPolicyNoneED1Ev
__ZThn8_N15CMemberFunctor1IP21CMatRenderContextBaseM17IMatRenderContextFvP8Vector4DE12CUtlEnvelopeIS3_E12CRefCounted1I8CFunctor24CRefCountServiceDestructI6CRefSTEE18CFuncMemPolicyNoneED0Ev
__ZThn8_N15CMemberFunctor1IP21CMatRenderContextBaseM17IMatRenderContextFvP8Vector4DE12CUtlEnvelopeIS3_E12CRefCounted1I8CFunctor24CRefCountServiceDestructI6CRefSTEE18CFuncMemPolicyNoneED1Ev
__ZThn8_N15CMemberFunctor1IP21CMatRenderContextBaseM17IMatRenderContextFvP9IMaterialES4_12CRefCounted1I8CFunctor24CRefCountServiceDestructI6CRefSTEE18CFuncMemPolicyNoneED0Ev
__ZThn8_N15CMemberFunctor1IP21CMatRenderContextBaseM17IMatRenderContextFvP9IMaterialES4_12CRefCounted1I8CFunctor24CRefCountServiceDestructI6CRefSTEE18CFuncMemPolicyNoneED1Ev
__ZThn8_N15CMemberFunctor1IP21CMatRenderContextBaseM17IMatRenderContextFvPKcE12CUtlEnvelopeIS4_E12CRefCounted1I8CFunctor24CRefCountServiceDestructI6CRefSTEE18CFuncMemPolicyNoneED0Ev
__ZThn8_N15CMemberFunctor1IP21CMatRenderContextBaseM17IMatRenderContextFvPKcE12CUtlEnvelopeIS4_E12CRefCounted1I8CFunctor24CRefCountServiceDestructI6CRefSTEE18CFuncMemPolicyNoneED1Ev
__ZThn8_N15CMemberFunctor1IP21CMatRenderContextBaseM17IMatRenderContextFvPKfE12CUtlEnvelopeIfE12CRefCounted1I8CFunctor24CRefCountServiceDestructI6CRefSTEE18CFuncMemPolicyNoneED0Ev
__ZThn8_N15CMemberFunctor1IP21CMatRenderContextBaseM17IMatRenderContextFvPKfE12CUtlEnvelopeIfE12CRefCounted1I8CFunctor24CRefCountServiceDestructI6CRefSTEE18CFuncMemPolicyNoneED1Ev
__ZThn8_N15CMemberFunctor1IP21CMatRenderContextBaseM17IMatRenderContextFvRK6VectorES3_12CRefCounted1I8CFunctor24CRefCountServiceDestructI6CRefSTEE18CFuncMemPolicyNoneED0Ev
__ZThn8_N15CMemberFunctor1IP21CMatRenderContextBaseM17IMatRenderContextFvRK6VectorES3_12CRefCounted1I8CFunctor24CRefCountServiceDestructI6CRefSTEE18CFuncMemPolicyNoneED1Ev
__ZThn8_N15CMemberFunctor1IP21CMatRenderContextBaseM17IMatRenderContextFvRK7VMatrixES3_12CRefCounted1I8CFunctor24CRefCountServiceDestructI6CRefSTEE18CFuncMemPolicyNoneED0Ev
__ZThn8_N15CMemberFunctor1IP21CMatRenderContextBaseM17IMatRenderContextFvRK7VMatrixES3_12CRefCounted1I8CFunctor24CRefCountServiceDestructI6CRefSTEE18CFuncMemPolicyNoneED1Ev
__ZThn8_N15CMemberFunctor1IP21CMatRenderContextBaseM17IMatRenderContextFvbEb12CRefCounted1I8CFunctor24CRefCountServiceDestructI6CRefSTEE18CFuncMemPolicyNoneED0Ev
__ZThn8_N15CMemberFunctor1IP21CMatRenderContextBaseM17IMatRenderContextFvbEb12CRefCounted1I8CFunctor24CRefCountServiceDestructI6CRefSTEE18CFuncMemPolicyNoneED1Ev
__ZThn8_N15CMemberFunctor1IP21CMatRenderContextBaseM17IMatRenderContextFvfEf12CRefCounted1I8CFunctor24CRefCountServiceDestructI6CRefSTEE18CFuncMemPolicyNoneED0Ev
__ZThn8_N15CMemberFunctor1IP21CMatRenderContextBaseM17IMatRenderContextFvfEf12CRefCounted1I8CFunctor24CRefCountServiceDestructI6CRefSTEE18CFuncMemPolicyNoneED1Ev
__ZThn8_N15CMemberFunctor1IP21CMatRenderContextBaseM17IMatRenderContextFviEi12CRefCounted1I8CFunctor24CRefCountServiceDestructI6CRefSTEE18CFuncMemPolicyNoneED0Ev
__ZThn8_N15CMemberFunctor1IP21CMatRenderContextBaseM17IMatRenderContextFviEi12CRefCounted1I8CFunctor24CRefCountServiceDestructI6CRefSTEE18CFuncMemPolicyNoneED1Ev
__ZThn8_N15CMemberFunctor1IP21CMatRenderContextBaseM17IMatRenderContextFvjEj12CRefCounted1I8CFunctor24CRefCountServiceDestructI6CRefSTEE18CFuncMemPolicyNoneED0Ev
__ZThn8_N15CMemberFunctor1IP21CMatRenderContextBaseM17IMatRenderContextFvjEj12CRefCounted1I8CFunctor24CRefCountServiceDestructI6CRefSTEE18CFuncMemPolicyNoneED1Ev
__ZThn8_N15CMemberFunctor1IP21CMatRenderContextBaseM25IMatRenderContextInternalFvP16ITextureInternalES4_12CRefCounted1I8CFunctor24CRefCountServiceDestructI6CRefSTEE18CFuncMemPolicyNoneED0Ev
__ZThn8_N15CMemberFunctor1IP21CMatRenderContextBaseM25IMatRenderContextInternalFvP16ITextureInternalES4_12CRefCounted1I8CFunctor24CRefCountServiceDestructI6CRefSTEE18CFuncMemPolicyNoneED1Ev
__ZThn8_N15CMemberFunctor1IP21CMatRenderContextBaseM25IMatRenderContextInternalFvP17IMaterialInternalES4_12CRefCounted1I8CFunctor24CRefCountServiceDestructI6CRefSTEE18CFuncMemPolicyNoneED0Ev
__ZThn8_N15CMemberFunctor1IP21CMatRenderContextBaseM25IMatRenderContextInternalFvP17IMaterialInternalES4_12CRefCounted1I8CFunctor24CRefCountServiceDestructI6CRefSTEE18CFuncMemPolicyNoneED1Ev
__ZThn8_N15CMemberFunctor1IP21CMatRenderContextBaseM25IMatRenderContextInternalFvPvES3_12CRefCounted1I8CFunctor24CRefCountServiceDestructI6CRefSTEE18CFuncMemPolicyNoneED0Ev
__ZThn8_N15CMemberFunctor1IP21CMatRenderContextBaseM25IMatRenderContextInternalFvPvES3_12CRefCounted1I8CFunctor24CRefCountServiceDestructI6CRefSTEE18CFuncMemPolicyNoneED1Ev
__ZThn8_N15CMemberFunctor1IP21CMatRenderContextBaseM25IMatRenderContextInternalFvfEf12CRefCounted1I8CFunctor24CRefCountServiceDestructI6CRefSTEE18CFuncMemPolicyNoneED0Ev
__ZThn8_N15CMemberFunctor1IP21CMatRenderContextBaseM25IMatRenderContextInternalFvfEf12CRefCounted1I8CFunctor24CRefCountServiceDestructI6CRefSTEE18CFuncMemPolicyNoneED1Ev
__ZThn8_N15CMemberFunctor1IP22IColorCorrectionSystemMS0_FvbEb12CRefCounted1I8CFunctor24CRefCountServiceDestructI6CRefSTEE18CFuncMemPolicyNoneED0Ev
__ZThn8_N15CMemberFunctor1IP22IColorCorrectionSystemMS0_FvbEb12CRefCounted1I8CFunctor24CRefCountServiceDestructI6CRefSTEE18CFuncMemPolicyNoneED1Ev
__ZThn8_N15CMemberFunctor1IP5IMeshMS0_Fv23MaterialPrimitiveType_tES2_12CRefCounted1I8CFunctor24CRefCountServiceDestructI6CRefSTEE18CFuncMemPolicyNoneED0Ev
__ZThn8_N15CMemberFunctor1IP5IMeshMS0_Fv23MaterialPrimitiveType_tES2_12CRefCounted1I8CFunctor24CRefCountServiceDestructI6CRefSTEE18CFuncMemPolicyNoneED1Ev
__ZThn8_N15CMemberFunctor1IP8CTextureMS0_FvP8ITextureES3_12CRefCounted1I8CFunctor20CRefCountServiceBaseILb1E6CRefMTEE18CFuncMemPolicyNoneED0Ev
__ZThn8_N15CMemberFunctor1IP8CTextureMS0_FvP8ITextureES3_12CRefCounted1I8CFunctor20CRefCountServiceBaseILb1E6CRefMTEE18CFuncMemPolicyNoneED1Ev
__ZThn8_N15CMemberFunctor2I13CLateBoundPtrI5IMeshEMS1_FvPS1_iES3_i12CRefCounted1I8CFunctor24CRefCountServiceDestructI6CRefSTEE18CFuncMemPolicyNoneED0Ev
__ZThn8_N15CMemberFunctor2I13CLateBoundPtrI5IMeshEMS1_FvPS1_iES3_i12CRefCounted1I8CFunctor24CRefCountServiceDestructI6CRefSTEE18CFuncMemPolicyNoneED1Ev
__ZThn8_N15CMemberFunctor2I13CLateBoundPtrI5IMeshEMS1_FviiEii12CRefCounted1I8CFunctor24CRefCountServiceDestructI6CRefSTEE18CFuncMemPolicyNoneED0Ev
__ZThn8_N15CMemberFunctor2I13CLateBoundPtrI5IMeshEMS1_FviiEii12CRefCounted1I8CFunctor24CRefCountServiceDestructI6CRefSTEE18CFuncMemPolicyNoneED1Ev
__ZThn8_N15CMemberFunctor2IP12CMaterialVarMS0_FvRK8Vector4DiES2_i12CRefCounted1I8CFunctor24CRefCountServiceDestructI6CRefSTEE18CFuncMemPolicyNoneED0Ev
__ZThn8_N15CMemberFunctor2IP12CMaterialVarMS0_FvRK8Vector4DiES2_i12CRefCounted1I8CFunctor24CRefCountServiceDestructI6CRefSTEE18CFuncMemPolicyNoneED1Ev
__ZThn8_N15CMemberFunctor2IP12CMaterialVarMS0_FvfiEfi12CRefCounted1I8CFunctor24CRefCountServiceDestructI6CRefSTEE18CFuncMemPolicyNoneED0Ev
__ZThn8_N15CMemberFunctor2IP12CMaterialVarMS0_FvfiEfi12CRefCounted1I8CFunctor24CRefCountServiceDestructI6CRefSTEE18CFuncMemPolicyNoneED1Ev
__ZThn8_N15CMemberFunctor2IP12CMaterialVarMS0_FvmPvEmS2_12CRefCounted1I8CFunctor24CRefCountServiceDestructI6CRefSTEE18CFuncMemPolicyNoneED0Ev
__ZThn8_N15CMemberFunctor2IP12CMaterialVarMS0_FvmPvEmS2_12CRefCounted1I8CFunctor24CRefCountServiceDestructI6CRefSTEE18CFuncMemPolicyNoneED1Ev
__ZThn8_N15CMemberFunctor2IP17IMaterialInternalM9IMaterialFv18MaterialVarFlags_tbES3_b12CRefCounted1I8CFunctor20CRefCountServiceBaseILb1E6CRefMTEE18CFuncMemPolicyNoneED0Ev
__ZThn8_N15CMemberFunctor2IP17IMaterialInternalM9IMaterialFv18MaterialVarFlags_tbES3_b12CRefCounted1I8CFunctor20CRefCountServiceBaseILb1E6CRefMTEE18CFuncMemPolicyNoneED1Ev
__ZThn8_N15CMemberFunctor2IP21CMatRenderContextBaseM17IMatRenderContextFvP5IMeshP9IMaterialES4_S6_12CRefCounted1I8CFunctor24CRefCountServiceDestructI6CRefSTEE18CFuncMemPolicyNoneED0Ev
__ZThn8_N15CMemberFunctor2IP21CMatRenderContextBaseM17IMatRenderContextFvP5IMeshP9IMaterialES4_S6_12CRefCounted1I8CFunctor24CRefCountServiceDestructI6CRefSTEE18CFuncMemPolicyNoneED1Ev
__ZThn8_N15CMemberFunctor2IP21CMatRenderContextBaseM17IMatRenderContextFvP8ITexture28MaterialNonInteractiveMode_tES4_S5_12CRefCounted1I8CFunctor24CRefCountServiceDestructI6CRefSTEE18CFuncMemPolicyNoneED0Ev
__ZThn8_N15CMemberFunctor2IP21CMatRenderContextBaseM17IMatRenderContextFvP8ITexture28MaterialNonInteractiveMode_tES4_S5_12CRefCounted1I8CFunctor24CRefCountServiceDestructI6CRefSTEE18CFuncMemPolicyNoneED1Ev
__ZThn8_N15CMemberFunctor2IP21CMatRenderContextBaseM17IMatRenderContextFvP8ITextureiES4_i12CRefCounted1I8CFunctor24CRefCountServiceDestructI6CRefSTEE18CFuncMemPolicyNoneED0Ev
__ZThn8_N15CMemberFunctor2IP21CMatRenderContextBaseM17IMatRenderContextFvP8ITextureiES4_i12CRefCounted1I8CFunctor24CRefCountServiceDestructI6CRefSTEE18CFuncMemPolicyNoneED1Ev
__ZThn8_N15CMemberFunctor2IP21CMatRenderContextBaseM17IMatRenderContextFvP9IMaterialPvES4_S5_12CRefCounted1I8CFunctor24CRefCountServiceDestructI6CRefSTEE18CFuncMemPolicyNoneED0Ev
__ZThn8_N15CMemberFunctor2IP21CMatRenderContextBaseM17IMatRenderContextFvP9IMaterialPvES4_S5_12CRefCounted1I8CFunctor24CRefCountServiceDestructI6CRefSTEE18CFuncMemPolicyNoneED1Ev
__ZThn8_N15CMemberFunctor2IP21CMatRenderContextBaseM17IMatRenderContextFvRK17FlashlightState_tRK7VMatrixES3_S6_12CRefCounted1I8CFunctor24CRefCountServiceDestructI6CRefSTEE18CFuncMemPolicyNoneED0Ev
__ZThn8_N15CMemberFunctor2IP21CMatRenderContextBaseM17IMatRenderContextFvRK17FlashlightState_tRK7VMatrixES3_S6_12CRefCounted1I8CFunctor24CRefCountServiceDestructI6CRefSTEE18CFuncMemPolicyNoneED1Ev
__ZThn8_N15CMemberFunctor2IP21CMatRenderContextBaseM17IMatRenderContextFvbbEbb12CRefCounted1I8CFunctor24CRefCountServiceDestructI6CRefSTEE18CFuncMemPolicyNoneED0Ev
__ZThn8_N15CMemberFunctor2IP21CMatRenderContextBaseM17IMatRenderContextFvbbEbb12CRefCounted1I8CFunctor24CRefCountServiceDestructI6CRefSTEE18CFuncMemPolicyNoneED1Ev
__ZThn8_N15CMemberFunctor2IP21CMatRenderContextBaseM17IMatRenderContextFvffEff12CRefCounted1I8CFunctor24CRefCountServiceDestructI6CRefSTEE18CFuncMemPolicyNoneED0Ev
__ZThn8_N15CMemberFunctor2IP21CMatRenderContextBaseM17IMatRenderContextFvffEff12CRefCounted1I8CFunctor24CRefCountServiceDestructI6CRefSTEE18CFuncMemPolicyNoneED1Ev
__ZThn8_N15CMemberFunctor2IP21CMatRenderContextBaseM17IMatRenderContextFviP8ITextureEiS4_12CRefCounted1I8CFunctor24CRefCountServiceDestructI6CRefSTEE18CFuncMemPolicyNoneED0Ev
__ZThn8_N15CMemberFunctor2IP21CMatRenderContextBaseM17IMatRenderContextFviP8ITextureEiS4_12CRefCounted1I8CFunctor24CRefCountServiceDestructI6CRefSTEE18CFuncMemPolicyNoneED1Ev
__ZThn8_N15CMemberFunctor2IP21CMatRenderContextBaseM17IMatRenderContextFviRK11LightDesc_tEiS3_12CRefCounted1I8CFunctor24CRefCountServiceDestructI6CRefSTEE18CFuncMemPolicyNoneED0Ev
__ZThn8_N15CMemberFunctor2IP21CMatRenderContextBaseM17IMatRenderContextFviRK11LightDesc_tEiS3_12CRefCounted1I8CFunctor24CRefCountServiceDestructI6CRefSTEE18CFuncMemPolicyNoneED1Ev
__ZThn8_N15CMemberFunctor2IP21CMatRenderContextBaseM17IMatRenderContextFviRK11matrix3x4_tEiS3_12CRefCounted1I8CFunctor24CRefCountServiceDestructI6CRefSTEE18CFuncMemPolicyNoneED0Ev
__ZThn8_N15CMemberFunctor2IP21CMatRenderContextBaseM17IMatRenderContextFviRK11matrix3x4_tEiS3_12CRefCounted1I8CFunctor24CRefCountServiceDestructI6CRefSTEE18CFuncMemPolicyNoneED1Ev
__ZThn8_N15CMemberFunctor2IP21CMatRenderContextBaseM17IMatRenderContextFviRK6VectorEiS3_12CRefCounted1I8CFunctor24CRefCountServiceDestructI6CRefSTEE18CFuncMemPolicyNoneED0Ev
__ZThn8_N15CMemberFunctor2IP21CMatRenderContextBaseM17IMatRenderContextFviRK6VectorEiS3_12CRefCounted1I8CFunctor24CRefCountServiceDestructI6CRefSTEE18CFuncMemPolicyNoneED1Ev
__ZThn8_N15CMemberFunctor2IP21CMatRenderContextBaseM17IMatRenderContextFvifEif12CRefCounted1I8CFunctor24CRefCountServiceDestructI6CRefSTEE18CFuncMemPolicyNoneED0Ev
__ZThn8_N15CMemberFunctor2IP21CMatRenderContextBaseM17IMatRenderContextFvifEif12CRefCounted1I8CFunctor24CRefCountServiceDestructI6CRefSTEE18CFuncMemPolicyNoneED1Ev
__ZThn8_N15CMemberFunctor2IP21CMatRenderContextBaseM17IMatRenderContextFviiEii12CRefCounted1I8CFunctor24CRefCountServiceDestructI6CRefSTEE18CFuncMemPolicyNoneED0Ev
__ZThn8_N15CMemberFunctor2IP21CMatRenderContextBaseM17IMatRenderContextFviiEii12CRefCounted1I8CFunctor24CRefCountServiceDestructI6CRefSTEE18CFuncMemPolicyNoneED1Ev
__ZThn8_N15CMemberFunctor2IP21CMatRenderContextBaseM17IMatRenderContextFvmPKcEm12CUtlEnvelopeIS4_E12CRefCounted1I8CFunctor24CRefCountServiceDestructI6CRefSTEE18CFuncMemPolicyNoneED0Ev
__ZThn8_N15CMemberFunctor2IP21CMatRenderContextBaseM17IMatRenderContextFvmPKcEm12CUtlEnvelopeIS4_E12CRefCounted1I8CFunctor24CRefCountServiceDestructI6CRefSTEE18CFuncMemPolicyNoneED1Ev
__ZThn8_N15CMemberFunctor2IP22IColorCorrectionSystemMS0_FvjbEjb12CRefCounted1I8CFunctor24CRefCountServiceDestructI6CRefSTEE18CFuncMemPolicyNoneED0Ev
__ZThn8_N15CMemberFunctor2IP22IColorCorrectionSystemMS0_FvjbEjb12CRefCounted1I8CFunctor24CRefCountServiceDestructI6CRefSTEE18CFuncMemPolicyNoneED1Ev
__ZThn8_N15CMemberFunctor2IP22IColorCorrectionSystemMS0_FvjfEjf12CRefCounted1I8CFunctor24CRefCountServiceDestructI6CRefSTEE18CFuncMemPolicyNoneED0Ev
__ZThn8_N15CMemberFunctor2IP22IColorCorrectionSystemMS0_FvjfEjf12CRefCounted1I8CFunctor24CRefCountServiceDestructI6CRefSTEE18CFuncMemPolicyNoneED1Ev
__ZThn8_N15CMemberFunctor2IP23CMatQueuedRenderContextMS0_FvP5IMeshiES3_i12CRefCounted1I8CFunctor24CRefCountServiceDestructI6CRefSTEE18CFuncMemPolicyNoneED0Ev
__ZThn8_N15CMemberFunctor2IP23CMatQueuedRenderContextMS0_FvP5IMeshiES3_i12CRefCounted1I8CFunctor24CRefCountServiceDestructI6CRefSTEE18CFuncMemPolicyNoneED1Ev
__ZThn8_N15CMemberFunctor2IP23CMatQueuedRenderContextMS0_FvPtiES2_i12CRefCounted1I8CFunctor24CRefCountServiceDestructI6CRefSTEE18CFuncMemPolicyNoneED0Ev
__ZThn8_N15CMemberFunctor2IP23CMatQueuedRenderContextMS0_FvPtiES2_i12CRefCounted1I8CFunctor24CRefCountServiceDestructI6CRefSTEE18CFuncMemPolicyNoneED1Ev
__ZThn8_N15CMemberFunctor2IP5IMeshMS0_FvS1_iES1_i12CRefCounted1I8CFunctor24CRefCountServiceDestructI6CRefSTEE18CFuncMemPolicyNoneED0Ev
__ZThn8_N15CMemberFunctor2IP5IMeshMS0_FvS1_iES1_i12CRefCounted1I8CFunctor24CRefCountServiceDestructI6CRefSTEE18CFuncMemPolicyNoneED1Ev
__ZThn8_N15CMemberFunctor2IP5IMeshMS0_FviiEii12CRefCounted1I8CFunctor24CRefCountServiceDestructI6CRefSTEE18CFuncMemPolicyNoneED0Ev
__ZThn8_N15CMemberFunctor2IP5IMeshMS0_FviiEii12CRefCounted1I8CFunctor24CRefCountServiceDestructI6CRefSTEE18CFuncMemPolicyNoneED1Ev
__ZThn8_N15CMemberFunctor2IP9CMaterialMS0_Fv18MaterialVarFlags_tbES2_b12CRefCounted1I8CFunctor24CRefCountServiceDestructI6CRefSTEE18CFuncMemPolicyNoneED0Ev
__ZThn8_N15CMemberFunctor2IP9CMaterialMS0_Fv18MaterialVarFlags_tbES2_b12CRefCounted1I8CFunctor24CRefCountServiceDestructI6CRefSTEE18CFuncMemPolicyNoneED1Ev
__ZThn8_N15CMemberFunctor3IP17IMaterialInternalM9IMaterialFvfffEfff12CRefCounted1I8CFunctor20CRefCountServiceBaseILb1E6CRefMTEE18CFuncMemPolicyNoneED0Ev
__ZThn8_N15CMemberFunctor3IP17IMaterialInternalM9IMaterialFvfffEfff12CRefCounted1I8CFunctor20CRefCountServiceBaseILb1E6CRefMTEE18CFuncMemPolicyNoneED1Ev
__ZThn8_N15CMemberFunctor3IP21CMatRenderContextBaseM17IMatRenderContextFvRK17FlashlightState_tRK7VMatrixP8ITextureES3_S6_SA_12CRefCounted1I8CFunctor24CRefCountServiceDestructI6CRefSTEE18CFuncMemPolicyNoneED0Ev
__ZThn8_N15CMemberFunctor3IP21CMatRenderContextBaseM17IMatRenderContextFvRK17FlashlightState_tRK7VMatrixP8ITextureES3_S6_SA_12CRefCounted1I8CFunctor24CRefCountServiceDestructI6CRefSTEE18CFuncMemPolicyNoneED1Ev
__ZThn8_N15CMemberFunctor3IP21CMatRenderContextBaseM17IMatRenderContextFvbbbEbbb12CRefCounted1I8CFunctor24CRefCountServiceDestructI6CRefSTEE18CFuncMemPolicyNoneED0Ev
__ZThn8_N15CMemberFunctor3IP21CMatRenderContextBaseM17IMatRenderContextFvbbbEbbb12CRefCounted1I8CFunctor24CRefCountServiceDestructI6CRefSTEE18CFuncMemPolicyNoneED1Ev
__ZThn8_N15CMemberFunctor3IP21CMatRenderContextBaseM17IMatRenderContextFvfffEfff12CRefCounted1I8CFunctor24CRefCountServiceDestructI6CRefSTEE18CFuncMemPolicyNoneED0Ev
__ZThn8_N15CMemberFunctor3IP21CMatRenderContextBaseM17IMatRenderContextFvfffEfff12CRefCounted1I8CFunctor24CRefCountServiceDestructI6CRefSTEE18CFuncMemPolicyNoneED1Ev
__ZThn8_N15CMemberFunctor3IP21CMatRenderContextBaseM17IMatRenderContextFvhhhEhhh12CRefCounted1I8CFunctor24CRefCountServiceDestructI6CRefSTEE18CFuncMemPolicyNoneED0Ev
__ZThn8_N15CMemberFunctor3IP21CMatRenderContextBaseM17IMatRenderContextFvhhhEhhh12CRefCounted1I8CFunctor24CRefCountServiceDestructI6CRefSTEE18CFuncMemPolicyNoneED1Ev
__ZThn8_N15CMemberFunctor3IP21CMatRenderContextBaseM25IMatRenderContextInternalFvP16ITextureInternalP30IAsyncTextureOperationReceiverPvES4_S6_S7_12CRefCounted1I8CFunctor24CRefCountServiceDestructI6CRefSTEE18CFuncMemPolicyNoneED0Ev
__ZThn8_N15CMemberFunctor3IP21CMatRenderContextBaseM25IMatRenderContextInternalFvP16ITextureInternalP30IAsyncTextureOperationReceiverPvES4_S6_S7_12CRefCounted1I8CFunctor24CRefCountServiceDestructI6CRefSTEE18CFuncMemPolicyNoneED1Ev
__ZThn8_N15CMemberFunctor3IP23CMatQueuedRenderContextMS0_FvP5IMeshP9CPrimListiES3_S5_i12CRefCounted1I8CFunctor24CRefCountServiceDestructI6CRefSTEE18CFuncMemPolicyNoneED0Ev
__ZThn8_N15CMemberFunctor3IP23CMatQueuedRenderContextMS0_FvP5IMeshP9CPrimListiES3_S5_i12CRefCounted1I8CFunctor24CRefCountServiceDestructI6CRefSTEE18CFuncMemPolicyNoneED1Ev
__ZThn8_N15CMemberFunctor4IP21CMatRenderContextBaseM17IMatRenderContextFvP8ITexturefffES4_fff12CRefCounted1I8CFunctor24CRefCountServiceDestructI6CRefSTEE18CFuncMemPolicyNoneED0Ev
__ZThn8_N15CMemberFunctor4IP21CMatRenderContextBaseM17IMatRenderContextFvP8ITexturefffES4_fff12CRefCounted1I8CFunctor24CRefCountServiceDestructI6CRefSTEE18CFuncMemPolicyNoneED1Ev
__ZThn8_N15CMemberFunctor4IP21CMatRenderContextBaseM17IMatRenderContextFvP8ITextureiP6Rect_tS6_ES4_i12CUtlEnvelopeIS5_ESA_12CRefCounted1I8CFunctor24CRefCountServiceDestructI6CRefSTEE18CFuncMemPolicyNoneED0Ev
__ZThn8_N15CMemberFunctor4IP21CMatRenderContextBaseM17IMatRenderContextFvP8ITextureiP6Rect_tS6_ES4_i12CUtlEnvelopeIS5_ESA_12CRefCounted1I8CFunctor24CRefCountServiceDestructI6CRefSTEE18CFuncMemPolicyNoneED1Ev
__ZThn8_N15CMemberFunctor4IP21CMatRenderContextBaseM17IMatRenderContextFvhhhhEhhhh12CRefCounted1I8CFunctor24CRefCountServiceDestructI6CRefSTEE18CFuncMemPolicyNoneED0Ev
__ZThn8_N15CMemberFunctor4IP21CMatRenderContextBaseM17IMatRenderContextFvhhhhEhhhh12CRefCounted1I8CFunctor24CRefCountServiceDestructI6CRefSTEE18CFuncMemPolicyNoneED1Ev
__ZThn8_N15CMemberFunctor4IP21CMatRenderContextBaseM17IMatRenderContextFviP8ITextureP6Rect_tS6_EiS4_12CUtlEnvelopeIS5_ESA_12CRefCounted1I8CFunctor24CRefCountServiceDestructI6CRefSTEE18CFuncMemPolicyNoneED0Ev
__ZThn8_N15CMemberFunctor4IP21CMatRenderContextBaseM17IMatRenderContextFviP8ITextureP6Rect_tS6_EiS4_12CUtlEnvelopeIS5_ESA_12CRefCounted1I8CFunctor24CRefCountServiceDestructI6CRefSTEE18CFuncMemPolicyNoneED1Ev
__ZThn8_N15CMemberFunctor4IP21CMatRenderContextBaseM17IMatRenderContextFviiiiEiiii12CRefCounted1I8CFunctor24CRefCountServiceDestructI6CRefSTEE18CFuncMemPolicyNoneED0Ev
__ZThn8_N15CMemberFunctor4IP21CMatRenderContextBaseM17IMatRenderContextFviiiiEiiii12CRefCounted1I8CFunctor24CRefCountServiceDestructI6CRefSTEE18CFuncMemPolicyNoneED1Ev
__ZThn8_N15CMemberFunctor4IP21CMatRenderContextBaseM25IMatRenderContextInternalFvP8ITextureS4_P30IAsyncTextureOperationReceiverPvES4_S4_S6_S7_12CRefCounted1I8CFunctor24CRefCountServiceDestructI6CRefSTEE18CFuncMemPolicyNoneED0Ev
__ZThn8_N15CMemberFunctor4IP21CMatRenderContextBaseM25IMatRenderContextInternalFvP8ITextureS4_P30IAsyncTextureOperationReceiverPvES4_S4_S6_S7_12CRefCounted1I8CFunctor24CRefCountServiceDestructI6CRefSTEE18CFuncMemPolicyNoneED1Ev
__ZThn8_N15CMemberFunctor5IP14CMatQueuedMeshMS0_FvPhiiPtiES2_iiS3_i12CRefCounted1I8CFunctor24CRefCountServiceDestructI6CRefSTEE18CFuncMemPolicyNoneED0Ev
__ZThn8_N15CMemberFunctor5IP14CMatQueuedMeshMS0_FvPhiiPtiES2_iiS3_i12CRefCounted1I8CFunctor24CRefCountServiceDestructI6CRefSTEE18CFuncMemPolicyNoneED1Ev
__ZThn8_N15CMemberFunctor5IP14CMatQueuedMeshMS0_FvyjP5IMeshS3_P17IMaterialInternalEyjS3_S3_S5_12CRefCounted1I8CFunctor24CRefCountServiceDestructI6CRefSTEE18CFuncMemPolicyNoneED0Ev
__ZThn8_N15CMemberFunctor5IP14CMatQueuedMeshMS0_FvyjP5IMeshS3_P17IMaterialInternalEyjS3_S3_S5_12CRefCounted1I8CFunctor24CRefCountServiceDestructI6CRefSTEE18CFuncMemPolicyNoneED1Ev
__ZThn8_N15CMemberFunctor5IP21CMatRenderContextBaseM17IMatRenderContextFvP8ITextureiiiiES4_iiii12CRefCounted1I8CFunctor24CRefCountServiceDestructI6CRefSTEE18CFuncMemPolicyNoneED0Ev
__ZThn8_N15CMemberFunctor5IP21CMatRenderContextBaseM17IMatRenderContextFvP8ITextureiiiiES4_iiii12CRefCounted1I8CFunctor24CRefCountServiceDestructI6CRefSTEE18CFuncMemPolicyNoneED1Ev
__ZThn8_N15CMemberFunctor5IP21CMatRenderContextBaseM17IMatRenderContextFviiiibEiiiib12CRefCounted1I8CFunctor24CRefCountServiceDestructI6CRefSTEE18CFuncMemPolicyNoneED0Ev
__ZThn8_N15CMemberFunctor5IP21CMatRenderContextBaseM17IMatRenderContextFviiiibEiiiib12CRefCounted1I8CFunctor24CRefCountServiceDestructI6CRefSTEE18CFuncMemPolicyNoneED1Ev
__ZThn8_N15CMemberFunctor5IP21CMatRenderContextBaseM17IMatRenderContextFviiiiiEiiiii12CRefCounted1I8CFunctor24CRefCountServiceDestructI6CRefSTEE18CFuncMemPolicyNoneED0Ev
__ZThn8_N15CMemberFunctor5IP21CMatRenderContextBaseM17IMatRenderContextFviiiiiEiiiii12CRefCounted1I8CFunctor24CRefCountServiceDestructI6CRefSTEE18CFuncMemPolicyNoneED1Ev
__ZThn8_N15CMemberFunctor6IP21CMatRenderContextBaseM17IMatRenderContextFvP8ITextureS4_iiiiES4_S4_iiii12CRefCounted1I8CFunctor24CRefCountServiceDestructI6CRefSTEE18CFuncMemPolicyNoneED0Ev
__ZThn8_N15CMemberFunctor6IP21CMatRenderContextBaseM17IMatRenderContextFvP8ITextureS4_iiiiES4_S4_iiii12CRefCounted1I8CFunctor24CRefCountServiceDestructI6CRefSTEE18CFuncMemPolicyNoneED1Ev
__ZThn8_N15CMemberFunctor7IP21CMatRenderContextBaseM17IMatRenderContextFvP8ITexturePKc11ImageFormatbiP30IAsyncTextureOperationReceiverPvES4_S6_S7_biS9_SA_12CRefCounted1I8CFunctor24CRefCountServiceDestructI6CRefSTEE18CFuncMemPolicyNoneED0Ev
__ZThn8_N15CMemberFunctor7IP21CMatRenderContextBaseM17IMatRenderContextFvP8ITexturePKc11ImageFormatbiP30IAsyncTextureOperationReceiverPvES4_S6_S7_biS9_SA_12CRefCounted1I8CFunctor24CRefCountServiceDestructI6CRefSTEE18CFuncMemPolicyNoneED1Ev
__ZThn8_N16CMemberFunctor14IP21CMatRenderContextBaseM17IMatRenderContextFvP9IMaterialiiiiffffiiPviiES4_iiiiffffiiS5_ii12CRefCounted1I8CFunctor24CRefCountServiceDestructI6CRefSTEE18CFuncMemPolicyNoneED0Ev
__ZThn8_N16CMemberFunctor14IP21CMatRenderContextBaseM17IMatRenderContextFvP9IMaterialiiiiffffiiPviiES4_iiiiffffiiS5_ii12CRefCounted1I8CFunctor24CRefCountServiceDestructI6CRefSTEE18CFuncMemPolicyNoneED1Ev
__ZThn8_NK15CMaterialSystem12InEditorModeEv
__ZThn8_NK15CMaterialSystem15ImageFormatInfoE11ImageFormat
__ZThn8_NK15CMaterialSystem16InFlashlightModeEv
__ZThn8_NK15CMaterialSystem20MaxHWMorphBatchCountEv
__ZZ11DataMapInitI15VTFFileHeader_tEP9datamap_tPT_E10nameHolder
__ZZ11DataMapInitI15VTFFileHeader_tEP9datamap_tPT_E8dataDesc
__ZZ11DataMapInitI19VTFFileBaseHeader_tEP9datamap_tPT_E10nameHolder
__ZZ11DataMapInitI19VTFFileBaseHeader_tEP9datamap_tPT_E8dataDesc
__ZZ11DataMapInitI19VTFFileHeaderV7_1_tEP9datamap_tPT_E10nameHolder
__ZZ11DataMapInitI19VTFFileHeaderV7_1_tEP9datamap_tPT_E8dataDesc
__ZZ11DataMapInitI19VTFFileHeaderV7_2_tEP9datamap_tPT_E10nameHolder
__ZZ11DataMapInitI19VTFFileHeaderV7_2_tEP9datamap_tPT_E8dataDesc
__ZZ11DataMapInitI19VTFFileHeaderV7_3_tEP9datamap_tPT_E10nameHolder
__ZZ11DataMapInitI19VTFFileHeaderV7_3_tEP9datamap_tPT_E8dataDesc
__ZZ11DataMapInitI19VTFFileHeaderX360_tEP9datamap_tPT_E10nameHolder
__ZZ11DataMapInitI19VTFFileHeaderX360_tEP9datamap_tPT_E8dataDesc
__ZZ13IsEmulatingGLvE14bIsEmulatingGL
__ZZ19COM_GetModDirectoryvE6modDir
__ZZ22stb_compress_dxt_blockPhPKhiiE4init
__ZZL16stb__RefineBlockPhPtS0_jE5prods
__ZZL16stb__RefineBlockPhPtS0_jE5w1Tab
__ZZL26CreateNormalizationCubemapP16ITextureInternalE22s_NormalizationCubemap
__ZZL32CreateSignedNormalizationCubemapP16ITextureInternalE28s_SignedNormalizationCubemap
__ZZN10CDummyMesh4LockEibR12VertexDesc_tE10dummyFloat
__ZZN10CDummyMesh4LockEibR12VertexDesc_tE9dummyChar
__ZZN10CUtlSymbol10InitializeEvE18symbolsInitialized
__ZZN11ImageLoader16ResampleRGBA8888ERKNS_14ResampleInfo_tEE11kernelCache
__ZZN11ImageLoader16ResampleRGBA8888ERKNS_14ResampleInfo_tEE12lastSrcGamma
__ZZN11ImageLoader16ResampleRGBA8888ERKNS_14ResampleInfo_tEE13gammaToLinear
__ZZN11ImageLoader16ResampleRGBA8888ERKNS_14ResampleInfo_tEE15pInvKernelCache
__ZZN11ImageLoader20GammaCorrectRGBA8888EPhS0_iiiffE12lastDstGamma
__ZZN11ImageLoader20GammaCorrectRGBA8888EPhS0_iiiffE12lastSrcGamma
__ZZN11ImageLoader20GammaCorrectRGBA8888EPhS0_iiiffE5gamma
__ZZN11ImageLoaderL16DecodeColorBlockI10BGRA4444_tEEvPT_PNS_11DXTColBlockEiP10BGRA8888_tS7_S7_S7_E5masks
__ZZN11ImageLoaderL16DecodeColorBlockI10BGRA4444_tEEvPT_PNS_11DXTColBlockEiP10BGRA8888_tS7_S7_S7_E5shift
__ZZN11ImageLoaderL21DecodeAlpha3BitLinearI10BGRA4444_tEEvPT_PNS_23DXTAlphaBlock3BitLinearEiiE5gACol
__ZZN11ImageLoaderL21DecodeAlpha3BitLinearI10BGRA4444_tEEvPT_PNS_23DXTAlphaBlock3BitLinearEiiE5gBits
__ZZN11ImageLoaderL21DecodeAlpha3BitLinearI10BGRA4444_tEEvPT_PNS_23DXTAlphaBlock3BitLinearEiiE7gAlphas
__ZZN11ImageLoaderL21DecodeAlpha3BitLinearI10BGRA5551_tEEvPT_PNS_23DXTAlphaBlock3BitLinearEiiE5gACol
__ZZN11ImageLoaderL21DecodeAlpha3BitLinearI10BGRA5551_tEEvPT_PNS_23DXTAlphaBlock3BitLinearEiiE5gBits
__ZZN11ImageLoaderL21DecodeAlpha3BitLinearI10BGRA5551_tEEvPT_PNS_23DXTAlphaBlock3BitLinearEiiE7gAlphas
__ZZN11ImageLoaderL21DecodeAlpha3BitLinearI10BGRA8888_tEEvPT_PNS_23DXTAlphaBlock3BitLinearEiiE5gACol
__ZZN11ImageLoaderL21DecodeAlpha3BitLinearI10BGRA8888_tEEvPT_PNS_23DXTAlphaBlock3BitLinearEiiE5gBits
__ZZN11ImageLoaderL21DecodeAlpha3BitLinearI10BGRA8888_tEEvPT_PNS_23DXTAlphaBlock3BitLinearEiiE7gAlphas
__ZZN11ImageLoaderL21DecodeAlpha3BitLinearI10RGBA8888_tEEvPT_PNS_23DXTAlphaBlock3BitLinearEiiE5gACol
__ZZN11ImageLoaderL21DecodeAlpha3BitLinearI10RGBA8888_tEEvPT_PNS_23DXTAlphaBlock3BitLinearEiiE5gBits
__ZZN11ImageLoaderL21DecodeAlpha3BitLinearI10RGBA8888_tEEvPT_PNS_23DXTAlphaBlock3BitLinearEiiE7gAlphas
__ZZN12CMaterialVar14GetFourCCValueEPmPPvE10bitchCount
__ZZN12CMaterialVar14GetMatrixValueEvE8identity
__ZZN12CMaterialVar15GetTextureValueEvE10bitchCount
__ZZN12CMaterialVar15GetTextureValueEvE10bitchCount_0
__ZZN12CMaterialVar16GetMaterialValueEvE10bitchCount
__ZZN12CPixelWriter14SetPixelMemoryE11ImageFormatPviE20format_error_printed
__ZZN13CMatLightmaps12LockLightmapEiE8_counter
__ZZN13CMatLightmaps14UpdateLightmapEiPiS0_PfS1_S1_S1_E14__executeCount
__ZZN13CMatLightmaps14UpdateLightmapEiPiS0_PfS1_S1_S1_E8_counter
__ZZN14CMatQueuedMesh11ModifyBeginEbiiR11IndexDesc_tE14__executeCount
__ZZN14CMatQueuedMesh11ModifyBeginEbiiR11IndexDesc_tE14__executeCount_0
__ZZN14CMatQueuedMesh11ModifyBeginEiiiiR10MeshDesc_tE14__executeCount
__ZZN14CMatQueuedMesh11ModifyBeginEiiiiR10MeshDesc_tE14__executeCount_0
__ZZN14CMatQueuedMesh13ModifyBeginExEbiiiiR10MeshDesc_tE14__executeCount
__ZZN14CMatQueuedMesh13ModifyBeginExEbiiiiR10MeshDesc_tE14__executeCount_0
__ZZN14CMatQueuedMesh16OnGetDynamicMeshEyjP5IMeshS1_P17IMaterialInternaliE14__executeCount
__ZZN14CMatQueuedMesh16OnGetDynamicMeshEyjP5IMeshS1_P17IMaterialInternaliE14__executeCount_0
__ZZN14CMatQueuedMesh17CopyToMeshBuilderEiiiiiR12CMeshBuilderE14__executeCount
__ZZN14CMatQueuedMesh17CopyToMeshBuilderEiiiiiR12CMeshBuilderE14__executeCount_0
__ZZN14CMatQueuedMesh4DrawEP9CPrimListiE14__executeCount
__ZZN14CMatQueuedMesh4DrawEP9CPrimListiE14__executeCount_0
__ZZN14CMatQueuedMesh9ModifyEndER10MeshDesc_tE14__executeCount
__ZZN14CMatQueuedMesh9ModifyEndER10MeshDesc_tE14__executeCount_0
__ZZN14CMatQueuedMesh9ModifyEndER11IndexDesc_tE14__executeCount
__ZZN14CMatQueuedMesh9ModifyEndER11IndexDesc_tE14__executeCount_0
__ZZN15CMaterialSystem14UpdateLightmapEiPiS0_PfS1_S1_S1_E14__executeCount
__ZZN16CMaterialSubRect19GetDummyMaterialVarEvE9pDummyVar
__ZZN16CMaterialSubRect7FindVarEPKcPbbE13complainCount
__ZZN17CMatRenderContext11BeginRenderEvE8_counter
__ZZN17CMatRenderContext20SetFlashlightStateExERK17FlashlightState_tRK7VMatrixP8ITextureE9blackCube
__ZZN17CMatRenderContext4BindEP9IMaterialPvE20matTextureListConVar
__ZZN17CMatRenderContext4BindEP9IMaterialPvE25matShowWaterTextureConVar
__ZZN17CReplacementProxy11GetMaterialEvE23localplayer_visionflags
__ZZN18COcclusionQueryMgr26BeginOcclusionQueryDrawingEP30OcclusionQueryObjectHandle_t__E12s_nWarnCount
__ZZN20CDummyMaterialSystem11CreateMorphEjPKcE12s_DummyMorph
__ZZN21CMatRenderContextBase14LockRenderDataEiE14__executeCount
__ZZN23CMatQueuedRenderContext11BeginRenderEvE8_counter
__ZZN23CMatQueuedRenderContext11CreateMorphEjPKcE14__executeCount
__ZZN23CMatQueuedRenderContext11CreateMorphEjPKcE14__executeCount_0
__ZZN23CMatQueuedRenderContext13SelectionModeEbE14__executeCount
__ZZN23CMatQueuedRenderContext13SelectionModeEbE14__executeCount_0
__ZZN23CMatQueuedRenderContext14PopDeformationEvE14__executeCount
__ZZN23CMatQueuedRenderContext14PopDeformationEvE14__executeCount_0
__ZZN23CMatQueuedRenderContext15GetLightmapPageEvE14__executeCount
__ZZN23CMatQueuedRenderContext15GetLightmapPageEvE14__executeCount_0
__ZZN23CMatQueuedRenderContext15PushDeformationEPK17DeformationBase_tE14__executeCount
__ZZN23CMatQueuedRenderContext15PushDeformationEPK17DeformationBase_tE14__executeCount_0
__ZZN23CMatQueuedRenderContext15SelectionBufferEPjiE14__executeCount
__ZZN23CMatQueuedRenderContext15SelectionBufferEPjiE14__executeCount_0
__ZZN23CMatQueuedRenderContext19BindStandardTextureE9Sampler_t19StandardTextureId_tE14__executeCount
__ZZN23CMatQueuedRenderContext19BindStandardTextureE9Sampler_t19StandardTextureId_tE14__executeCount_0
__ZZN23CMatQueuedRenderContext19DrawClearBufferQuadEhhhhbbbE14__executeCount
__ZZN23CMatQueuedRenderContext19DrawClearBufferQuadEhhhhbbbE14__executeCount_0
__ZZN23CMatQueuedRenderContext19GetBoundMorphFormatEvE14__executeCount
__ZZN23CMatQueuedRenderContext19GetBoundMorphFormatEvE14__executeCount_0
__ZZN23CMatQueuedRenderContext20ForceDepthFuncEqualsEbE14__executeCount
__ZZN23CMatQueuedRenderContext20ForceDepthFuncEqualsEbE14__executeCount_0
__ZZN23CMatQueuedRenderContext21CompareMaterialCombosEP9IMaterialS1_iiE14__executeCount
__ZZN23CMatQueuedRenderContext21CompareMaterialCombosEP9IMaterialS1_iiE14__executeCount_0
__ZZN23CMatQueuedRenderContext21GetLightmapDimensionsEPiS0_E14__executeCount
__ZZN23CMatQueuedRenderContext21GetLightmapDimensionsEPiS0_E14__executeCount_0
__ZZN29CKeyValuesDumpContextAsDevMsg10KvBeginKeyEP9KeyValuesiE11r_developer
__ZZN8CTexture16InitRenderTargetEPKcii22RenderTargetSizeMode_t11ImageFormat18RenderTargetType_tjjE2id
__ZZN8CTexture25ApplyRenderTargetSizeModeERiS0_11ImageFormatE11bReplayInit
__ZZN8CTexture25ApplyRenderTargetSizeModeERiS0_11ImageFormatE19m_aScreenshotWidths
__ZZN8CTexture25ApplyRenderTargetSizeModeERiS0_11ImageFormatE19s_flInvAspectRatios
__ZZN8CTexture25ApplyRenderTargetSizeModeERiS0_11ImageFormatE27replay_screenshotresolution
__ZZN8CTexture4BindE9Sampler_tiS0_E14__executeCount
__ZZN9CMaterial16GetDummyVariableEvE9pDummyVar
__ZZN9CMaterial7FindVarEPKcPbbE13complainCount
__ZZN9CMorphMgr20EndMorphAccumulationEP22IMorphMgrRenderContextE8_counter
__ZZN9ConVarRef4InitEPKcbE6bFirst
__ZZNK15CMaterialSystem22GetVideoCardIdentifierEvE3foo
__ZZNK17CDummyMaterialVar19GetVecValueInternalEvE3val
__ZZNK20CDummyMaterialSystem22GetVideoCardIdentifierEvE5dummy
__ZZNK20CDummyMaterialSystem28GetCurrentConfigForVideoCardEvE5dummy
__ZZNK23CMatQueuedRenderContext16InFlashlightModeEvE14__executeCount
__ZZNK23CMatQueuedRenderContext16InFlashlightModeEvE14__executeCount_0
__ZZNK23CMatQueuedRenderContext24GetIntRenderingParameterEiE14__executeCount
__ZZNK23CMatQueuedRenderContext24GetIntRenderingParameterEiE14__executeCount_0
__ZZNK23CMatQueuedRenderContext26GetFloatRenderingParameterEiE14__executeCount
__ZZNK23CMatQueuedRenderContext26GetFloatRenderingParameterEiE14__executeCount_0
__ZZNK23CMatQueuedRenderContext27GetVectorRenderingParameterEiE14__executeCount
__ZZNK23CMatQueuedRenderContext27GetVectorRenderingParameterEiE14__executeCount_0
__ZZNK9CMaterial23GetPreviewImageFileNameEvE11vtfFilename
__ZdaPv
__ZdlPv
__Znam
__Znwm
___bzero
___clang_call_terminate
___cxa_atexit
___cxa_begin_catch
___cxa_call_unexpected
___cxa_guard_abort
___cxa_guard_acquire
___cxa_guard_release
___cxa_pure_virtual
___cxx_global_array_dtor
___cxx_global_array_dtor
___dynamic_cast
___error
___gxx_personality_v0
___maskrune
___stack_chk_fail
___stack_chk_guard
___tolower
_acosf
_atan2f
_atof
_atoi
_cCombineMaterialName
_cNodeParseTable
_cTextureCachePathDir
_ceil
_ceilf
_colorcorrection
_cosf
_cvar
_dlclose
_dlerror
_dlopen
_dlsym
_floorf
_g_ColorCorrectionSystem
_g_ConVarAccessor
_g_DummyHardwareConfig
_g_DummyMaterial
_g_DummyMaterialVar
_g_DummyTexture
_g_FaceVerts
_g_FrameNum
_g_KeyValuesErrorStack
_g_LinearToVertex
_g_MatSysMutex
_g_MaterialSystem
_g_RatioToAspectModes
_g_StgoredSpewMutex
_g_VBAllocTracker
_g_VProfCurrentProfile
_g_bForceTextureAllMips
_g_backFaceVerts
_g_config
_g_config_internal
_g_downFaceVerts
_g_fnMatSystemConnectCreateInterface
_g_frontFaceVerts
_g_leftFaceVerts
_g_nDebugVarsSignature
_g_pCVar
_g_pColorCorrectionSystem
_g_pConfig
_g_pDummyMaterial
_g_pDummyMesh
_g_pErrorMaterial
_g_pFullFileSystem
_g_pHWConfig
_g_pHardwareConfig
_g_pInputSystem
_g_pInternalMaterialSystem
_g_pLauncherMgr
_g_pMaterialSystem
_g_pMaterialSystemDebugTextureInfo
_g_pMaterialSystemHardwareConfig
_g_pMemAlloc
_g_pMorphMgr
_g_pNetworkSystem
_g_pOcclusionQueryMgr
_g_pProcessUtils
_g_pQueuedLoader
_g_pSLShaderSystem
_g_pShaderAPI
_g_pShaderDevice
_g_pShaderDeviceMgr
_g_pShaderShadow
_g_pShaderSystem
_g_pShaderUtil
_g_pTextureManager
_g_pTextureRefList
_g_pThreadPool
_g_pUtlSortVectorQSortContext
_g_rightFaceVerts
_g_skybox_FaceVerts
_g_skybox_backFaceVerts
_g_skybox_downFaceVerts
_g_skybox_frontFaceVerts
_g_skybox_leftFaceVerts
_g_skybox_rightFaceVerts
_g_skybox_upFaceVerts
_g_upFaceVerts
_getcwd
_lineartolightmap
_lineartovertex
_mat_accelerate_adjust_exposure_down
_mat_debugalttab
_mat_forcemanagedtextureintohardware
_mat_hdr_manual_tonemap_rate
_mat_hdr_tonemapscale
_mat_queue_mode
_mat_queue_report
_mat_reduceparticles
_mat_report_queue_status
_mat_requires_rt_alloc_first
_mat_spewalloc
_mat_supportflashlight
_mat_texture_reload_frame_swap_workaround
_mat_texture_tracking
_mat_tonemap_algorithm
_materials
_mdllib
_memcmp
_memcpy
_memmove
_memset
_memset_pattern16
_p4
_pfFastCos
_pfFastSinCos
_pfInvRSquared
_pfRSqrt
_pfRSqrtFast
_pfSqrt
_pfVectorNormalize
_pfVectorNormalizeFast
_pow
_powf
_printf
_pthread_mutex_destroy
_pthread_mutex_init
_pthread_mutex_lock
_pthread_mutex_unlock
_pthread_mutexattr_init
_pthread_mutexattr_settype
_putchar
_qsort
_raise
_roundf
_s_NoEscConversion
_s_StringCharConversion
_s_TextureRefList
_s_bMathlibInitialized
_sg_nMipLevelColors
_sin
_sinf
_sprintf
_sscanf
_strcasecmp
_strchr
_strcmp
_strcpy
_strlen
_strncasecmp
_strncat
_strncmp
_strncpy
_strspn
_strstr
_strtod$UNIX2003
_strtol
_strtoul
_swprintf
_tanf
_vsnprintf
_wcslen
_wcstol
dyld_stub_binder
