GCC_except_table0
GCC_except_table0
GCC_except_table0
GCC_except_table0
GCC_except_table0
GCC_except_table0
GCC_except_table0
GCC_except_table0
GCC_except_table1
GCC_except_table1
GCC_except_table1
GCC_except_table1
GCC_except_table1
GCC_except_table1
GCC_except_table1
GCC_except_table10
GCC_except_table10
GCC_except_table10
GCC_except_table100
GCC_except_table101
GCC_except_table102
GCC_except_table103
GCC_except_table104
GCC_except_table105
GCC_except_table11
GCC_except_table11
GCC_except_table112
GCC_except_table113
GCC_except_table12
GCC_except_table12
GCC_except_table12
GCC_except_table12
GCC_except_table12
GCC_except_table14
GCC_except_table14
GCC_except_table14
GCC_except_table14
GCC_except_table14
GCC_except_table15
GCC_except_table15
GCC_except_table15
GCC_except_table15
GCC_except_table16
GCC_except_table16
GCC_except_table17
GCC_except_table17
GCC_except_table17
GCC_except_table18
GCC_except_table18
GCC_except_table18
GCC_except_table18
GCC_except_table19
GCC_except_table19
GCC_except_table2
GCC_except_table2
GCC_except_table2
GCC_except_table2
GCC_except_table2
GCC_except_table2
GCC_except_table2
GCC_except_table20
GCC_except_table20
GCC_except_table20
GCC_except_table20
GCC_except_table21
GCC_except_table21
GCC_except_table22
GCC_except_table22
GCC_except_table23
GCC_except_table23
GCC_except_table23
GCC_except_table23
GCC_except_table24
GCC_except_table25
GCC_except_table26
GCC_except_table27
GCC_except_table27
GCC_except_table28
GCC_except_table29
GCC_except_table29
GCC_except_table29
GCC_except_table3
GCC_except_table3
GCC_except_table3
GCC_except_table3
GCC_except_table3
GCC_except_table3
GCC_except_table3
GCC_except_table31
GCC_except_table31
GCC_except_table32
GCC_except_table32
GCC_except_table33
GCC_except_table33
GCC_except_table35
GCC_except_table36
GCC_except_table36
GCC_except_table37
GCC_except_table37
GCC_except_table4
GCC_except_table4
GCC_except_table4
GCC_except_table4
GCC_except_table4
GCC_except_table4
GCC_except_table4
GCC_except_table41
GCC_except_table42
GCC_except_table42
GCC_except_table43
GCC_except_table43
GCC_except_table43
GCC_except_table43
GCC_except_table44
GCC_except_table44
GCC_except_table45
GCC_except_table45
GCC_except_table46
GCC_except_table46
GCC_except_table46
GCC_except_table47
GCC_except_table47
GCC_except_table47
GCC_except_table47
GCC_except_table48
GCC_except_table49
GCC_except_table49
GCC_except_table5
GCC_except_table5
GCC_except_table5
GCC_except_table5
GCC_except_table5
GCC_except_table5
GCC_except_table5
GCC_except_table5
GCC_except_table50
GCC_except_table51
GCC_except_table51
GCC_except_table52
GCC_except_table52
GCC_except_table53
GCC_except_table53
GCC_except_table54
GCC_except_table54
GCC_except_table54
GCC_except_table54
GCC_except_table55
GCC_except_table55
GCC_except_table56
GCC_except_table56
GCC_except_table57
GCC_except_table58
GCC_except_table59
GCC_except_table59
GCC_except_table6
GCC_except_table6
GCC_except_table6
GCC_except_table6
GCC_except_table6
GCC_except_table6
GCC_except_table62
GCC_except_table64
GCC_except_table64
GCC_except_table65
GCC_except_table65
GCC_except_table66
GCC_except_table66
GCC_except_table67
GCC_except_table68
GCC_except_table7
GCC_except_table7
GCC_except_table7
GCC_except_table7
GCC_except_table7
GCC_except_table7
GCC_except_table70
GCC_except_table71
GCC_except_table71
GCC_except_table72
GCC_except_table72
GCC_except_table74
GCC_except_table74
GCC_except_table76
GCC_except_table76
GCC_except_table79
GCC_except_table8
GCC_except_table8
GCC_except_table8
GCC_except_table8
GCC_except_table81
GCC_except_table81
GCC_except_table81
GCC_except_table82
GCC_except_table83
GCC_except_table84
GCC_except_table85
GCC_except_table85
GCC_except_table85
GCC_except_table86
GCC_except_table86
GCC_except_table87
GCC_except_table88
GCC_except_table88
GCC_except_table89
GCC_except_table9
GCC_except_table9
GCC_except_table9
GCC_except_table9
GCC_except_table9
GCC_except_table90
GCC_except_table90
GCC_except_table92
GCC_except_table93
GCC_except_table95
GCC_except_table96
GCC_except_table97
GCC_except_table98
GCC_except_table99
_BZ2_bzBuffToBuffCompress
_BZ2_bzBuffToBuffDecompress
_BZ2_bzCompressInit
_BZ2_bzDecompress
_BZ2_crc32Table
_BZ2_rNums
_COM_TimestampedLog
_CallAssertFailedNotifyFunc
_CommandLine_Tier0
_ConColorMsg
_CreateInterface
_CreateThreadPool
_DevMsg
_DoNewAssertDialog
_Error
_HushAsserts
_KeyValuesSystem
_Log
_Msg
_Plat_FloatTime
_Plat_IsInDebugSession
_ShouldUseNewAssertDialog
_ThreadGetCurrentId
_ThreadInterlockedAssignIf
_ThreadInterlockedDecrement
_ThreadInterlockedExchange
_ThreadInterlockedIncrement
_ThreadSleep
_Warning
__DefaultRuneLocale
__ExitOnFatalAssert
__GLOBAL__sub_I_KeyValues.stdout.rel_tf_osx_builder.55432.qZWQhg.ii
__GLOBAL__sub_I_bitbuf.stdout.rel_tf_osx_builder.8784.aOnGh7.ii
__GLOBAL__sub_I_cl_command.stdout.rel_tf_osx_builder.1483.P4r8po.ii
__GLOBAL__sub_I_cl_cvars.stdout.rel_tf_osx_builder.71395.e3AmEz.ii
__GLOBAL__sub_I_convar.stdout.rel_tf_osx_builder.55430.mXKsKU.ii
__GLOBAL__sub_I_netmessage.stdout.rel_tf_osx_builder.1482.XRX6Mi.ii
__GLOBAL__sub_I_replay_dbg.stdout.rel_tf_osx_builder.71538.dw3B9q.ii
__GLOBAL__sub_I_replaysyst.stdout.rel_tf_osx_builder.1489.EVwwxC.ii
__GLOBAL__sub_I_shared_cva.stdout.rel_tf_osx_builder.71542.Z5fmIZ.ii
__GLOBAL__sub_I_sse.stdout.rel_tf_osx_builder.9376.gxVesc.ii
__GLOBAL__sub_I_sv_command.stdout.rel_tf_osx_builder.71566.0kmKDG.ii
__GLOBAL__sub_I_sv_cvars.stdout.rel_tf_osx_builder.71568.yps3TF.ii
__GLOBAL__sub_I_sv_filepub.stdout.rel_tf_osx_builder.71574.KliweC.ii
__GLOBAL__sub_I_thinkmanag.stdout.rel_tf_osx_builder.71642.Zicd3l.ii
__GLOBAL__sub_I_utlbuffer.stdout.rel_tf_osx_builder.8986.vt30zT.ii
__GLOBAL__sub_I_vtf.stdout.rel_tf_osx_builder.55898.EeKUFF.ii
__SpewInfo
__SpewMessage
__Unwind_Resume
__Z10V_FileBasePKcPci
__Z10V_snprintfPciPKcz
__Z10V_wcstostrPKwiPci
__Z11V_vsnprintfPciPKcS_
__Z12MatrixAnglesRK11matrix3x4_tPf
__Z12SV_GetTmpDirv
__Z12V_FixSlashesPcc
__Z13BZ2_blockSortP6EState
__Z13Q_UTF32ToUTF8PKwPci25EStringConvertErrorPolicy
__Z13Q_UTF8ToUTF32PKcPwi25EStringConvertErrorPolicy
__Z13Replay_HudMsgPKcS0_b
__Z13Replay_MsgBoxPKc
__Z13V_AppendSlashPci
__Z13V_binarytohexPKhiPci
__Z14BZ2_decompressP6DState
__Z14ReplayLib_InitPKcP20IClientReplayContext
__Z14SV_PublishFileRK19PublishFileParams_t
__Z14V_vsnprintfRetPciPKcS_Pb
__Z15AngleQuaternionRK6QAngleR10Quaternion
__Z15ConVar_RegisteriP23IConCommandBaseAccessor
__Z15Q_UTF8ToUChar32PKcRwRb
__Z15QuaternionAlignRK10QuaternionS1_RS_
__Z15QuaternionSlerpRK10QuaternionS1_fRS_
__Z15Replay_CrackURLPKcPcS1_
__Z16CreateCompressor16CompressorType_t
__Z16PrintSessionInfoPKc
__Z16QuaternionAnglesRK10QuaternionR6QAngle
__Z16QuaternionMatrixRK10QuaternionR11matrix3x4_t
__Z16SV_DoTestPublishv
__Z16V_StripExtensionPKcPci
__Z17BZ2_compressBlockP6EStateh
__Z17BZ2_hbAssignCodesPiPhiii
__Z17ConVar_Unregisterv
__Z17Replay_SetGameDirPKc
__Z18Replay_GetAutoNamePwiPKc
__Z18Replay_ReconstructP7CReplayb
__Z18RunJobToCompletionP11IThreadPoolP4CJob
__Z18V_FixDoubleSlashesPc
__Z18V_RemoveDotSlashesPccb
__Z19EvaluateConditionalPKc
__Z20V_StripTrailingSlashPc
__Z21BZ2_bz__AssertH__faili
__Z21BZ2_hbMakeCodeLengthsPhPiii
__Z21ConnectTier1LibrariesPPFPvPKcPiEi
__Z21ConnectTier2LibrariesPPFPvPKcPiEi
__Z21DefaultCompletionFuncPKcPA64_c
__Z21GetCompressorNameSafe16CompressorType_t
__Z21OnReplayEnableChangedP7IConVarPKcf
__Z21ReadSessionInfoHeaderPKviR19SessionInfoHeader_t
__Z21Replay_GetDownloadURLv
__Z21SV_RunJobToCompletionP4CJob
__Z21V_UnqualifiedFileNamePKc
__Z22GetNoEscCharConversionv
__Z22ImgUtl_WriteGenericVMTPKcS0_
__Z22QuaternionSlerpNoAlignRK10QuaternionS1_fRS_
__Z22SV_CreateDeleteFileJobv
__Z22SV_DoFileserverCleanupbP7ISpewer
__Z24BZ2_hbCreateDecodeTablesPiS_S_Phiii
__Z24DisconnectTier1Librariesv
__Z24DisconnectTier2Librariesv
__Z24GetCStringCharConversionv
__Z24OnReplayRecordingChangedP7IConVarPKcf
__Z24SV_CreateLocalPublishJobPKc
__Z29CL_GetRecordingSessionManagerv
__Z32CL_GetRecordingSessionInProgressv
__Z32Replay_GetFirstAvailableFilenamePciPKcS1_S1_i
__Z32SV_GetRecordingSessionInProgressv
__Z33ConstructStringVArgsInternal_ImplIwEvPT_iPKS0_iPc
__Z33SV_CastJobToIFileserverCleanerJobP8CBaseJob
__Z35OnReplayScreenshotResolutionChangedP7IConVarPKcf
__Z6ConMsgPKcz
__Z6DevMsgPKcz
__Z6V_atofPKc
__Z8FastPow2f
__Z8V_atoi64PKc
__Z9Replay_vaPKcz
__Z9V_stricmpPKcS0_
__Z9V_stristrPKcS0_
__Z9V_strncatPcPKcmi
__Z9V_strncmpPKcS0_i
__Z9V_strncpyPcPKci
__Z9V_wcsncpyPwPKwi
__ZGVZ11DataMapInitI15VTFFileHeader_tEP9datamap_tPT_E10nameHolder
__ZGVZ11DataMapInitI19VTFFileBaseHeader_tEP9datamap_tPT_E10nameHolder
__ZGVZ11DataMapInitI19VTFFileHeaderV7_1_tEP9datamap_tPT_E10nameHolder
__ZGVZ11DataMapInitI19VTFFileHeaderV7_2_tEP9datamap_tPT_E10nameHolder
__ZGVZ11DataMapInitI19VTFFileHeaderV7_3_tEP9datamap_tPT_E10nameHolder
__ZGVZ11DataMapInitI19VTFFileHeaderX360_tEP9datamap_tPT_E10nameHolder
__ZGVZN20CServerReplayContext18ReportErrorsToUserEPwE8s_clrRed
__ZGVZN22CPerformanceController13PlaybackThinkEvE7aAngles
__ZGVZN22CPerformanceController13PlaybackThinkEvE7aOrigin
__ZGVZNK19CReplayMovieManager15GetRawExportDirEvE14s_fmtExportDir
__ZL11bsPutUInt32P6EStatej
__ZL11s_nCVarFlag
__ZL11s_pTokenBuf
__ZL11save_replayRK8CCommand
__ZL11vec2_origin
__ZL11vec2_origin
__ZL11vec2_origin
__ZL11vec2_origin
__ZL11vec2_origin
__ZL11vec2_origin
__ZL11vec2_origin
__ZL11vec2_origin
__ZL11vec2_origin
__ZL11vec2_origin
__ZL11vec2_origin
__ZL11vec2_origin
__ZL11vec2_origin
__ZL11vec2_origin
__ZL11vec2_origin
__ZL11vec2_origin
__ZL11vec4_origin
__ZL11vec4_origin
__ZL11vec4_origin
__ZL11vec4_origin
__ZL11vec4_origin
__ZL12fallbackSortPjS_S_ii
__ZL12gs_szGameDir
__ZL12s_NullSpewer
__ZL12s_bConnected
__ZL12vec2_invalid
__ZL12vec2_invalid
__ZL12vec2_invalid
__ZL12vec2_invalid
__ZL12vec2_invalid
__ZL12vec2_invalid
__ZL12vec2_invalid
__ZL12vec2_invalid
__ZL12vec2_invalid
__ZL12vec2_invalid
__ZL12vec2_invalid
__ZL12vec2_invalid
__ZL12vec2_invalid
__ZL12vec2_invalid
__ZL12vec2_invalid
__ZL12vec2_invalid
__ZL12vec4_invalid
__ZL12vec4_invalid
__ZL12vec4_invalid
__ZL12vec4_invalid
__ZL12vec4_invalid
__ZL13replay_recordRK8CCommand
__ZL13s_BlockSpewer
__ZL13s_EmptyConVar
__ZL13s_bRegistered
__ZL13sendMTFValuesP6EState
__ZL14default_bzfreePvS_
__ZL14s_ThinkManager
__ZL15default_bzallocPvii
__ZL15handle_compressP9bz_stream
__ZL16replay_docleanupRK8CCommand
__ZL16s_nDLLIdentifier
__ZL17add_pair_to_blockP6EState
__ZL17replay_stoprecordRK8CCommand
__ZL17s_DefaultAccessor
__ZL18replay_confirmquitRK8CCommand
__ZL18replay_renderpauseRK8CCommand
__ZL19g_BitWriteMasksInit
__ZL19save_replay_command
__ZL20replay_dopublishtestRK8CCommand
__ZL20replay_renderunpauseRK8CCommand
__ZL21replay_record_command
__ZL21s_LastFileLoadingFrom
__ZL23replay_add_fake_replaysRK8CCommand
__ZL23replay_clearqueuedtakesRK8CCommand
__ZL23replay_printqueuedtakesRK8CCommand
__ZL23replay_printsessioninfoRK8CCommand
__ZL24replay_docleanup_command
__ZL25replay_printclientreplaysRK8CCommand
__ZL25replay_removeclientreplayRK8CCommand
__ZL25replay_stoprecord_command
__ZL26replay_confirmquit_command
__ZL26replay_deleteclientreplaysRK8CCommand
__ZL26replay_renderpause_command
__ZL28replay_dopublishtest_command
__ZL28replay_renderunpause_command
__ZL2f3
__ZL31replay_add_fake_replays_command
__ZL31replay_clearqueuedtakes_command
__ZL31replay_printqueuedtakes_command
__ZL31replay_printsessioninfo_command
__ZL33replay_printclientreplays_command
__ZL33replay_removeclientreplay_command
__ZL34replay_deleteclientreplays_command
__ZL35s_pConversionArrays_NoEscConversion
__ZL3bsWP6EStateij
__ZL3f05
__ZL40__g_CreateCReplaySystemIReplaySystem_reg
__ZL40s_pConversionArrays_StringCharConversion
__ZL44__CreateCReplaySystemIReplaySystem_interfacev
__ZL4incs
__ZL6s_text
__ZL7mainGtUjjPhPtjPi
__ZL8s_Replay
__ZL9g_KVMutex
__ZN10CUtlBuffer11GetOverflowEi
__ZN10CUtlBuffer11PutOverflowEi
__ZN10CUtlBuffer12AssumeMemoryEPviii
__ZN10CUtlBuffer13EatCPPCommentEv
__ZN10CUtlBuffer13EatWhiteSpaceEv
__ZN10CUtlBuffer14PeekWhiteSpaceEi
__ZN10CUtlBuffer15PeekStringMatchEiPKci
__ZN10CUtlBuffer16PeekStringLengthEv
__ZN10CUtlBuffer17GetStringInternalEPcm
__ZN10CUtlBuffer18AddNullTerminationEv
__ZN10CUtlBuffer18GetDelimitedStringEP18CUtlCharConversionPci
__ZN10CUtlBuffer21CheckArbitraryPeekGetEiRi
__ZN10CUtlBuffer24GetDelimitedCharInternalEP18CUtlCharConversion
__ZN10CUtlBuffer3GetEPvi
__ZN10CUtlBuffer3PutEPKvi
__ZN10CUtlBuffer5ScanfEPKcz
__ZN10CUtlBuffer7PeekGetEii
__ZN10CUtlBuffer7SeekGetENS_10SeekType_tEi
__ZN10CUtlBuffer7SeekPutENS_10SeekType_tEi
__ZN10CUtlBuffer7VaScanfEPKcPc
__ZN10CUtlBufferC1EPKvii
__ZN10CUtlBufferC1Eiii
__ZN10CUtlBufferC2EPKvii
__ZN10CUtlBufferC2Eiii
__ZN10CUtlMemoryI19UtlLinkedListElem_tIP12IReplayMovietEtE4GrowEi
__ZN10CUtlMemoryI19UtlLinkedListElem_tIP9KeyValuestEtE4GrowEi
__ZN10CUtlString3SetEPKc
__ZN10CUtlString5PurgeEv
__ZN10CUtlString6FormatEPKcz
__ZN10CUtlString7FormatVEPKcPc
__ZN10CUtlStringaSEPKc
__ZN10CUtlStringaSERKS_
__ZN10CUtlVectorI10CUtlString10CUtlMemoryIS0_iEE12InsertBeforeEiRKS0_
__ZN10CUtlVectorIP12CReplayMovie10CUtlMemoryIS1_iEED2Ev
__ZN10CUtlVectorIP18CReplayPerformance10CUtlMemoryIS1_iEE9AddToTailERKS1_
__ZN10CUtlVectorIP21CBaseRecordingSession10CUtlMemoryIS1_iEED2Ev
__ZN10CUtlVectorIP26CBaseRecordingSessionBlock10CUtlMemoryIS1_iEED2Ev
__ZN10CUtlVectorIP7CReplay10CUtlMemoryIS1_iEED2Ev
__ZN10CUtlVectorIP9KeyValues10CUtlMemoryIS1_iEE10GrowVectorEi
__ZN10CUtlVectorIP9KeyValues10CUtlMemoryIS1_iEED2Ev
__ZN10CUtlVectorIPK28CClientRecordingSessionBlock10CUtlMemoryIS2_iEED2Ev
__ZN10CUtlVectorIPN12CRenderQueue12RenderInfo_tE10CUtlMemoryIS2_iEED2Ev
__ZN10CUtlVectorIPc10CUtlMemoryIS0_iEED2Ev
__ZN10CUtlVectorIj10CUtlMemoryIjiEED2Ev
__ZN10CVProfNode10EnterScopeEv
__ZN10CVProfNode10GetSubNodeEPKciS1_i
__ZN10CVProfNode9ExitScopeEv
__ZN10ConCommand15CanAutoCompleteEv
__ZN10ConCommand19AutoCompleteSuggestEPKcR10CUtlVectorI10CUtlString10CUtlMemoryIS3_iEE
__ZN10ConCommand8DispatchERK8CCommand
__ZN10ConCommandC1EPKcPFvRK8CCommandES1_iPFiS1_PA64_cE
__ZN10ConCommandD0Ev
__ZN10ConCommandD1Ev
__ZN11CBaseSpewerC2EP7ISpewer
__ZN11CBaseSpewerD0Ev
__ZN11CBaseSpewerD1Ev
__ZN11CNetMessage11SetReliableEb
__ZN11CNetMessage13SetNetChannelEP11INetChannel
__ZN11CNetMessage13SetRatePolicyEv
__ZN11CNetMessage29BIncomingMessageForProcessingEdi
__ZN11CNetMessage7ProcessEv
__ZN11CNetMessageD0Ev
__ZN11CNetMessageD1Ev
__ZN11CNullSpewerD0Ev
__ZN11CNullSpewerD1Ev
__ZN11CReplayTime16GetLocalizedDateEPN4vgui9ILocalizeERKS_b
__ZN11CReplayTime16GetLocalizedDateEPN4vgui9ILocalizeEiiiPiS3_S3_b
__ZN11CReplayTime20InitDateAndTimeToNowEv
__ZN11CReplayTime4ReadEP9KeyValues
__ZN11CReplayTime5WriteEP9KeyValues
__ZN11CReplayTimeC1Ev
__ZN12CBaseThinker5ThinkEv
__ZN12CBaseThinker9PostThinkEv
__ZN12CBaseThinkerC2Ev
__ZN12CBaseThinkerD0Ev
__ZN12CBaseThinkerD1Ev
__ZN12CBaseThinkerD2Ev
__ZN12CBlockSpewerD0Ev
__ZN12CBlockSpewerD1Ev
__ZN12CEmptyConVar8SetValueEPKc
__ZN12CEmptyConVar8SetValueEf
__ZN12CEmptyConVar8SetValueEi
__ZN12CEmptyConVarD0Ev
__ZN12CEmptyConVarD1Ev
__ZN12CErrorSystem21AddErrorFromTokenNameEPKc
__ZN12CErrorSystem22OGS_ReportGenericErrorEPKc
__ZN12CErrorSystem30AddFormattedErrorFromTokenNameEPKcP9KeyValues
__ZN12CErrorSystem33OGS_ReportSessioInfoDownloadErrorEPK15CHttpDownloaderPKc
__ZN12CErrorSystem35OGS_ReportSessionBlockDownloadErrorEPK15CHttpDownloaderPK28CClientRecordingSessionBlockiiPKbS7_Ph
__ZN12CErrorSystem5ClearEv
__ZN12CErrorSystem5ThinkEv
__ZN12CErrorSystem8AddErrorEPKw
__ZN12CErrorSystemC1EP14IErrorReporter
__ZN12CErrorSystemD0Ev
__ZN12CErrorSystemD1Ev
__ZN12CRefCounted1I11IRefCounted20CRefCountServiceBaseILb1E6CRefMTEE6AddRefEv
__ZN12CRefCounted1I11IRefCounted20CRefCountServiceBaseILb1E6CRefMTEE7ReleaseEv
__ZN12CRenderQueue3AddEji
__ZN12CRenderQueue5ClearEv
__ZN12CRenderQueue6RemoveEji
__ZN12CRenderQueueC1Ev
__ZN12CRenderQueueD0Ev
__ZN12CRenderQueueD1Ev
__ZN12CRenderQueueD2Ev
__ZN12CReplayMovie11GetUserDataEv
__ZN12CReplayMovie11SetUploadedEb
__ZN12CReplayMovie11SetUserDataEPv
__ZN12CReplayMovie12SetItemTitleEPKw
__ZN12CReplayMovie12SetUploadURLEPKc
__ZN12CReplayMovie13GetItemReplayEv
__ZN12CReplayMovie13SetIsRenderedEb
__ZN12CReplayMovie13SetMovieTitleEPKw
__ZN12CReplayMovie13SetRenderTimeEf
__ZN12CReplayMovie16SetMovieFilenameEPKc
__ZN12CReplayMovie17CaptureRecordTimeEv
__ZN12CReplayMovie17GetRenderSettingsEv
__ZN12CReplayMovie18GetFrameDimensionsERiS0_
__ZN12CReplayMovie18ReadRenderSettingsEP9KeyValues
__ZN12CReplayMovie19WriteRenderSettingsEP9KeyValues
__ZN12CReplayMovie4ReadEP9KeyValues
__ZN12CReplayMovie5WriteEP9KeyValues
__ZN12CReplayMovie8OnDeleteEv
__ZN12CReplayMovie9SetLengthEf
__ZN12CReplayMovieC1Ev
__ZN12CReplayMovieC2Ev
__ZN12CReplayMovieD0Ev
__ZN12CReplayMovieD1Ev
__ZN12CThreadEvent3SetEv
__ZN12CThreadEventC1Eb
__ZN12InterfaceReg16s_pInterfaceRegsE
__ZN12InterfaceRegC1EPFPvvEPKc
__ZN13CReplaySystem10DisconnectEv
__ZN13CReplaySystem11CL_ShutdownEv
__ZN13CReplaySystem11IsRecordingEv
__ZN13CReplaySystem11SV_ShutdownEv
__ZN13CReplaySystem13CL_GetContextEv
__ZN13CReplaySystem13SV_GetContextEv
__ZN13CReplaySystem15IsReplayEnabledEv
__ZN13CReplaySystem18SV_SendReplayEventEP10IGameEventi
__ZN13CReplaySystem18SV_SendReplayEventEPKci
__ZN13CReplaySystem22SV_EndRecordingSessionEb
__ZN13CReplaySystem23SV_ShouldBeginRecordingEb
__ZN13CReplaySystem24SV_NotifyReplayRequestedEv
__ZN13CReplaySystem4InitEv
__ZN13CReplaySystem5ThinkEv
__ZN13CReplaySystem7CL_InitEPFPvPKcPiE
__ZN13CReplaySystem7ConnectEPFPvPKcPiE
__ZN13CReplaySystem7SV_InitEPFPvPKcPiE
__ZN13CReplaySystem8ShutdownEv
__ZN13CReplaySystem9CL_RenderEv
__ZN13CThinkManager10AddThinkerEP8IThinker
__ZN13CThinkManager13RemoveThinkerEP8IThinker
__ZN13CThinkManager5ThinkEv
__ZN13CThinkManagerD0Ev
__ZN13CThinkManagerD1Ev
__ZN13SVC_GameEvent13WriteToBufferER8bf_write
__ZN13SVC_GameEvent14ReadFromBufferER7bf_read
__ZN13SVC_GameEvent7ProcessEv
__ZN13SVC_GameEventD0Ev
__ZN13SVC_GameEventD1Ev
__ZN14CBaseAppSystemI13IReplaySystemE14QueryInterfaceEPKc
__ZN14CLC_SaveReplay13WriteToBufferER8bf_write
__ZN14CLC_SaveReplay14ReadFromBufferER7bf_read
__ZN14CLC_SaveReplay7ProcessEv
__ZN14CLC_SaveReplayD0Ev
__ZN14CLC_SaveReplayD1Ev
__ZN14CPublishTester13Test_HostnameEPKcS1_
__ZN14CPublishTester13Test_ProtocolEPKcS1_PS1_
__ZN14CPublishTester16Test_FilePublishEPKcb
__ZN14CPublishTester2GoEv
__ZN14CPublishTester7Test_IOEPKc
__ZN14CPublishTester9Test_PathEPKcS1_bb
__ZN14CReplayManager10DebugThinkEv
__ZN14CReplayManager10GetReplaysER14CUtlLinkedListIP7CReplayiLb0Ei10CUtlMemoryI19UtlLinkedListElem_tIS2_iEiEE
__ZN14CReplayManager11OnObjLoadedEP7CReplay
__ZN14CReplayManager12DeleteReplayEjb
__ZN14CReplayManager12OnSessionEndEv
__ZN14CReplayManager14OnSessionStartEv
__ZN14CReplayManager16GetPlayingReplayEv
__ZN14CReplayManager17SanityCheckReplayEP7CReplay
__ZN14CReplayManager18FlagReplayForFlushEP7CReplayb
__ZN14CReplayManager19CreatePendingReplayEv
__ZN14CReplayManager19GetDownloadProgressEPK7CReplay
__ZN14CReplayManager21CompletePendingReplayEv
__ZN14CReplayManager22OnClientSideDisconnectEv
__ZN14CReplayManager23AttemptToSetupNewReplayEv
__ZN14CReplayManager23GetReplayForCurrentLifeEv
__ZN14CReplayManager24GetUnrenderedReplayCountEv
__ZN14CReplayManager26GetReplaysAsQueryableItemsER14CUtlLinkedListIP20IQueryableReplayItemiLb0Ei10CUtlMemoryI19UtlLinkedListElem_tIS2_iEiEE
__ZN14CReplayManager28OnReplayRecordingCvarChangedEv
__ZN14CReplayManager31GetNumReplaysDependentOnSessionEj
__ZN14CReplayManager35CommitPendingReplayAndBeginDownloadEv
__ZN14CReplayManager4InitEPFPvPKcPiE
__ZN14CReplayManager5ThinkEv
__ZN14CReplayManager6CreateEv
__ZN14CReplayManager8ShutdownEv
__ZN14CReplayManager9GetReplayEj
__ZN14CReplayManagerC1Ev
__ZN14CReplayManagerD0Ev
__ZN14CReplayManagerD1Ev
__ZN14CSimpleCounter10m_nCounterE
__ZN14CUtlLinkedListIP12CReplayMovieiLb0Ei10CUtlMemoryI19UtlLinkedListElem_tIS1_iEiEE13AllocInternalEb
__ZN14CUtlLinkedListIP12CReplayMovieiLb0Ei10CUtlMemoryI19UtlLinkedListElem_tIS1_iEiEED2Ev
__ZN14CUtlLinkedListIP12IReplayMovietLb0Et10CUtlMemoryI19UtlLinkedListElem_tIS1_tEtEE10LinkBeforeEtt
__ZN14CUtlLinkedListIP12IReplayMovietLb0Et10CUtlMemoryI19UtlLinkedListElem_tIS1_tEtEE13AllocInternalEb
__ZN14CUtlLinkedListIP15CHttpDownloaderiLb0Ei10CUtlMemoryI19UtlLinkedListElem_tIS1_iEiEE13AllocInternalEb
__ZN14CUtlLinkedListIP15CHttpDownloaderiLb0Ei10CUtlMemoryI19UtlLinkedListElem_tIS1_iEiEED2Ev
__ZN14CUtlLinkedListIP20IQueryableReplayItemiLb0Ei10CUtlMemoryI19UtlLinkedListElem_tIS1_iEiEE13AllocInternalEb
__ZN14CUtlLinkedListIP21CBaseRecordingSessioniLb0Ei10CUtlMemoryI19UtlLinkedListElem_tIS1_iEiEE13AllocInternalEb
__ZN14CUtlLinkedListIP21CBaseRecordingSessioniLb0Ei10CUtlMemoryI19UtlLinkedListElem_tIS1_iEiEED2Ev
__ZN14CUtlLinkedListIP22CSessionPublishManageriLb0Ei10CUtlMemoryI19UtlLinkedListElem_tIS1_iEiEE13AllocInternalEb
__ZN14CUtlLinkedListIP22CSessionPublishManageriLb0Ei10CUtlMemoryI19UtlLinkedListElem_tIS1_iEiEED2Ev
__ZN14CUtlLinkedListIP26CBaseRecordingSessionBlockiLb0Ei10CUtlMemoryI19UtlLinkedListElem_tIS1_iEiEE13AllocInternalEb
__ZN14CUtlLinkedListIP26CBaseRecordingSessionBlockiLb0Ei10CUtlMemoryI19UtlLinkedListElem_tIS1_iEiEED2Ev
__ZN14CUtlLinkedListIP28CServerRecordingSessionBlockiLb0Ei10CUtlMemoryI19UtlLinkedListElem_tIS1_iEiEE13AllocInternalEb
__ZN14CUtlLinkedListIP28CServerRecordingSessionBlockiLb0Ei10CUtlMemoryI19UtlLinkedListElem_tIS1_iEiEED2Ev
__ZN14CUtlLinkedListIP7CReplayiLb0Ei10CUtlMemoryI19UtlLinkedListElem_tIS1_iEiEE13AllocInternalEb
__ZN14CUtlLinkedListIP7CReplayiLb0Ei10CUtlMemoryI19UtlLinkedListElem_tIS1_iEiEE9AddToTailERKS1_
__ZN14CUtlLinkedListIP7CReplayiLb0Ei10CUtlMemoryI19UtlLinkedListElem_tIS1_iEiEED2Ev
__ZN14CUtlLinkedListIP8IThinkeriLb0Ei10CUtlMemoryI19UtlLinkedListElem_tIS1_iEiEE13AllocInternalEb
__ZN14CUtlLinkedListIP8IThinkeriLb0Ei10CUtlMemoryI19UtlLinkedListElem_tIS1_iEiEED2Ev
__ZN14CUtlLinkedListIP9KeyValuestLb0Et10CUtlMemoryI19UtlLinkedListElem_tIS1_tEtEE13AllocInternalEb
__ZN14CUtlLinkedListIP9KeyValuestLb0Et10CUtlMemoryI19UtlLinkedListElem_tIS1_tEtEE9LinkAfterEtt
__ZN14CUtlLinkedListIP9KeyValuestLb0Et10CUtlMemoryI19UtlLinkedListElem_tIS1_tEtEED2Ev
__ZN14CUtlLinkedListIPwiLb0Ei10CUtlMemoryI19UtlLinkedListElem_tIS0_iEiEE13AllocInternalEb
__ZN14CUtlLinkedListIPwiLb0Ei10CUtlMemoryI19UtlLinkedListElem_tIS0_iEiEED2Ev
__ZN14CUtlLinkedListIjiLb0Ei10CUtlMemoryI19UtlLinkedListElem_tIjiEiEE13AllocInternalEb
__ZN14CUtlLinkedListIjiLb0Ei10CUtlMemoryI19UtlLinkedListElem_tIjiEiEED2Ev
__ZN14CUtlSortVectorIP12CReplayMovieN25CGenericPersistentManagerIS0_E12CLessFunctorE10CUtlVectorIS1_10CUtlMemoryIS1_iEEE6InsertERKS1_
__ZN14CUtlSortVectorIP21CBaseRecordingSessionN25CGenericPersistentManagerIS0_E12CLessFunctorE10CUtlVectorIS1_10CUtlMemoryIS1_iEEE6InsertERKS1_
__ZN14CUtlSortVectorIP26CBaseRecordingSessionBlockN21CBaseRecordingSession12CLessFunctorE10CUtlVectorIS1_10CUtlMemoryIS1_iEEE6InsertERKS1_
__ZN14CUtlSortVectorIP26CBaseRecordingSessionBlockN25CGenericPersistentManagerIS0_E12CLessFunctorE10CUtlVectorIS1_10CUtlMemoryIS1_iEEE6InsertERKS1_
__ZN14CUtlSortVectorIP7CReplayN25CGenericPersistentManagerIS0_E12CLessFunctorE10CUtlVectorIS1_10CUtlMemoryIS1_iEEE6InsertERKS1_
__ZN14CUtlSortVectorIP9KeyValues29CUtlSortVectorKeyValuesByName10CUtlVectorIS1_10CUtlMemoryIS1_iEEE13CompareHelperEPKS1_S9_
__ZN14CUtlSortVectorIPK28CClientRecordingSessionBlock16CReplay_LessFunc10CUtlVectorIS2_10CUtlMemoryIS2_iEEE6InsertERKS2_
__ZN14CUtlStringList16CopyAndAddToTailEPKc
__ZN14ConCommandBase10CreateBaseEPKcS1_i
__ZN14ConCommandBase11s_pAccessorE
__ZN14ConCommandBase18s_pConCommandBasesE
__ZN14ConCommandBase4InitEv
__ZN14ConCommandBase8AddFlagsEi
__ZN15CCompressionJob9DoExecuteEv
__ZN15CCompressionJobC2EPKhj16CompressorType_tPbPj
__ZN15CCompressionJobD0Ev
__ZN15CCompressionJobD1Ev
__ZN15CCompressor_Bz210DecompressEPcPjPKcj
__ZN15CCompressor_Bz227GetEstimatedCompressionSizeEj
__ZN15CCompressor_Bz28CompressEPcPjPKcj
__ZN15CCompressor_Bz2D0Ev
__ZN15CCompressor_Bz2D1Ev
__ZN15CHttpDownloader13BeginDownloadEPKcS1_PvPj
__ZN15CHttpDownloader17GetHttpErrorTokenE11HTTPError_t
__ZN15CHttpDownloader23AbortDownloadAndCleanupEv
__ZN15CHttpDownloader5ThinkEv
__ZN15CHttpDownloaderC1EP16IDownloadHandler
__ZN15CHttpDownloaderD1Ev
__ZN15VTFFileHeader_t9m_DataMapE
__ZN16CCompressor_Lzss10DecompressEPcPjPKcj
__ZN16CCompressor_Lzss27GetEstimatedCompressionSizeEj
__ZN16CCompressor_Lzss8CompressEPcPjPKcj
__ZN16CCompressor_LzssD0Ev
__ZN16CCompressor_LzssD1Ev
__ZN16CDefaultAccessor22RegisterConCommandBaseEP14ConCommandBase
__ZN16CLocalPublishJob9DoExecuteEv
__ZN16CLocalPublishJobD0Ev
__ZN16CLocalPublishJobD1Ev
__ZN16CSessionRecorder13StopRecordingEb
__ZN16CSessionRecorder14StartRecordingEv
__ZN16CSessionRecorder18UpdateSessionLocksEv
__ZN16CSessionRecorder21PublishAllSynchronousEv
__ZN16CSessionRecorder28AbortCurrentSessionRecordingEv
__ZN16CSessionRecorder28SetCurrentRecordingStartTickEi
__ZN16CSessionRecorder29CreateAndAddNewPublishManagerEP23CServerRecordingSession
__ZN16CSessionRecorder4InitEv
__ZN16CSessionRecorder5ThinkEv
__ZN16CSessionRecorderC1Ev
__ZN16CSessionRecorderD0Ev
__ZN16CSessionRecorderD1Ev
__ZN17CReplayScreenshot4ReadEP9KeyValues
__ZN17CReplayScreenshot5WriteEP9KeyValues
__ZN17CReplayScreenshotD0Ev
__ZN17CReplayScreenshotD1Ev
__ZN17CThreadSyncObjectD2Ev
__ZN18CBaseFilePublisher14GetJobForPhaseENS_7Phase_tE
__ZN18CBaseFilePublisher15AbortAndCleanupEv
__ZN18CBaseFilePublisher16sm_aPhaseIOTypesE
__ZN18CBaseFilePublisher29FinishSynchronouslyAndCleanupEv
__ZN18CBaseFilePublisher42CacheOutputsOfCurrentJobForInputsOfNextJobEv
__ZN18CBaseFilePublisher5ThinkEv
__ZN18CBaseFilePublisher7PublishERK19PublishFileParams_t
__ZN18CBaseFilePublisherD0Ev
__ZN18CBaseFilePublisherD1Ev
__ZN18CBitWriteMasksInitC2Ev
__ZN18CFileserverCleaner17MarkFileForDeleteEPKc
__ZN18CFileserverCleaner18BlockForCompletionEv
__ZN18CFileserverCleaner19DoCleanAsynchronousEbP7ISpewer
__ZN18CFileserverCleaner5ThinkEv
__ZN18CFileserverCleanerC1Ev
__ZN18CFileserverCleanerD0Ev
__ZN18CFileserverCleanerD1Ev
__ZN18CReplayPerformance11SetFilenameEPKc
__ZN18CReplayPerformance20AutoNameIfHasNoTitleEPKc
__ZN18CReplayPerformance26GetFullPerformanceFilenameEv
__ZN18CReplayPerformance8SetTitleEPKw
__ZN18CReplayPerformance9CopyTicksEPKS_
__ZN18CReplayPerformanceC1EP7CReplay
__ZN18CScreenshotManager17CaptureScreenshotER25CaptureScreenshotParams_t
__ZN18CScreenshotManager19DoCaptureScreenshotEv
__ZN18CScreenshotManager19SetScreenshotReplayEj
__ZN18CScreenshotManager23ShouldCaptureScreenshotEv
__ZN18CScreenshotManager25GetUnpaddedScreenshotSizeERiS0_
__ZN18CScreenshotManager26DeleteScreenshotsForReplayEP7CReplay
__ZN18CScreenshotManager4InitEv
__ZN18CScreenshotManager5ThinkEv
__ZN18CScreenshotManagerC1Ev
__ZN18CScreenshotManagerD0Ev
__ZN18CScreenshotManagerD1Ev
__ZN18CUtlCharConversion14FindConversionEPKcPi
__ZN19CDeleteLocalFileJob9DoExecuteEv
__ZN19CDeleteLocalFileJobC2EPKc
__ZN19CDeleteLocalFileJobD0Ev
__ZN19CDeleteLocalFileJobD1Ev
__ZN19CReplayMovieManager11DeleteMovieEj
__ZN19CReplayMovieManager11RenderMovieERK19RenderMovieParams_t
__ZN19CReplayMovieManager12CancelRenderEv
__ZN19CReplayMovieManager12GetMovieListER14CUtlLinkedListIP12IReplayMovietLb0Et10CUtlMemoryI19UtlLinkedListElem_tIS2_tEtEE
__ZN19CReplayMovieManager13GetMovieCountEv
__ZN19CReplayMovieManager14CompleteRenderEbb
__ZN19CReplayMovieManager15GetPendingMovieEv
__ZN19CReplayMovieManager15RenderNextMovieEv
__ZN19CReplayMovieManager15SetPendingMovieEP12IReplayMovie
__ZN19CReplayMovieManager17CreateAndAddMovieEj
__ZN19CReplayMovieManager17FlagMovieForFlushEP12IReplayMovieb
__ZN19CReplayMovieManager24ClearRenderCancelledFlagEv
__ZN19CReplayMovieManager25GetMoviesAsQueryableItemsER14CUtlLinkedListIP20IQueryableReplayItemiLb0Ei10CUtlMemoryI19UtlLinkedListElem_tIS2_iEiEE
__ZN19CReplayMovieManager27GetCachedMovieTitleAndClearEPwi
__ZN19CReplayMovieManager29GetNumMoviesDependentOnReplayEPK7CReplay
__ZN19CReplayMovieManager4InitEv
__ZN19CReplayMovieManager6CreateEv
__ZN19CReplayMovieManager8GetMovieEj
__ZN19CReplayMovieManagerC1Ev
__ZN19CReplayMovieManagerC2Ev
__ZN19CReplayMovieManagerD0Ev
__ZN19CReplayMovieManagerD1Ev
__ZN19CUtlNoEscConversion14FindConversionEPKcPi
__ZN19VTFFileBaseHeader_t9m_DataMapE
__ZN19VTFFileHeaderV7_1_t9m_DataMapE
__ZN19VTFFileHeaderV7_2_t9m_DataMapE
__ZN19VTFFileHeaderV7_3_t9m_DataMapE
__ZN19VTFFileHeaderX360_t9m_DataMapE
__ZN20CClientReplayContext10DebugThinkEv
__ZN20CClientReplayContext10PlayReplayEjib
__ZN20CClientReplayContext13OnPlayerSpawnEv
__ZN20CClientReplayContext14GetErrorSystemEv
__ZN20CClientReplayContext14GetRenderQueueEv
__ZN20CClientReplayContext15GetMovieManagerEv
__ZN20CClientReplayContext16GetMovieRendererEv
__ZN20CClientReplayContext16GetPlaybackTimesERfS0_PK7CReplayPK18CReplayPerformance
__ZN20CClientReplayContext16GetReplayManagerEv
__ZN20CClientReplayContext16SetMovieRendererEP20IReplayMovieRenderer
__ZN20CClientReplayContext17OnSignonStateFullEv
__ZN20CClientReplayContext18GetServerSessionIdEj
__ZN20CClientReplayContext18ReportErrorsToUserEPw
__ZN20CClientReplayContext19GetRecordingSessionEj
__ZN20CClientReplayContext20GetScreenshotManagerEv
__ZN20CClientReplayContext20OnPlayerClassChangedEv
__ZN20CClientReplayContext21CleanupUnneededBlocksEv
__ZN20CClientReplayContext21DisableReplayOnClientEb
__ZN20CClientReplayContext21GetPerformanceManagerEv
__ZN20CClientReplayContext22OnClientSideDisconnectEv
__ZN20CClientReplayContext24GetPerformanceControllerEv
__ZN20CClientReplayContext26GetRecordingSessionManagerEv
__ZN20CClientReplayContext28ReconstructReplayIfNecessaryEP7CReplay
__ZN20CClientReplayContext31GetRecordingSessionBlockManagerEv
__ZN20CClientReplayContext4InitEPFPvPKcPiE
__ZN20CClientReplayContext5ThinkEv
__ZN20CClientReplayContext8ShutdownEv
__ZN20CClientReplayContext9GetReplayEj
__ZN20CClientReplayContextC1Ev
__ZN20CClientReplayContextD0Ev
__ZN20CClientReplayContextD1Ev
__ZN20CClientReplayContextD2Ev
__ZN20CKeyValuesErrorStack11ReportErrorEPKc
__ZN20CLocalFileDeleterJob16AddFileForDeleteEPKc
__ZN20CLocalFileDeleterJob9DoExecuteEv
__ZN20CLocalFileDeleterJobD0Ev
__ZN20CLocalFileDeleterJobD1Ev
__ZN20CRefCountServiceBaseILb1E6CRefMTE14OnFinalReleaseEv
__ZN20CServerReplayContext11CleanTmpDirEv
__ZN20CServerReplayContext14GetErrorSystemEv
__ZN20CServerReplayContext15OnPublishFailedEv
__ZN20CServerReplayContext16DoSanityCheckNowEv
__ZN20CServerReplayContext18GetSessionRecorderEv
__ZN20CServerReplayContext18ReportErrorsToUserEPw
__ZN20CServerReplayContext19GetRecordingSessionEj
__ZN20CServerReplayContext21CreateSessionOnClientEi
__ZN20CServerReplayContext24FlagForConVarSanityCheckEv
__ZN20CServerReplayContext26GetRecordingSessionManagerEv
__ZN20CServerReplayContext28CreateReplaySessionInfoEventEv
__ZN20CServerReplayContext31GetRecordingSessionBlockManagerEv
__ZN20CServerReplayContext4InitEPFPvPKcPiE
__ZN20CServerReplayContext5ThinkEv
__ZN20CServerReplayContext8ShutdownEv
__ZN20CServerReplayContextC1Ev
__ZN20CServerReplayContextD0Ev
__ZN20CServerReplayContextD1Ev
__ZN20CSharedReplayContext14InitThreadPoolEv
__ZN20CSharedReplayContext4InitEPFPvPKcPiE
__ZN20CSharedReplayContext5ThinkEv
__ZN20CSharedReplayContext8ShutdownEv
__ZN20CSharedReplayContextC1EP14IReplayContext
__ZN20CSharedReplayContextD0Ev
__ZN20CSharedReplayContextD1Ev
__ZN20CSharedReplayContextD2Ev
__ZN21CBaseRecordingSession20LoadBlocksForSessionEv
__ZN21CBaseRecordingSession25PopulateWithRecordingDataEi
__ZN21CBaseRecordingSession4ReadEP9KeyValues
__ZN21CBaseRecordingSession5WriteEP9KeyValues
__ZN21CBaseRecordingSession8AddBlockEP26CBaseRecordingSessionBlock
__ZN21CBaseRecordingSession8AddBlockEP26CBaseRecordingSessionBlockb
__ZN21CBaseRecordingSession8OnDeleteEv
__ZN21CBaseRecordingSession8OnUnloadEv
__ZN21CBaseRecordingSessionC2EP14IReplayContext
__ZN21CBaseRecordingSessionD0Ev
__ZN21CBaseRecordingSessionD1Ev
__ZN21CBaseRecordingSessionD2Ev
__ZN21CSessionInfoPublisher12AbortPublishEv
__ZN21CSessionInfoPublisher12AdjustHeaderEPK14IFilePublisherPv
__ZN21CSessionInfoPublisher12OnStopRecordEb
__ZN21CSessionInfoPublisher16OnPublishAbortedEPK14IFilePublisher
__ZN21CSessionInfoPublisher17OnPublishCompleteEPK14IFilePublisherPv
__ZN21CSessionInfoPublisher21PublishAllSynchronousEv
__ZN21CSessionInfoPublisher5ThinkEv
__ZN21CSessionInfoPublisher7PublishEv
__ZN21CSessionInfoPublisherC1EP23CServerRecordingSession
__ZN21CSessionInfoPublisherD0Ev
__ZN21CSessionInfoPublisherD1Ev
__ZN21CUtlCStringConversion14FindConversionEPKcPi
__ZN21CUtlCStringConversionC2EcPKciPN18CUtlCharConversion17ConversionArray_tE
__ZN22CPerformanceController11DebugRenderEv
__ZN22CPerformanceController11NotifyDirtyEv
__ZN22CPerformanceController11SaveAsAsyncEPKw
__ZN22CPerformanceController13PlaybackThinkEv
__ZN22CPerformanceController14ClearRewindingEv
__ZN22CPerformanceController14GetPerformanceEv
__ZN22CPerformanceController14StartRecordingEP7CReplayb
__ZN22CPerformanceController15NotifyRewindingEv
__ZN22CPerformanceController16NotifyPauseStateEb
__ZN22CPerformanceController16ReadSetViewEventEP9KeyValuesR6VectorR6QAngleRfPfS7_S7_
__ZN22CPerformanceController17OnSignonStateFullEv
__ZN22CPerformanceController18AddEvent_TimeScaleEff
__ZN22CPerformanceController18IsPlaybackDataLeftEv
__ZN22CPerformanceController19GetSavedPerformanceEv
__ZN22CPerformanceController19HasSavedPerformanceEv
__ZN22CPerformanceController23AddEvent_Camera_SetViewERK15SetViewParams_t
__ZN22CPerformanceController27AddEvent_Camera_Change_FreeEf
__ZN22CPerformanceController28AddEvent_Camera_ChangePlayerEfi
__ZN22CPerformanceController28SetupPlaybackFromPerformanceEP18CReplayPerformance
__ZN22CPerformanceController30RemoveDuplicateEventsFromQueueEv
__ZN22CPerformanceController34AddEvent_Camera_Change_FirstPersonEfi
__ZN22CPerformanceController34AddEvent_Camera_Change_ThirdPersonEfi
__ZN22CPerformanceController4SnipEv
__ZN22CPerformanceController4StopEv
__ZN22CPerformanceController5ThinkEv
__ZN22CPerformanceController7CleanupEv
__ZN22CPerformanceController8AddEventEP9KeyValues
__ZN22CPerformanceController9SaveAsyncEv
__ZN22CPerformanceController9SaveThinkEv
__ZN22CPerformanceController9SetEditorEP24IReplayPerformanceEditor
__ZN22CPerformanceControllerC1Ev
__ZN22CPerformanceControllerD0Ev
__ZN22CPerformanceControllerD1Ev
__ZN22CPerformanceControllerD2Ev
__ZN22CSessionBlockPublisher12AbortPublishEv
__ZN22CSessionBlockPublisher12AdjustHeaderEPK14IFilePublisherPv
__ZN22CSessionBlockPublisher12OnStopRecordEb
__ZN22CSessionBlockPublisher12PublishBlockEP28CServerRecordingSessionBlock
__ZN22CSessionBlockPublisher12PublishThinkEv
__ZN22CSessionBlockPublisher16OnPublishAbortedEPK14IFilePublisher
__ZN22CSessionBlockPublisher17OnPublishCompleteEPK14IFilePublisherPv
__ZN22CSessionBlockPublisher21PublishAllSynchronousEv
__ZN22CSessionBlockPublisher27WriteAndPublishSessionBlockEv
__ZN22CSessionBlockPublisher5ThinkEv
__ZN22CSessionBlockPublisherC1EP23CServerRecordingSessionP21CSessionInfoPublisher
__ZN22CSessionBlockPublisherD0Ev
__ZN22CSessionBlockPublisherD1Ev
__ZN22CSessionInfoDownloader12OnConnectingEP15CHttpDownloader
__ZN22CSessionInfoDownloader17CleanupDownloaderEv
__ZN22CSessionInfoDownloader18OnDownloadCompleteEP15CHttpDownloaderPKh
__ZN22CSessionInfoDownloader34DownloadSessionInfoAndUpdateBlocksEP21CBaseRecordingSession
__ZN22CSessionInfoDownloader5ThinkEv
__ZN22CSessionInfoDownloader7OnFetchEP15CHttpDownloader
__ZN22CSessionInfoDownloaderC1Ev
__ZN22CSessionInfoDownloaderD0Ev
__ZN22CSessionInfoDownloaderD1Ev
__ZN22CSessionPublishManager12AbortPublishEv
__ZN22CSessionPublishManager12OnStopRecordEb
__ZN22CSessionPublishManager13UnlockSessionEv
__ZN22CSessionPublishManager16OnStartRecordingEv
__ZN22CSessionPublishManager21PublishAllSynchronousEv
__ZN22CSessionPublishManager5ThinkEv
__ZN22CSessionPublishManagerC1EP23CServerRecordingSession
__ZN22CSessionPublishManagerC2EP23CServerRecordingSession
__ZN22CSessionPublishManagerD1Ev
__ZN23CClientRecordingSession11CacheReplayEP7CReplay
__ZN23CClientRecordingSession12DeleteBlocksEv
__ZN23CClientRecordingSession15OnReplayDeletedEP7CReplay
__ZN23CClientRecordingSession17OnDownloadTimeoutEv
__ZN23CClientRecordingSession17SyncSessionBlocksEv
__ZN23CClientRecordingSession20UpdateReplayStatusesEP28CClientRecordingSessionBlock
__ZN23CClientRecordingSession21RefreshLastUpdateTimeEv
__ZN23CClientRecordingSession24EnsureDownloadingEnabledEv
__ZN23CClientRecordingSession25AdjustLastBlockToDownloadEi
__ZN23CClientRecordingSession25PopulateWithRecordingDataEi
__ZN23CClientRecordingSession25UpdateAllBlocksDownloadedEv
__ZN23CClientRecordingSession25UpdateLastBlockToDownloadEv
__ZN23CClientRecordingSession4ReadEP9KeyValues
__ZN23CClientRecordingSession5ThinkEv
__ZN23CClientRecordingSession5WriteEP9KeyValues
__ZN23CClientRecordingSession8OnDeleteEv
__ZN23CClientRecordingSessionC1EP14IReplayContext
__ZN23CClientRecordingSessionD0Ev
__ZN23CClientRecordingSessionD1Ev
__ZN23CServerRecordingSession25PopulateWithRecordingDataEi
__ZN23CServerRecordingSession4ReadEP9KeyValues
__ZN23CServerRecordingSession5WriteEP9KeyValues
__ZN23CServerRecordingSession8OnDeleteEv
__ZN23CServerRecordingSession9SetLockedEb
__ZN23CServerRecordingSessionC1EP14IReplayContext
__ZN23CServerRecordingSessionD0Ev
__ZN23CServerRecordingSessionD1Ev
__ZN23CSessionBlockDownloader12OnConnectingEP15CHttpDownloader
__ZN23CSessionBlockDownloader18OnDownloadCompleteEP15CHttpDownloaderPKh
__ZN23CSessionBlockDownloader23sm_nNumCurrentDownloadsE
__ZN23CSessionBlockDownloader24AbortDownloadsAndCleanupEP23CClientRecordingSession
__ZN23CSessionBlockDownloader5ThinkEv
__ZN23CSessionBlockDownloader7OnFetchEP15CHttpDownloader
__ZN23CSessionBlockDownloader8ShutdownEv
__ZN23CSessionBlockDownloaderC1Ev
__ZN23CSessionBlockDownloaderD0Ev
__ZN23CSessionBlockDownloaderD1Ev
__ZN24CBaseReplaySerializeable18OnAddedToDirtyListEv
__ZN24CBaseReplaySerializeable4ReadEP9KeyValues
__ZN24CBaseReplaySerializeable5WriteEP9KeyValues
__ZN24CBaseReplaySerializeable8OnDeleteEv
__ZN24CBaseReplaySerializeable8OnUnloadEv
__ZN24CBaseReplaySerializeable9SetHandleEj
__ZN24CBaseReplaySerializeable9SetLockedEb
__ZN24CBaseReplaySerializeableC2Ev
__ZN24CBaseReplaySerializeableD0Ev
__ZN24CBaseReplaySerializeableD1Ev
__ZN25CGenericPersistentManagerI12CReplayMovieE11OnObjLoadedEPS0_
__ZN25CGenericPersistentManagerI12CReplayMovieE11UnloadThinkEv
__ZN25CGenericPersistentManagerI12CReplayMovieE12FlagForFlushEPS0_b
__ZN25CGenericPersistentManagerI12CReplayMovieE14WriteObjToFileEPS0_PKc
__ZN25CGenericPersistentManagerI12CReplayMovieE15ReadObjFromFileEPKcRPS0_b
__ZN25CGenericPersistentManagerI12CReplayMovieE15RemoveFromIndexEi
__ZN25CGenericPersistentManagerI12CReplayMovieE3AddEPS0_
__ZN25CGenericPersistentManagerI12CReplayMovieE4InitEb
__ZN25CGenericPersistentManagerI12CReplayMovieE4LoadEv
__ZN25CGenericPersistentManagerI12CReplayMovieE4SaveEv
__ZN25CGenericPersistentManagerI12CReplayMovieE5ClearEv
__ZN25CGenericPersistentManagerI12CReplayMovieE5ThinkEv
__ZN25CGenericPersistentManagerI12CReplayMovieE7PreLoadEv
__ZN25CGenericPersistentManagerI12CReplayMovieE8ShutdownEv
__ZN25CGenericPersistentManagerI12CReplayMovieED0Ev
__ZN25CGenericPersistentManagerI12CReplayMovieED1Ev
__ZN25CGenericPersistentManagerI12CReplayMovieED2Ev
__ZN25CGenericPersistentManagerI21CBaseRecordingSessionE11OnObjLoadedEPS0_
__ZN25CGenericPersistentManagerI21CBaseRecordingSessionE11UnloadThinkEv
__ZN25CGenericPersistentManagerI21CBaseRecordingSessionE12FlagForFlushEPS0_b
__ZN25CGenericPersistentManagerI21CBaseRecordingSessionE13FlagForUnloadEPS0_
__ZN25CGenericPersistentManagerI21CBaseRecordingSessionE14WriteObjToFileEPS0_PKc
__ZN25CGenericPersistentManagerI21CBaseRecordingSessionE15ReadObjFromFileEPKcRPS0_b
__ZN25CGenericPersistentManagerI21CBaseRecordingSessionE15RemoveFromIndexEi
__ZN25CGenericPersistentManagerI21CBaseRecordingSessionE3AddEPS0_
__ZN25CGenericPersistentManagerI21CBaseRecordingSessionE4InitEb
__ZN25CGenericPersistentManagerI21CBaseRecordingSessionE4LoadEv
__ZN25CGenericPersistentManagerI21CBaseRecordingSessionE4SaveEv
__ZN25CGenericPersistentManagerI21CBaseRecordingSessionE5ClearEv
__ZN25CGenericPersistentManagerI21CBaseRecordingSessionE5ThinkEv
__ZN25CGenericPersistentManagerI21CBaseRecordingSessionE7PreLoadEv
__ZN25CGenericPersistentManagerI21CBaseRecordingSessionE8ShutdownEv
__ZN25CGenericPersistentManagerI21CBaseRecordingSessionED0Ev
__ZN25CGenericPersistentManagerI21CBaseRecordingSessionED1Ev
__ZN25CGenericPersistentManagerI21CBaseRecordingSessionED2Ev
__ZN25CGenericPersistentManagerI26CBaseRecordingSessionBlockE11OnObjLoadedEPS0_
__ZN25CGenericPersistentManagerI26CBaseRecordingSessionBlockE11UnloadThinkEv
__ZN25CGenericPersistentManagerI26CBaseRecordingSessionBlockE12FlagForFlushEPS0_b
__ZN25CGenericPersistentManagerI26CBaseRecordingSessionBlockE13FlagForUnloadEPS0_
__ZN25CGenericPersistentManagerI26CBaseRecordingSessionBlockE14WriteObjToFileEPS0_PKc
__ZN25CGenericPersistentManagerI26CBaseRecordingSessionBlockE15ReadObjFromFileEPKcRPS0_b
__ZN25CGenericPersistentManagerI26CBaseRecordingSessionBlockE15RemoveFromIndexEi
__ZN25CGenericPersistentManagerI26CBaseRecordingSessionBlockE3AddEPS0_
__ZN25CGenericPersistentManagerI26CBaseRecordingSessionBlockE4InitEb
__ZN25CGenericPersistentManagerI26CBaseRecordingSessionBlockE4LoadEv
__ZN25CGenericPersistentManagerI26CBaseRecordingSessionBlockE4SaveEv
__ZN25CGenericPersistentManagerI26CBaseRecordingSessionBlockE5ClearEv
__ZN25CGenericPersistentManagerI26CBaseRecordingSessionBlockE5ThinkEv
__ZN25CGenericPersistentManagerI26CBaseRecordingSessionBlockE7PreLoadEv
__ZN25CGenericPersistentManagerI26CBaseRecordingSessionBlockE8ShutdownEv
__ZN25CGenericPersistentManagerI26CBaseRecordingSessionBlockED0Ev
__ZN25CGenericPersistentManagerI26CBaseRecordingSessionBlockED1Ev
__ZN25CGenericPersistentManagerI26CBaseRecordingSessionBlockED2Ev
__ZN25CGenericPersistentManagerI7CReplayE11OnObjLoadedEPS0_
__ZN25CGenericPersistentManagerI7CReplayE11UnloadThinkEv
__ZN25CGenericPersistentManagerI7CReplayE12FlagForFlushEPS0_b
__ZN25CGenericPersistentManagerI7CReplayE14WriteObjToFileEPS0_PKc
__ZN25CGenericPersistentManagerI7CReplayE15ReadObjFromFileEPKcRPS0_b
__ZN25CGenericPersistentManagerI7CReplayE15RemoveFromIndexEi
__ZN25CGenericPersistentManagerI7CReplayE3AddEPS0_
__ZN25CGenericPersistentManagerI7CReplayE4InitEb
__ZN25CGenericPersistentManagerI7CReplayE4LoadEv
__ZN25CGenericPersistentManagerI7CReplayE4SaveEv
__ZN25CGenericPersistentManagerI7CReplayE5ClearEv
__ZN25CGenericPersistentManagerI7CReplayE5ThinkEv
__ZN25CGenericPersistentManagerI7CReplayE7PreLoadEv
__ZN25CGenericPersistentManagerI7CReplayE8ShutdownEv
__ZN25CGenericPersistentManagerI7CReplayED0Ev
__ZN25CGenericPersistentManagerI7CReplayED1Ev
__ZN25CGenericPersistentManagerI7CReplayED2Ev
__ZN25CLocalFileserverPublisherD0Ev
__ZN25CLocalFileserverPublisherD1Ev
__ZN25CReplayPerformanceManager17CreatePerformanceEP7CReplay
__ZN25CReplayPerformanceManager17DeletePerformanceEP18CReplayPerformance
__ZN25CReplayPerformanceManager27GeneratePerformanceFilenameEP7CReplay
__ZN25CReplayPerformanceManager4InitEv
__ZN25CReplayPerformanceManagerC1Ev
__ZN25CReplayPerformanceManagerD0Ev
__ZN25CReplayPerformanceManagerD1Ev
__ZN26CBaseRecordingSessionBlock25GetRemoteStatusStringSafeENS_14RemoteStatus_tE
__ZN26CBaseRecordingSessionBlock4ReadEP9KeyValues
__ZN26CBaseRecordingSessionBlock5WriteEP9KeyValues
__ZN26CBaseRecordingSessionBlock8OnDeleteEv
__ZN26CBaseRecordingSessionBlock8ReadHashEP9KeyValuesPKc
__ZN26CBaseRecordingSessionBlockC2EP14IReplayContext
__ZN26CBaseRecordingSessionBlockD0Ev
__ZN26CBaseRecordingSessionBlockD1Ev
__ZN28CBaseRecordingSessionManager11FindSessionEj
__ZN28CBaseRecordingSessionManager12OnSessionEndEv
__ZN28CBaseRecordingSessionManager13DeleteSessionEjb
__ZN28CBaseRecordingSessionManager14OnSessionStartEiPKc
__ZN28CBaseRecordingSessionManager16DoSessionCleanupEv
__ZN28CBaseRecordingSessionManager17FindSessionByNameEPKc
__ZN28CBaseRecordingSessionManager19FlagSessionForFlushEP21CBaseRecordingSessionb
__ZN28CBaseRecordingSessionManager20MarkSessionForDeleteEj
__ZN28CBaseRecordingSessionManager20OnAllSessionsDeletedEv
__ZN28CBaseRecordingSessionManager28GetServerStartTickForSessionEj
__ZN28CBaseRecordingSessionManager4InitEv
__ZN28CBaseRecordingSessionManager5ThinkEv
__ZN28CBaseRecordingSessionManagerC2EP14IReplayContext
__ZN28CBaseRecordingSessionManagerD0Ev
__ZN28CBaseRecordingSessionManagerD1Ev
__ZN28CBaseRecordingSessionManagerD2Ev
__ZN28CClientRecordingSessionBlock25AttemptToResetForDownloadEv
__ZN28CClientRecordingSessionBlock4ReadEP9KeyValues
__ZN28CClientRecordingSessionBlock5WriteEP9KeyValues
__ZN28CClientRecordingSessionBlock8OnDeleteEv
__ZN28CClientRecordingSessionBlockC1EP14IReplayContext
__ZN28CClientRecordingSessionBlockD0Ev
__ZN28CClientRecordingSessionBlockD1Ev
__ZN28CDatadescGeneratedNameHolderD1Ev
__ZN28CServerRecordingSessionBlock4ReadEP9KeyValues
__ZN28CServerRecordingSessionBlock5WriteEP9KeyValues
__ZN28CServerRecordingSessionBlock8OnDeleteEv
__ZN28CServerRecordingSessionBlockC1EP14IReplayContext
__ZN28CServerRecordingSessionBlockD0Ev
__ZN28CServerRecordingSessionBlockD1Ev
__ZN28VTFFileHeader_t_DataDescInit15g_DataMapHolderE
__ZN29CTraceFilterWorldAndPropsOnly15ShouldHitEntityEP13IHandleEntityi
__ZN30CClientRecordingSessionManager11OnObjLoadedEP21CBaseRecordingSession
__ZN30CClientRecordingSessionManager12OnSessionEndEv
__ZN30CClientRecordingSessionManager13DownloadThinkEv
__ZN30CClientRecordingSessionManager13FireGameEventEP10IGameEvent
__ZN30CClientRecordingSessionManager14OnSessionStartEiPKc
__ZN30CClientRecordingSessionManager15OnReplayDeletedEP7CReplay
__ZN30CClientRecordingSessionManager15OnReplaysLoadedEv
__ZN30CClientRecordingSessionManager21CleanupUnneededBlocksEv
__ZN30CClientRecordingSessionManager4InitEv
__ZN30CClientRecordingSessionManager5ThinkEv
__ZN30CClientRecordingSessionManager6CreateEv
__ZN30CClientRecordingSessionManagerC1EP14IReplayContext
__ZN30CClientRecordingSessionManagerD0Ev
__ZN30CClientRecordingSessionManagerD1Ev
__ZN30CNetMessageRatelimitPolicyNone29BIncomingMessageForProcessingEdi
__ZN30CServerRecordingSessionManager12OnSessionEndEv
__ZN30CServerRecordingSessionManager14OnSessionStartEiPKc
__ZN30CServerRecordingSessionManager20OnAllSessionsDeletedEv
__ZN30CServerRecordingSessionManager32ShouldSerializeIndexWithFullPathEv
__ZN30CServerRecordingSessionManager5ThinkEv
__ZN30CServerRecordingSessionManager6CreateEv
__ZN30CServerRecordingSessionManagerC1EP14IReplayContext
__ZN30CServerRecordingSessionManagerD0Ev
__ZN30CServerRecordingSessionManagerD1Ev
__ZN32VTFFileBaseHeader_t_DataDescInit15g_DataMapHolderE
__ZN32VTFFileHeaderV7_1_t_DataDescInit15g_DataMapHolderE
__ZN32VTFFileHeaderV7_2_t_DataDescInit15g_DataMapHolderE
__ZN32VTFFileHeaderV7_3_t_DataDescInit15g_DataMapHolderE
__ZN32VTFFileHeaderX360_t_DataDescInit15g_DataMapHolderE
__ZN33CBaseRecordingSessionBlockManager11DeleteBlockEP26CBaseRecordingSessionBlock
__ZN33CBaseRecordingSessionBlockManager11UnloadBlockEP26CBaseRecordingSessionBlock
__ZN33CBaseRecordingSessionBlockManager19FindBlockForSessionEji
__ZN33CBaseRecordingSessionBlockManager21LoadBlockFromFileNameEPKcP17IRecordingSession
__ZN33CBaseRecordingSessionBlockManager4InitEv
__ZN33CBaseRecordingSessionBlockManager8GetBlockEj
__ZN33CBaseRecordingSessionBlockManagerC2EP14IReplayContext
__ZN33CBaseRecordingSessionBlockManagerD0Ev
__ZN33CBaseRecordingSessionBlockManagerD1Ev
__ZN35CClientRecordingSessionBlockManager5ThinkEv
__ZN35CClientRecordingSessionBlockManager6CreateEv
__ZN35CClientRecordingSessionBlockManagerC1EP14IReplayContext
__ZN35CClientRecordingSessionBlockManagerD0Ev
__ZN35CClientRecordingSessionBlockManagerD1Ev
__ZN35CServerRecordingSessionBlockManager6CreateEv
__ZN35CServerRecordingSessionBlockManager7PreLoadEv
__ZN35CServerRecordingSessionBlockManagerC1EP14IReplayContext
__ZN35CServerRecordingSessionBlockManagerD0Ev
__ZN35CServerRecordingSessionBlockManagerD1Ev
__ZN4CJob14SetDescriptionEPKc
__ZN4CJob7DoAbortEb
__ZN4CJob8DescribeEv
__ZN4CJob9DoCleanupEv
__ZN4CJobC2E13JobPriority_t
__ZN4CJobD0Ev
__ZN4CJobD1Ev
__ZN6ConVar10ClampValueERf
__ZN6ConVar16InternalSetValueEPKc
__ZN6ConVar17ChangeStringValueEPKcf
__ZN6ConVar19InternalSetIntValueEi
__ZN6ConVar21InternalSetFloatValueEfb
__ZN6ConVar4InitEv
__ZN6ConVar6CreateEPKcS1_iS1_bfbfbfbfPFvP7IConVarS1_fE
__ZN6ConVar8AddFlagsEi
__ZN6ConVar8SetValueEPKc
__ZN6ConVar8SetValueEf
__ZN6ConVar8SetValueEi
__ZN6ConVarC1EPKcS1_iS1_
__ZN6ConVarC1EPKcS1_iS1_bfbf
__ZN6ConVarC1EPKcS1_iS1_bfbfPFvP7IConVarS1_fE
__ZN6ConVarD0Ev
__ZN6ConVarD1Ev
__ZN7CMd5Job9DoExecuteEv
__ZN7CMd5JobD0Ev
__ZN7CMd5JobD1Ev
__ZN7CReplay13AddScreenshotEiiPKc
__ZN7CReplay17AddNewPerformanceEbb
__ZN7CReplay20AutoNameTitleIfEmptyEv
__ZN7CReplay23GetPerformanceWithTitleEPKw
__ZN7bf_read10ReadStringEPcibPi
__ZN7bf_read15SetOverflowFlagEv
__ZN7bf_read8ReadBitsEPvi
__ZN7bf_read9ReadFloatEv
__ZN7bf_readC1Ev
__ZN8CBaseJob8SetErrorEiPKc
__ZN8CBaseJobC2E13JobPriority_tP7ISpewer
__ZN8CBaseJobD0Ev
__ZN8CBaseJobD1Ev
__ZN8CFmtStrNILi256ELb0EE12AppendFormatEPKcz
__ZN8CFmtStrNILi256ELb0EE19InitQuietTruncationEv
__ZN8CFmtStrNILi256ELb0EE7sprintfEPKcz
__ZN8CFmtStrNILi256ELb0EEC1EPKcz
__ZN8CSaveJob9DoExecuteEv
__ZN8CSaveJobC2EP9KeyValuesPKc
__ZN8CSaveJobD0Ev
__ZN8CSaveJobD1Ev
__ZN8bf_write10WriteFloatEf
__ZN8bf_write11WriteStringEPKc
__ZN8bf_write12StartWritingEPviii
__ZN8bf_write9WriteBitsEPKvi
__ZN8bf_writeC1Ev
__ZN9CUtlQueueIh10CUtlMemoryIhiEE6InsertERKh
__ZN9ConVarRefC1EP7IConVar
__ZN9ConVarRefC1EPKc
__ZN9ILocalize15ConstructStringIwEEvPT_iPKS1_iz
__ZN9ILocalize20ConvertANSIToUnicodeEPKcPwi
__ZN9ILocalize20ConvertUnicodeToANSIEPKwPci
__ZN9ILocalize28ConstructStringVArgsInternalEPwiPKwiPc
__ZN9KeyValues10GetWStringEPKcPKw
__ZN9KeyValues10SaveToFileEP15IBaseFileSystemPKcS3_bbb
__ZN9KeyValues10SetWStringEPKcPKw
__ZN9KeyValues10deleteThisEv
__ZN9KeyValues12GetNextValueEv
__ZN9KeyValues12LoadFromFileEP15IBaseFileSystemPKcS3_b
__ZN9KeyValues12RemoveSubKeyEPS_
__ZN9KeyValues13GetFirstValueEv
__ZN9KeyValues13SaveKeyToFileEPS_P15IBaseFileSystemPvP10CUtlBufferibb
__ZN9KeyValues14LoadFromBufferEPKcR10CUtlBufferP15IBaseFileSystemS1_
__ZN9KeyValues14LoadFromBufferEPKcS1_P15IBaseFileSystemS1_
__ZN9KeyValues16RemoveEverythingEv
__ZN9KeyValues17GetNextTrueSubKeyEv
__ZN9KeyValues17ParseIncludedKeysEPKcS1_P15IBaseFileSystemS1_R10CUtlVectorIPS_10CUtlMemoryIS5_iEE
__ZN9KeyValues18GetFirstTrueSubKeyEv
__ZN9KeyValues19RecursiveSaveToFileEP15IBaseFileSystemPvP10CUtlBufferibb
__ZN9KeyValues19RecursiveSaveToFileER10CUtlBufferibb
__ZN9KeyValues20WriteConvertedStringEP15IBaseFileSystemPvP10CUtlBufferPKc
__ZN9KeyValues22s_pfGetStringForSymbolE
__ZN9KeyValues22s_pfGetSymbolForStringE
__ZN9KeyValues23RecursiveLoadFromBufferEPKcR10CUtlBuffer
__ZN9KeyValues23RecursiveMergeKeyValuesEPS_
__ZN9KeyValues25GetStringForSymbolClassicEi
__ZN9KeyValues25GetSymbolForStringClassicEPKcb
__ZN9KeyValues28CreateKeyUsingKnownLastChildEPKcPS_
__ZN9KeyValues6GetIntEPKci
__ZN9KeyValues6SetIntEPKci
__ZN9KeyValues7FindKeyEPKcb
__ZN9KeyValues7GetBoolEPKcbPb
__ZN9KeyValues8GetFloatEPKcf
__ZN9KeyValues8SetFloatEPKcf
__ZN9KeyValues9AddSubKeyEPS_
__ZN9KeyValues9GetStringEPKcS1_
__ZN9KeyValues9GetUint64EPKcy
__ZN9KeyValues9ReadTokenER10CUtlBufferRbS2_
__ZN9KeyValues9SetStringEPKcS1_
__ZN9KeyValues9SetUint64EPKcy
__ZN9KeyValuesC1EPKc
__ZN9KeyValuesC1EPKcS1_S1_
__ZN9KeyValuesC1EPKcS1_i
__ZN9KeyValuesdlEPv
__ZN9KeyValuesnwEm
__ZNK10CUtlString3GetEv
__ZNK10ConCommand9IsCommandEv
__ZNK11CBaseSpewer10PrintValueEPKcS1_
__ZNK11CBaseSpewer13PrintBlockEndEv
__ZNK11CBaseSpewer14PrintEmptyLineEv
__ZNK11CBaseSpewer15PrintBlockStartEv
__ZNK11CBaseSpewer15PrintEventErrorEPKc
__ZNK11CBaseSpewer15PrintTestHeaderEPKc
__ZNK11CBaseSpewer16PrintEventResultEb
__ZNK11CBaseSpewer18PrintEventStartMsgEPKc
__ZNK11CBaseSpewer8PrintMsgEPKc
__ZNK11CNetMessage10IsReliableEv
__ZNK11CNetMessage13GetNetChannelEv
__ZNK11CNetMessage8GetGroupEv
__ZNK11CNullSpewer10PrintValueEPKcS1_
__ZNK11CNullSpewer13PrintBlockEndEv
__ZNK11CNullSpewer14PrintEmptyLineEv
__ZNK11CNullSpewer15PrintBlockStartEv
__ZNK11CNullSpewer15PrintEventErrorEPKc
__ZNK11CNullSpewer15PrintTestHeaderEPKc
__ZNK11CNullSpewer16PrintEventResultEb
__ZNK11CNullSpewer18PrintEventStartMsgEPKc
__ZNK11CNullSpewer8PrintMsgEPKc
__ZNK11CReplayTime7GetDateERiS0_S0_
__ZNK11CReplayTime7GetTimeERiS0_S0_
__ZNK12CBaseThinker11ShouldThinkEv
__ZNK12CBlockSpewer10PrintValueEPKcS1_
__ZNK12CBlockSpewer13PrintBlockEndEv
__ZNK12CBlockSpewer14PrintEmptyLineEv
__ZNK12CBlockSpewer15PrintBlockStartEv
__ZNK12CBlockSpewer15PrintEventErrorEPKc
__ZNK12CBlockSpewer15PrintTestHeaderEPKc
__ZNK12CBlockSpewer16PrintEventResultEb
__ZNK12CBlockSpewer18PrintEventStartMsgEPKc
__ZNK12CBlockSpewer8PrintMsgEPKc
__ZNK12CEmptyConVar7GetNameEv
__ZNK12CEmptyConVar9IsFlagSetEi
__ZNK12CErrorSystem16GetNextThinkTimeEv
__ZNK12CRenderQueue12GetEntryDataEiPjPi
__ZNK12CRenderQueue8GetCountEv
__ZNK12CRenderQueue9IsInQueueEji
__ZNK12CReplayMovie10IsUploadedEv
__ZNK12CReplayMovie11GetItemDateEv
__ZNK12CReplayMovie12GetItemTitleEv
__ZNK12CReplayMovie12GetUploadURLEv
__ZNK12CReplayMovie12IsItemAMovieEv
__ZNK12CReplayMovie13GetItemHandleEv
__ZNK12CReplayMovie13GetItemLengthEv
__ZNK12CReplayMovie13GetRenderTimeEv
__ZNK12CReplayMovie14GetMovieHandleEv
__ZNK12CReplayMovie14GetSubKeyTitleEv
__ZNK12CReplayMovie14IsItemRenderedEv
__ZNK12CReplayMovie15GetReplayHandleEv
__ZNK12CReplayMovie16GetMovieFilenameEv
__ZNK12CReplayMovie19GetItemReplayHandleEv
__ZNK12CReplayMovie7GetPathEv
__ZNK13SVC_GameEvent7GetNameEv
__ZNK13SVC_GameEvent7GetSizeEv
__ZNK13SVC_GameEvent7GetTypeEv
__ZNK13SVC_GameEvent8GetGroupEv
__ZNK13SVC_GameEvent8ToStringEv
__ZNK14CLC_SaveReplay7GetNameEv
__ZNK14CLC_SaveReplay7GetSizeEv
__ZNK14CLC_SaveReplay7GetTypeEv
__ZNK14CLC_SaveReplay8ToStringEv
__ZNK14CReplayManager10GetVersionEv
__ZNK14CReplayManager12GetDebugNameEv
__ZNK14CReplayManager13GetReplaysDirEv
__ZNK14CReplayManager13ShouldLoadObjEPK7CReplay
__ZNK14CReplayManager14GetReplayCountEv
__ZNK14CReplayManager16GetIndexFilenameEv
__ZNK14CReplayManager16GetNextThinkTimeEv
__ZNK14CReplayManager16GetReplayContextEv
__ZNK14CReplayManager20GetRelativeIndexPathEv
__ZNK14CUtlSortVectorIP12CReplayMovieN25CGenericPersistentManagerIS0_E12CLessFunctorE10CUtlVectorIS1_10CUtlMemoryIS1_iEEE15FindLessOrEqualIS1_EEiRKT_Pb
__ZNK14CUtlSortVectorIP21CBaseRecordingSessionN25CGenericPersistentManagerIS0_E12CLessFunctorE10CUtlVectorIS1_10CUtlMemoryIS1_iEEE15FindLessOrEqualIS1_EEiRKT_Pb
__ZNK14CUtlSortVectorIP21CBaseRecordingSessionN25CGenericPersistentManagerIS0_E12CLessFunctorE10CUtlVectorIS1_10CUtlMemoryIS1_iEEE4FindIS1_EEiRKT_
__ZNK14CUtlSortVectorIP26CBaseRecordingSessionBlockN21CBaseRecordingSession12CLessFunctorE10CUtlVectorIS1_10CUtlMemoryIS1_iEEE15FindLessOrEqualIS1_EEiRKT_Pb
__ZNK14CUtlSortVectorIP26CBaseRecordingSessionBlockN25CGenericPersistentManagerIS0_E12CLessFunctorE10CUtlVectorIS1_10CUtlMemoryIS1_iEEE15FindLessOrEqualIS1_EEiRKT_Pb
__ZNK14CUtlSortVectorIP26CBaseRecordingSessionBlockN25CGenericPersistentManagerIS0_E12CLessFunctorE10CUtlVectorIS1_10CUtlMemoryIS1_iEEE4FindIS1_EEiRKT_
__ZNK14CUtlSortVectorIP7CReplayN25CGenericPersistentManagerIS0_E12CLessFunctorE10CUtlVectorIS1_10CUtlMemoryIS1_iEEE15FindLessOrEqualIS1_EEiRKT_Pb
__ZNK14CUtlSortVectorIP7CReplayN25CGenericPersistentManagerIS0_E12CLessFunctorE10CUtlVectorIS1_10CUtlMemoryIS1_iEEE4FindIS1_EEiRKT_
__ZNK14CUtlSortVectorIPK28CClientRecordingSessionBlock16CReplay_LessFunc10CUtlVectorIS2_10CUtlMemoryIS2_iEEE15FindLessOrEqualIS2_EEiRKT_Pb
__ZNK14ConCommandBase11GetHelpTextEv
__ZNK14ConCommandBase12IsRegisteredEv
__ZNK14ConCommandBase16GetDLLIdentifierEv
__ZNK14ConCommandBase7GetNameEv
__ZNK14ConCommandBase9IsFlagSetEi
__ZNK15CBasePublishJob13GetOutputDataEPPhPj
__ZNK15CBasePublishJob17GetOutputFilenameEv
__ZNK15CCompressionJob13GetOutputDataEPPhPj
__ZNK15CHttpDownloader9GetOgsRowEi
__ZNK16CSessionRecorder16GetNextThinkTimeEv
__ZNK17CReplayScreenshot14GetSubKeyTitleEv
__ZNK17CReplayScreenshot7GetPathEv
__ZNK18CBaseFilePublisher10CompressedEv
__ZNK18CBaseFilePublisher17GetCompressedSizeEv
__ZNK18CBaseFilePublisher17GetCompressorTypeEv
__ZNK18CBaseFilePublisher6HashedEv
__ZNK18CBaseFilePublisher6IsDoneEv
__ZNK18CBaseFilePublisher7GetHashEPh
__ZNK18CBaseFilePublisher9GetStatusEv
__ZNK18CFileserverCleaner16GetNextThinkTimeEv
__ZNK18CReplayPerformance8MakeCopyEv
__ZNK18CScreenshotManager16GetNextThinkTimeEv
__ZNK19CReplayMovieManager10GetVersionEv
__ZNK19CReplayMovieManager11IsRenderingEv
__ZNK19CReplayMovieManager12GetDebugNameEv
__ZNK19CReplayMovieManager12GetRenderDirEv
__ZNK19CReplayMovieManager13GetHandleBaseEv
__ZNK19CReplayMovieManager15GetRawExportDirEv
__ZNK19CReplayMovieManager16GetIndexFilenameEv
__ZNK19CReplayMovieManager16GetNextThinkTimeEv
__ZNK19CReplayMovieManager16GetReplayContextEv
__ZNK19CReplayMovieManager18RenderingCancelledEv
__ZNK19CReplayMovieManager20GetRelativeIndexPathEv
__ZNK20CClientReplayContext10GetBaseDirEv
__ZNK20CClientReplayContext13IsInitializedEv
__ZNK20CClientReplayContext15GetReplaySubDirEv
__ZNK20CClientReplayContext18GetRelativeBaseDirEv
__ZNK20CLocalFileDeleterJob18GetNumFilesDeletedEv
__ZNK20CServerReplayContext10GetBaseDirEv
__ZNK20CServerReplayContext13IsInitializedEv
__ZNK20CServerReplayContext15GetReplaySubDirEv
__ZNK20CServerReplayContext18GetRelativeBaseDirEv
__ZNK20CServerReplayContext22GetLocalFileServerPathEv
__ZNK20CSharedReplayContext10GetBaseDirEv
__ZNK20CSharedReplayContext13IsInitializedEv
__ZNK20CSharedReplayContext15GetReplaySubDirEv
__ZNK20CSharedReplayContext18GetRelativeBaseDirEv
__ZNK21CBaseRecordingSession14GetSubKeyTitleEv
__ZNK21CBaseRecordingSession17GetSessionInfoURLEv
__ZNK21CBaseRecordingSession18ShouldDitchSessionEv
__ZNK21CBaseRecordingSession7GetPathEv
__ZNK21CSessionInfoPublisher6IsDoneEv
__ZNK22CPerformanceController11IsRecordingEv
__ZNK22CPerformanceController11IsRewindingEv
__ZNK22CPerformanceController16GetNextThinkTimeEv
__ZNK22CPerformanceController17GetLastSaveStatusEv
__ZNK22CPerformanceController20GetPlaybackTimeScaleEv
__ZNK22CPerformanceController23GetUnsavedRecordingDataEv
__ZNK22CPerformanceController7IsDirtyEv
__ZNK22CPerformanceController8IsSavingEv
__ZNK22CPerformanceController9IsPlayingEv
__ZNK22CSessionBlockPublisher6IsDoneEv
__ZNK22CSessionInfoDownloader16GetNextThinkTimeEv
__ZNK22CSessionPublishManager6IsDoneEv
__ZNK23CClientRecordingSession16GetNextThinkTimeEv
__ZNK23CClientRecordingSession18ShouldDitchSessionEv
__ZNK23CClientRecordingSession26ShouldSyncBlocksWithServerEv
__ZNK23CServerRecordingSession14SessionExpiredEv
__ZNK23CServerRecordingSession18ShouldDitchSessionEv
__ZNK23CServerRecordingSession22GetSecondsToExpirationEv
__ZNK23CSessionBlockDownloader16GetNextThinkTimeEv
__ZNK24CBaseReplaySerializeable11GetFilenameEv
__ZNK24CBaseReplaySerializeable12GetDebugNameEv
__ZNK24CBaseReplaySerializeable15GetFullFilenameEv
__ZNK24CBaseReplaySerializeable8IsLockedEv
__ZNK24CBaseReplaySerializeable9GetHandleEv
__ZNK25CGenericPersistentManagerI12CReplayMovieE12GetIndexPathEv
__ZNK25CGenericPersistentManagerI12CReplayMovieE13GetHandleBaseEv
__ZNK25CGenericPersistentManagerI12CReplayMovieE13ShouldLoadObjEPKS0_
__ZNK25CGenericPersistentManagerI12CReplayMovieE16GetNextThinkTimeEv
__ZNK25CGenericPersistentManagerI12CReplayMovieE19ShouldDeleteObjectsEv
__ZNK25CGenericPersistentManagerI12CReplayMovieE32ShouldSerializeIndexWithFullPathEv
__ZNK25CGenericPersistentManagerI12CReplayMovieE32ShouldSerializeToIndividualFilesEv
__ZNK25CGenericPersistentManagerI21CBaseRecordingSessionE12GetIndexPathEv
__ZNK25CGenericPersistentManagerI21CBaseRecordingSessionE13GetHandleBaseEv
__ZNK25CGenericPersistentManagerI21CBaseRecordingSessionE13ShouldLoadObjEPKS0_
__ZNK25CGenericPersistentManagerI21CBaseRecordingSessionE16GetNextThinkTimeEv
__ZNK25CGenericPersistentManagerI21CBaseRecordingSessionE19ShouldDeleteObjectsEv
__ZNK25CGenericPersistentManagerI21CBaseRecordingSessionE32ShouldSerializeIndexWithFullPathEv
__ZNK25CGenericPersistentManagerI21CBaseRecordingSessionE32ShouldSerializeToIndividualFilesEv
__ZNK25CGenericPersistentManagerI26CBaseRecordingSessionBlockE12GetIndexPathEv
__ZNK25CGenericPersistentManagerI26CBaseRecordingSessionBlockE13GetHandleBaseEv
__ZNK25CGenericPersistentManagerI26CBaseRecordingSessionBlockE13ShouldLoadObjEPKS0_
__ZNK25CGenericPersistentManagerI26CBaseRecordingSessionBlockE16GetNextThinkTimeEv
__ZNK25CGenericPersistentManagerI26CBaseRecordingSessionBlockE19ShouldDeleteObjectsEv
__ZNK25CGenericPersistentManagerI26CBaseRecordingSessionBlockE32ShouldSerializeIndexWithFullPathEv
__ZNK25CGenericPersistentManagerI26CBaseRecordingSessionBlockE32ShouldSerializeToIndividualFilesEv
__ZNK25CGenericPersistentManagerI7CReplayE12GetIndexPathEv
__ZNK25CGenericPersistentManagerI7CReplayE13GetHandleBaseEv
__ZNK25CGenericPersistentManagerI7CReplayE13ShouldLoadObjEPKS0_
__ZNK25CGenericPersistentManagerI7CReplayE16GetNextThinkTimeEv
__ZNK25CGenericPersistentManagerI7CReplayE19ShouldDeleteObjectsEv
__ZNK25CGenericPersistentManagerI7CReplayE32ShouldSerializeIndexWithFullPathEv
__ZNK25CGenericPersistentManagerI7CReplayE32ShouldSerializeToIndividualFilesEv
__ZNK25CLocalFileserverPublisher13GetPublishJobEv
__ZNK25CReplayPerformanceManager11GetFullPathEv
__ZNK25CReplayPerformanceManager15GetRelativePathEv
__ZNK26CBaseRecordingSessionBlock12HasValidHashEv
__ZNK26CBaseRecordingSessionBlock14GetSubKeyTitleEv
__ZNK26CBaseRecordingSessionBlock28WriteSessionInfoDataToBufferER10CUtlBuffer
__ZNK26CBaseRecordingSessionBlock7GetPathEv
__ZNK28CBaseRecordingSessionManager11FindSessionEj
__ZNK28CBaseRecordingSessionManager12GetDebugNameEv
__ZNK28CBaseRecordingSessionManager16CanDeleteSessionEj
__ZNK28CBaseRecordingSessionManager16GetIndexFilenameEv
__ZNK28CBaseRecordingSessionManager16GetNextThinkTimeEv
__ZNK28CBaseRecordingSessionManager20GetRelativeIndexPathEv
__ZNK28CBaseRecordingSessionManager20ShouldUnloadSessionsEv
__ZNK28CBaseRecordingSessionManager21GetCurrentSessionNameEv
__ZNK28CBaseRecordingSessionManager27GetCurrentSessionBlockIndexEv
__ZNK28CClientRecordingSessionBlock11NeedsUpdateEv
__ZNK28CClientRecordingSessionBlock12ValidateDataEPKviPh
__ZNK28CClientRecordingSessionBlock17ShouldDownloadNowEv
__ZNK28CClientRecordingSessionBlock22DownloadedSuccessfullyEv
__ZNK29CTraceFilterWorldAndPropsOnly12GetTraceTypeEv
__ZNK30CClientRecordingSessionManager10GetVersionEv
__ZNK30CClientRecordingSessionManager16GetReplayContextEv
__ZNK30CClientRecordingSessionManager17GetNewSessionNameEv
__ZNK30CServerRecordingSessionManager10GetVersionEv
__ZNK30CServerRecordingSessionManager16CanDeleteSessionEj
__ZNK30CServerRecordingSessionManager16GetReplayContextEv
__ZNK30CServerRecordingSessionManager17GetNewSessionNameEv
__ZNK30CServerRecordingSessionManager20ShouldUnloadSessionsEv
__ZNK33CBaseRecordingSessionBlockManager10GetVersionEv
__ZNK33CBaseRecordingSessionBlockManager11GetSavePathEv
__ZNK33CBaseRecordingSessionBlockManager12GetBlockPathEv
__ZNK33CBaseRecordingSessionBlockManager12GetDebugNameEv
__ZNK33CBaseRecordingSessionBlockManager16GetIndexFilenameEv
__ZNK33CBaseRecordingSessionBlockManager16GetNextThinkTimeEv
__ZNK33CBaseRecordingSessionBlockManager20GetRelativeIndexPathEv
__ZNK33CBaseRecordingSessionBlockManager32ShouldSerializeToIndividualFilesEv
__ZNK35CClientRecordingSessionBlockManager16GetNextThinkTimeEv
__ZNK35CClientRecordingSessionBlockManager16GetReplayContextEv
__ZNK35CClientRecordingSessionBlockManager16ShouldLoadBlocksEv
__ZNK35CServerRecordingSessionBlockManager16GetReplayContextEv
__ZNK35CServerRecordingSessionBlockManager16ShouldLoadBlocksEv
__ZNK6ConVar11GetHelpTextEv
__ZNK6ConVar12IsRegisteredEv
__ZNK6ConVar7GetNameEv
__ZNK6ConVar9IsCommandEv
__ZNK6ConVar9IsFlagSetEi
__ZNK7CReplay14GetPerformanceEi
__ZNK7CReplay18IsSignificantBlockEi
__ZNK7CReplay22HasReconstructedReplayEv
__ZNK9ConVarRef7IsValidEv
__ZNK9KeyValues7GetNameEv
__ZNK9KeyValues8MakeCopyEv
__ZNV16CThreadFastMutex4LockEjj
__ZSt9terminatev
__ZTI10ConCommand
__ZTI10IAppSystem
__ZTI11CBaseSpewer
__ZTI11CNetMessage
__ZTI11CNullSpewer
__ZTI11ICompressor
__ZTI11INetMessage
__ZTI11IRefCounted
__ZTI12CBaseThinker
__ZTI12CBlockSpewer
__ZTI12CEmptyConVar
__ZTI12CErrorSystem
__ZTI12CRefCounted1I11IRefCounted20CRefCountServiceBaseILb1E6CRefMTEE
__ZTI12CRenderQueue
__ZTI12CReplayMovie
__ZTI12IReplayMovie
__ZTI12ITraceFilter
__ZTI13CReplaySystem
__ZTI13CThinkManager
__ZTI13IReplaySystem
__ZTI13IThinkManager
__ZTI13SVC_GameEvent
__ZTI14CBaseAppSystemI13IReplaySystemE
__ZTI14CLC_SaveReplay
__ZTI14CReplayManager
__ZTI14ConCommandBase
__ZTI14IBaseInterface
__ZTI14IErrorReporter
__ZTI14IFilePublisher
__ZTI14IReplayContext
__ZTI14IReplayManager
__ZTI15CBasePublishJob
__ZTI15CCompressionJob
__ZTI15CCompressor_Bz2
__ZTI15CTier0AppSystemI13IReplaySystemE
__ZTI15CTier1AppSystemI13IReplaySystemLi0EE
__ZTI15CTier2AppSystemI13IReplaySystemLi0EE
__ZTI16CCompressor_Lzss
__ZTI16CDefaultAccessor
__ZTI16CLocalPublishJob
__ZTI16CSessionRecorder
__ZTI16IDownloadHandler
__ZTI17CReplayScreenshot
__ZTI17IRecordingSession
__ZTI18CBaseFilePublisher
__ZTI18CFileserverCleaner
__ZTI18CScreenshotManager
__ZTI18CUtlCharConversion
__ZTI18IReplayErrorSystem
__ZTI18IReplayRenderQueue
__ZTI19CDeleteLocalFileJob
__ZTI19CReplayMovieManager
__ZTI19CUtlNoEscConversion
__ZTI19IGameEventListener2
__ZTI19IReplayMovieManager
__ZTI20CClientReplayContext
__ZTI20CLocalFileDeleterJob
__ZTI20CRefCountServiceBaseILb1E6CRefMTE
__ZTI20CServerReplayContext
__ZTI20CSharedReplayContext
__ZTI20IClientReplayContext
__ZTI20IQueryableReplayItem
__ZTI20IReplaySerializeable
__ZTI20IServerReplayContext
__ZTI21CBaseRecordingSession
__ZTI21CSessionInfoPublisher
__ZTI21CUtlCStringConversion
__ZTI21IFileserverCleanerJob
__ZTI22CPerformanceController
__ZTI22CSessionBlockPublisher
__ZTI22CSessionInfoDownloader
__ZTI22IReplaySessionRecorder
__ZTI23CClientRecordingSession
__ZTI23CServerRecordingSession
__ZTI23CSessionBlockDownloader
__ZTI23IConCommandBaseAccessor
__ZTI23IPublishCallbackHandler
__ZTI24CBaseReplaySerializeable
__ZTI24IRecordingSessionManager
__ZTI24IReplayScreenshotManager
__ZTI25CGenericPersistentManagerI12CReplayMovieE
__ZTI25CGenericPersistentManagerI21CBaseRecordingSessionE
__ZTI25CGenericPersistentManagerI26CBaseRecordingSessionBlockE
__ZTI25CGenericPersistentManagerI7CReplayE
__ZTI25CLocalFileserverPublisher
__ZTI25CReplayPerformanceManager
__ZTI25IReplayPerformanceManager
__ZTI26CBaseRecordingSessionBlock
__ZTI28CBaseRecordingSessionManager
__ZTI28CClientRecordingSessionBlock
__ZTI28CServerRecordingSessionBlock
__ZTI28IReplayPerformanceController
__ZTI29CTraceFilterWorldAndPropsOnly
__ZTI29IRecordingSessionBlockManager
__ZTI30CClientRecordingSessionManager
__ZTI30CNetMessageRatelimitPolicyBase
__ZTI30CNetMessageRatelimitPolicyNone
__ZTI30CServerRecordingSessionManager
__ZTI33CBaseRecordingSessionBlockManager
__ZTI35CClientRecordingSessionBlockManager
__ZTI35CServerRecordingSessionBlockManager
__ZTI4CJob
__ZTI6ConVar
__ZTI7CMd5Job
__ZTI7IConVar
__ZTI7ISpewer
__ZTI8CBaseJob
__ZTI8CFmtStrNILi256ELb0EE
__ZTI8CSaveJob
__ZTI8IThinker
__ZTISt9bad_alloc
__ZTS10ConCommand
__ZTS10IAppSystem
__ZTS11CBaseSpewer
__ZTS11CNetMessage
__ZTS11CNullSpewer
__ZTS11ICompressor
__ZTS11INetMessage
__ZTS11IRefCounted
__ZTS12CBaseThinker
__ZTS12CBlockSpewer
__ZTS12CEmptyConVar
__ZTS12CErrorSystem
__ZTS12CRefCounted1I11IRefCounted20CRefCountServiceBaseILb1E6CRefMTEE
__ZTS12CRenderQueue
__ZTS12CReplayMovie
__ZTS12IReplayMovie
__ZTS12ITraceFilter
__ZTS13CReplaySystem
__ZTS13CThinkManager
__ZTS13IReplaySystem
__ZTS13IThinkManager
__ZTS13SVC_GameEvent
__ZTS14CBaseAppSystemI13IReplaySystemE
__ZTS14CLC_SaveReplay
__ZTS14CReplayManager
__ZTS14ConCommandBase
__ZTS14IBaseInterface
__ZTS14IErrorReporter
__ZTS14IFilePublisher
__ZTS14IReplayContext
__ZTS14IReplayManager
__ZTS15CBasePublishJob
__ZTS15CCompressionJob
__ZTS15CCompressor_Bz2
__ZTS15CTier0AppSystemI13IReplaySystemE
__ZTS15CTier1AppSystemI13IReplaySystemLi0EE
__ZTS15CTier2AppSystemI13IReplaySystemLi0EE
__ZTS16CCompressor_Lzss
__ZTS16CDefaultAccessor
__ZTS16CLocalPublishJob
__ZTS16CSessionRecorder
__ZTS16IDownloadHandler
__ZTS17CReplayScreenshot
__ZTS17IRecordingSession
__ZTS18CBaseFilePublisher
__ZTS18CFileserverCleaner
__ZTS18CScreenshotManager
__ZTS18CUtlCharConversion
__ZTS18IReplayErrorSystem
__ZTS18IReplayRenderQueue
__ZTS19CDeleteLocalFileJob
__ZTS19CReplayMovieManager
__ZTS19CUtlNoEscConversion
__ZTS19IGameEventListener2
__ZTS19IReplayMovieManager
__ZTS20CClientReplayContext
__ZTS20CLocalFileDeleterJob
__ZTS20CRefCountServiceBaseILb1E6CRefMTE
__ZTS20CServerReplayContext
__ZTS20CSharedReplayContext
__ZTS20IClientReplayContext
__ZTS20IQueryableReplayItem
__ZTS20IReplaySerializeable
__ZTS20IServerReplayContext
__ZTS21CBaseRecordingSession
__ZTS21CSessionInfoPublisher
__ZTS21CUtlCStringConversion
__ZTS21IFileserverCleanerJob
__ZTS22CPerformanceController
__ZTS22CSessionBlockPublisher
__ZTS22CSessionInfoDownloader
__ZTS22IReplaySessionRecorder
__ZTS23CClientRecordingSession
__ZTS23CServerRecordingSession
__ZTS23CSessionBlockDownloader
__ZTS23IConCommandBaseAccessor
__ZTS23IPublishCallbackHandler
__ZTS24CBaseReplaySerializeable
__ZTS24IRecordingSessionManager
__ZTS24IReplayScreenshotManager
__ZTS25CGenericPersistentManagerI12CReplayMovieE
__ZTS25CGenericPersistentManagerI21CBaseRecordingSessionE
__ZTS25CGenericPersistentManagerI26CBaseRecordingSessionBlockE
__ZTS25CGenericPersistentManagerI7CReplayE
__ZTS25CLocalFileserverPublisher
__ZTS25CReplayPerformanceManager
__ZTS25IReplayPerformanceManager
__ZTS26CBaseRecordingSessionBlock
__ZTS28CBaseRecordingSessionManager
__ZTS28CClientRecordingSessionBlock
__ZTS28CServerRecordingSessionBlock
__ZTS28IReplayPerformanceController
__ZTS29CTraceFilterWorldAndPropsOnly
__ZTS29IRecordingSessionBlockManager
__ZTS30CClientRecordingSessionManager
__ZTS30CNetMessageRatelimitPolicyBase
__ZTS30CNetMessageRatelimitPolicyNone
__ZTS30CServerRecordingSessionManager
__ZTS33CBaseRecordingSessionBlockManager
__ZTS35CClientRecordingSessionBlockManager
__ZTS35CServerRecordingSessionBlockManager
__ZTS4CJob
__ZTS6ConVar
__ZTS7CMd5Job
__ZTS7IConVar
__ZTS7ISpewer
__ZTS8CBaseJob
__ZTS8CFmtStrNILi256ELb0EE
__ZTS8CSaveJob
__ZTS8IThinker
__ZTV10ConCommand
__ZTV11CBaseSpewer
__ZTV11CNetMessage
__ZTV11CNullSpewer
__ZTV12CBaseThinker
__ZTV12CBlockSpewer
__ZTV12CEmptyConVar
__ZTV12CErrorSystem
__ZTV12CRenderQueue
__ZTV12CReplayMovie
__ZTV13CReplaySystem
__ZTV13CThinkManager
__ZTV13SVC_GameEvent
__ZTV14CLC_SaveReplay
__ZTV14CReplayManager
__ZTV15CCompressionJob
__ZTV15CCompressor_Bz2
__ZTV16CCompressor_Lzss
__ZTV16CDefaultAccessor
__ZTV16CLocalPublishJob
__ZTV16CSessionRecorder
__ZTV17CReplayScreenshot
__ZTV18CBaseFilePublisher
__ZTV18CFileserverCleaner
__ZTV18CScreenshotManager
__ZTV18CUtlCharConversion
__ZTV19CDeleteLocalFileJob
__ZTV19CReplayMovieManager
__ZTV19CUtlNoEscConversion
__ZTV20CClientReplayContext
__ZTV20CLocalFileDeleterJob
__ZTV20CServerReplayContext
__ZTV20CSharedReplayContext
__ZTV21CBaseRecordingSession
__ZTV21CSessionInfoPublisher
__ZTV21CUtlCStringConversion
__ZTV22CPerformanceController
__ZTV22CSessionBlockPublisher
__ZTV22CSessionInfoDownloader
__ZTV23CClientRecordingSession
__ZTV23CServerRecordingSession
__ZTV23CSessionBlockDownloader
__ZTV24CBaseReplaySerializeable
__ZTV25CGenericPersistentManagerI12CReplayMovieE
__ZTV25CGenericPersistentManagerI21CBaseRecordingSessionE
__ZTV25CGenericPersistentManagerI26CBaseRecordingSessionBlockE
__ZTV25CGenericPersistentManagerI7CReplayE
__ZTV25CLocalFileserverPublisher
__ZTV25CReplayPerformanceManager
__ZTV26CBaseRecordingSessionBlock
__ZTV28CBaseRecordingSessionManager
__ZTV28CClientRecordingSessionBlock
__ZTV28CServerRecordingSessionBlock
__ZTV29CTraceFilterWorldAndPropsOnly
__ZTV30CClientRecordingSessionManager
__ZTV30CNetMessageRatelimitPolicyNone
__ZTV30CServerRecordingSessionManager
__ZTV33CBaseRecordingSessionBlockManager
__ZTV35CClientRecordingSessionBlockManager
__ZTV35CServerRecordingSessionBlockManager
__ZTV4CJob
__ZTV6ConVar
__ZTV7CMd5Job
__ZTV8CBaseJob
__ZTV8CFmtStrNILi256ELb0EE
__ZTV8CSaveJob
__ZTVN10__cxxabiv117__class_type_infoE
__ZTVN10__cxxabiv120__si_class_type_infoE
__ZTVN10__cxxabiv121__vmi_class_type_infoE
__ZTch0_h12_N20CClientReplayContext19GetRecordingSessionEj
__ZTch0_h12_N20CServerReplayContext19GetRecordingSessionEj
__ZTch0_h136_N20CClientReplayContext31GetRecordingSessionBlockManagerEv
__ZTch0_h136_N20CServerReplayContext31GetRecordingSessionBlockManagerEv
__ZThn12_N12CReplayMovie11GetUserDataEv
__ZThn12_N12CReplayMovie11SetUploadedEb
__ZThn12_N12CReplayMovie11SetUserDataEPv
__ZThn12_N12CReplayMovie12SetItemTitleEPKw
__ZThn12_N12CReplayMovie12SetUploadURLEPKc
__ZThn12_N12CReplayMovie13GetItemReplayEv
__ZThn12_N12CReplayMovie13SetIsRenderedEb
__ZThn12_N12CReplayMovie13SetMovieTitleEPKw
__ZThn12_N12CReplayMovie13SetRenderTimeEf
__ZThn12_N12CReplayMovie16SetMovieFilenameEPKc
__ZThn12_N12CReplayMovie17CaptureRecordTimeEv
__ZThn12_N12CReplayMovie17GetRenderSettingsEv
__ZThn12_N12CReplayMovie18GetFrameDimensionsERiS0_
__ZThn12_N12CReplayMovie9SetLengthEf
__ZThn12_N12CReplayMovieD0Ev
__ZThn12_N12CReplayMovieD1Ev
__ZThn12_N21CBaseRecordingSession8AddBlockEP26CBaseRecordingSessionBlock
__ZThn12_N21CBaseRecordingSessionD0Ev
__ZThn12_N21CBaseRecordingSessionD1Ev
__ZThn12_N23CClientRecordingSessionD0Ev
__ZThn12_N23CClientRecordingSessionD1Ev
__ZThn12_N23CServerRecordingSessionD0Ev
__ZThn12_N23CServerRecordingSessionD1Ev
__ZThn12_NK12CReplayMovie10IsUploadedEv
__ZThn12_NK12CReplayMovie11GetItemDateEv
__ZThn12_NK12CReplayMovie12GetItemTitleEv
__ZThn12_NK12CReplayMovie12GetUploadURLEv
__ZThn12_NK12CReplayMovie12IsItemAMovieEv
__ZThn12_NK12CReplayMovie13GetItemHandleEv
__ZThn12_NK12CReplayMovie13GetItemLengthEv
__ZThn12_NK12CReplayMovie13GetRenderTimeEv
__ZThn12_NK12CReplayMovie14GetMovieHandleEv
__ZThn12_NK12CReplayMovie14IsItemRenderedEv
__ZThn12_NK12CReplayMovie15GetReplayHandleEv
__ZThn12_NK12CReplayMovie16GetMovieFilenameEv
__ZThn12_NK12CReplayMovie19GetItemReplayHandleEv
__ZThn136_N14CReplayManager10GetReplaysER14CUtlLinkedListIP7CReplayiLb0Ei10CUtlMemoryI19UtlLinkedListElem_tIS2_iEiEE
__ZThn136_N14CReplayManager12DeleteReplayEjb
__ZThn136_N14CReplayManager16GetPlayingReplayEv
__ZThn136_N14CReplayManager18FlagReplayForFlushEP7CReplayb
__ZThn136_N14CReplayManager19GetDownloadProgressEPK7CReplay
__ZThn136_N14CReplayManager23GetReplayForCurrentLifeEv
__ZThn136_N14CReplayManager24GetUnrenderedReplayCountEv
__ZThn136_N14CReplayManager26GetReplaysAsQueryableItemsER14CUtlLinkedListIP20IQueryableReplayItemiLb0Ei10CUtlMemoryI19UtlLinkedListElem_tIS2_iEiEE
__ZThn136_N14CReplayManager9GetReplayEj
__ZThn136_N14CReplayManagerD0Ev
__ZThn136_N14CReplayManagerD1Ev
__ZThn136_N19CReplayMovieManager11DeleteMovieEj
__ZThn136_N19CReplayMovieManager11RenderMovieERK19RenderMovieParams_t
__ZThn136_N19CReplayMovieManager12CancelRenderEv
__ZThn136_N19CReplayMovieManager12GetMovieListER14CUtlLinkedListIP12IReplayMovietLb0Et10CUtlMemoryI19UtlLinkedListElem_tIS2_tEtEE
__ZThn136_N19CReplayMovieManager13GetMovieCountEv
__ZThn136_N19CReplayMovieManager14CompleteRenderEbb
__ZThn136_N19CReplayMovieManager15GetPendingMovieEv
__ZThn136_N19CReplayMovieManager15RenderNextMovieEv
__ZThn136_N19CReplayMovieManager15SetPendingMovieEP12IReplayMovie
__ZThn136_N19CReplayMovieManager17CreateAndAddMovieEj
__ZThn136_N19CReplayMovieManager17FlagMovieForFlushEP12IReplayMovieb
__ZThn136_N19CReplayMovieManager24ClearRenderCancelledFlagEv
__ZThn136_N19CReplayMovieManager25GetMoviesAsQueryableItemsER14CUtlLinkedListIP20IQueryableReplayItemiLb0Ei10CUtlMemoryI19UtlLinkedListElem_tIS2_iEiEE
__ZThn136_N19CReplayMovieManager27GetCachedMovieTitleAndClearEPwi
__ZThn136_N19CReplayMovieManager29GetNumMoviesDependentOnReplayEPK7CReplay
__ZThn136_N19CReplayMovieManager8GetMovieEj
__ZThn136_N19CReplayMovieManagerD0Ev
__ZThn136_N19CReplayMovieManagerD1Ev
__ZThn136_N28CBaseRecordingSessionManager11FindSessionEj
__ZThn136_N28CBaseRecordingSessionManager19FlagSessionForFlushEP21CBaseRecordingSessionb
__ZThn136_N28CBaseRecordingSessionManager28GetServerStartTickForSessionEj
__ZThn136_N28CBaseRecordingSessionManagerD0Ev
__ZThn136_N28CBaseRecordingSessionManagerD1Ev
__ZThn136_N30CClientRecordingSessionManagerD0Ev
__ZThn136_N30CClientRecordingSessionManagerD1Ev
__ZThn136_N30CServerRecordingSessionManagerD0Ev
__ZThn136_N30CServerRecordingSessionManagerD1Ev
__ZThn136_N33CBaseRecordingSessionBlockManager11DeleteBlockEP26CBaseRecordingSessionBlock
__ZThn136_N33CBaseRecordingSessionBlockManager11UnloadBlockEP26CBaseRecordingSessionBlock
__ZThn136_N33CBaseRecordingSessionBlockManager21LoadBlockFromFileNameEPKcP17IRecordingSession
__ZThn136_N33CBaseRecordingSessionBlockManager8GetBlockEj
__ZThn136_N33CBaseRecordingSessionBlockManagerD0Ev
__ZThn136_N33CBaseRecordingSessionBlockManagerD1Ev
__ZThn136_N35CClientRecordingSessionBlockManagerD0Ev
__ZThn136_N35CClientRecordingSessionBlockManagerD1Ev
__ZThn136_N35CServerRecordingSessionBlockManagerD0Ev
__ZThn136_N35CServerRecordingSessionBlockManagerD1Ev
__ZThn136_NK14CReplayManager13GetReplaysDirEv
__ZThn136_NK14CReplayManager14GetReplayCountEv
__ZThn136_NK19CReplayMovieManager11IsRenderingEv
__ZThn136_NK19CReplayMovieManager12GetRenderDirEv
__ZThn136_NK19CReplayMovieManager15GetRawExportDirEv
__ZThn136_NK19CReplayMovieManager18RenderingCancelledEv
__ZThn136_NK28CBaseRecordingSessionManager11FindSessionEj
__ZThn136_NK33CBaseRecordingSessionBlockManager12GetBlockPathEv
__ZThn192_N30CClientRecordingSessionManager13FireGameEventEP10IGameEvent
__ZThn192_N30CClientRecordingSessionManagerD0Ev
__ZThn192_N30CClientRecordingSessionManagerD1Ev
__ZThn212_N15CCompressionJobD0Ev
__ZThn212_N15CCompressionJobD1Ev
__ZThn212_N16CLocalPublishJobD0Ev
__ZThn212_N16CLocalPublishJobD1Ev
__ZThn212_N19CDeleteLocalFileJobD0Ev
__ZThn212_N19CDeleteLocalFileJobD1Ev
__ZThn212_N20CLocalFileDeleterJobD0Ev
__ZThn212_N20CLocalFileDeleterJobD1Ev
__ZThn212_N7CMd5JobD0Ev
__ZThn212_N7CMd5JobD1Ev
__ZThn212_N8CBaseJobD0Ev
__ZThn212_N8CBaseJobD1Ev
__ZThn24_N12CEmptyConVar8SetValueEPKc
__ZThn24_N12CEmptyConVar8SetValueEf
__ZThn24_N12CEmptyConVar8SetValueEi
__ZThn24_N6ConVar8SetValueEPKc
__ZThn24_N6ConVar8SetValueEf
__ZThn24_N6ConVar8SetValueEi
__ZThn24_NK12CEmptyConVar7GetNameEv
__ZThn24_NK12CEmptyConVar9IsFlagSetEi
__ZThn24_NK6ConVar7GetNameEv
__ZThn24_NK6ConVar9IsFlagSetEi
__ZThn480_N20CLocalFileDeleterJob16AddFileForDeleteEPKc
__ZThn480_N20CLocalFileDeleterJobD0Ev
__ZThn480_N20CLocalFileDeleterJobD1Ev
__ZThn480_NK20CLocalFileDeleterJob18GetNumFilesDeletedEv
__ZThn4_N15CCompressionJobD0Ev
__ZThn4_N15CCompressionJobD1Ev
__ZThn4_N16CLocalPublishJobD0Ev
__ZThn4_N16CLocalPublishJobD1Ev
__ZThn4_N19CDeleteLocalFileJobD0Ev
__ZThn4_N19CDeleteLocalFileJobD1Ev
__ZThn4_N20CClientReplayContext18ReportErrorsToUserEPw
__ZThn4_N20CLocalFileDeleterJobD0Ev
__ZThn4_N20CLocalFileDeleterJobD1Ev
__ZThn4_N20CServerReplayContext18ReportErrorsToUserEPw
__ZThn4_N4CJobD0Ev
__ZThn4_N4CJobD1Ev
__ZThn4_N7CMd5JobD0Ev
__ZThn4_N7CMd5JobD1Ev
__ZThn4_N8CBaseJobD0Ev
__ZThn4_N8CBaseJobD1Ev
__ZThn4_N8CSaveJobD0Ev
__ZThn4_N8CSaveJobD1Ev
__ZThn72_N23CClientRecordingSession5ThinkEv
__ZThn72_N23CClientRecordingSessionD0Ev
__ZThn72_N23CClientRecordingSessionD1Ev
__ZThn72_NK23CClientRecordingSession16GetNextThinkTimeEv
__ZThn8_N12CErrorSystem21AddErrorFromTokenNameEPKc
__ZThn8_N12CErrorSystem30AddFormattedErrorFromTokenNameEPKcP9KeyValues
__ZThn8_N12CErrorSystemD0Ev
__ZThn8_N12CErrorSystemD1Ev
__ZThn8_N16CSessionRecorder13StopRecordingEb
__ZThn8_N16CSessionRecorder14StartRecordingEv
__ZThn8_N16CSessionRecorder28SetCurrentRecordingStartTickEi
__ZThn8_N16CSessionRecorderD0Ev
__ZThn8_N16CSessionRecorderD1Ev
__ZThn8_N18CScreenshotManager17CaptureScreenshotER25CaptureScreenshotParams_t
__ZThn8_N18CScreenshotManager25GetUnpaddedScreenshotSizeERiS0_
__ZThn8_N18CScreenshotManager26DeleteScreenshotsForReplayEP7CReplay
__ZThn8_N18CScreenshotManagerD0Ev
__ZThn8_N18CScreenshotManagerD1Ev
__ZThn8_N22CPerformanceController11NotifyDirtyEv
__ZThn8_N22CPerformanceController11SaveAsAsyncEPKw
__ZThn8_N22CPerformanceController14ClearRewindingEv
__ZThn8_N22CPerformanceController14GetPerformanceEv
__ZThn8_N22CPerformanceController14StartRecordingEP7CReplayb
__ZThn8_N22CPerformanceController15NotifyRewindingEv
__ZThn8_N22CPerformanceController16NotifyPauseStateEb
__ZThn8_N22CPerformanceController17OnSignonStateFullEv
__ZThn8_N22CPerformanceController18AddEvent_TimeScaleEff
__ZThn8_N22CPerformanceController18IsPlaybackDataLeftEv
__ZThn8_N22CPerformanceController19GetSavedPerformanceEv
__ZThn8_N22CPerformanceController19HasSavedPerformanceEv
__ZThn8_N22CPerformanceController23AddEvent_Camera_SetViewERK15SetViewParams_t
__ZThn8_N22CPerformanceController27AddEvent_Camera_Change_FreeEf
__ZThn8_N22CPerformanceController28AddEvent_Camera_ChangePlayerEfi
__ZThn8_N22CPerformanceController34AddEvent_Camera_Change_FirstPersonEfi
__ZThn8_N22CPerformanceController34AddEvent_Camera_Change_ThirdPersonEfi
__ZThn8_N22CPerformanceController4StopEv
__ZThn8_N22CPerformanceController9SaveAsyncEv
__ZThn8_N22CPerformanceController9SaveThinkEv
__ZThn8_N22CPerformanceController9SetEditorEP24IReplayPerformanceEditor
__ZThn8_N22CPerformanceControllerD0Ev
__ZThn8_N22CPerformanceControllerD1Ev
__ZThn8_N22CSessionInfoDownloader12OnConnectingEP15CHttpDownloader
__ZThn8_N22CSessionInfoDownloader18OnDownloadCompleteEP15CHttpDownloaderPKh
__ZThn8_N22CSessionInfoDownloader7OnFetchEP15CHttpDownloader
__ZThn8_N23CSessionBlockDownloader12OnConnectingEP15CHttpDownloader
__ZThn8_N23CSessionBlockDownloader18OnDownloadCompleteEP15CHttpDownloaderPKh
__ZThn8_N23CSessionBlockDownloader7OnFetchEP15CHttpDownloader
__ZThn8_NK22CPerformanceController11IsRecordingEv
__ZThn8_NK22CPerformanceController17GetLastSaveStatusEv
__ZThn8_NK22CPerformanceController20GetPlaybackTimeScaleEv
__ZThn8_NK22CPerformanceController7IsDirtyEv
__ZThn8_NK22CPerformanceController8IsSavingEv
__ZThn8_NK22CPerformanceController9IsPlayingEv
__ZZ11DataMapInitI15VTFFileHeader_tEP9datamap_tPT_E10nameHolder
__ZZ11DataMapInitI15VTFFileHeader_tEP9datamap_tPT_E8dataDesc
__ZZ11DataMapInitI19VTFFileBaseHeader_tEP9datamap_tPT_E10nameHolder
__ZZ11DataMapInitI19VTFFileBaseHeader_tEP9datamap_tPT_E8dataDesc
__ZZ11DataMapInitI19VTFFileHeaderV7_1_tEP9datamap_tPT_E10nameHolder
__ZZ11DataMapInitI19VTFFileHeaderV7_1_tEP9datamap_tPT_E8dataDesc
__ZZ11DataMapInitI19VTFFileHeaderV7_2_tEP9datamap_tPT_E10nameHolder
__ZZ11DataMapInitI19VTFFileHeaderV7_2_tEP9datamap_tPT_E8dataDesc
__ZZ11DataMapInitI19VTFFileHeaderV7_3_tEP9datamap_tPT_E10nameHolder
__ZZ11DataMapInitI19VTFFileHeaderV7_3_tEP9datamap_tPT_E8dataDesc
__ZZ11DataMapInitI19VTFFileHeaderX360_tEP9datamap_tPT_E10nameHolder
__ZZ11DataMapInitI19VTFFileHeaderX360_tEP9datamap_tPT_E8dataDesc
__ZZ15GetBitForBitnumiE13bitsForBitnum
__ZZ21Replay_GetDownloadURLvE11s_szFileURL
__ZZ25Replay_GetDownloadURLPathvE19s_szDownloadURLPath
__ZZ9Replay_vaPKczE6string
__ZZ9Replay_vaPKczE9curstring
__ZZN11CReplayTime15GetLocalizedDayEPN4vgui9ILocalizeEiE6s_wDay
__ZZN11CReplayTime16GetLocalizedDateEPN4vgui9ILocalizeEiiiPiS3_S3_bE6s_wBuf
__ZZN11CReplayTime16GetLocalizedTimeEPN4vgui9ILocalizeEiiiE7s_wTime
__ZZN11CReplayTime16GetLocalizedYearEPN4vgui9ILocalizeEiE7s_wYear
__ZZN18CScreenshotManager25GetUnpaddedScreenshotSizeERiS0_E19s_flInvAspectRatios
__ZZN20CClientReplayContext18ReportErrorsToUserEPwE9s_szError
__ZZN20CServerReplayContext18ReportErrorsToUserEPwE8s_clrRed
__ZZN22CPerformanceController13PlaybackThinkEvE4aFov
__ZZN22CPerformanceController13PlaybackThinkEvE7aAngles
__ZZN22CPerformanceController13PlaybackThinkEvE7aOrigin
__ZZN25CReplayPerformanceManager27GeneratePerformanceFilenameEP7CReplayE16s_szBaseFilename
__ZZN8CFmtStrNILi256ELb0EE12AppendFormatEPKczE10scAsserted
__ZZN8CFmtStrNILi256ELb0EE7sprintfEPKczE10scAsserted
__ZZN8CFmtStrNILi256ELb0EEC1EPKczE10scAsserted
__ZZN9ConVarRef4InitEPKcbE6bFirst
__ZZN9KeyValues13SaveKeyToFileEPS_P15IBaseFileSystemPvP10CUtlBufferibbE3buf
__ZZNK19CReplayMovieManager15GetRawExportDirEvE14s_fmtExportDir
__ZZNK20CServerReplayContext22GetLocalFileServerPathEvE7s_szBuf
__ZdaPv
__ZdlPv
__Znam
__Znwm
___bzero
___clang_call_terminate
___cxa_atexit
___cxa_begin_catch
___cxa_call_unexpected
___cxa_guard_acquire
___cxa_guard_release
___cxa_pure_virtual
___dynamic_cast
___error
___gxx_personality_v0
___maskrune
___memcpy_chk
___stack_chk_fail
___stack_chk_guard
___stderrp
___tolower
_abort
_acosf
_atan2f
_atof
_atoi
_ceilf
_colorcorrection
_crc32
_curl_global_cleanup
_curl_global_init
_cvar
_deflate
_deflateEnd
_deflateInit2_
_deflateReset
_difftime
_entitylist
_exit
_fclose
_fflush
_floor
_floorf
_fopen$UNIX2003
_fourbppswaptable
_fprintf
_fputc
_fread
_free
_frexp
_fwrite$UNIX2003
_g_BitWriteMasks
_g_ExtraMasks
_g_KeyValuesErrorStack
_g_LittleBits
_g_VBAllocTracker
_g_VProfCurrentProfile
_g_nGenericErrorCounter
_g_pAcceptableFileserverProtocols
_g_pBlockSpewer
_g_pCVar
_g_pClient
_g_pClientReplayContext
_g_pClientReplayContextInternal
_g_pCompressorTypes
_g_pDebugOverlay
_g_pDefaultSpewer
_g_pDownloadSystem
_g_pEngine
_g_pEngineClient
_g_pEngineTraceClient
_g_pFullFileSystem
_g_pGameEventManager
_g_pInputSystem
_g_pMaterialSystem
_g_pMaterialSystemDebugTextureInfo
_g_pMaterialSystemHardwareConfig
_g_pMemAlloc
_g_pNetworkSystem
_g_pProcessUtils
_g_pQueuedLoader
_g_pReplay
_g_pReplayDemoPlayer
_g_pServer
_g_pServerReplayContext
_g_pThinkManager
_g_pThreadPool
_g_pUtlSortVectorQSortContext
_g_pVCR
_g_pVGuiLocalize
_gmtime
_inflate
_inflateEnd
_inflateInit_
_inflateReset
_localtime
_longjmp
_malloc
_materials
_mdllib
_memcmp
_memcpy
_memmove
_memset
_mktime$UNIX2003
_modf
_onebppswaptable
_p4
_png_64bit_product
_png_IDAT.6211
_png_IDAT.6290
_png_IDAT.6410
_png_IDAT.6446
_png_IDAT.7349
_png_IDAT.7828
_png_IEND.6212
_png_IEND.6447
_png_IEND.6460
_png_IHDR.6210
_png_IHDR.6299
_png_IHDR.6445
_png_PLTE.6213
_png_PLTE.6380
_png_PLTE.6448
_png_access_version_number
_png_ascii_from_fixed
_png_ascii_from_fp
_png_bKGD.6214
_png_bKGD.6449
_png_bKGD.6659
_png_benign_error
_png_build_16bit_table
_png_build_8bit_table
_png_build_gamma_table
_png_build_grayscale_palette
_png_cHRM.6215
_png_cHRM.6450
_png_cHRM.6603
_png_calculate_crc
_png_calloc
_png_check_IHDR
_png_check_cHRM_fixed
_png_check_chunk_name
_png_check_fp_number
_png_check_fp_string
_png_check_keyword
_png_chunk_benign_error
_png_chunk_error
_png_chunk_warning
_png_combine_row
_png_convert_from_struct_tm
_png_convert_from_time_t
_png_convert_to_rfc1123
_png_crc_error
_png_crc_finish
_png_crc_read
_png_create_info_struct
_png_create_read_struct
_png_create_read_struct_2
_png_create_struct
_png_create_struct_2
_png_create_write_struct
_png_create_write_struct_2
_png_data_freer
_png_decompress_chunk
_png_default_flush
_png_default_read_data
_png_default_write_data
_png_destroy_info_struct
_png_destroy_read_struct
_png_destroy_struct
_png_destroy_struct_2
_png_destroy_write_struct
_png_digit
_png_do_background
_png_do_bgr
_png_do_chop
_png_do_expand
_png_do_expand_16
_png_do_expand_palette
_png_do_gamma
_png_do_gray_to_rgb
_png_do_invert
_png_do_pack
_png_do_packswap
_png_do_quantize
_png_do_read_filler
_png_do_read_interlace
_png_do_read_intrapixel
_png_do_read_invert_alpha
_png_do_read_swap_alpha
_png_do_read_transformations
_png_do_rgb_to_gray
_png_do_shift
_png_do_strip_channel
_png_do_swap
_png_do_unpack
_png_do_unshift
_png_do_write_interlace
_png_do_write_intrapixel
_png_do_write_invert_alpha
_png_do_write_swap_alpha
_png_do_write_transformations
_png_error
_png_fixed
_png_fixed_error
_png_fixed_inches_from_microns
_png_flush
_png_format_buffer
_png_free
_png_free_data
_png_free_default
_png_gAMA.6216
_png_gAMA.6451
_png_gAMA.6467
_png_gamma_16bit_correct
_png_gamma_8bit_correct
_png_gamma_correct
_png_gamma_significant
_png_gamma_threshold
_png_get_IHDR
_png_get_PLTE
_png_get_bKGD
_png_get_bit_depth
_png_get_cHRM
_png_get_cHRM_fixed
_png_get_channels
_png_get_chunk_cache_max
_png_get_chunk_malloc_max
_png_get_color_type
_png_get_compression_buffer_size
_png_get_compression_type
_png_get_copyright
_png_get_current_pass_number
_png_get_current_row_number
_png_get_error_ptr
_png_get_filter_type
_png_get_fixed_point
_png_get_gAMA
_png_get_gAMA_fixed
_png_get_hIST
_png_get_header_ver
_png_get_header_version
_png_get_iCCP
_png_get_image_height
_png_get_image_width
_png_get_int_32
_png_get_interlace_type
_png_get_io_chunk_name
_png_get_io_chunk_type
_png_get_io_ptr
_png_get_io_state
_png_get_libpng_ver
_png_get_mem_ptr
_png_get_oFFs
_png_get_pCAL
_png_get_pHYs
_png_get_pHYs_dpi
_png_get_pixel_aspect_ratio
_png_get_pixel_aspect_ratio_fixed
_png_get_pixels_per_inch
_png_get_pixels_per_meter
_png_get_rgb_to_gray_status
_png_get_rowbytes
_png_get_rows
_png_get_sBIT
_png_get_sCAL
_png_get_sCAL_fixed
_png_get_sCAL_s
_png_get_sPLT
_png_get_sRGB
_png_get_signature
_png_get_tIME
_png_get_tRNS
_png_get_text
_png_get_uint_16
_png_get_uint_31
_png_get_uint_32
_png_get_unknown_chunks
_png_get_user_chunk_ptr
_png_get_user_height_max
_png_get_user_transform_ptr
_png_get_user_width_max
_png_get_valid
_png_get_x_offset_inches
_png_get_x_offset_inches_fixed
_png_get_x_offset_microns
_png_get_x_offset_pixels
_png_get_x_pixels_per_inch
_png_get_x_pixels_per_meter
_png_get_y_offset_inches
_png_get_y_offset_inches_fixed
_png_get_y_offset_microns
_png_get_y_offset_pixels
_png_get_y_pixels_per_inch
_png_get_y_pixels_per_meter
_png_hIST.6217
_png_hIST.6452
_png_hIST.6694
_png_handle_IEND
_png_handle_IHDR
_png_handle_PLTE
_png_handle_as_unknown
_png_handle_bKGD
_png_handle_cHRM
_png_handle_gAMA
_png_handle_hIST
_png_handle_iCCP
_png_handle_iTXt
_png_handle_oFFs
_png_handle_pCAL
_png_handle_pHYs
_png_handle_sBIT
_png_handle_sCAL
_png_handle_sPLT
_png_handle_sRGB
_png_handle_tEXt
_png_handle_tIME
_png_handle_tRNS
_png_handle_unknown
_png_handle_zTXt
_png_iCCP.6218
_png_iCCP.6453
_png_iCCP.6484
_png_iTXt.6219
_png_iTXt.6454
_png_iTXt.6811
_png_inflate
_png_info_destroy
_png_info_init_3
_png_init_filter_heuristics
_png_init_io
_png_init_read_transformations
_png_longjmp
_png_malloc
_png_malloc_default
_png_malloc_warn
_png_muldiv
_png_muldiv_warn
_png_oFFs.6220
_png_oFFs.6455
_png_oFFs.6847
_png_pCAL.6221
_png_pCAL.6456
_png_pCAL.6861
_png_pHYs.6222
_png_pHYs.6457
_png_pHYs.6935
_png_pass_dsp_mask.6291
_png_pass_inc.7541
_png_pass_inc.7823
_png_pass_inc.7899
_png_pass_mask.6292
_png_pass_start.7822
_png_pass_start.7898
_png_pass_yinc.7825
_png_pass_ystart.7824
_png_permit_mng_features
_png_pow10
_png_read_chunk_header
_png_read_data
_png_read_destroy
_png_read_end
_png_read_filter_row
_png_read_finish_row
_png_read_image
_png_read_info
_png_read_png
_png_read_row
_png_read_rows
_png_read_sig
_png_read_start_row
_png_read_transform_info
_png_read_update_info
_png_reciprocal
_png_reciprocal2
_png_reset_crc
_png_reset_filter_heuristics
_png_reset_zstream
_png_sBIT.6223
_png_sBIT.6458
_png_sBIT.6572
_png_sCAL.6224
_png_sCAL.6459
_png_sCAL.6907
_png_sPLT.6225
_png_sPLT.6460
_png_sPLT.6522
_png_sRGB.6226
_png_sRGB.6461
_png_sRGB.6474
_png_save_int_32
_png_save_uint_16
_png_save_uint_32
_png_set_IHDR
_png_set_PLTE
_png_set_add_alpha
_png_set_bKGD
_png_set_background
_png_set_background_fixed
_png_set_benign_errors
_png_set_bgr
_png_set_cHRM
_png_set_cHRM_fixed
_png_set_chunk_cache_max
_png_set_chunk_malloc_max
_png_set_compression_buffer_size
_png_set_compression_level
_png_set_compression_mem_level
_png_set_compression_method
_png_set_compression_strategy
_png_set_compression_window_bits
_png_set_crc_action
_png_set_error_fn
_png_set_expand
_png_set_expand_16
_png_set_expand_gray_1_2_4_to_8
_png_set_filler
_png_set_filter
_png_set_filter_heuristics
_png_set_filter_heuristics_fixed
_png_set_flush
_png_set_gAMA
_png_set_gAMA_fixed
_png_set_gamma
_png_set_gamma_fixed
_png_set_gray_to_rgb
_png_set_hIST
_png_set_iCCP
_png_set_interlace_handling
_png_set_invalid
_png_set_invert_alpha
_png_set_invert_mono
_png_set_keep_unknown_chunks
_png_set_longjmp_fn
_png_set_mem_fn
_png_set_oFFs
_png_set_pCAL
_png_set_pHYs
_png_set_packing
_png_set_packswap
_png_set_palette_to_rgb
_png_set_quantize
_png_set_read_fn
_png_set_read_status_fn
_png_set_read_user_chunk_fn
_png_set_read_user_transform_fn
_png_set_rgb_to_gray
_png_set_rgb_to_gray_fixed
_png_set_rows
_png_set_sBIT
_png_set_sCAL
_png_set_sCAL_fixed
_png_set_sCAL_s
_png_set_sPLT
_png_set_sRGB
_png_set_sRGB_gAMA_and_cHRM
_png_set_shift
_png_set_sig_bytes
_png_set_strip_16
_png_set_strip_alpha
_png_set_swap
_png_set_swap_alpha
_png_set_tIME
_png_set_tRNS
_png_set_tRNS_to_alpha
_png_set_text
_png_set_text_2
_png_set_unknown_chunk_location
_png_set_unknown_chunks
_png_set_user_limits
_png_set_user_transform_info
_png_set_write_fn
_png_set_write_status_fn
_png_set_write_user_transform_fn
_png_sig_cmp
_png_start_read_image
_png_tEXt.6227
_png_tEXt.6462
_png_tEXt.6761
_png_tIME.6228
_png_tIME.6463
_png_tIME.6943
_png_tRNS.6229
_png_tRNS.6464
_png_tRNS.6628
_png_text_compress
_png_warning
_png_write_IDAT
_png_write_IEND
_png_write_IHDR
_png_write_PLTE
_png_write_bKGD
_png_write_cHRM_fixed
_png_write_chunk
_png_write_chunk_data
_png_write_chunk_end
_png_write_chunk_start
_png_write_compressed_data_out
_png_write_data
_png_write_destroy
_png_write_end
_png_write_filtered_row
_png_write_find_filter
_png_write_finish_row
_png_write_flush
_png_write_gAMA_fixed
_png_write_hIST
_png_write_iCCP
_png_write_iTXt
_png_write_image
_png_write_info
_png_write_info_before_PLTE
_png_write_oFFs
_png_write_pCAL
_png_write_pHYs
_png_write_png
_png_write_row
_png_write_rows
_png_write_sBIT
_png_write_sCAL_s
_png_write_sPLT
_png_write_sRGB
_png_write_sig
_png_write_start_row
_png_write_tEXt
_png_write_tIME
_png_write_tRNS
_png_write_zTXt
_png_zTXt.6230
_png_zTXt.6465
_png_zTXt.6783
_png_zalloc
_png_zfree
_pow
_ppi_from_ppm
_pthread_mutex_destroy
_pthread_mutex_init
_pthread_mutex_lock
_pthread_mutex_unlock
_pthread_mutexattr_init
_pthread_mutexattr_settype
_qsort
_raise
_rand
_replay_block_dump_interval
_replay_buffersize
_replay_data_lifespan
_replay_deathcammaxverticaloffset
_replay_debug
_replay_dodiskcleanup
_replay_dofileserver_cleanup_on_start
_replay_enable
_replay_enableeventbasedscreenshots
_replay_fileserver_autocleanup
_replay_fileserver_host
_replay_fileserver_offload_aborttime
_replay_fileserver_path
_replay_fileserver_port
_replay_fileserver_protocol
_replay_flushinterval
_replay_forcereconstruct
_replay_local_fileserver_path
_replay_max_publish_threads
_replay_maxconcurrentdownloads
_replay_maxscreenshotsperreplay
_replay_mintimebetweenscreenshots
_replay_name
_replay_playerdeathscreenshotdelay
_replay_postdeathrecordtime
_replay_postwinreminderduration
_replay_publish_simulate_delay_local_http
_replay_publish_simulate_rename_fail
_replay_record_voice
_replay_recording
_replay_screenshotkilldelay
_replay_screenshotresolution
_replay_screenshotsentrykilldelay
_replay_sentrycammaxverticaloffset
_replay_sentrycamoffset_frontback
_replay_sentrycamoffset_leftright
_replay_sentrycamoffset_updown
_replay_sessioninfo_updatefrequency
_replay_voice_during_playback
_s_NoEscConversion
_s_StringCharConversion
_setjmp
_short_months.6308
_sin
_sinf
_snprintf
_sscanf
_strcasecmp
_strchr
_strcmp
_strcpy
_strlen
_strncat
_strncpy
_strstr
_strtod$UNIX2003
_strtok
_strtol
_strtoul
_sv_use_steam_voice
_swprintf
_time
_twobppswaptable
_vsnprintf
_wcscat
_wcscmp
_wcslen
_wcsncpy
_wcstol
_wcstoll
_wcstombs
dyld_stub_binder
