GCC_except_table0
GCC_except_table2
GCC_except_table5
GCC_except_table618
GCC_except_table7
_CreateInterface
_Plat_FloatTime
_Warning
__GLOBAL__sub_I_shaderapie.stdout.rel_tf_osx_builder.56241.7kMVPu.ii
__GLOBAL__sub_I_utlbuffer.stdout.rel_tf_osx_builder.8986.vt30zT.ii
__Unwind_Resume
__Z9V_stricmpPKcS0_
__ZGVZNK15CShaderAPIEmpty18GetFlashlightStateER7VMatrixE4blah
__ZGVZNK15CShaderAPIEmpty20GetFlashlightStateExER7VMatrixPP8ITextureE4blah
__ZGVZNK15CShaderAPIEmpty25GetToneMappingScaleLinearEvE5dummy
__ZGVZNK15CShaderAPIEmpty8GetLightEiE4blah
__ZL11vec2_origin
__ZL11vec2_origin
__ZL11vec4_origin
__ZL12vec2_invalid
__ZL12vec2_invalid
__ZL12vec4_invalid
__ZL14g_ShaderShadow
__ZL16g_ShaderAPIEmpty
__ZL19s_ShaderDeviceEmpty
__ZL22ShaderInterfaceFactoryPKcPi
__ZL22s_ShaderDeviceMgrEmpty
__ZL35s_pConversionArrays_NoEscConversion
__ZL39__g_CreateCShaderAPIEmptyIShaderAPI_reg
__ZL40s_pConversionArrays_StringCharConversion
__ZL43__CreateCShaderAPIEmptyIShaderAPI_interfacev
__ZL45__g_CreateCShaderDeviceEmptyIShaderDevice_reg
__ZL45__g_CreateCShaderShadowEmptyIShaderShadow_reg
__ZL46__g_CreateCShaderAPIEmptyIDebugTextureInfo_reg
__ZL49__CreateCShaderDeviceEmptyIShaderDevice_interfacev
__ZL49__CreateCShaderShadowEmptyIShaderShadow_interfacev
__ZL50__CreateCShaderAPIEmptyIDebugTextureInfo_interfacev
__ZL51__g_CreateCShaderDeviceMgrEmptyIShaderDeviceMgr_reg
__ZL55__CreateCShaderDeviceMgrEmptyIShaderDeviceMgr_interfacev
__ZL58__g_CreateCShaderAPIEmptyIMaterialSystemHardwareConfig_reg
__ZL62__CreateCShaderAPIEmptyIMaterialSystemHardwareConfig_interfacev
__ZN10CEmptyMesh10UnlockMeshEiiR10MeshDesc_t
__ZN10CEmptyMesh11MarkAsDrawnEv
__ZN10CEmptyMesh11ModifyBeginEbiiR11IndexDesc_t
__ZN10CEmptyMesh11ModifyBeginEiiiiR10MeshDesc_t
__ZN10CEmptyMesh11SetFlexMeshEP5IMeshi
__ZN10CEmptyMesh12SetColorMeshEP5IMeshi
__ZN10CEmptyMesh12ValidateDataEiRK11IndexDesc_t
__ZN10CEmptyMesh12ValidateDataEiRK12VertexDesc_t
__ZN10CEmptyMesh12ValidateDataEiiRK10MeshDesc_t
__ZN10CEmptyMesh13EndCastBufferEv
__ZN10CEmptyMesh13ModifyBeginExEbiiiiR10MeshDesc_t
__ZN10CEmptyMesh15BeginCastBufferE21MaterialIndexFormat_t
__ZN10CEmptyMesh15BeginCastBufferEy
__ZN10CEmptyMesh15DisableFlexMeshEv
__ZN10CEmptyMesh16SetPrimitiveTypeE23MaterialPrimitiveType_t
__ZN10CEmptyMesh17ComputeMemoryUsedEv
__ZN10CEmptyMesh17CopyToMeshBuilderEiiiiiR12CMeshBuilder
__ZN10CEmptyMesh4DrawEP9CPrimListi
__ZN10CEmptyMesh4DrawEii
__ZN10CEmptyMesh4LockEibR11IndexDesc_t
__ZN10CEmptyMesh4LockEibR12VertexDesc_t
__ZN10CEmptyMesh4SpewEiRK11IndexDesc_t
__ZN10CEmptyMesh4SpewEiRK12VertexDesc_t
__ZN10CEmptyMesh4SpewEiiRK10MeshDesc_t
__ZN10CEmptyMesh6UnlockEiR11IndexDesc_t
__ZN10CEmptyMesh6UnlockEiR12VertexDesc_t
__ZN10CEmptyMesh7GetMeshEv
__ZN10CEmptyMesh8LockMeshEiiR10MeshDesc_t
__ZN10CEmptyMesh9ModifyEndER10MeshDesc_t
__ZN10CEmptyMesh9ModifyEndER11IndexDesc_t
__ZN10CEmptyMeshD0Ev
__ZN10CEmptyMeshD1Ev
__ZN12InterfaceReg16s_pInterfaceRegsE
__ZN12InterfaceRegC1EPFPvvEPKc
__ZN15CShaderAPIEmpty10BeginFrameEv
__ZN15CShaderAPIEmpty10LoadMatrixEPf
__ZN15CShaderAPIEmpty10MatrixModeE20MaterialMatrixMode_t
__ZN15CShaderAPIEmpty10MultMatrixEPf
__ZN15CShaderAPIEmpty10PickMatrixEiiii
__ZN15CShaderAPIEmpty10PushMatrixEv
__ZN15CShaderAPIEmpty10ReadPixelsEP6Rect_tS1_Ph11ImageFormati
__ZN15CShaderAPIEmpty10ReadPixelsEiiiiPh11ImageFormat
__ZN15CShaderAPIEmpty10RenderPassEii
__ZN15CShaderAPIEmpty10ShaderLockEv
__ZN15CShaderAPIEmpty10TexImage2DEii11ImageFormatiiiS0_bPv
__ZN15CShaderAPIEmpty10TexLodBiasEf
__ZN15CShaderAPIEmpty10UnlockRectEii
__ZN15CShaderAPIEmpty11BindTextureE9Sampler_ti
__ZN15CShaderAPIEmpty11EndPIXEventEv
__ZN15CShaderAPIEmpty11GetFlexMeshEv
__ZN15CShaderAPIEmpty11TexLodClampEi
__ZN15CShaderAPIEmpty12ClearBuffersEbbbii
__ZN15CShaderAPIEmpty12LoadIdentityEv
__ZN15CShaderAPIEmpty12PerspectiveXEdddd
__ZN15CShaderAPIEmpty12SceneFogModeE17MaterialFogMode_t
__ZN15CShaderAPIEmpty12SetClipPlaneEiPKf
__ZN15CShaderAPIEmpty12SetPIXMarkerEmPKc
__ZN15CShaderAPIEmpty12SetViewportsEiPK16ShaderViewport_t
__ZN15CShaderAPIEmpty12ShaderUnlockEv
__ZN15CShaderAPIEmpty12TakeSnapshotEv
__ZN15CShaderAPIEmpty12TexMagFilterE21ShaderTexFilterMode_t
__ZN15CShaderAPIEmpty12TexMinFilterE21ShaderTexFilterMode_t
__ZN15CShaderAPIEmpty13BeginPIXEventEmPKc
__ZN15CShaderAPIEmpty13ClearColor3ubEhhh
__ZN15CShaderAPIEmpty13ClearColor4ubEhhhh
__ZN15CShaderAPIEmpty13CreateTextureEiii11ImageFormatiiiPKcS2_
__ZN15CShaderAPIEmpty13DeleteTextureEi
__ZN15CShaderAPIEmpty13FlushHardwareEv
__ZN15CShaderAPIEmpty13FogMaxDensityEf
__ZN15CShaderAPIEmpty13ModifyTextureEi
__ZN15CShaderAPIEmpty13SelectionModeEb
__ZN15CShaderAPIEmpty13SetHDREnabledEb
__ZN15CShaderAPIEmpty13TexSubImage2DEiiiiiii11ImageFormatibPv
__ZN15CShaderAPIEmpty14ClearSnapshotsEv
__ZN15CShaderAPIEmpty14CreateTexturesEPiiiii11ImageFormatiiiPKcS3_
__ZN15CShaderAPIEmpty14EnableFastClipEb
__ZN15CShaderAPIEmpty14GetDynamicMeshEP9IMaterialibP5IMeshS3_
__ZN15CShaderAPIEmpty14GetMaxToRenderEP5IMeshbPiS2_
__ZN15CShaderAPIEmpty14LoadBoneMatrixEiPKf
__ZN15CShaderAPIEmpty14PopDeformationEv
__ZN15CShaderAPIEmpty14SetFlexWeightsEiiPK13MorphWeight_t
__ZN15CShaderAPIEmpty14SetHeightClipZEf
__ZN15CShaderAPIEmpty14SetRasterStateERK19ShaderRasterState_t
__ZN15CShaderAPIEmpty14SetScissorRectEiiiib
__ZN15CShaderAPIEmpty14SupportsFetch4Ev
__ZN15CShaderAPIEmpty14TexSetPriorityEi
__ZN15CShaderAPIEmpty15BindIndexBufferEP12IIndexBufferi
__ZN15CShaderAPIEmpty15BindPixelShaderEP21PixelShaderHandle_t__
__ZN15CShaderAPIEmpty15ChangeVideoModeERK18ShaderDeviceInfo_t
__ZN15CShaderAPIEmpty15EnableClipPlaneEib
__ZN15CShaderAPIEmpty15GetFogDistancesEPfS0_S0_
__ZN15CShaderAPIEmpty15GetSceneFogModeEv
__ZN15CShaderAPIEmpty15MultMatrixLocalEPf
__ZN15CShaderAPIEmpty15OwnGPUResourcesEb
__ZN15CShaderAPIEmpty15PushDeformationEPK17DeformationBase_t
__ZN15CShaderAPIEmpty15SelectionBufferEPji
__ZN15CShaderAPIEmpty15SetAmbientLightEfff
__ZN15CShaderAPIEmpty15SetDefaultStateEv
__ZN15CShaderAPIEmpty15SetRenderTargetEii
__ZN15CShaderAPIEmpty15TexImageFromVTFEP11IVTFTexturei
__ZN15CShaderAPIEmpty16BindVertexBufferEiP13IVertexBufferiiiyi
__ZN15CShaderAPIEmpty16BindVertexShaderEP22VertexShaderHandle_t__
__ZN15CShaderAPIEmpty16CompareSnapshotsEss
__ZN15CShaderAPIEmpty16EnableHWMorphingEb
__ZN15CShaderAPIEmpty16GetDynamicMeshExEP9IMaterialyibP5IMeshS3_
__ZN15CShaderAPIEmpty16GetPixelFogComboEv
__ZN15CShaderAPIEmpty16GetSceneFogColorEPh
__ZN15CShaderAPIEmpty16HandleDeviceLostEv
__ZN15CShaderAPIEmpty16PopSelectionNameEv
__ZN15CShaderAPIEmpty16ResetRenderStateEb
__ZN15CShaderAPIEmpty16SceneFogColor3ubEhhh
__ZN15CShaderAPIEmpty16SetBumpEnvMatrixE14TextureStage_tffff
__ZN15CShaderAPIEmpty16SetFastClipPlaneEPKf
__ZN15CShaderAPIEmpty16SetPSNearAndFarZEi
__ZN15CShaderAPIEmpty16SetStencilEnableEb
__ZN15CShaderAPIEmpty16SupportsCSAAModeEii
__ZN15CShaderAPIEmpty16SupportsMSAAModeEi
__ZN15CShaderAPIEmpty17BindVertexTextureE22VertexTextureSampler_ti
__ZN15CShaderAPIEmpty17ForceHardwareSyncEv
__ZN15CShaderAPIEmpty17GetRenderTargetExEi
__ZN15CShaderAPIEmpty17IsTextureResidentEi
__ZN15CShaderAPIEmpty17LoadCameraToWorldEv
__ZN15CShaderAPIEmpty17LoadSelectionNameEi
__ZN15CShaderAPIEmpty17PushSelectionNameEi
__ZN15CShaderAPIEmpty17SetDisallowAccessEb
__ZN15CShaderAPIEmpty17SetHeightClipModeE24MaterialHeightClipMode_t
__ZN15CShaderAPIEmpty17SetLightingOriginE6Vector
__ZN15CShaderAPIEmpty17SetNumBoneWeightsEi
__ZN15CShaderAPIEmpty17SetRenderTargetExEiii
__ZN15CShaderAPIEmpty17UserClipTransformERK7VMatrix
__ZN15CShaderAPIEmpty18BindGeometryShaderEP24GeometryShaderHandle_t__
__ZN15CShaderAPIEmpty18CreateDepthTextureE11ImageFormatiiPKcb
__ZN15CShaderAPIEmpty18GetDXLevelDefaultsERjS0_
__ZN15CShaderAPIEmpty18SetFlashlightStateERK17FlashlightState_tRK7VMatrix
__ZN15CShaderAPIEmpty18SetStencilTestMaskEj
__ZN15CShaderAPIEmpty19BindStandardTextureE9Sampler_t19StandardTextureId_t
__ZN15CShaderAPIEmpty19ClearSelectionNamesEv
__ZN15CShaderAPIEmpty19GetBoundMorphFormatEv
__ZN15CShaderAPIEmpty19GetDebugTextureListEv
__ZN15CShaderAPIEmpty19OverrideDepthEnableEbb
__ZN15CShaderAPIEmpty19SetAmbientLightCubeEP8Vector4D
__ZN15CShaderAPIEmpty19SetAnisotropicLevelEi
__ZN15CShaderAPIEmpty19SetPixelShaderIndexEi
__ZN15CShaderAPIEmpty19SetSkinningMatricesEv
__ZN15CShaderAPIEmpty19SetStencilWriteMaskEj
__ZN15CShaderAPIEmpty20CopyTextureToTextureEii
__ZN15CShaderAPIEmpty20DestroyVertexBuffersEb
__ZN15CShaderAPIEmpty20EnableGetAllTexturesEb
__ZN15CShaderAPIEmpty20ExecuteCommandBufferEPh
__ZN15CShaderAPIEmpty20ForceDepthFuncEqualsEb
__ZN15CShaderAPIEmpty20GetNullTextureFormatEv
__ZN15CShaderAPIEmpty20GetTextureMemoryUsedEN17IDebugTextureInfo17TextureMemoryTypeE
__ZN15CShaderAPIEmpty20SetFlashlightStateExERK17FlashlightState_tRK7VMatrixP8ITexture
__ZN15CShaderAPIEmpty20SetVertexShaderIndexEi
__ZN15CShaderAPIEmpty21DXSupportLevelChangedEv
__ZN15CShaderAPIEmpty21DisableAllLocalLightsEv
__ZN15CShaderAPIEmpty21EnableAlphaToCoverageEv
__ZN15CShaderAPIEmpty21EvictManagedResourcesEv
__ZN15CShaderAPIEmpty21GetLightmapDimensionsEPiS0_
__ZN15CShaderAPIEmpty21GetMaxIndicesToRenderEv
__ZN15CShaderAPIEmpty21PerspectiveOffCenterXEdddddddd
__ZN15CShaderAPIEmpty22AcquireThreadOwnershipEv
__ZN15CShaderAPIEmpty22DisableAlphaToCoverageEv
__ZN15CShaderAPIEmpty22EnableDebugTextureListEb
__ZN15CShaderAPIEmpty22GetMaxVerticesToRenderEP9IMaterial
__ZN15CShaderAPIEmpty22GetVertexModifyBuilderEv
__ZN15CShaderAPIEmpty22MarkUnusedVertexFieldsEjiPb
__ZN15CShaderAPIEmpty22ReleaseThreadOwnershipEv
__ZN15CShaderAPIEmpty22SetPixelShaderConstantEiPKfib
__ZN15CShaderAPIEmpty23ClearBuffersObeyStencilEbb
__ZN15CShaderAPIEmpty23DisableTextureTransformE14TextureStage_t
__ZN15CShaderAPIEmpty23EnableShaderShaderMutexEb
__ZN15CShaderAPIEmpty23FlushBufferedPrimitivesEv
__ZN15CShaderAPIEmpty23GetCurrentDynamicVBSizeEv
__ZN15CShaderAPIEmpty23IsDebugTextureListFreshEi
__ZN15CShaderAPIEmpty23SetPixelShaderFogParamsEi
__ZN15CShaderAPIEmpty23SetStencilFailOperationE18StencilOperation_t
__ZN15CShaderAPIEmpty23SetStencilPassOperationE18StencilOperation_t
__ZN15CShaderAPIEmpty23SetVertexShaderConstantEiPKfib
__ZN15CShaderAPIEmpty24EnableBuffer2FramesAheadEb
__ZN15CShaderAPIEmpty24EndOcclusionQueryDrawingEP27ShaderAPIOcclusionQuery_t__
__ZN15CShaderAPIEmpty24OverrideAlphaWriteEnableEbb
__ZN15CShaderAPIEmpty24OverrideColorWriteEnableEbb
__ZN15CShaderAPIEmpty24SetDebugTextureRenderingEb
__ZN15CShaderAPIEmpty24SetIntRenderingParameterEii
__ZN15CShaderAPIEmpty24SetStandardTextureHandleE19StandardTextureId_ti
__ZN15CShaderAPIEmpty24SetStencilReferenceValueEi
__ZN15CShaderAPIEmpty24SetStencilZFailOperationE18StencilOperation_t
__ZN15CShaderAPIEmpty25BindStandardVertexTextureE22VertexTextureSampler_t19StandardTextureId_t
__ZN15CShaderAPIEmpty25ClearBuffersObeyStencilExEbbb
__ZN15CShaderAPIEmpty25CommitPixelShaderLightingEi
__ZN15CShaderAPIEmpty25CopyRenderTargetToTextureEi
__ZN15CShaderAPIEmpty25GetCurrentColorCorrectionEP27ShaderColorCorrectionInfo_t
__ZN15CShaderAPIEmpty25SetShadowDepthBiasFactorsEff
__ZN15CShaderAPIEmpty25SetStencilCompareFunctionE27StencilComparisonFunction_t
__ZN15CShaderAPIEmpty25SetToneMappingScaleLinearERK6Vector
__ZN15CShaderAPIEmpty26BeginOcclusionQueryDrawingEP27ShaderAPIOcclusionQuery_t__
__ZN15CShaderAPIEmpty26CreateOcclusionQueryObjectEv
__ZN15CShaderAPIEmpty26SetFloatRenderingParameterEif
__ZN15CShaderAPIEmpty26SetFullScreenTextureHandleEi
__ZN15CShaderAPIEmpty27ClearStencilBufferRectangleEiiiii
__ZN15CShaderAPIEmpty27CopyRenderTargetToTextureExEiiP6Rect_tS1_
__ZN15CShaderAPIEmpty27CopyTextureToRenderTargetExEiiP6Rect_tS1_
__ZN15CShaderAPIEmpty27DestroyOcclusionQueryObjectEP27ShaderAPIOcclusionQuery_t__
__ZN15CShaderAPIEmpty27GetShadowDepthTextureFormatEv
__ZN15CShaderAPIEmpty27OverrideStreamOffsetSupportEbb
__ZN15CShaderAPIEmpty27SetVectorRenderingParameterEiRK6Vector
__ZN15CShaderAPIEmpty27SupportsShadowDepthTexturesEv
__ZN15CShaderAPIEmpty28GetAmbientLightCubeLuminanceEv
__ZN15CShaderAPIEmpty28GetStandardTextureDimensionsEPiS0_19StandardTextureId_t
__ZN15CShaderAPIEmpty28SetTextureTransformDimensionE14TextureStage_tib
__ZN15CShaderAPIEmpty29SetBooleanPixelShaderConstantEiPKiib
__ZN15CShaderAPIEmpty29SetIntegerPixelShaderConstantEiPKiib
__ZN15CShaderAPIEmpty30SetBooleanVertexShaderConstantEiPKiib
__ZN15CShaderAPIEmpty30SetIntegerVertexShaderConstantEiPKiib
__ZN15CShaderAPIEmpty31EnableUserClipTransformOverrideEb
__ZN15CShaderAPIEmpty32CopyRenderTargetToScratchTextureEiiP6Rect_tS1_
__ZN15CShaderAPIEmpty32InvalidateDelayedShaderConstantsEv
__ZN15CShaderAPIEmpty32PurgeUnusedVertexAndPixelShadersEv
__ZN15CShaderAPIEmpty32SetStandardVertexShaderConstantsEf
__ZN15CShaderAPIEmpty33EnableLinearColorSpaceFrameBufferEb
__ZN15CShaderAPIEmpty33PerformFullScreenStencilOperationEv
__ZN15CShaderAPIEmpty34ClearVertexAndPixelShaderRefCountsEv
__ZN15CShaderAPIEmpty34SetLinearToGammaConversionTexturesEii
__ZN15CShaderAPIEmpty35OcclusionQuery_GetNumPixelsRenderedEP27ShaderAPIOcclusionQuery_t__b
__ZN15CShaderAPIEmpty35SetPixelShaderStateAmbientLightCubeEib
__ZN15CShaderAPIEmpty36SetVertexShaderStateAmbientLightCubeEv
__ZN15CShaderAPIEmpty37SetDepthFeatheringPixelShaderConstantEif
__ZN15CShaderAPIEmpty4BindEP9IMaterial
__ZN15CShaderAPIEmpty4DrawE23MaterialPrimitiveType_tii
__ZN15CShaderAPIEmpty4KnobEPcPf
__ZN15CShaderAPIEmpty5OrthoEdddddd
__ZN15CShaderAPIEmpty5ScaleEfff
__ZN15CShaderAPIEmpty6FogEndEf
__ZN15CShaderAPIEmpty6PrintfEPKcz
__ZN15CShaderAPIEmpty6RotateEffff
__ZN15CShaderAPIEmpty7Color3fEfff
__ZN15CShaderAPIEmpty7Color4fEffff
__ZN15CShaderAPIEmpty7ScaleXYEff
__ZN15CShaderAPIEmpty7SetFogZEf
__ZN15CShaderAPIEmpty7SetModeEPviRK18ShaderDeviceInfo_t
__ZN15CShaderAPIEmpty7TexLockEiiiiiiR12CPixelWriter
__ZN15CShaderAPIEmpty7TexWrapE25ShaderTexCoordComponent_t19ShaderTexWrapMode_t
__ZN15CShaderAPIEmpty8Color3fvEPKf
__ZN15CShaderAPIEmpty8Color3ubEhhh
__ZN15CShaderAPIEmpty8Color4fvEPKf
__ZN15CShaderAPIEmpty8Color4ubEhhhh
__ZN15CShaderAPIEmpty8CullModeE18MaterialCullMode_t
__ZN15CShaderAPIEmpty8EndFrameEv
__ZN15CShaderAPIEmpty8FogStartEf
__ZN15CShaderAPIEmpty8LockRectEPPvPiiiiiiibb
__ZN15CShaderAPIEmpty8PrintfVAEPcS0_
__ZN15CShaderAPIEmpty8SetLightEiRK11LightDesc_t
__ZN15CShaderAPIEmpty9BeginPassEs
__ZN15CShaderAPIEmpty9Color3ubvEPKh
__ZN15CShaderAPIEmpty9Color4ubvEPKh
__ZN15CShaderAPIEmpty9GetMatrixE20MaterialMatrixMode_tPf
__ZN15CShaderAPIEmpty9IsTextureEi
__ZN15CShaderAPIEmpty9PopMatrixEv
__ZN15CShaderAPIEmpty9ShadeModeE17ShaderShadeMode_t
__ZN15CShaderAPIEmpty9SyncTokenEPKc
__ZN15CShaderAPIEmpty9TexUnlockEv
__ZN15CShaderAPIEmpty9TranslateEfff
__ZN15CShaderAPIEmptyD0Ev
__ZN15CShaderAPIEmptyD1Ev
__ZN18CShaderDeviceEmpty10RemoveViewEPv
__ZN18CShaderDeviceEmpty13CompileShaderEPKcmS1_
__ZN18CShaderDeviceEmpty16CreateStaticMeshEyPKcP9IMaterial
__ZN18CShaderDeviceEmpty16ReleaseResourcesEv
__ZN18CShaderDeviceEmpty17CreateIndexBufferE18ShaderBufferType_t21MaterialIndexFormat_tiPKc
__ZN18CShaderDeviceEmpty17CreatePixelShaderEP13IShaderBuffer
__ZN18CShaderDeviceEmpty17DestroyStaticMeshEP5IMesh
__ZN18CShaderDeviceEmpty17HandleThreadEventEj
__ZN18CShaderDeviceEmpty18CreateVertexBufferE18ShaderBufferType_tyiPKc
__ZN18CShaderDeviceEmpty18CreateVertexShaderEP13IShaderBuffer
__ZN18CShaderDeviceEmpty18DestroyIndexBufferEP12IIndexBuffer
__ZN18CShaderDeviceEmpty18DestroyPixelShaderEP21PixelShaderHandle_t__
__ZN18CShaderDeviceEmpty18ReacquireResourcesEv
__ZN18CShaderDeviceEmpty19DestroyVertexBufferEP13IVertexBuffer
__ZN18CShaderDeviceEmpty19DestroyVertexShaderEP22VertexShaderHandle_t__
__ZN18CShaderDeviceEmpty20CreateGeometryShaderEP13IShaderBuffer
__ZN18CShaderDeviceEmpty20GetDisplayDeviceNameEv
__ZN18CShaderDeviceEmpty20SetHardwareGammaRampEffffb
__ZN18CShaderDeviceEmpty21DestroyGeometryShaderEP24GeometryShaderHandle_t__
__ZN18CShaderDeviceEmpty21GetDynamicIndexBufferE21MaterialIndexFormat_tb
__ZN18CShaderDeviceEmpty22GetDynamicVertexBufferEiyb
__ZN18CShaderDeviceEmpty24EnableNonInteractiveModeE28MaterialNonInteractiveMode_tP26ShaderNonInteractiveInfo_t
__ZN18CShaderDeviceEmpty25DoStartupShaderPreloadingEv
__ZN18CShaderDeviceEmpty32RefreshFrontBufferNonInteractiveEv
__ZN18CShaderDeviceEmpty7AddViewEPv
__ZN18CShaderDeviceEmpty7PresentEv
__ZN18CShaderDeviceEmpty7SetViewEPv
__ZN18CShaderDeviceEmptyD1Ev
__ZN18CShaderShadowEmpty11StencilFuncE19ShaderStencilFunc_t
__ZN18CShaderShadowEmpty11StencilMaskEi
__ZN18CShaderShadowEmpty12EnableTexGenE14TextureStage_tb
__ZN18CShaderShadowEmpty13EnableCullingEb
__ZN18CShaderShadowEmpty13EnableStencilEb
__ZN18CShaderShadowEmpty13EnableTextureE9Sampler_tb
__ZN18CShaderShadowEmpty13StencilFailOpE17ShaderStencilOp_t
__ZN18CShaderShadowEmpty13StencilPassOpE17ShaderStencilOp_t
__ZN18CShaderShadowEmpty14EnableBlendingEb
__ZN18CShaderShadowEmpty14EnableLightingEb
__ZN18CShaderShadowEmpty14EnableSRGBReadE9Sampler_tb
__ZN18CShaderShadowEmpty14EnableSpecularEb
__ZN18CShaderShadowEmpty14SetMorphFormatEj
__ZN18CShaderShadowEmpty14SetPixelShaderEPKci
__ZN18CShaderShadowEmpty15EnableAlphaPipeEb
__ZN18CShaderShadowEmpty15EnableAlphaTestEb
__ZN18CShaderShadowEmpty15EnableDepthTestEb
__ZN18CShaderShadowEmpty15EnableSRGBWriteEb
__ZN18CShaderShadowEmpty15OverbrightValueE14TextureStage_tf
__ZN18CShaderShadowEmpty15SetDefaultStateEv
__ZN18CShaderShadowEmpty15SetVertexShaderEPKci
__ZN18CShaderShadowEmpty16EnablePolyOffsetE19PolygonOffsetMode_t
__ZN18CShaderShadowEmpty16StencilReferenceEi
__ZN18CShaderShadowEmpty16StencilWriteMaskEi
__ZN18CShaderShadowEmpty17EnableAlphaWritesEb
__ZN18CShaderShadowEmpty17EnableColorWritesEb
__ZN18CShaderShadowEmpty17EnableDepthWritesEb
__ZN18CShaderShadowEmpty17EnableVertexAlphaEb
__ZN18CShaderShadowEmpty17EnableVertexBlendEb
__ZN18CShaderShadowEmpty18EnableTextureAlphaE14TextureStage_tb
__ZN18CShaderShadowEmpty18StencilDepthFailOpE17ShaderStencilOp_t
__ZN18CShaderShadowEmpty19CustomTextureStagesEi
__ZN18CShaderShadowEmpty19EnableConstantAlphaEb
__ZN18CShaderShadowEmpty19EnableConstantColorEb
__ZN18CShaderShadowEmpty20BlendOpSeparateAlphaE15ShaderBlendOp_t
__ZN18CShaderShadowEmpty20ExecuteCommandBufferEPh
__ZN18CShaderShadowEmpty21EnableAlphaToCoverageEb
__ZN18CShaderShadowEmpty21EnableCustomPixelPipeEb
__ZN18CShaderShadowEmpty22BlendFuncSeparateAlphaE19ShaderBlendFactor_tS0_
__ZN18CShaderShadowEmpty22CustomTextureOperationE14TextureStage_t18ShaderTexChannel_t13ShaderTexOp_t14ShaderTexArg_tS3_
__ZN18CShaderShadowEmpty23SetShadowDepthFilteringE9Sampler_t
__ZN18CShaderShadowEmpty24SetDiffuseMaterialSourceE22ShaderMaterialSource_t
__ZN18CShaderShadowEmpty24VertexShaderVertexFormatEjiPii
__ZN18CShaderShadowEmpty25DisableFogGammaCorrectionEb
__ZN18CShaderShadowEmpty27EnableBlendingSeparateAlphaEb
__ZN18CShaderShadowEmpty6TexGenE14TextureStage_t19ShaderTexGenParam_t
__ZN18CShaderShadowEmpty7BlendOpE15ShaderBlendOp_t
__ZN18CShaderShadowEmpty7FogModeE15ShaderFogMode_t
__ZN18CShaderShadowEmpty8PolyModeE20ShaderPolyModeFace_t16ShaderPolyMode_t
__ZN18CShaderShadowEmpty9AlphaFuncE17ShaderAlphaFunc_tf
__ZN18CShaderShadowEmpty9BlendFuncE19ShaderBlendFactor_tS0_
__ZN18CShaderShadowEmpty9DepthFuncE17ShaderDepthFunc_t
__ZN18CShaderShadowEmpty9DrawFlagsEj
__ZN18CShaderShadowEmptyD0Ev
__ZN18CShaderShadowEmptyD1Ev
__ZN18CUtlCharConversion14FindConversionEPKcPi
__ZN19CUtlNoEscConversion14FindConversionEPKcPi
__ZN21CShaderDeviceMgrEmpty10DisconnectEv
__ZN21CShaderDeviceMgrEmpty10SetAdapterEii
__ZN21CShaderDeviceMgrEmpty14QueryInterfaceEPKc
__ZN21CShaderDeviceMgrEmpty21AddModeChangeCallbackEPFvvE
__ZN21CShaderDeviceMgrEmpty24RemoveModeChangeCallbackEPFvvE
__ZN21CShaderDeviceMgrEmpty31GetRecommendedConfigurationInfoEiiP9KeyValues
__ZN21CShaderDeviceMgrEmpty4InitEv
__ZN21CShaderDeviceMgrEmpty7ConnectEPFPvPKcPiE
__ZN21CShaderDeviceMgrEmpty7SetModeEPviRK18ShaderDeviceInfo_t
__ZN21CShaderDeviceMgrEmpty8ShutdownEv
__ZN21CUtlCStringConversion14FindConversionEPKcPi
__ZN21CUtlCStringConversionC2EcPKciPN18CUtlCharConversion17ConversionArray_tE
__ZNK10CEmptyMesh10IndexCountEv
__ZNK10CEmptyMesh11IndexFormatEv
__ZNK10CEmptyMesh11VertexCountEv
__ZNK10CEmptyMesh15GetVertexFormatEv
__ZNK10CEmptyMesh16GetRoomRemainingEv
__ZNK10CEmptyMesh9IsDynamicEv
__ZNK10IShaderAPI28SupportsNormalMapCompressionEv
__ZNK15CShaderAPIEmpty10GetHDRTypeEv
__ZNK15CShaderAPIEmpty10IsDX10CardEv
__ZNK15CShaderAPIEmpty11CurrentTimeEv
__ZNK15CShaderAPIEmpty11IsAAEnabledEv
__ZNK15CShaderAPIEmpty11SupportsHDREv
__ZNK15CShaderAPIEmpty12GetMaxLightsEv
__ZNK15CShaderAPIEmpty12GetViewportsEP16ShaderViewport_ti
__ZNK15CShaderAPIEmpty12InEditorModeEv
__ZNK15CShaderAPIEmpty12MaxNumLightsEv
__ZNK15CShaderAPIEmpty12MaxViewportsEv
__ZNK15CShaderAPIEmpty12NeedsAAClampEv
__ZNK15CShaderAPIEmpty12SupportsSRGBEv
__ZNK15CShaderAPIEmpty13FakeSRGBWriteEv
__ZNK15CShaderAPIEmpty13GetHDREnabledEv
__ZNK15CShaderAPIEmpty13IsAlphaTestedEs
__ZNK15CShaderAPIEmpty13IsTranslucentEs
__ZNK15CShaderAPIEmpty14SupportsFetch4Ev
__ZNK15CShaderAPIEmpty15GetSamplerCountEv
__ZNK15CShaderAPIEmpty15MaxTextureDepthEv
__ZNK15CShaderAPIEmpty15MaxTextureWidthEv
__ZNK15CShaderAPIEmpty15SupportsHDRModeE9HDRType_t
__ZNK15CShaderAPIEmpty15UseFastClippingEv
__ZNK15CShaderAPIEmpty16GetDX9LightStateEP12LightState_t
__ZNK15CShaderAPIEmpty16GetShaderDLLNameEv
__ZNK15CShaderAPIEmpty16HasStencilBufferEv
__ZNK15CShaderAPIEmpty16InFlashlightModeEv
__ZNK15CShaderAPIEmpty16MaxBlendMatricesEv
__ZNK15CShaderAPIEmpty16MaxTextureHeightEv
__ZNK15CShaderAPIEmpty16SupportsCubeMapsEv
__ZNK15CShaderAPIEmpty17GetCurrentFogTypeEv
__ZNK15CShaderAPIEmpty17GetDXSupportLevelEv
__ZNK15CShaderAPIEmpty17MaxUserClipPlanesEv
__ZNK15CShaderAPIEmpty17StencilBufferBitsEv
__ZNK15CShaderAPIEmpty17TextureMemorySizeEv
__ZNK15CShaderAPIEmpty18ComputeMorphFormatEiPs
__ZNK15CShaderAPIEmpty18ComputeVertexUsageEiPs
__ZNK15CShaderAPIEmpty18GetCurrentNumBonesEv
__ZNK15CShaderAPIEmpty18GetFlashlightStateER7VMatrix
__ZNK15CShaderAPIEmpty18GetHardwareHDRTypeEv
__ZNK15CShaderAPIEmpty18HasDestAlphaBufferEv
__ZNK15CShaderAPIEmpty18SupportsOverbrightEv
__ZNK15CShaderAPIEmpty19CanDownloadTexturesEv
__ZNK15CShaderAPIEmpty19ComputeVertexFormatEiPs
__ZNK15CShaderAPIEmpty19GetShadowFilterModeEv
__ZNK15CShaderAPIEmpty19HasProjectedBumpEnvEv
__ZNK15CShaderAPIEmpty19IsDepthWriteEnabledEs
__ZNK15CShaderAPIEmpty19IsHWMorphingEnabledEv
__ZNK15CShaderAPIEmpty19SupportsBorderColorEv
__ZNK15CShaderAPIEmpty20CanDoSRGBReadFromRTsEv
__ZNK15CShaderAPIEmpty20GetCurrentLightComboEv
__ZNK15CShaderAPIEmpty20GetFlashlightStateExER7VMatrixPP8ITexture
__ZNK15CShaderAPIEmpty20GetMaxDXSupportLevelEv
__ZNK15CShaderAPIEmpty20GetTextureStageCountEv
__ZNK15CShaderAPIEmpty20MaxHWMorphBatchCountEv
__ZNK15CShaderAPIEmpty20NeedsATICentroidHackEv
__ZNK15CShaderAPIEmpty20SupportsStreamOffsetEv
__ZNK15CShaderAPIEmpty21GetVertexTextureCountEv
__ZNK15CShaderAPIEmpty21HasFastVertexTexturesEv
__ZNK15CShaderAPIEmpty21HasSetDeviceGammaRampEv
__ZNK15CShaderAPIEmpty21MaxBlendMatrixIndicesEv
__ZNK15CShaderAPIEmpty21MaxTextureAspectRatioEv
__ZNK15CShaderAPIEmpty21PreferDynamicTexturesEv
__ZNK15CShaderAPIEmpty21PreferReducedFillrateEv
__ZNK15CShaderAPIEmpty21SupportsSpheremappingEv
__ZNK15CShaderAPIEmpty22GetLightMapScaleFactorEv
__ZNK15CShaderAPIEmpty23GetBackBufferDimensionsERiS0_
__ZNK15CShaderAPIEmpty23MaximumAnisotropicLevelEv
__ZNK15CShaderAPIEmpty23NumPixelShaderConstantsEv
__ZNK15CShaderAPIEmpty23SupportsNonPow2TexturesEv
__ZNK15CShaderAPIEmpty23SupportsShaderModel_3_0Ev
__ZNK15CShaderAPIEmpty23UsesSRGBCorrectBlendingEv
__ZNK15CShaderAPIEmpty24ComputeVertexDescriptionEPhyR10MeshDesc_t
__ZNK15CShaderAPIEmpty24GetFrameBufferColorDepthEv
__ZNK15CShaderAPIEmpty24GetIntRenderingParameterEi
__ZNK15CShaderAPIEmpty24GetNumActiveDeformationsEv
__ZNK15CShaderAPIEmpty24NumVertexShaderConstantsEv
__ZNK15CShaderAPIEmpty24SupportsHardwareLightingEv
__ZNK15CShaderAPIEmpty24SupportsPixelShaders_1_4Ev
__ZNK15CShaderAPIEmpty24SupportsPixelShaders_2_0Ev
__ZNK15CShaderAPIEmpty24SupportsPixelShaders_2_bEv
__ZNK15CShaderAPIEmpty25GetNearestSupportedFormatE11ImageFormatb
__ZNK15CShaderAPIEmpty25GetToneMappingScaleLinearEv
__ZNK15CShaderAPIEmpty25NeedsShaderSRGBConversionEv
__ZNK15CShaderAPIEmpty25ReadPixelsFromFrontBufferEv
__ZNK15CShaderAPIEmpty25SupportsMipmappedCubemapsEv
__ZNK15CShaderAPIEmpty25SupportsStaticControlFlowEv
__ZNK15CShaderAPIEmpty25SupportsVertexShaders_2_0Ev
__ZNK15CShaderAPIEmpty25UsesVertexAndPixelShadersEs
__ZNK15CShaderAPIEmpty26CanStretchRectFromTexturesEv
__ZNK15CShaderAPIEmpty26GetFloatRenderingParameterEi
__ZNK15CShaderAPIEmpty26GetHWSpecificShaderDLLNameEv
__ZNK15CShaderAPIEmpty26GetVertexBufferCompressionEv
__ZNK15CShaderAPIEmpty26SupportsCompressedTexturesEv
__ZNK15CShaderAPIEmpty26SupportsCompressedVerticesEv
__ZNK15CShaderAPIEmpty26SupportsGLMixedSizeTargetsEv
__ZNK15CShaderAPIEmpty27GetVectorRenderingParameterEi
__ZNK15CShaderAPIEmpty27GetWorldSpaceCameraPositionEPf
__ZNK15CShaderAPIEmpty27ShouldWriteDepthToDestAlphaEv
__ZNK15CShaderAPIEmpty27SupportsColorOnSecondStreamEv
__ZNK15CShaderAPIEmpty28GetMaxVertexTextureDimensionEv
__ZNK15CShaderAPIEmpty28GetNearestRenderTargetFormatE11ImageFormat
__ZNK15CShaderAPIEmpty28MaxVertexShaderBlendMatricesEv
__ZNK15CShaderAPIEmpty29SupportsVertexAndPixelShadersEv
__ZNK15CShaderAPIEmpty30GammaToLinear_HardwareSpecificEf
__ZNK15CShaderAPIEmpty30LinearToGamma_HardwareSpecificEf
__ZNK15CShaderAPIEmpty30SpecifiesFogColorInLinearSpaceEv
__ZNK15CShaderAPIEmpty31GetPackedDeformationInformationEiPfiiPi
__ZNK15CShaderAPIEmpty32ActuallySupportsPixelShaders_2_bEv
__ZNK15CShaderAPIEmpty33SupportsStaticPlusDynamicLightingEv
__ZNK15CShaderAPIEmpty38DoRenderTargetsNeedSeparateDepthBufferEv
__ZNK15CShaderAPIEmpty8GetLightEi
__ZNK18CShaderDeviceEmpty11IsAAEnabledEv
__ZNK18CShaderDeviceEmpty13GetWindowSizeERiS0_
__ZNK18CShaderDeviceEmpty14SpewDriverInfoEv
__ZNK18CShaderDeviceEmpty15IsUsingGraphicsEv
__ZNK18CShaderDeviceEmpty17GetCurrentAdapterEv
__ZNK18CShaderDeviceEmpty17StencilBufferBitsEv
__ZNK18CShaderDeviceEmpty19GetBackBufferFormatEv
__ZNK18CShaderDeviceEmpty23GetBackBufferDimensionsERiS0_
__ZNK21CShaderDeviceMgrEmpty11GetModeInfoEP19ShaderDisplayMode_tii
__ZNK21CShaderDeviceMgrEmpty12GetModeCountEi
__ZNK21CShaderDeviceMgrEmpty14GetAdapterInfoEiR21MaterialAdapterInfo_t
__ZNK21CShaderDeviceMgrEmpty15GetAdapterCountEv
__ZNK21CShaderDeviceMgrEmpty18GetCurrentModeInfoEP19ShaderDisplayMode_ti
__ZNK29IMaterialSystemHardwareConfig28SupportsNormalMapCompressionEv
__ZTI10CEmptyMesh
__ZTI10IAppSystem
__ZTI10IShaderAPI
__ZTI12IIndexBuffer
__ZTI13IShaderDevice
__ZTI13IShaderShadow
__ZTI13IVertexBuffer
__ZTI15CShaderAPIEmpty
__ZTI16IShaderDeviceMgr
__ZTI17IDebugTextureInfo
__ZTI17IShaderDynamicAPI
__ZTI18CShaderDeviceEmpty
__ZTI18CShaderShadowEmpty
__ZTI18CUtlCharConversion
__ZTI19CUtlNoEscConversion
__ZTI21CShaderDeviceMgrEmpty
__ZTI21CUtlCStringConversion
__ZTI23IHardwareConfigInternal
__ZTI29IMaterialSystemHardwareConfig
__ZTI5IMesh
__ZTISt9bad_alloc
__ZTS10CEmptyMesh
__ZTS10IAppSystem
__ZTS10IShaderAPI
__ZTS12IIndexBuffer
__ZTS13IShaderDevice
__ZTS13IShaderShadow
__ZTS13IVertexBuffer
__ZTS15CShaderAPIEmpty
__ZTS16IShaderDeviceMgr
__ZTS17IDebugTextureInfo
__ZTS17IShaderDynamicAPI
__ZTS18CShaderDeviceEmpty
__ZTS18CShaderShadowEmpty
__ZTS18CUtlCharConversion
__ZTS19CUtlNoEscConversion
__ZTS21CShaderDeviceMgrEmpty
__ZTS21CUtlCStringConversion
__ZTS23IHardwareConfigInternal
__ZTS29IMaterialSystemHardwareConfig
__ZTS5IMesh
__ZTV10CEmptyMesh
__ZTV15CShaderAPIEmpty
__ZTV18CShaderDeviceEmpty
__ZTV18CShaderShadowEmpty
__ZTV18CUtlCharConversion
__ZTV19CUtlNoEscConversion
__ZTV21CShaderDeviceMgrEmpty
__ZTV21CUtlCStringConversion
__ZTVN10__cxxabiv117__class_type_infoE
__ZTVN10__cxxabiv120__si_class_type_infoE
__ZTVN10__cxxabiv121__vmi_class_type_infoE
__ZThn4_N10CEmptyMesh11ModifyBeginEbiiR11IndexDesc_t
__ZThn4_N10CEmptyMesh12ValidateDataEiRK11IndexDesc_t
__ZThn4_N10CEmptyMesh13EndCastBufferEv
__ZThn4_N10CEmptyMesh15BeginCastBufferE21MaterialIndexFormat_t
__ZThn4_N10CEmptyMesh4LockEibR11IndexDesc_t
__ZThn4_N10CEmptyMesh4SpewEiRK11IndexDesc_t
__ZThn4_N10CEmptyMesh6UnlockEiR11IndexDesc_t
__ZThn4_N10CEmptyMesh9ModifyEndER11IndexDesc_t
__ZThn4_N10CEmptyMeshD0Ev
__ZThn4_N10CEmptyMeshD1Ev
__ZThn4_N15CShaderAPIEmpty13SetHDREnabledEb
__ZThn4_N15CShaderAPIEmpty27OverrideStreamOffsetSupportEbb
__ZThn4_NK10CEmptyMesh10IndexCountEv
__ZThn4_NK10CEmptyMesh11IndexFormatEv
__ZThn4_NK10CEmptyMesh16GetRoomRemainingEv
__ZThn4_NK10CEmptyMesh9IsDynamicEv
__ZThn4_NK15CShaderAPIEmpty10GetHDRTypeEv
__ZThn4_NK15CShaderAPIEmpty11IsAAEnabledEv
__ZThn4_NK15CShaderAPIEmpty11SupportsHDREv
__ZThn4_NK15CShaderAPIEmpty12MaxNumLightsEv
__ZThn4_NK15CShaderAPIEmpty12MaxViewportsEv
__ZThn4_NK15CShaderAPIEmpty12NeedsAAClampEv
__ZThn4_NK15CShaderAPIEmpty12SupportsSRGBEv
__ZThn4_NK15CShaderAPIEmpty13FakeSRGBWriteEv
__ZThn4_NK15CShaderAPIEmpty13GetHDREnabledEv
__ZThn4_NK15CShaderAPIEmpty14SupportsFetch4Ev
__ZThn4_NK15CShaderAPIEmpty15GetSamplerCountEv
__ZThn4_NK15CShaderAPIEmpty15MaxTextureDepthEv
__ZThn4_NK15CShaderAPIEmpty15MaxTextureWidthEv
__ZThn4_NK15CShaderAPIEmpty15SupportsHDRModeE9HDRType_t
__ZThn4_NK15CShaderAPIEmpty15UseFastClippingEv
__ZThn4_NK15CShaderAPIEmpty16GetShaderDLLNameEv
__ZThn4_NK15CShaderAPIEmpty16HasStencilBufferEv
__ZThn4_NK15CShaderAPIEmpty16MaxBlendMatricesEv
__ZThn4_NK15CShaderAPIEmpty16MaxTextureHeightEv
__ZThn4_NK15CShaderAPIEmpty16SupportsCubeMapsEv
__ZThn4_NK15CShaderAPIEmpty17GetDXSupportLevelEv
__ZThn4_NK15CShaderAPIEmpty17MaxUserClipPlanesEv
__ZThn4_NK15CShaderAPIEmpty17StencilBufferBitsEv
__ZThn4_NK15CShaderAPIEmpty17TextureMemorySizeEv
__ZThn4_NK15CShaderAPIEmpty18GetHardwareHDRTypeEv
__ZThn4_NK15CShaderAPIEmpty18HasDestAlphaBufferEv
__ZThn4_NK15CShaderAPIEmpty18SupportsOverbrightEv
__ZThn4_NK15CShaderAPIEmpty19GetShadowFilterModeEv
__ZThn4_NK15CShaderAPIEmpty19HasProjectedBumpEnvEv
__ZThn4_NK15CShaderAPIEmpty19SupportsBorderColorEv
__ZThn4_NK15CShaderAPIEmpty20CanDoSRGBReadFromRTsEv
__ZThn4_NK15CShaderAPIEmpty20GetMaxDXSupportLevelEv
__ZThn4_NK15CShaderAPIEmpty20GetTextureStageCountEv
__ZThn4_NK15CShaderAPIEmpty20MaxHWMorphBatchCountEv
__ZThn4_NK15CShaderAPIEmpty20NeedsATICentroidHackEv
__ZThn4_NK15CShaderAPIEmpty20SupportsStreamOffsetEv
__ZThn4_NK15CShaderAPIEmpty21GetVertexTextureCountEv
__ZThn4_NK15CShaderAPIEmpty21HasFastVertexTexturesEv
__ZThn4_NK15CShaderAPIEmpty21HasSetDeviceGammaRampEv
__ZThn4_NK15CShaderAPIEmpty21MaxBlendMatrixIndicesEv
__ZThn4_NK15CShaderAPIEmpty21MaxTextureAspectRatioEv
__ZThn4_NK15CShaderAPIEmpty21PreferDynamicTexturesEv
__ZThn4_NK15CShaderAPIEmpty21PreferReducedFillrateEv
__ZThn4_NK15CShaderAPIEmpty21SupportsSpheremappingEv
__ZThn4_NK15CShaderAPIEmpty23MaximumAnisotropicLevelEv
__ZThn4_NK15CShaderAPIEmpty23NumPixelShaderConstantsEv
__ZThn4_NK15CShaderAPIEmpty23SupportsNonPow2TexturesEv
__ZThn4_NK15CShaderAPIEmpty23SupportsShaderModel_3_0Ev
__ZThn4_NK15CShaderAPIEmpty23UsesSRGBCorrectBlendingEv
__ZThn4_NK15CShaderAPIEmpty24GetFrameBufferColorDepthEv
__ZThn4_NK15CShaderAPIEmpty24NumVertexShaderConstantsEv
__ZThn4_NK15CShaderAPIEmpty24SupportsHardwareLightingEv
__ZThn4_NK15CShaderAPIEmpty24SupportsPixelShaders_1_4Ev
__ZThn4_NK15CShaderAPIEmpty24SupportsPixelShaders_2_0Ev
__ZThn4_NK15CShaderAPIEmpty24SupportsPixelShaders_2_bEv
__ZThn4_NK15CShaderAPIEmpty25NeedsShaderSRGBConversionEv
__ZThn4_NK15CShaderAPIEmpty25ReadPixelsFromFrontBufferEv
__ZThn4_NK15CShaderAPIEmpty25SupportsMipmappedCubemapsEv
__ZThn4_NK15CShaderAPIEmpty25SupportsStaticControlFlowEv
__ZThn4_NK15CShaderAPIEmpty25SupportsVertexShaders_2_0Ev
__ZThn4_NK15CShaderAPIEmpty26CanStretchRectFromTexturesEv
__ZThn4_NK15CShaderAPIEmpty26GetHWSpecificShaderDLLNameEv
__ZThn4_NK15CShaderAPIEmpty26SupportsCompressedTexturesEv
__ZThn4_NK15CShaderAPIEmpty26SupportsCompressedVerticesEv
__ZThn4_NK15CShaderAPIEmpty26SupportsGLMixedSizeTargetsEv
__ZThn4_NK15CShaderAPIEmpty27SupportsColorOnSecondStreamEv
__ZThn4_NK15CShaderAPIEmpty28GetMaxVertexTextureDimensionEv
__ZThn4_NK15CShaderAPIEmpty28MaxVertexShaderBlendMatricesEv
__ZThn4_NK15CShaderAPIEmpty29SupportsVertexAndPixelShadersEv
__ZThn4_NK15CShaderAPIEmpty30SpecifiesFogColorInLinearSpaceEv
__ZThn4_NK15CShaderAPIEmpty32ActuallySupportsPixelShaders_2_bEv
__ZThn4_NK15CShaderAPIEmpty33SupportsStaticPlusDynamicLightingEv
__ZThn8_N15CShaderAPIEmpty19GetDebugTextureListEv
__ZThn8_N15CShaderAPIEmpty20EnableGetAllTexturesEb
__ZThn8_N15CShaderAPIEmpty20GetTextureMemoryUsedEN17IDebugTextureInfo17TextureMemoryTypeE
__ZThn8_N15CShaderAPIEmpty22EnableDebugTextureListEb
__ZThn8_N15CShaderAPIEmpty23IsDebugTextureListFreshEi
__ZThn8_N15CShaderAPIEmpty24SetDebugTextureRenderingEb
__ZZN10CEmptyMesh4LockEibR11IndexDesc_tE12s_BogusIndex
__ZZNK15CShaderAPIEmpty18GetFlashlightStateER7VMatrixE4blah
__ZZNK15CShaderAPIEmpty20GetFlashlightStateExER7VMatrixPP8ITextureE4blah
__ZZNK15CShaderAPIEmpty25GetToneMappingScaleLinearEvE5dummy
__ZZNK15CShaderAPIEmpty8GetLightEiE4blah
__ZdaPv
__ZdlPv
__Znam
__Znwm
___bzero
___cxa_atexit
___cxa_call_unexpected
___cxa_guard_acquire
___cxa_guard_release
___gxx_personality_v0
_g_pMemAlloc
_g_pShaderUtil
_s_NoEscConversion
_s_StringCharConversion
_strcasecmp
_strcmp
_strlen
dyld_stub_binder
