GCC_except_table0
GCC_except_table0
GCC_except_table1
GCC_except_table10
GCC_except_table101
GCC_except_table108
GCC_except_table111
GCC_except_table112
GCC_except_table116
GCC_except_table12
GCC_except_table12
GCC_except_table128
GCC_except_table13
GCC_except_table139
GCC_except_table14
GCC_except_table14
GCC_except_table14
GCC_except_table143
GCC_except_table145
GCC_except_table15
GCC_except_table19
GCC_except_table194
GCC_except_table195
GCC_except_table196
GCC_except_table199
GCC_except_table2
GCC_except_table2
GCC_except_table20
GCC_except_table20
GCC_except_table200
GCC_except_table207
GCC_except_table21
GCC_except_table214
GCC_except_table215
GCC_except_table218
GCC_except_table220
GCC_except_table230
GCC_except_table231
GCC_except_table24
GCC_except_table24
GCC_except_table244
GCC_except_table26
GCC_except_table26
GCC_except_table27
GCC_except_table27
GCC_except_table28
GCC_except_table28
GCC_except_table29
GCC_except_table29
GCC_except_table3
GCC_except_table3
GCC_except_table30
GCC_except_table305
GCC_except_table306
GCC_except_table309
GCC_except_table31
GCC_except_table311
GCC_except_table33
GCC_except_table37
GCC_except_table371
GCC_except_table383
GCC_except_table388
GCC_except_table41
GCC_except_table43
GCC_except_table44
GCC_except_table44
GCC_except_table45
GCC_except_table47
GCC_except_table5
GCC_except_table51
GCC_except_table51
GCC_except_table52
GCC_except_table52
GCC_except_table54
GCC_except_table55
GCC_except_table56
GCC_except_table57
GCC_except_table58
GCC_except_table59
GCC_except_table59
GCC_except_table6
GCC_except_table60
GCC_except_table61
GCC_except_table62
GCC_except_table68
GCC_except_table7
GCC_except_table70
GCC_except_table70
GCC_except_table704
GCC_except_table705
GCC_except_table71
GCC_except_table72
GCC_except_table73
GCC_except_table74
GCC_except_table75
GCC_except_table76
GCC_except_table76
GCC_except_table8
GCC_except_table8
GCC_except_table8
GCC_except_table81
GCC_except_table83
GCC_except_table83
GCC_except_table86
GCC_except_table87
GCC_except_table87
GCC_except_table88
GCC_except_table89
GCC_except_table9
GCC_except_table90
GCC_except_table91
GCC_except_table91
GCC_except_table92
GCC_except_table92
GCC_except_table92
GCC_except_table93
GCC_except_table93
GCC_except_table93
GCC_except_table94
GCC_except_table94
GCC_except_table96
GCC_except_table96
_.memset_pattern
_.memset_pattern
_COM_TimestampedLog
_CallAssertFailedNotifyFunc
_CommandLine_Tier0
_CreateInterface
_D3DPERF_SetOptions
_D3DXCompileShader
_D3DXCreateMatrixStack
_D3DXMatrixIdentity
_D3DXMatrixInverse
_D3DXMatrixMultiply
_D3DXMatrixOrthoOffCenterRH
_D3DXMatrixPerspectiveOffCenterRH
_D3DXMatrixPerspectiveRH
_D3DXMatrixTranslation
_D3DXMatrixTranspose
_D3DXPlaneNormalize
_D3DXPlaneTransform
_D3DXVec3TransformCoord
_D3DXVec4Normalize
_D3DXVec4Transform
_DWarning
_DevMsg
_Direct3DCreate9
_DoNewAssertDialog
_Error
_GetCPUInformation
_KeyValuesSystem
_LzmaDec_Allocate
_LzmaDec_AllocateProbs
_LzmaDec_DecodeToDic
_LzmaDec_Free
_LzmaDecode
_Msg
_Plat_DebugString
_Plat_FloatTime
_Plat_GetPagedPoolInfo
_Plat_IsInDebugSession
_ShouldUseNewAssertDialog
_SinCosTable
_ThreadGetCurrentId
_ThreadInMainThread
_ThreadInterlockedAssignIf
_ThreadInterlockedDecrement
_ThreadInterlockedExchange
_ThreadInterlockedIncrement
_ThreadSleep
_ToGLConnectLibraries
_ToGLDisconnectLibraries
_Warning
__DefaultRuneLocale
__ExitOnFatalAssert
__GLOBAL__sub_I_KeyValues.stdout.rel_tf_osx_builder.55432.qZWQhg.ii
__GLOBAL__sub_I_convar.stdout.rel_tf_osx_builder.55430.mXKsKU.ii
__GLOBAL__sub_I_cvballoctr.stdout.rel_tf_osx_builder.70175.cqBj1d.ii
__GLOBAL__sub_I_hardwareco.stdout.rel_tf_osx_builder.70177.LljJFN.ii
__GLOBAL__sub_I_lzmaDecode.stdout.rel_tf_osx_builder.55433.LctBPo.ii
__GLOBAL__sub_I_meshdx8.stdout.rel_tf_osx_builder.70178.HJUhxa.ii
__GLOBAL__sub_I_shaderapid.stdout.rel_tf_osx_builder.70180.aKoeqI.ii
__GLOBAL__sub_I_shaderdevi.stdout.rel_tf_osx_builder.70203.U2gti4.ii
__GLOBAL__sub_I_shadershad.stdout.rel_tf_osx_builder.70211.YS34C9.ii
__GLOBAL__sub_I_sse.stdout.rel_tf_osx_builder.9376.gxVesc.ii
__GLOBAL__sub_I_utlbuffer.stdout.rel_tf_osx_builder.8986.vt30zT.ii
__GLOBAL__sub_I_utlsymbol.stdout.rel_tf_osx_builder.55484.zcRfnN.ii
__GLOBAL__sub_I_vertexdecl.stdout.rel_tf_osx_builder.70241.9KRHZZ.ii
__GLOBAL__sub_I_vertexshad.stdout.rel_tf_osx_builder.70245.D8z1Nn.ii
__SpewInfo
__SpewMessage
__Unwind_Resume
__Z10ApplyDiffsPKhS0_iiRiPhj
__Z10CRC32_InitPj
__Z10DevWarningPKcz
__Z10SafeAssignI12CIndexBufferEvPPT_S2_
__Z10V_snprintfPciPKcz
__Z11CRC32_FinalPj
__Z11LoadTextureR17TextureLoadInfo_t
__Z11LockTextureiiP21IDirect3DBaseTexture9i17_D3DCUBEMAP_FACESiiiibR12CPixelWriter
__Z11SafeReleaseI12CIndexBufferEvPPT_
__Z12ApplyFogModeRK13ShadowState_ti
__Z12MathLib_Initfffibbbb
__Z12ShaderShadowv
__Z12_InvRSquaredPKf
__Z13ApplyFillModeRK13ShadowState_ti
__Z13ApplyLightingRK13ShadowState_ti
__Z13GammaToLinearf
__Z13Q_UTF32ToUTF8PKwPci25EStringConvertErrorPolicy
__Z13Q_UTF8ToUTF32PKcPwi25EStringConvertErrorPolicy
__Z13UnlockTextureiiP21IDirect3DBaseTexture9i17_D3DCUBEMAP_FACES
__Z14ApplyAlphaTestRK13ShadowState_ti
__Z14ApplyDepthTestRK13ShadowState_ti
__Z14LoadSubTextureR17TextureLoadInfo_tiii
__Z14_SSE_RSqrtFastf
__Z15ApplyAlphaBlendRK13ShadowState_ti
__Z15ApplyCullEnableRK13ShadowState_ti
__Z15BuildGammaTablefffi
__Z15ConVar_RegisteriP23IConCommandBaseAccessor
__Z15MatrixTransposeRK7VMatrixRS_
__Z15Q_UTF8ToUChar32PKcRwRb
__Z16CreateD3DTextureiii11ImageFormatiiPc
__Z16_SSE_InvRSquaredPKf
__Z16_VectorNormalizeR6Vector
__Z17ApplyFetch4EnableRK13ShadowState_ti
__Z17ApplyZWriteEnableRK13ShadowState_ti
__Z17ComputeVertexDescPhyR12VertexDesc_t
__Z17ComputeVertexSpecyP18_D3DVERTEXELEMENT9bbb
__Z17ConVar_Unregisterv
__Z17DestroyD3DTextureP21IDirect3DBaseTexture9
__Z17ReleaseD3DTextureP21IDirect3DBaseTexture9
__Z17SetIdentityMatrixR11matrix3x4_t
__Z17SrgbGammaToLinearf
__Z17SrgbLinearToGammaf
__Z18ApplyTexCoordIndexRK13ShadowState_ti
__Z18ApplyTextureEnableRK13ShadowState_ti
__Z18GlobalMemoryStatusP13_MEMORYSTATUS
__Z18LoadTextureFromVTFR17TextureLoadInfo_tP11IVTFTexturei
__Z18Sys_GetFactoryThisv
__Z18_SSE_RSqrtAccuratef
__Z19ApplySRGBReadEnableRK13ShadowState_ti
__Z19ApplySpecularEnableRK13ShadowState_ti
__Z19CRC32_ProcessBufferPjPKvi
__Z19EvaluateConditionalPKc
__Z19ShaderDeviceFactoryPKcPi
__Z20ApplyAlphaToCoverageRK13ShadowState_ti
__Z20ApplySRGBWriteEnableRK13ShadowState_ti
__Z20ReleaseAllVertexDeclv
__Z20_VectorNormalizeFastR6Vector
__Z21ApplyColorWriteEnableRK13ShadowState_ti
__Z21ConnectTier1LibrariesPPFPvPKcPiEi
__Z21ConnectTier2LibrariesPPFPvPKcPiEi
__Z21DefaultCompletionFuncPKcPA64_c
__Z21V_UnqualifiedFileNamePKc
__Z22ApplyAlphaTextureStageRK13ShadowState_ti
__Z22ApplyColorTextureStageRK13ShadowState_ti
__Z22ApplyVertexBlendEnableRK13ShadowState_ti
__Z22FindOrCreateVertexDeclybbb
__Z22GammaToLinearFullRangef
__Z22GetNoEscCharConversionv
__Z22LinearToGammaFullRangef
__Z22LoadCubeTextureFromVTFR17TextureLoadInfo_tP11IVTFTexturei
__Z23ApplySeparateAlphaBlendRK13ShadowState_ti
__Z23ApplyShadowFilterEnableRK13ShadowState_ti
__Z23CreateInterfaceInternalPKcPi
__Z23GenerateQuadIndexBufferPtii
__Z24DisconnectTier1Librariesv
__Z24DisconnectTier2Librariesv
__Z24GetCStringCharConversionv
__Z24GetNearestD3DColorFormat11ImageFormatbbb
__Z24LoadVolumeTextureFromVTFR17TextureLoadInfo_tP11IVTFTexturei
__Z24_SSE_VectorNormalizeFastR6Vector
__Z26ApplyActivateFixedFunctionRK13ShadowState_ti
__Z26ApplyDiffuseMaterialSourceRK13ShadowState_ti
__Z26FindNearestSupportedFormat11ImageFormatbbb
__Z26GeneratePolygonIndexBufferPtii
__Z26InitializeColorInformationj11_D3DDEVTYPE11ImageFormat
__Z27GenerateLineLoopIndexBufferPtii
__Z28GenerateLineStripIndexBufferPtii
__Z29D3DSupportsCompressedTexturesv
__Z29GenerateSequentialIndexBufferPtii
__Z30ApplyDisableFogGammaCorrectionRK13ShadowState_ti
__Z31FindNearestSupportedDepthFormati11ImageFormatS_10_D3DFORMAT
__Z36FindNearestSupportedBackBufferFormatj11_D3DDEVTYPE11ImageFormatS0_b
__Z5Sleepj
__Z6DevMsgPKcz
__Z6SinCosfPfS_
__Z6V_atofPKc
__Z6V_atoiPKc
__Z6_sqrtff
__Z7MeshMgrv
__Z7_rsqrtff
__Z8IsIconicPv
__Z9V_stricmpPKcS0_
__Z9V_stristrPKcS0_
__Z9V_stristrPcPKc
__Z9V_strncatPcPKcmi
__Z9V_strncmpPKcS0_i
__Z9V_strncpyPcPKci
__Z9_SSE_Sqrtf
__ZGVZ17ComputeVertexDescPhyR12VertexDesc_tE4temp
__ZGVZN12CIndexBuffer26HandlePerFrameTextureStatsEiE8_counter
__ZGVZN12CIndexBufferC1EP16IDirect3DDevice9ibbE8_counter
__ZGVZN12CIndexBufferD1EvE8_counter
__ZGVZN12CTempMeshDX813TestSelectionEvE15transformedVert
__ZGVZN13CShaderAPIDx815SetTextureStateE9Sampler_tibE20materialSystemConfig
__ZGVZN13CShaderAPIDx817ExportTextureListEvE8_counter
__ZGVZN13CShaderAPIDx817ExportTextureListEvE8_counter_0
__ZGVZN15CIndexBufferDx826HandlePerFrameTextureStatsEiE8_counter
__ZGVZN15CIndexBufferDx84FreeEvE8_counter
__ZGVZN15CIndexBufferDx84FreeEvE8_counter_0
__ZGVZN15CIndexBufferDx88AllocateEvE8_counter
__ZGVZN15CIndexBufferDx88AllocateEvE8_counter_0
__ZGVZN8CMeshDX810RenderPassEvE8_counter
__ZGVZN8CMeshDX810RenderPassEvE8_counter_0
__ZGVZN8CMeshDX810RenderPassEvE8_counter_1
__ZGVZN8CMeshDX810RenderPassEvE8_counter_2
__ZL10r_pixelfog
__ZL11g_ClipVerts
__ZL11pulCRCTable
__ZL11r_pix_start
__ZL11s_nCVarFlag
__ZL11s_pTokenBuf
__ZL11vec2_origin
__ZL11vec2_origin
__ZL11vec2_origin
__ZL11vec2_origin
__ZL11vec2_origin
__ZL11vec2_origin
__ZL11vec2_origin
__ZL11vec2_origin
__ZL11vec2_origin
__ZL11vec2_origin
__ZL11vec2_origin
__ZL11vec2_origin
__ZL11vec2_origin
__ZL11vec2_origin
__ZL11vec4_origin
__ZL11vec4_origin
__ZL11vec4_origin
__ZL11vec4_origin
__ZL11vec4_origin
__ZL11vec4_origin
__ZL11vec4_origin
__ZL11vec4_origin
__ZL12g_DeviceType
__ZL12g_pLastIndex
__ZL12s_LockedRect
__ZL12s_bConnected
__ZL12vec2_invalid
__ZL12vec2_invalid
__ZL12vec2_invalid
__ZL12vec2_invalid
__ZL12vec2_invalid
__ZL12vec2_invalid
__ZL12vec2_invalid
__ZL12vec2_invalid
__ZL12vec2_invalid
__ZL12vec2_invalid
__ZL12vec2_invalid
__ZL12vec2_invalid
__ZL12vec2_invalid
__ZL12vec2_invalid
__ZL12vec4_invalid
__ZL12vec4_invalid
__ZL12vec4_invalid
__ZL12vec4_invalid
__ZL12vec4_invalid
__ZL12vec4_invalid
__ZL12vec4_invalid
__ZL12vec4_invalid
__ZL13g_pLastVertex
__ZL13r_shader_srgb
__ZL13s_EmptyConVar
__ZL13s_TempFactory
__ZL13s_bMMXEnabled
__ZL13s_bRegistered
__ZL13s_bSSEEnabled
__ZL14GetImageFormatP21IDirect3DBaseTexture9
__ZL14g_DeviceFormat
__ZL14g_NumClipVerts
__ZL14g_ShaderAPIDX8
__ZL14g_ShaderShadow
__ZL14g_bSupportsD16
__ZL14lineartoscreen
__ZL14s_TextureCount
__ZL14s_bSSE2Enabled
__ZL15BlitTextureBitsR17TextureLoadInfo_tiii
__ZL15g_LastVertexIdx
__ZL15lineartotexture
__ZL15mat_shadercountRK8CCommand
__ZL15s_LockedSrcRect
__ZL15s_ShaderManager
__ZL15texturetolinear
__ZL16LzmaDec_TryDummyPK8CLzmaDecPKhm
__ZL16OverrideValues_RP9KeyValuesS0_
__ZL16g_D3DColorFormat
__ZL16g_DisplayAdapter
__ZL16g_bSupportsD15S1
__ZL16g_bSupportsD24S8
__ZL16g_bSupportsD24X8
__ZL16g_bUsingVertexID
__ZL16g_pLastColorMesh
__ZL16g_pStaticLZMABuf
__ZL16mat_forcedynamic
__ZL16mem_dumpvballocs
__ZL16s_HardwareConfig
__ZL16s_VertexDeclDict
__ZL16s_nDLLIdentifier
__ZL17AdjustUpdateRangePKfPKviPi
__ZL17CommitFlexWeightsP16IDirect3DDevice9RK14DynamicState_tRS1_b
__ZL17TestTextureFormat10_D3DFORMATbbb
__ZL17g_ImageFormatInfo
__ZL17g_nLastVertStride
__ZL17mat_alphacoverage
__ZL17s_DefaultAccessor
__ZL18CC_DumpVBMemAllocsv
__ZL18CommitSetViewportsP16IDirect3DDevice9RK14DynamicState_tRS1_b
__ZL18VertexDeclLessFuncRK18VertexDeclLookup_tS1_
__ZL18g_LastVertexFormat
__ZL18g_bSupportsD24X4S4
__ZL18g_pLastIndexBuffer
__ZL18mat_disablehwmorph
__ZL18mat_force_ps_patch
__ZL18r_pix_recordframes
__ZL19LzmaDec_DecodeReal2P8CLzmaDecmPKh
__ZL19g_pLastVertexBuffer
__ZL20CommitSetScissorRectP16IDirect3DDevice9RK14DynamicState_tRS1_b
__ZL20CommitVertexTexturesP16IDirect3DDevice9RK14DynamicState_tRS1_b
__ZL20CreateD3DPixelShaderPjjiPKcPc
__ZL20g_CleanupSymbolTable
__ZL20g_ShaderDeviceMgrDx8
__ZL20g_unStaticLZMABufRef
__ZL20mat_disable_ps_patch
__ZL21g_nScratchIndexBuffer
__ZL21g_unStaticLZMABufSize
__ZL21s_LastFileLoadingFrom
__ZL22g_DX8LightCombinations
__ZL23g_Mathlib_GammaToLinear
__ZL23g_Mathlib_LinearToGamma
__ZL23mat_remoteshadercompile
__ZL23mat_shadercount_command
__ZL24ClipTriangleAgainstPlanePP11D3DXVECTOR3iS1_ifb
__ZL24g_nLastVertOffsetInBytes
__ZL24s_NumPixelShadersCreated
__ZL25s_NumVertexShadersCreated
__ZL29mat_spewvertexandpixelshadersRK8CCommand
__ZL2f3
__ZL31ccs_create_convar_from_hwconfigI11ImageFormatEvRKT_PKc
__ZL31ccs_create_convar_from_hwconfigI9HDRType_tEvRKT_PKc
__ZL31ccs_create_convar_from_hwconfigIbEvRKT_PKc
__ZL31ccs_create_convar_from_hwconfigIfEvRKT_PKc
__ZL31ccs_create_convar_from_hwconfigIiEvRKT_PKc
__ZL31ccs_create_convar_from_hwconfigImEvRKT_PKc
__ZL32ccs_create_convars_from_hwconfigRK8CCommand
__ZL33g_nLastColorMeshVertOffsetInBytes
__ZL35s_pConversionArrays_NoEscConversion
__ZL37__g_CreateCShaderAPIDx8IShaderAPI_reg
__ZL37mat_spewvertexandpixelshaders_command
__ZL3f05
__ZL40__g_CreateCShaderAPIDx8IShaderDevice_reg
__ZL40ccs_create_convars_from_hwconfig_command
__ZL40s_pConversionArrays_StringCharConversion
__ZL41__CreateCShaderAPIDx8IShaderAPI_interfacev
__ZL43__g_CreateCShaderShadowDX8IShaderShadow_reg
__ZL44__CreateCShaderAPIDx8IShaderDevice_interfacev
__ZL44__g_CreateCShaderAPIDx8IDebugTextureInfo_reg
__ZL44__g_CreateCVBAllocTrackerIVBAllocTracker_reg
__ZL47__CreateCShaderShadowDX8IShaderShadow_interfacev
__ZL48__CreateCShaderAPIDx8IDebugTextureInfo_interfacev
__ZL48__CreateCVBAllocTrackerIVBAllocTracker_interfacev
__ZL49__g_CreateCShaderDeviceMgrDx8IShaderDeviceMgr_reg
__ZL53__CreateCShaderDeviceMgrDx8IShaderDeviceMgr_interfacev
__ZL58__g_CreateCHardwareConfigIMaterialSystemHardwareConfig_reg
__ZL62__CreateCHardwareConfigIMaterialSystemHardwareConfig_interfacev
__ZL6AddKeyP9KeyValuesS0_
__ZL6SzFreePvS_
__ZL7SzAllocPvm
__ZL7g_Alloc
__ZL9g_KVMutex
__ZL9g_MeshMgr
__ZN10CUtlBuffer11GetOverflowEi
__ZN10CUtlBuffer11PutOverflowEi
__ZN10CUtlBuffer12AssumeMemoryEPviii
__ZN10CUtlBuffer13EatCPPCommentEv
__ZN10CUtlBuffer13EatWhiteSpaceEv
__ZN10CUtlBuffer14EnsureCapacityEi
__ZN10CUtlBuffer14PeekWhiteSpaceEi
__ZN10CUtlBuffer15PeekStringMatchEiPKci
__ZN10CUtlBuffer16PeekStringLengthEv
__ZN10CUtlBuffer17GetStringInternalEPcm
__ZN10CUtlBuffer18AddNullTerminationEv
__ZN10CUtlBuffer18GetDelimitedStringEP18CUtlCharConversionPci
__ZN10CUtlBuffer21CheckArbitraryPeekGetEiRi
__ZN10CUtlBuffer24GetDelimitedCharInternalEP18CUtlCharConversion
__ZN10CUtlBuffer3PutEPKvi
__ZN10CUtlBuffer5ScanfEPKcz
__ZN10CUtlBuffer7PeekGetEii
__ZN10CUtlBuffer7SeekGetENS_10SeekType_tEi
__ZN10CUtlBuffer7VaScanfEPKcPc
__ZN10CUtlBufferC1EPKvii
__ZN10CUtlBufferC1Eiii
__ZN10CUtlBufferC2EPKvii
__ZN10CUtlBufferC2Eiii
__ZN10CUtlMemoryI15UtlRBTreeNode_tIN15CUtlSymbolTable16CStringPoolIndexEtEtE4GrowEi
__ZN10CUtlRBTreeI18VertexDeclLookup_tiPFbRKS0_S2_E10CUtlMemoryI15UtlRBTreeNode_tIS0_iEiEE15InsertRebalanceEi
__ZN10CUtlRBTreeI18VertexDeclLookup_tiPFbRKS0_S2_E10CUtlMemoryI15UtlRBTreeNode_tIS0_iEiEE6InsertES2_
__ZN10CUtlRBTreeI18VertexDeclLookup_tiPFbRKS0_S2_E10CUtlMemoryI15UtlRBTreeNode_tIS0_iEiEE7NewNodeEv
__ZN10CUtlRBTreeI18VertexDeclLookup_tiPFbRKS0_S2_E10CUtlMemoryI15UtlRBTreeNode_tIS0_iEiEED1Ev
__ZN10CUtlRBTreeI18VertexDeclLookup_tiPFbRKS0_S2_E10CUtlMemoryI15UtlRBTreeNode_tIS0_iEiEED2Ev
__ZN10CUtlRBTreeIN15CUtlSymbolTable16CStringPoolIndexEtNS0_5CLessE10CUtlMemoryI15UtlRBTreeNode_tIS1_tEtEE10RotateLeftEt
__ZN10CUtlRBTreeIN15CUtlSymbolTable16CStringPoolIndexEtNS0_5CLessE10CUtlMemoryI15UtlRBTreeNode_tIS1_tEtEE11RotateRightEt
__ZN10CUtlRBTreeIN15CUtlSymbolTable16CStringPoolIndexEtNS0_5CLessE10CUtlMemoryI15UtlRBTreeNode_tIS1_tEtEE15InsertRebalanceEt
__ZN10CUtlRBTreeIN15CUtlSymbolTable16CStringPoolIndexEtNS0_5CLessE10CUtlMemoryI15UtlRBTreeNode_tIS1_tEtEE5PurgeEv
__ZN10CUtlRBTreeIN15CUtlSymbolTable16CStringPoolIndexEtNS0_5CLessE10CUtlMemoryI15UtlRBTreeNode_tIS1_tEtEE6InsertERKS1_
__ZN10CUtlRBTreeIN15CUtlSymbolTable16CStringPoolIndexEtNS0_5CLessE10CUtlMemoryI15UtlRBTreeNode_tIS1_tEtEE7NewNodeEv
__ZN10CUtlRBTreeIN15CUtlSymbolTable16CStringPoolIndexEtNS0_5CLessE10CUtlMemoryI15UtlRBTreeNode_tIS1_tEtEED2Ev
__ZN10CUtlString12GetForModifyEv
__ZN10CUtlString3SetEPKc
__ZN10CUtlString5PurgeEv
__ZN10CUtlStringaSEPKc
__ZN10CUtlSymbol10InitializeEv
__ZN10CUtlSymbol14s_pSymbolTableE
__ZN10CUtlSymbolC1EPKc
__ZN10CUtlVectorI10CUtlString10CUtlMemoryIS0_iEE12InsertBeforeEiRKS0_
__ZN10CUtlVectorI13ShadowState_t10CUtlMemoryIS0_iEED2Ev
__ZN10CUtlVectorI19StaticComboRecord_t10CUtlMemoryIS0_iEE20InsertMultipleBeforeEii
__ZN10CUtlVectorI19StaticComboRecord_t10CUtlMemoryIS0_iEED2Ev
__ZN10CUtlVectorI24StaticComboAliasRecord_t10CUtlMemoryIS0_iEE20InsertMultipleBeforeEii
__ZN10CUtlVectorI24StaticComboAliasRecord_t10CUtlMemoryIS0_iEED2Ev
__ZN10CUtlVectorIN16CTransitionTable14TransitionOp_tE10CUtlMemoryIS1_iEE9AddToTailEv
__ZN10CUtlVectorIN16CTransitionTable14TransitionOp_tE10CUtlMemoryIS1_iEED2Ev
__ZN10CUtlVectorIN16CTransitionTable16TransitionList_tE10CUtlMemoryIS1_iEE10GrowVectorEi
__ZN10CUtlVectorIN16CTransitionTable16TransitionList_tE10CUtlMemoryIS1_iEED2Ev
__ZN10CUtlVectorIN16CTransitionTable19SnapshotDictEntry_tE10CUtlMemoryIS1_iEED2Ev
__ZN10CUtlVectorIN16CTransitionTable21SnapshotShaderState_tE10CUtlMemoryIS1_iEED2Ev
__ZN10CUtlVectorIN16CTransitionTable22ShadowStateDictEntry_tE10CUtlMemoryIS1_iEED2Ev
__ZN10CUtlVectorIN20CShaderDeviceMgrBase13AdapterInfo_tE10CUtlMemoryIS1_iEED2Ev
__ZN10CUtlVectorIN8CMeshMgr20VertexBufferLookup_tE10CUtlMemoryIS1_iEED2Ev
__ZN10CUtlVectorIP9KeyValues10CUtlMemoryIS1_iEE10GrowVectorEi
__ZN10CUtlVectorIP9KeyValues10CUtlMemoryIS1_iEED2Ev
__ZN10CUtlVectorIPFvP16IDirect3DDevice9RK14DynamicState_tRS2_bE10CUtlMemoryIS7_iEED2Ev
__ZN10CUtlVectorIPFvvE10CUtlMemoryIS1_iEED2Ev
__ZN10CUtlVectorIPN15CUtlSymbolTable12StringPool_tE10CUtlMemoryIS2_iEED2Ev
__ZN10CUtlVectorIS_IN16CTransitionTable16TransitionList_tE10CUtlMemoryIS1_iEES2_IS4_iEED2Ev
__ZN10CUtlVectorIh10CUtlMemoryIhiEE20InsertMultipleBeforeEii
__ZN10CUtlVectorIh10CUtlMemoryIhiEED1Ev
__ZN10CUtlVectorIh10CUtlMemoryIhiEED2Ev
__ZN10CUtlVectorIh17CUtlMemoryAlignedIhLi32EEE20InsertMultipleBeforeEii
__ZN10CUtlVectorIt10CUtlMemoryItiEE20InsertMultipleBeforeEii
__ZN10CUtlVectorIt10CUtlMemoryItiEED2Ev
__ZN10CVProfNode10EnterScopeEv
__ZN10CVProfNode10GetSubNodeEPKciS1_i
__ZN10CVProfNode9ExitScopeEv
__ZN10ConCommand15CanAutoCompleteEv
__ZN10ConCommand19AutoCompleteSuggestEPKcR10CUtlVectorI10CUtlString10CUtlMemoryIS3_iEE
__ZN10ConCommand8DispatchERK8CCommand
__ZN10ConCommandC1EPKcPFvRK8CCommandES1_iPFiS1_PA64_cE
__ZN10ConCommandC1EPKcPFvvES1_iPFiS1_PA64_cE
__ZN10ConCommandD0Ev
__ZN10ConCommandD1Ev
__ZN10D3DXMATRIXclEii
__ZN10D3DXMATRIXcvPfEv
__ZN10IDirect3D912CreateDeviceEj11_D3DDEVTYPEPvjP23_D3DPRESENT_PARAMETERS_PP16IDirect3DDevice9
__ZN10IDirect3D913GetDeviceCapsEj11_D3DDEVTYPEP9_D3DCAPS9
__ZN10IDirect3D915CheckDeviceTypeEj11_D3DDEVTYPE10_D3DFORMATS1_i
__ZN10IDirect3D915GetAdapterCountEv
__ZN10IDirect3D916EnumAdapterModesEj10_D3DFORMATjP15_D3DDISPLAYMODE
__ZN10IDirect3D917CheckDeviceFormatEj11_D3DDEVTYPE10_D3DFORMATj16_D3DRESOURCETYPES1_
__ZN10IDirect3D919GetAdapterModeCountEj10_D3DFORMAT
__ZN10IDirect3D920GetAdapterIdentifierEjjP23_D3DADAPTER_IDENTIFIER9
__ZN10IDirect3D921GetAdapterDisplayModeEjP15_D3DDISPLAYMODE
__ZN10IDirect3D922CheckDepthStencilMatchEj11_D3DDEVTYPE10_D3DFORMATS1_S1_
__ZN10IDirect3D926CheckDeviceMultiSampleTypeEj11_D3DDEVTYPE10_D3DFORMATi20_D3DMULTISAMPLE_TYPEPj
__ZN11D3DXVECTOR2cvPfEv
__ZN11D3DXVECTOR3C1Efff
__ZN11D3DXVECTOR3cvPfEv
__ZN11D3DXVECTOR4C1Effff
__ZN11ID3DXBuffer13GetBufferSizeEv
__ZN11ID3DXBuffer16GetBufferPointerEv
__ZN11ImageLoader14GetMemRequiredEiii11ImageFormatb
__ZN11ImageLoader15ImageFormatInfoE11ImageFormat
__ZN11ImageLoader22D3DFormatToImageFormatE10_D3DFORMAT
__ZN11ImageLoader22ImageFormatToD3DFormatE11ImageFormat
__ZN12CBaseMeshDX811MarkAsDrawnEv
__ZN12CBaseMeshDX811ModifyBeginEbiiR11IndexDesc_t
__ZN12CBaseMeshDX811ModifyBeginEiiiiR10MeshDesc_t
__ZN12CBaseMeshDX811SetFlexMeshEP5IMeshi
__ZN12CBaseMeshDX811SetMaterialEP9IMaterial
__ZN12CBaseMeshDX812SetColorMeshEP5IMeshi
__ZN12CBaseMeshDX812ValidateDataEiRK11IndexDesc_t
__ZN12CBaseMeshDX812ValidateDataEiRK12VertexDesc_t
__ZN12CBaseMeshDX812ValidateDataEiiRK10MeshDesc_t
__ZN12CBaseMeshDX813EndCastBufferEv
__ZN12CBaseMeshDX813ModifyBeginExEbiiiiR10MeshDesc_t
__ZN12CBaseMeshDX814GetIndexBufferEv
__ZN12CBaseMeshDX814SetMorphFormatEj
__ZN12CBaseMeshDX815BeginCastBufferE21MaterialIndexFormat_t
__ZN12CBaseMeshDX815BeginCastBufferEy
__ZN12CBaseMeshDX815DisableFlexMeshEv
__ZN12CBaseMeshDX815GetVertexBufferEv
__ZN12CBaseMeshDX815SetVertexFormatEy
__ZN12CBaseMeshDX817ComputeMemoryUsedEv
__ZN12CBaseMeshDX817CopyToMeshBuilderEiiiiiR12CMeshBuilder
__ZN12CBaseMeshDX84DrawEP9CPrimListi
__ZN12CBaseMeshDX84LockEibR11IndexDesc_t
__ZN12CBaseMeshDX84LockEibR12VertexDesc_t
__ZN12CBaseMeshDX84SpewEiRK11IndexDesc_t
__ZN12CBaseMeshDX84SpewEiRK12VertexDesc_t
__ZN12CBaseMeshDX84SpewEiiRK10MeshDesc_t
__ZN12CBaseMeshDX86UnlockEiR11IndexDesc_t
__ZN12CBaseMeshDX86UnlockEiR12VertexDesc_t
__ZN12CBaseMeshDX87PreLockEv
__ZN12CBaseMeshDX89BeginPassEv
__ZN12CBaseMeshDX89ModifyEndER10MeshDesc_t
__ZN12CBaseMeshDX89ModifyEndER11IndexDesc_t
__ZN12CEmptyConVar8SetValueEPKc
__ZN12CEmptyConVar8SetValueEf
__ZN12CEmptyConVar8SetValueEi
__ZN12CEmptyConVarD0Ev
__ZN12CEmptyConVarD1Ev
__ZN12CIndexBuffer26HandlePerFrameTextureStatsEi
__ZN12CIndexBuffer4LockEbiRii
__ZN12CIndexBuffer6CreateEP16IDirect3DDevice9
__ZN12CPixelWriter14SetPixelMemoryE11ImageFormatPvi
__ZN12CRefCounted1I8CFunctor20CRefCountServiceBaseILb1E6CRefMTEE6AddRefEv
__ZN12CRefCounted1I8CFunctor20CRefCountServiceBaseILb1E6CRefMTEE7ReleaseEv
__ZN12CTempMeshDX810RenderPassEv
__ZN12CTempMeshDX810UnlockMeshEiiR10MeshDesc_t
__ZN12CTempMeshDX811ModifyBeginEiiiiR10MeshDesc_t
__ZN12CTempMeshDX812ClipTriangleEPP11D3DXVECTOR3fR10D3DXMATRIX
__ZN12CTempMeshDX812s_FirstIndexE
__ZN12CTempMeshDX812s_NumIndicesE
__ZN12CTempMeshDX813ModifyBeginExEbiiiiR10MeshDesc_t
__ZN12CTempMeshDX813TestSelectionEv
__ZN12CTempMeshDX815SetVertexFormatEy
__ZN12CTempMeshDX816SetPrimitiveTypeE23MaterialPrimitiveType_t
__ZN12CTempMeshDX817CopyToMeshBuilderEiiiiiR12CMeshBuilder
__ZN12CTempMeshDX818HandleLateCreationEv
__ZN12CTempMeshDX84DrawEii
__ZN12CTempMeshDX88LockMeshEiiR10MeshDesc_t
__ZN12CTempMeshDX89BeginPassEv
__ZN12CTempMeshDX89ModifyEndER10MeshDesc_t
__ZN12CTempMeshDX8D0Ev
__ZN12CTempMeshDX8D1Ev
__ZN12CTempMeshDX8D2Ev
__ZN12CThreadEvent3SetEv
__ZN12CThreadEventC1Eb
__ZN12InterfaceReg16s_pInterfaceRegsE
__ZN12InterfaceRegC1EPFPvvEPKc
__ZN13CShaderAPIDx810ApplyZBiasERK13ShadowState_t
__ZN13CShaderAPIDx810BeginFrameEv
__ZN13CShaderAPIDx810LoadMatrixEPf
__ZN13CShaderAPIDx810MatrixModeE20MaterialMatrixMode_t
__ZN13CShaderAPIDx810MultMatrixEPf
__ZN13CShaderAPIDx810PickMatrixEiiii
__ZN13CShaderAPIDx810PushMatrixEv
__ZN13CShaderAPIDx810ReadPixelsEP6Rect_tS1_Ph11ImageFormati
__ZN13CShaderAPIDx810ReadPixelsEiiiiPh11ImageFormat
__ZN13CShaderAPIDx810RenderPassEii
__ZN13CShaderAPIDx810ShaderLockEv
__ZN13CShaderAPIDx810TexImage2DEii11ImageFormatiiiS0_bPv
__ZN13CShaderAPIDx810TexLodBiasEf
__ZN13CShaderAPIDx810UnlockRectEii
__ZN13CShaderAPIDx811BindTextureE9Sampler_ti
__ZN13CShaderAPIDx811EndPIXEventEv
__ZN13CShaderAPIDx811GetFlexMeshEv
__ZN13CShaderAPIDx811TexLodClampEi
__ZN13CShaderAPIDx812ApplyFogModeE15ShaderFogMode_tbb
__ZN13CShaderAPIDx812ClearBuffersEbbbii
__ZN13CShaderAPIDx812LoadIdentityEv
__ZN13CShaderAPIDx812OnAdapterSetEv
__ZN13CShaderAPIDx812OnDeviceInitEv
__ZN13CShaderAPIDx812PerspectiveXEdddd
__ZN13CShaderAPIDx812SceneFogModeE17MaterialFogMode_t
__ZN13CShaderAPIDx812SetClipPlaneEiPKf
__ZN13CShaderAPIDx812SetPIXMarkerEmPKc
__ZN13CShaderAPIDx812SetViewportsEiPK16ShaderViewport_t
__ZN13CShaderAPIDx812ShaderUnlockEv
__ZN13CShaderAPIDx812TakeSnapshotEv
__ZN13CShaderAPIDx812TexMagFilterE21ShaderTexFilterMode_t
__ZN13CShaderAPIDx812TexMinFilterE21ShaderTexFilterMode_t
__ZN13CShaderAPIDx813AddCommitFuncE16CommitFuncType_t18CommitShaderType_tPFvP16IDirect3DDevice9RK14DynamicState_tRS4_bE
__ZN13CShaderAPIDx813BeginPIXEventEmPKc
__ZN13CShaderAPIDx813ClearColor3ubEhhh
__ZN13CShaderAPIDx813ClearColor4ubEhhhh
__ZN13CShaderAPIDx813CreateTextureEiii11ImageFormatiiiPKcS2_
__ZN13CShaderAPIDx813DeleteTextureEi
__ZN13CShaderAPIDx813FlushHardwareEv
__ZN13CShaderAPIDx813FogMaxDensityEf
__ZN13CShaderAPIDx813GetD3DTextureEi
__ZN13CShaderAPIDx813ModifyTextureEi
__ZN13CShaderAPIDx813SelectionModeEb
__ZN13CShaderAPIDx813SetVertexDeclEybbb
__ZN13CShaderAPIDx813TexSubImage2DEiiiiiii11ImageFormatibPv
__ZN13CShaderAPIDx814ClearSnapshotsEv
__ZN13CShaderAPIDx814CreateTexturesEPiiiii11ImageFormatiiiPKcS3_
__ZN13CShaderAPIDx814EnableFastClipEb
__ZN13CShaderAPIDx814GetDynamicMeshEP9IMaterialibP5IMeshS3_
__ZN13CShaderAPIDx814GetMaxToRenderEP5IMeshbPiS2_
__ZN13CShaderAPIDx814LoadBoneMatrixEiPKf
__ZN13CShaderAPIDx814PopDeformationEv
__ZN13CShaderAPIDx814SetFlexWeightsEiiPK13MorphWeight_t
__ZN13CShaderAPIDx814SetHeightClipZEf
__ZN13CShaderAPIDx814SetRasterStateERK19ShaderRasterState_t
__ZN13CShaderAPIDx814SetScissorRectEiiiib
__ZN13CShaderAPIDx814SupportsFetch4Ev
__ZN13CShaderAPIDx814TexSetPriorityEi
__ZN13CShaderAPIDx815AdvancePIXFrameEv
__ZN13CShaderAPIDx815ApplyCullEnableEb
__ZN13CShaderAPIDx815BindIndexBufferEP12IIndexBufferi
__ZN13CShaderAPIDx815BindPixelShaderEP21PixelShaderHandle_t__
__ZN13CShaderAPIDx815CallCommitFuncsE16CommitFuncType_tbb
__ZN13CShaderAPIDx815ChangeVideoModeERK18ShaderDeviceInfo_t
__ZN13CShaderAPIDx815ComputeFillRateEv
__ZN13CShaderAPIDx815EnableClipPlaneEib
__ZN13CShaderAPIDx815GetFogDistancesEPfS0_S0_
__ZN13CShaderAPIDx815GetSceneFogModeEv
__ZN13CShaderAPIDx815MultMatrixLocalEPf
__ZN13CShaderAPIDx815OwnGPUResourcesEb
__ZN13CShaderAPIDx815PushDeformationEPK17DeformationBase_t
__ZN13CShaderAPIDx815SelectionBufferEPji
__ZN13CShaderAPIDx815SetAmbientLightEfff
__ZN13CShaderAPIDx815SetDefaultStateEv
__ZN13CShaderAPIDx815SetRenderTargetEii
__ZN13CShaderAPIDx815SetTextureStateE9Sampler_tib
__ZN13CShaderAPIDx815TexImageFromVTFEP11IVTFTexturei
__ZN13CShaderAPIDx816BindVertexBufferEiP13IVertexBufferiiiyi
__ZN13CShaderAPIDx816BindVertexShaderEP22VertexShaderHandle_t__
__ZN13CShaderAPIDx816CompareSnapshotsEss
__ZN13CShaderAPIDx816ComputeStatsInfoEibb
__ZN13CShaderAPIDx816DeleteD3DTextureEi
__ZN13CShaderAPIDx816EnableHWMorphingEb
__ZN13CShaderAPIDx816EnabledSRGBWriteEb
__ZN13CShaderAPIDx816GetBoundMaterialEv
__ZN13CShaderAPIDx816GetBufferedStateER15BufferedState_t
__ZN13CShaderAPIDx816GetDynamicMeshExEP9IMaterialyibP5IMeshS3_
__ZN13CShaderAPIDx816GetPixelFogComboEv
__ZN13CShaderAPIDx816GetSceneFogColorEPh
__ZN13CShaderAPIDx816HandleDeviceLostEv
__ZN13CShaderAPIDx816ModifyVertexDataEv
__ZN13CShaderAPIDx816OnDeviceShutdownEv
__ZN13CShaderAPIDx816PopSelectionNameEv
__ZN13CShaderAPIDx816ResetRenderStateEb
__ZN13CShaderAPIDx816SceneFogColor3ubEhhh
__ZN13CShaderAPIDx816SetBumpEnvMatrixE14TextureStage_tffff
__ZN13CShaderAPIDx816SetCullModeStateEb8_D3DCULL
__ZN13CShaderAPIDx816SetFastClipPlaneEPKf
__ZN13CShaderAPIDx816SetPSNearAndFarZEi
__ZN13CShaderAPIDx816SetStencilEnableEb
__ZN13CShaderAPIDx816SupportsCSAAModeEii
__ZN13CShaderAPIDx816SupportsMSAAModeEi
__ZN13CShaderAPIDx817BindVertexTextureE22VertexTextureSampler_ti
__ZN13CShaderAPIDx817DeleteAllTexturesEv
__ZN13CShaderAPIDx817ExportTextureListEv
__ZN13CShaderAPIDx817ForceHardwareSyncEv
__ZN13CShaderAPIDx817GetRenderTargetExEi
__ZN13CShaderAPIDx817IsTextureResidentEi
__ZN13CShaderAPIDx817LoadCameraToWorldEv
__ZN13CShaderAPIDx817LoadSelectionNameEi
__ZN13CShaderAPIDx817PushSelectionNameEi
__ZN13CShaderAPIDx817SetDisallowAccessEb
__ZN13CShaderAPIDx817SetHeightClipModeE24MaterialHeightClipMode_t
__ZN13CShaderAPIDx817SetLightingOriginE6Vector
__ZN13CShaderAPIDx817SetNumBoneWeightsEi
__ZN13CShaderAPIDx817SetRenderTargetExEiii
__ZN13CShaderAPIDx817SetupTextureGroupEiPKc
__ZN13CShaderAPIDx817UserClipTransformERK7VMatrix
__ZN13CShaderAPIDx818AdvanceCurrentCopyEi
__ZN13CShaderAPIDx818ApplyTextureEnableERK13ShadowState_ti
__ZN13CShaderAPIDx818BindGeometryShaderEP24GeometryShaderHandle_t__
__ZN13CShaderAPIDx818CommitStateChangesEv
__ZN13CShaderAPIDx818CreateDepthTextureE11ImageFormatiiPKcb
__ZN13CShaderAPIDx818CreateMatrixStacksEv
__ZN13CShaderAPIDx818GetBackBufferImageEP6Rect_tS1_R11ImageFormat
__ZN13CShaderAPIDx818GetDXLevelDefaultsERjS0_
__ZN13CShaderAPIDx818ResetDXRenderStateEv
__ZN13CShaderAPIDx818SetFlashlightStateERK17FlashlightState_tRK7VMatrix
__ZN13CShaderAPIDx818SetStencilTestMaskEj
__ZN13CShaderAPIDx819BindStandardTextureE9Sampler_t19StandardTextureId_t
__ZN13CShaderAPIDx819ClearSelectionNamesEv
__ZN13CShaderAPIDx819CommitFastClipPlaneEv
__ZN13CShaderAPIDx819GetActualClearColorEj
__ZN13CShaderAPIDx819GetBoundMorphFormatEv
__ZN13CShaderAPIDx819GetDebugTextureListEv
__ZN13CShaderAPIDx819OverrideDepthEnableEbb
__ZN13CShaderAPIDx819SetAmbientLightCubeEP8Vector4D
__ZN13CShaderAPIDx819SetAnisotropicLevelEi
__ZN13CShaderAPIDx819SetPixelShaderIndexEi
__ZN13CShaderAPIDx819SetSkinningMatricesEv
__ZN13CShaderAPIDx819SetStencilWriteMaskEj
__ZN13CShaderAPIDx819SetVertexBlendStateEi
__ZN13CShaderAPIDx820ApplyAlphaToCoverageEb
__ZN13CShaderAPIDx820CommitUserClipPlanesEb
__ZN13CShaderAPIDx820CopyTextureToTextureEii
__ZN13CShaderAPIDx820CreateTextureHandlesEPii
__ZN13CShaderAPIDx820DestroyVertexBuffersEb
__ZN13CShaderAPIDx820EnableGetAllTexturesEb
__ZN13CShaderAPIDx820ExecuteCommandBufferEPh
__ZN13CShaderAPIDx820ForceDepthFuncEqualsEb
__ZN13CShaderAPIDx820GetNullTextureFormatEv
__ZN13CShaderAPIDx820GetTextureMemoryUsedEN17IDebugTextureInfo17TextureMemoryTypeE
__ZN13CShaderAPIDx820RegisterSelectionHitEff
__ZN13CShaderAPIDx820ReleaseShaderObjectsEv
__ZN13CShaderAPIDx820RestoreShaderObjectsEv
__ZN13CShaderAPIDx820SetFlashlightStateExERK17FlashlightState_tRK7VMatrixP8ITexture
__ZN13CShaderAPIDx820SetVertexShaderIndexEi
__ZN13CShaderAPIDx821DXSupportLevelChangedEv
__ZN13CShaderAPIDx821DetermineHardwareCapsEv
__ZN13CShaderAPIDx821DisableAllLocalLightsEv
__ZN13CShaderAPIDx821EnableAlphaToCoverageEv
__ZN13CShaderAPIDx821EvictManagedResourcesEv
__ZN13CShaderAPIDx821GetBackBufferImageHDREP6Rect_tS1_R11ImageFormat
__ZN13CShaderAPIDx821GetLightmapDimensionsEPiS0_
__ZN13CShaderAPIDx821GetMaxIndicesToRenderEv
__ZN13CShaderAPIDx821PerspectiveOffCenterXEdddddddd
__ZN13CShaderAPIDx821QueueResetRenderStateEv
__ZN13CShaderAPIDx821UpdateMatrixTransformE15TransformType_t
__ZN13CShaderAPIDx822AcquireThreadOwnershipEv
__ZN13CShaderAPIDx822AddBufferToTextureListEPKcR16_D3DSURFACE_DESC
__ZN13CShaderAPIDx822DisableAlphaToCoverageEv
__ZN13CShaderAPIDx822EnableDebugTextureListEb
__ZN13CShaderAPIDx822GetMaxVerticesToRenderEP9IMaterial
__ZN13CShaderAPIDx822GetVertexModifyBuilderEv
__ZN13CShaderAPIDx822MarkUnusedVertexFieldsEjiPb
__ZN13CShaderAPIDx822ReleaseThreadOwnershipEv
__ZN13CShaderAPIDx822SetPixelShaderConstantEiPKfib
__ZN13CShaderAPIDx823ClearBuffersObeyStencilEbb
__ZN13CShaderAPIDx823DisableTextureTransformE14TextureStage_t
__ZN13CShaderAPIDx823EnableShaderShaderMutexEb
__ZN13CShaderAPIDx823FlushBufferedPrimitivesEv
__ZN13CShaderAPIDx823GetCurrentDynamicVBSizeEv
__ZN13CShaderAPIDx823IsDebugTextureListFreshEi
__ZN13CShaderAPIDx823SetPixelShaderFogParamsEi
__ZN13CShaderAPIDx823SetStencilFailOperationE18StencilOperation_t
__ZN13CShaderAPIDx823SetStencilPassOperationE18StencilOperation_t
__ZN13CShaderAPIDx823SetVertexShaderConstantEiPKfib
__ZN13CShaderAPIDx823SetVertexShaderViewProjEv
__ZN13CShaderAPIDx824EnableBuffer2FramesAheadEb
__ZN13CShaderAPIDx824EndOcclusionQueryDrawingEP27ShaderAPIOcclusionQuery_t__
__ZN13CShaderAPIDx824OverrideAlphaWriteEnableEbb
__ZN13CShaderAPIDx824OverrideColorWriteEnableEbb
__ZN13CShaderAPIDx824SetDebugTextureRenderingEb
__ZN13CShaderAPIDx824SetIntRenderingParameterEii
__ZN13CShaderAPIDx824SetStandardTextureHandleE19StandardTextureId_ti
__ZN13CShaderAPIDx824SetStencilReferenceValueEi
__ZN13CShaderAPIDx824SetStencilZFailOperationE18StencilOperation_t
__ZN13CShaderAPIDx825BindStandardVertexTextureE22VertexTextureSampler_t19StandardTextureId_t
__ZN13CShaderAPIDx825ClearBuffersObeyStencilExEbbb
__ZN13CShaderAPIDx825CommitPerPassStateChangesEs
__ZN13CShaderAPIDx825CommitPixelShaderLightingEi
__ZN13CShaderAPIDx825CopyRenderTargetToTextureEi
__ZN13CShaderAPIDx825InitVertexAndPixelShadersEv
__ZN13CShaderAPIDx825SetShadowDepthBiasFactorsEff
__ZN13CShaderAPIDx825SetStencilCompareFunctionE27StencilComparisonFunction_t
__ZN13CShaderAPIDx825SetToneMappingScaleLinearERK6Vector
__ZN13CShaderAPIDx826BeginOcclusionQueryDrawingEP27ShaderAPIOcclusionQuery_t__
__ZN13CShaderAPIDx826CommitVertexShaderLightingEv
__ZN13CShaderAPIDx826CreateOcclusionQueryObjectEv
__ZN13CShaderAPIDx826SetFloatRenderingParameterEif
__ZN13CShaderAPIDx826SetFullScreenTextureHandleEi
__ZN13CShaderAPIDx827ClearStencilBufferRectangleEiiiii
__ZN13CShaderAPIDx827CommitFixedFunctionLightingEv
__ZN13CShaderAPIDx827CopyRenderTargetToTextureExEiiP6Rect_tS1_
__ZN13CShaderAPIDx827CopyTextureToRenderTargetExEiiP6Rect_tS1_
__ZN13CShaderAPIDx827DestroyOcclusionQueryObjectEP27ShaderAPIOcclusionQuery_t__
__ZN13CShaderAPIDx827GetShadowDepthTextureFormatEv
__ZN13CShaderAPIDx827SetVectorRenderingParameterEiRK6Vector
__ZN13CShaderAPIDx827SupportsShadowDepthTexturesEv
__ZN13CShaderAPIDx827UpdatePixelFogColorConstantEv
__ZN13CShaderAPIDx828CommitVertexShaderTransformsEv
__ZN13CShaderAPIDx828GetAmbientLightCubeLuminanceEv
__ZN13CShaderAPIDx828GetStandardTextureDimensionsEPiS0_19StandardTextureId_t
__ZN13CShaderAPIDx828SetTextureTransformDimensionE14TextureStage_tib
__ZN13CShaderAPIDx829CacheWorldSpaceCameraPositionEv
__ZN13CShaderAPIDx829CommitFixedFunctionTransformsEv
__ZN13CShaderAPIDx829ComputeGammaCorrectedFogColorEhhhb
__ZN13CShaderAPIDx829DrawWithVertexAndIndexBuffersEv
__ZN13CShaderAPIDx829EvictManagedResourcesInternalEv
__ZN13CShaderAPIDx829SetBooleanPixelShaderConstantEiPKiib
__ZN13CShaderAPIDx829SetIntegerPixelShaderConstantEiPKiib
__ZN13CShaderAPIDx830SetBooleanVertexShaderConstantEiPKiib
__ZN13CShaderAPIDx830SetIntegerVertexShaderConstantEiPKiib
__ZN13CShaderAPIDx831EnableUserClipTransformOverrideEb
__ZN13CShaderAPIDx832CopyRenderTargetToScratchTextureEiiP6Rect_tS1_
__ZN13CShaderAPIDx832InvalidateDelayedShaderConstantsEv
__ZN13CShaderAPIDx832PurgeUnusedVertexAndPixelShadersEv
__ZN13CShaderAPIDx832SetStandardVertexShaderConstantsEf
__ZN13CShaderAPIDx833EnableLinearColorSpaceFrameBufferEb
__ZN13CShaderAPIDx833PerformFullScreenStencilOperationEv
__ZN13CShaderAPIDx834ClearVertexAndPixelShaderRefCountsEv
__ZN13CShaderAPIDx834SetLinearToGammaConversionTexturesEii
__ZN13CShaderAPIDx835OcclusionQuery_GetNumPixelsRenderedEP27ShaderAPIOcclusionQuery_t__b
__ZN13CShaderAPIDx835SetPixelShaderStateAmbientLightCubeEib
__ZN13CShaderAPIDx836CommitPerPassFixedFunctionTransformsEv
__ZN13CShaderAPIDx836SetVertexShaderStateAmbientLightCubeEv
__ZN13CShaderAPIDx836SetupSelectionModeVisualizationStateEv
__ZN13CShaderAPIDx837SetDepthFeatheringPixelShaderConstantEif
__ZN13CShaderAPIDx840SetVertexShaderModelViewProjAndModelViewEv
__ZN13CShaderAPIDx84BindEP9IMaterial
__ZN13CShaderAPIDx84DrawE23MaterialPrimitiveType_tii
__ZN13CShaderAPIDx84KnobEPcPf
__ZN13CShaderAPIDx85OrthoEdddddd
__ZN13CShaderAPIDx85ScaleEfff
__ZN13CShaderAPIDx86FogEndEf
__ZN13CShaderAPIDx86PrintfEPKcz
__ZN13CShaderAPIDx86RotateEffff
__ZN13CShaderAPIDx87Color3fEfff
__ZN13CShaderAPIDx87Color4fEffff
__ZN13CShaderAPIDx87FogModeE17MaterialFogMode_t
__ZN13CShaderAPIDx87ScaleXYEff
__ZN13CShaderAPIDx87SetFogZEf
__ZN13CShaderAPIDx87SetModeEPviRK18ShaderDeviceInfo_t
__ZN13CShaderAPIDx87TexLockEiiiiiiR12CPixelWriter
__ZN13CShaderAPIDx87TexWrapE25ShaderTexCoordComponent_t19ShaderTexWrapMode_t
__ZN13CShaderAPIDx88Color3fvEPKf
__ZN13CShaderAPIDx88Color3ubEhhh
__ZN13CShaderAPIDx88Color4fvEPKf
__ZN13CShaderAPIDx88Color4ubEhhhh
__ZN13CShaderAPIDx88CullModeE18MaterialCullMode_t
__ZN13CShaderAPIDx88DrawMeshEP9CMeshBase
__ZN13CShaderAPIDx88EndFrameEv
__ZN13CShaderAPIDx88FogStartEf
__ZN13CShaderAPIDx88LockRectEPPvPiiiiiiibb
__ZN13CShaderAPIDx88PrintfVAEPcS0_
__ZN13CShaderAPIDx88SetLightEiRK11LightDesc_t
__ZN13CShaderAPIDx89BeginPassEs
__ZN13CShaderAPIDx89Color3ubvEPKh
__ZN13CShaderAPIDx89Color4ubvEPKh
__ZN13CShaderAPIDx89GetMatrixE20MaterialMatrixMode_tPf
__ZN13CShaderAPIDx89IsTextureEi
__ZN13CShaderAPIDx89PopMatrixEv
__ZN13CShaderAPIDx89ShadeModeE17ShaderShadeMode_t
__ZN13CShaderAPIDx89SyncTokenEPKc
__ZN13CShaderAPIDx89TexUnlockEv
__ZN13CShaderAPIDx89TranslateEfff
__ZN13CShaderAPIDx8C2Ev
__ZN13CShaderAPIDx8D0Ev
__ZN13CShaderAPIDx8D1Ev
__ZN13CShaderAPIDx8D2Ev
__ZN13CShaderBufferI11ID3DXBufferE7ReleaseEv
__ZN13CThreadRWLock11UnlockWriteEv
__ZN13CThreadRWLock11WaitForReadEv
__ZN13CThreadRWLock12LockForWriteEv
__ZN13CVertexBuffer6CreateEP16IDirect3DDevice9
__ZN14CShaderAPIBase25GetCurrentColorCorrectionEP27ShaderColorCorrectionInfo_t
__ZN14CShaderAPIBaseC2Ev
__ZN14CShaderAPIBaseD0Ev
__ZN14CShaderAPIBaseD1Ev
__ZN14CShaderAPIBaseD2Ev
__ZN14CShaderManager13CompileShaderEPKcmS1_
__ZN14CShaderManager14SetPixelShaderEi
__ZN14CShaderManager15BindPixelShaderEP21PixelShaderHandle_t__
__ZN14CShaderManager15LoadShaderCacheEPc
__ZN14CShaderManager15SaveShaderCacheEPc
__ZN14CShaderManager15SetVertexShaderEi
__ZN14CShaderManager16BindVertexShaderEP22VertexShaderHandle_t__
__ZN14CShaderManager16ResetShaderStateEv
__ZN14CShaderManager17CreatePixelShaderEP13IShaderBuffer
__ZN14CShaderManager17CreatePixelShaderEPKciPc
__ZN14CShaderManager17DestroyAllShadersEv
__ZN14CShaderManager18CreateVertexShaderEP13IShaderBuffer
__ZN14CShaderManager18CreateVertexShaderEPKciPc
__ZN14CShaderManager18DestroyPixelShaderEP21PixelShaderHandle_t__
__ZN14CShaderManager18DestroyPixelShaderEi
__ZN14CShaderManager19DestroyVertexShaderEP22VertexShaderHandle_t__
__ZN14CShaderManager19DestroyVertexShaderEi
__ZN14CShaderManager20LoadAndCreateShadersERNS_14ShaderLookup_tEbPc
__ZN14CShaderManager21GetCurrentPixelShaderEv
__ZN14CShaderManager22GetCurrentVertexShaderEv
__ZN14CShaderManager24CreateDynamicCombos_Ver4EPvPh
__ZN14CShaderManager24CreateDynamicCombos_Ver5EPvPhPc
__ZN14CShaderManager25DoStartupShaderPreloadingEv
__ZN14CShaderManager25SpewVertexAndPixelShadersEv
__ZN14CShaderManager32PurgeUnusedVertexAndPixelShadersEv
__ZN14CShaderManager34ClearVertexAndPixelShaderRefCountsEv
__ZN14CShaderManager4InitEv
__ZN14CShaderManager8ShutdownEv
__ZN14CShaderManagerC2Ev
__ZN14CShaderManagerD0Ev
__ZN14CShaderManagerD1Ev
__ZN14CShaderManagerD2Ev
__ZN14CUtlLinkedListI17ShaderFileCache_tiLb1Ei15CUtlFixedMemoryI19UtlLinkedListElem_tIS0_iEEE13AllocInternalEb
__ZN14CUtlLinkedListI17ShaderFileCache_tiLb1Ei15CUtlFixedMemoryI19UtlLinkedListElem_tIS0_iEEE6UnlinkEi
__ZN14CUtlLinkedListI17ShaderFileCache_tiLb1Ei15CUtlFixedMemoryI19UtlLinkedListElem_tIS0_iEEE9RemoveAllEv
__ZN14CUtlLinkedListI9Texture_tiLb1Ei15CUtlFixedMemoryI19UtlLinkedListElem_tIS0_iEEE13AllocInternalEb
__ZN14CUtlLinkedListI9Texture_tiLb1Ei15CUtlFixedMemoryI19UtlLinkedListElem_tIS0_iEEE6UnlinkEi
__ZN14CUtlLinkedListI9Texture_tiLb1Ei15CUtlFixedMemoryI19UtlLinkedListElem_tIS0_iEEE9RemoveAllEv
__ZN14CUtlLinkedListIN14CShaderManager14ShaderLookup_tEiLb1Ei15CUtlFixedMemoryI19UtlLinkedListElem_tIS1_iEEE13AllocInternalEb
__ZN14CUtlLinkedListIN14CShaderManager14ShaderLookup_tEiLb1Ei15CUtlFixedMemoryI19UtlLinkedListElem_tIS1_iEEE6UnlinkEi
__ZN14CUtlLinkedListIN14CShaderManager14ShaderLookup_tEiLb1Ei15CUtlFixedMemoryI19UtlLinkedListElem_tIS1_iEEE9RemoveAllEv
__ZN14CUtlLinkedListIP21IDirect3DPixelShader9iLb1Ei15CUtlFixedMemoryI19UtlLinkedListElem_tIS1_iEEE13AllocInternalEb
__ZN14CUtlLinkedListIP21IDirect3DPixelShader9iLb1Ei15CUtlFixedMemoryI19UtlLinkedListElem_tIS1_iEEE6UnlinkEi
__ZN14CUtlLinkedListIP21IDirect3DPixelShader9iLb1Ei15CUtlFixedMemoryI19UtlLinkedListElem_tIS1_iEEE9RemoveAllEv
__ZN14CUtlLinkedListIP22IDirect3DVertexShader9iLb1Ei15CUtlFixedMemoryI19UtlLinkedListElem_tIS1_iEEE13AllocInternalEb
__ZN14CUtlLinkedListIP22IDirect3DVertexShader9iLb1Ei15CUtlFixedMemoryI19UtlLinkedListElem_tIS1_iEEE6UnlinkEi
__ZN14CUtlLinkedListIP22IDirect3DVertexShader9iLb1Ei15CUtlFixedMemoryI19UtlLinkedListElem_tIS1_iEEE9RemoveAllEv
__ZN14CUtlSortVectorIN16CTransitionTable16TransitionList_tENS0_22UniqueSnapshotLessFuncE10CUtlVectorIS1_10CUtlMemoryIS1_iEEE6InsertERKS1_
__ZN14CUtlSortVectorIN16CTransitionTable19SnapshotDictEntry_tENS0_20SnapshotDictLessFuncE10CUtlVectorIS1_10CUtlMemoryIS1_iEEE6InsertERKS1_
__ZN14CUtlSortVectorIN16CTransitionTable22ShadowStateDictEntry_tENS0_23ShadowStateDictLessFuncE10CUtlVectorIS1_10CUtlMemoryIS1_iEEE6InsertERKS1_
__ZN14CUtlSortVectorIP9KeyValues29CUtlSortVectorKeyValuesByName10CUtlVectorIS1_10CUtlMemoryIS1_iEEE13CompareHelperEPKS1_S9_
__ZN14ConCommandBase10CreateBaseEPKcS1_i
__ZN14ConCommandBase11s_pAccessorE
__ZN14ConCommandBase18s_pConCommandBasesE
__ZN14ConCommandBase4InitEv
__ZN14ConCommandBase8AddFlagsEi
__ZN15CDynamicMeshDX810UnlockMeshEiiR10MeshDesc_t
__ZN15CDynamicMeshDX811MarkAsDrawnEv
__ZN15CDynamicMeshDX815SetVertexFormatEy
__ZN15CDynamicMeshDX84DrawEii
__ZN15CDynamicMeshDX87PreLockEv
__ZN15CDynamicMeshDX88LockMeshEiiR10MeshDesc_t
__ZN15CDynamicMeshDX8D0Ev
__ZN15CDynamicMeshDX8D1Ev
__ZN15CHardwareConfig13SetHDREnabledEb
__ZN15CHardwareConfig17SetupHardwareCapsERK18ShaderDeviceInfo_tRK14HardwareCaps_t
__ZN15CHardwareConfig17SetupHardwareCapsEiRK14HardwareCaps_t
__ZN15CHardwareConfig18ForceCapsToDXLevelEP14HardwareCaps_tiRKS0_
__ZN15CHardwareConfig27OverrideStreamOffsetSupportEbb
__ZN15CIndexBufferDx811ModifyBeginEbiiR11IndexDesc_t
__ZN15CIndexBufferDx813EndCastBufferEv
__ZN15CIndexBufferDx815BeginCastBufferE21MaterialIndexFormat_t
__ZN15CIndexBufferDx826HandlePerFrameTextureStatsEi
__ZN15CIndexBufferDx84FreeEv
__ZN15CIndexBufferDx84LockEibR11IndexDesc_t
__ZN15CIndexBufferDx86UnlockEiR11IndexDesc_t
__ZN15CIndexBufferDx88AllocateEv
__ZN15CIndexBufferDx89ModifyEndER11IndexDesc_t
__ZN15CIndexBufferDx8D0Ev
__ZN15CIndexBufferDx8D1Ev
__ZN15CUtlSymbolTable9AddStringEPKc
__ZN15CUtlSymbolTableC1Eiib
__ZN15CUtlSymbolTableD1Ev
__ZN15CUtlSymbolTableD2Ev
__ZN15CVBAllocTracker20TrackMeshAllocationsEPKc
__ZN15CVBAllocTracker7CountVBEPvbiiy
__ZN15CVBAllocTracker9UnCountVBEPv
__ZN15IDirect3DQuery95IssueEj
__ZN15IDirect3DQuery97GetDataEPvjj
__ZN16CBufferedMeshDX810RenderPassEv
__ZN16CBufferedMeshDX810UnlockMeshEiiR10MeshDesc_t
__ZN16CBufferedMeshDX811SetFlexMeshEP5IMeshi
__ZN16CBufferedMeshDX811SetMaterialEP9IMaterial
__ZN16CBufferedMeshDX812ValidateDataEiiRK10MeshDesc_t
__ZN16CBufferedMeshDX813EndCastBufferEv
__ZN16CBufferedMeshDX814SetMorphFormatEj
__ZN16CBufferedMeshDX815BeginCastBufferE21MaterialIndexFormat_t
__ZN16CBufferedMeshDX815SetVertexFormatEy
__ZN16CBufferedMeshDX816SetPrimitiveTypeE23MaterialPrimitiveType_t
__ZN16CBufferedMeshDX818HandleLateCreationEv
__ZN16CBufferedMeshDX84DrawEii
__ZN16CBufferedMeshDX84SpewEiiRK10MeshDesc_t
__ZN16CBufferedMeshDX85FlushEv
__ZN16CBufferedMeshDX88LockMeshEiiR10MeshDesc_t
__ZN16CBufferedMeshDX8D0Ev
__ZN16CBufferedMeshDX8D1Ev
__ZN16CDefaultAccessor22RegisterConCommandBaseEP14ConCommandBase
__ZN16CIndexBufferBase12ValidateDataEiRK11IndexDesc_t
__ZN16CIndexBufferBase4SpewEiRK11IndexDesc_t
__ZN16CIndexBufferBaseC2EPKc
__ZN16CIndexBufferBaseD0Ev
__ZN16CIndexBufferBaseD1Ev
__ZN16CShaderDeviceDx810InitDeviceEPviRK18ShaderDeviceInfo_t
__ZN16CShaderDeviceDx812ResizeWindowERK18ShaderDeviceInfo_t
__ZN16CShaderDeviceDx813CompileShaderEPKcmS1_
__ZN16CShaderDeviceDx814MarkDeviceLostEv
__ZN16CShaderDeviceDx814ShutdownDeviceEv
__ZN16CShaderDeviceDx815CheckDeviceLostEb
__ZN16CShaderDeviceDx815CreateD3DDeviceEPviRK18ShaderDeviceInfo_t
__ZN16CShaderDeviceDx816CreateStaticMeshEyPKcP9IMaterial
__ZN16CShaderDeviceDx816ReleaseResourcesEv
__ZN16CShaderDeviceDx817CreateIndexBufferE18ShaderBufferType_t21MaterialIndexFormat_tiPKc
__ZN16CShaderDeviceDx817CreatePixelShaderEP13IShaderBuffer
__ZN16CShaderDeviceDx817DestroyStaticMeshEP5IMesh
__ZN16CShaderDeviceDx817HandleThreadEventEj
__ZN16CShaderDeviceDx818CreateVertexBufferE18ShaderBufferType_tyiPKc
__ZN16CShaderDeviceDx818CreateVertexShaderEP13IShaderBuffer
__ZN16CShaderDeviceDx818DestroyIndexBufferEP12IIndexBuffer
__ZN16CShaderDeviceDx818DestroyPixelShaderEP21PixelShaderHandle_t__
__ZN16CShaderDeviceDx818InvokeCreateDeviceEPvij
__ZN16CShaderDeviceDx818ReacquireResourcesEv
__ZN16CShaderDeviceDx819DestroyVertexBufferEP13IVertexBuffer
__ZN16CShaderDeviceDx819DestroyVertexShaderEP22VertexShaderHandle_t__
__ZN16CShaderDeviceDx820CreateGeometryShaderEP13IShaderBuffer
__ZN16CShaderDeviceDx820FreeFrameSyncObjectsEv
__ZN16CShaderDeviceDx820GetDisplayDeviceNameEv
__ZN16CShaderDeviceDx820OtherAppInitializingEb
__ZN16CShaderDeviceDx820SetHardwareGammaRampEffffb
__ZN16CShaderDeviceDx820SetPresentParametersEPviRK18ShaderDeviceInfo_t
__ZN16CShaderDeviceDx821AllocFrameSyncObjectsEv
__ZN16CShaderDeviceDx821DestroyGeometryShaderEP24GeometryShaderHandle_t__
__ZN16CShaderDeviceDx821GetDynamicIndexBufferE21MaterialIndexFormat_tb
__ZN16CShaderDeviceDx822ComputeMultisampleTypeEi
__ZN16CShaderDeviceDx822GetDynamicVertexBufferEiyb
__ZN16CShaderDeviceDx824EnableNonInteractiveModeE28MaterialNonInteractiveMode_tP26ShaderNonInteractiveInfo_t
__ZN16CShaderDeviceDx825DoStartupShaderPreloadingEv
__ZN16CShaderDeviceDx826ReacquireResourcesInternalEbbPKc
__ZN16CShaderDeviceDx832FreeNonInteractiveRefreshObjectsEv
__ZN16CShaderDeviceDx832RefreshFrontBufferNonInteractiveEv
__ZN16CShaderDeviceDx833AllocNonInteractiveRefreshObjectsEv
__ZN16CShaderDeviceDx87PresentEv
__ZN16CShaderDeviceDx8C2Ev
__ZN16CShaderDeviceDx8D0Ev
__ZN16CShaderDeviceDx8D1Ev
__ZN16CShaderDeviceDx8D2Ev
__ZN16CShaderShadowDX811StencilFuncE19ShaderStencilFunc_t
__ZN16CShaderShadowDX811StencilMaskEi
__ZN16CShaderShadowDX812EnableTexGenE14TextureStage_tb
__ZN16CShaderShadowDX813EnableCullingEb
__ZN16CShaderShadowDX813EnableStencilEb
__ZN16CShaderShadowDX813EnableTextureE9Sampler_tb
__ZN16CShaderShadowDX813StencilFailOpE17ShaderStencilOp_t
__ZN16CShaderShadowDX813StencilPassOpE17ShaderStencilOp_t
__ZN16CShaderShadowDX814EnableBlendingEb
__ZN16CShaderShadowDX814EnableLightingEb
__ZN16CShaderShadowDX814EnableSRGBReadE9Sampler_tb
__ZN16CShaderShadowDX814EnableSpecularEb
__ZN16CShaderShadowDX814GetShadowStateEv
__ZN16CShaderShadowDX814SetMorphFormatEj
__ZN16CShaderShadowDX814SetPixelShaderEPKci
__ZN16CShaderShadowDX815EnableAlphaPipeEb
__ZN16CShaderShadowDX815EnableAlphaTestEb
__ZN16CShaderShadowDX815EnableDepthTestEb
__ZN16CShaderShadowDX815EnableSRGBWriteEb
__ZN16CShaderShadowDX815OverbrightValueE14TextureStage_tf
__ZN16CShaderShadowDX815SetDefaultStateEv
__ZN16CShaderShadowDX815SetVertexShaderEPKci
__ZN16CShaderShadowDX816EnablePolyOffsetE19PolygonOffsetMode_t
__ZN16CShaderShadowDX816StencilReferenceEi
__ZN16CShaderShadowDX816StencilWriteMaskEi
__ZN16CShaderShadowDX817EnableAlphaWritesEb
__ZN16CShaderShadowDX817EnableColorWritesEb
__ZN16CShaderShadowDX817EnableDepthWritesEb
__ZN16CShaderShadowDX817EnableVertexAlphaEb
__ZN16CShaderShadowDX817EnableVertexBlendEb
__ZN16CShaderShadowDX818ConfigureAlphaPipeEj
__ZN16CShaderShadowDX818EnableTextureAlphaE14TextureStage_tb
__ZN16CShaderShadowDX818StencilDepthFailOpE17ShaderStencilOp_t
__ZN16CShaderShadowDX819CustomTextureStagesEi
__ZN16CShaderShadowDX819EnableConstantAlphaEb
__ZN16CShaderShadowDX819EnableConstantColorEb
__ZN16CShaderShadowDX820BlendOpSeparateAlphaE15ShaderBlendOp_t
__ZN16CShaderShadowDX820GetShadowShaderStateEv
__ZN16CShaderShadowDX821EnableAlphaToCoverageEb
__ZN16CShaderShadowDX821EnableCustomPixelPipeEb
__ZN16CShaderShadowDX822BlendFuncSeparateAlphaE19ShaderBlendFactor_tS0_
__ZN16CShaderShadowDX822CustomTextureOperationE14TextureStage_t18ShaderTexChannel_t13ShaderTexOp_t14ShaderTexArg_tS3_
__ZN16CShaderShadowDX823SetShadowDepthFilteringE9Sampler_t
__ZN16CShaderShadowDX824ConfigureFVFVertexShaderEj
__ZN16CShaderShadowDX824SetDiffuseMaterialSourceE22ShaderMaterialSource_t
__ZN16CShaderShadowDX824VertexShaderVertexFormatEjiPii
__ZN16CShaderShadowDX825DisableFogGammaCorrectionEb
__ZN16CShaderShadowDX827ComputeAggregateShadowStateEv
__ZN16CShaderShadowDX827ConfigureTextureCoordinatesEj
__ZN16CShaderShadowDX827EnableBlendingSeparateAlphaEb
__ZN16CShaderShadowDX830ConfigureCustomFVFVertexShaderEj
__ZN16CShaderShadowDX84InitEv
__ZN16CShaderShadowDX86TexGenE14TextureStage_t19ShaderTexGenParam_t
__ZN16CShaderShadowDX87BlendOpE15ShaderBlendOp_t
__ZN16CShaderShadowDX87FogModeE15ShaderFogMode_t
__ZN16CShaderShadowDX88PolyModeE20ShaderPolyModeFace_t16ShaderPolyMode_t
__ZN16CShaderShadowDX89AlphaFuncE17ShaderAlphaFunc_tf
__ZN16CShaderShadowDX89BlendFuncE19ShaderBlendFactor_tS0_
__ZN16CShaderShadowDX89DepthFuncE17ShaderDepthFunc_t
__ZN16CShaderShadowDX89DrawFlagsEj
__ZN16CShaderShadowDX8D0Ev
__ZN16CShaderShadowDX8D1Ev
__ZN16CTransitionTable11UseSnapshotEs
__ZN16CTransitionTable12TakeSnapshotEv
__ZN16CTransitionTable14ApplyAlphaTestERK13ShadowState_t
__ZN16CTransitionTable14ApplyDepthTestERK13ShadowState_t
__ZN16CTransitionTable15ApplyAlphaBlendERK13ShadowState_t
__ZN16CTransitionTable15ApplyTransitionERNS_16TransitionList_tEi
__ZN16CTransitionTable15UseDefaultStateEv
__ZN16CTransitionTable16ApplyShaderStateERK13ShadowState_tRK19ShadowShaderState_t
__ZN16CTransitionTable17CreateShadowStateERK13ShadowState_t
__ZN16CTransitionTable19ApplyTransitionListEiii
__ZN16CTransitionTable19CreateStateSnapshotEsRK19ShadowShaderState_t
__ZN16CTransitionTable19OverrideDepthEnableEbb
__ZN16CTransitionTable20ApplySRGBWriteEnableERK13ShadowState_t
__ZN16CTransitionTable20ForceDepthFuncEqualsEb
__ZN16CTransitionTable22ApplyAlphaTextureStageERK13ShadowState_ti
__ZN16CTransitionTable22ApplyColorTextureStageERK13ShadowState_ti
__ZN16CTransitionTable23CreateNormalTransitionsERK13ShadowState_tS2_b
__ZN16CTransitionTable24OverrideAlphaWriteEnableEbb
__ZN16CTransitionTable24OverrideColorWriteEnableEbb
__ZN16CTransitionTable24TakeDefaultStateSnapshotEv
__ZN16CTransitionTable26CreateTransitionTableEntryEii
__ZN16CTransitionTable27PerformShadowStateOverridesEv
__ZN16CTransitionTable33EnableLinearColorSpaceFrameBufferEb
__ZN16CTransitionTable4InitEv
__ZN16CTransitionTable5ResetEv
__ZN16CTransitionTable8ShutdownEv
__ZN16CTransitionTableC1Ev
__ZN16CTransitionTableC2Ev
__ZN16CTransitionTableD0Ev
__ZN16CTransitionTableD1Ev
__ZN16CVertexBufferDx813EndCastBufferEv
__ZN16CVertexBufferDx815BeginCastBufferEy
__ZN16CVertexBufferDx84LockEibR12VertexDesc_t
__ZN16CVertexBufferDx86UnlockEiR12VertexDesc_t
__ZN16CVertexBufferDx88AllocateEv
__ZN16CVertexBufferDx8C2E18ShaderBufferType_tyiPKc
__ZN16CVertexBufferDx8D0Ev
__ZN16CVertexBufferDx8D1Ev
__ZN16CVertexBufferDx8D2Ev
__ZN16ID3DXMatrixStack10LoadMatrixEPK10D3DXMATRIX
__ZN16ID3DXMatrixStack10MultMatrixEPK10D3DXMATRIX
__ZN16ID3DXMatrixStack10ScaleLocalEfff
__ZN16ID3DXMatrixStack12LoadIdentityEv
__ZN16ID3DXMatrixStack14TranslateLocalEfff
__ZN16ID3DXMatrixStack15MultMatrixLocalEPK10D3DXMATRIX
__ZN16ID3DXMatrixStack15RotateAxisLocalEPK11D3DXVECTOR3f
__ZN16ID3DXMatrixStack3PopEv
__ZN16ID3DXMatrixStack4PushEv
__ZN16ID3DXMatrixStack6GetTopEv
__ZN16ID3DXMatrixStack7ReleaseEiPc
__ZN16IDirect3DDevice910BeginSceneEv
__ZN16IDirect3DDevice910ShowCursorEi
__ZN16IDirect3DDevice911CreateQueryE13_D3DQUERYTYPEPP15IDirect3DQuery9
__ZN16IDirect3DDevice911LightEnableEji
__ZN16IDirect3DDevice911SetMaterialEPK13_D3DMATERIAL9
__ZN16IDirect3DDevice911SetViewportEPK13_D3DVIEWPORT9
__ZN16IDirect3DDevice911StretchRectEP17IDirect3DSurface9PK5_RECTS1_S4_21_D3DTEXTUREFILTERTYPE
__ZN16IDirect3DDevice912SetClipPlaneEjPKf
__ZN16IDirect3DDevice912SetGammaRampEjjPK13_D3DGAMMARAMP
__ZN16IDirect3DDevice912SetTransformE22_D3DTRANSFORMSTATETYPEPK9D3DMATRIX
__ZN16IDirect3DDevice913CreateTextureEjjjj10_D3DFORMAT8_D3DPOOLPP17IDirect3DTexture9PPvPc
__ZN16IDirect3DDevice913DrawPrimitiveE17_D3DPRIMITIVETYPEjj
__ZN16IDirect3DDevice913GetDeviceCapsEP9_D3DCAPS9
__ZN16IDirect3DDevice914LinkShaderPairEP22IDirect3DVertexShader9P21IDirect3DPixelShader9
__ZN16IDirect3DDevice914SetRenderStateE19_D3DRENDERSTATETYPEj
__ZN16IDirect3DDevice914SetScissorRectEPK5_RECT
__ZN16IDirect3DDevice915GetRenderTargetEjPP17IDirect3DSurface9
__ZN16IDirect3DDevice915QueryShaderPairEiP17GLMShaderPairInfo
__ZN16IDirect3DDevice915SetRenderTargetEjP17IDirect3DSurface9
__ZN16IDirect3DDevice917CreateCubeTextureEjjj10_D3DFORMAT8_D3DPOOLPP21IDirect3DCubeTexture9PPvPc
__ZN16IDirect3DDevice917CreateIndexBufferEjj10_D3DFORMAT8_D3DPOOLPP21IDirect3DIndexBuffer9PPv
__ZN16IDirect3DDevice917CreatePixelShaderEPKjPP21IDirect3DPixelShader9PKcPcS1_
__ZN16IDirect3DDevice918CreateRenderTargetEjj10_D3DFORMAT20_D3DMULTISAMPLE_TYPEjiPP17IDirect3DSurface9PPvPc
__ZN16IDirect3DDevice918CreateVertexBufferEjjj8_D3DPOOLPP22IDirect3DVertexBuffer9PPv
__ZN16IDirect3DDevice918CreateVertexShaderEPKjPP22IDirect3DVertexShader9PKcPc
__ZN16IDirect3DDevice919CreateVolumeTextureEjjjjj10_D3DFORMAT8_D3DPOOLPP23IDirect3DVolumeTexture9PPvPc
__ZN16IDirect3DDevice919GetRenderTargetDataEP17IDirect3DSurface9S1_
__ZN16IDirect3DDevice920DrawIndexedPrimitiveE17_D3DPRIMITIVETYPEijjjj
__ZN16IDirect3DDevice920SetRenderStateInlineE19_D3DRENDERSTATETYPEj
__ZN16IDirect3DDevice920SetTextureStageStateEj25_D3DTEXTURESTAGESTATETYPEj
__ZN16IDirect3DDevice920TestCooperativeLevelEv
__ZN16IDirect3DDevice921EvictManagedResourcesEv
__ZN16IDirect3DDevice922AcquireThreadOwnershipEv
__ZN16IDirect3DDevice922GetDepthStencilSurfaceEPP17IDirect3DSurface9
__ZN16IDirect3DDevice922ReleaseThreadOwnershipEv
__ZN16IDirect3DDevice922SetDepthStencilSurfaceEP17IDirect3DSurface9
__ZN16IDirect3DDevice923CreateVertexDeclarationEPK18_D3DVERTEXELEMENT9PP27IDirect3DVertexDeclaration9
__ZN16IDirect3DDevice923SetPixelShaderConstantBEjPKij
__ZN16IDirect3DDevice923SetPixelShaderConstantIEjPKij
__ZN16IDirect3DDevice925CreateDepthStencilSurfaceEjj10_D3DFORMAT20_D3DMULTISAMPLE_TYPEjiPP17IDirect3DSurface9PPv
__ZN16IDirect3DDevice927CreateOffscreenPlainSurfaceEjj10_D3DFORMAT8_D3DPOOLPP17IDirect3DSurface9PPv
__ZN16IDirect3DDevice95ClearEjPK8_D3DRECTjjfj
__ZN16IDirect3DDevice95ResetEP23_D3DPRESENT_PARAMETERS_
__ZN16IDirect3DDevice97PresentEPK5_RECTS2_PvPK7RGNDATA
__ZN16IDirect3DDevice98EndSceneEv
__ZN16IDirect3DDevice98SetLightEjPK10_D3DLIGHT9
__ZN17CShaderDeviceBase10RemoveViewEPv
__ZN17CShaderDeviceBase14SendIPCMessageENS_12IPCMessage_tE
__ZN17CShaderDeviceBase16RemoveWindowHookEPv
__ZN17CShaderDeviceBase16ThreadOwnsDeviceEv
__ZN17CShaderDeviceBase17InstallWindowHookEPv
__ZN17CShaderDeviceBase17RemoveThreadOwnerEv
__ZN17CShaderDeviceBase20OtherAppInitializingEb
__ZN17CShaderDeviceBase23SetCurrentThreadAsOwnerEv
__ZN17CShaderDeviceBase29EvictManagedResourcesInternalEv
__ZN17CShaderDeviceBase7AddViewEPv
__ZN17CShaderDeviceBase7SetViewEPv
__ZN17CShaderDeviceBaseC2Ev
__ZN17CShaderDeviceBaseD0Ev
__ZN17CShaderDeviceBaseD1Ev
__ZN17CShaderDeviceBaseD2Ev
__ZN17CThreadSyncObjectD2Ev
__ZN17CUtlMemoryAlignedIhLi32EED2Ev
__ZN17CVertexBufferBase12ValidateDataEiRK12VertexDesc_t
__ZN17CVertexBufferBase16VertexFormatSizeEy
__ZN17CVertexBufferBase17PrintVertexFormatEy
__ZN17CVertexBufferBase24ComputeVertexDescriptionEPhyR12VertexDesc_t
__ZN17CVertexBufferBase4SpewEiRK12VertexDesc_t
__ZN17CVertexBufferBaseC2EPKc
__ZN17CVertexBufferBaseD0Ev
__ZN17CVertexBufferBaseD1Ev
__ZN17CVertexBufferBaseD2Ev
__ZN17IDirect3DSurface910UnlockRectEv
__ZN17IDirect3DSurface97GetDescEP16_D3DSURFACE_DESC
__ZN17IDirect3DSurface98LockRectEP15_D3DLOCKED_RECTPK5_RECTj
__ZN17IDirect3DTexture915GetSurfaceLevelEjPP17IDirect3DSurface9
__ZN18CUtlCharConversion14FindConversionEPKcPi
__ZN18IDirect3DResource911SetPriorityEj
__ZN19CShaderDeviceMgrDx810DisconnectEv
__ZN19CShaderDeviceMgrDx810SetAdapterEii
__ZN19CShaderDeviceMgrDx815InitAdapterInfoEv
__ZN19CShaderDeviceMgrDx818ComputeCapsFromD3DEP14HardwareCaps_ti
__ZN19CShaderDeviceMgrDx84InitEv
__ZN19CShaderDeviceMgrDx87ConnectEPFPvPKcPiE
__ZN19CShaderDeviceMgrDx87SetModeEPviRK18ShaderDeviceInfo_t
__ZN19CShaderDeviceMgrDx88ShutdownEv
__ZN19CShaderDeviceMgrDx8D0Ev
__ZN19CShaderDeviceMgrDx8D1Ev
__ZN19CUtlNoEscConversion14FindConversionEPKcPi
__ZN20CKeyValuesErrorStack11ReportErrorEPKc
__ZN20CRefCountServiceBaseILb1E6CRefMTE14OnFinalReleaseEv
__ZN20CShaderDeviceMgrBase10DisconnectEv
__ZN20CShaderDeviceMgrBase10LoadConfigEP9KeyValuesS1_
__ZN20CShaderDeviceMgrBase14QueryInterfaceEPKc
__ZN20CShaderDeviceMgrBase16LoadHardwareCapsEP9KeyValuesR14HardwareCaps_t
__ZN20CShaderDeviceMgrBase16ReadHardwareCapsER14HardwareCaps_ti
__ZN20CShaderDeviceMgrBase19ReadDXSupportLevelsER14HardwareCaps_t
__ZN20CShaderDeviceMgrBase21AddModeChangeCallbackEPFvvE
__ZN20CShaderDeviceMgrBase21FindCPUSpecificConfigEP9KeyValuesib
__ZN20CShaderDeviceMgrBase22FindCardSpecificConfigEP9KeyValuesii
__ZN20CShaderDeviceMgrBase22ReadDXSupportKeyValuesEv
__ZN20CShaderDeviceMgrBase22ShaderInterfaceFactoryEPKcPi
__ZN20CShaderDeviceMgrBase24RemoveModeChangeCallbackEPFvvE
__ZN20CShaderDeviceMgrBase25InvokeModeChangeCallbacksEv
__ZN20CShaderDeviceMgrBase31GetRecommendedConfigurationInfoEiiP9KeyValues
__ZN20CShaderDeviceMgrBase31GetRecommendedConfigurationInfoEiiiiP9KeyValues
__ZN20CShaderDeviceMgrBase7ConnectEPFPvPKcPiE
__ZN20CShaderDeviceMgrBaseC2Ev
__ZN20CShaderDeviceMgrBaseD0Ev
__ZN20CShaderDeviceMgrBaseD1Ev
__ZN20CShaderDeviceMgrBaseD2Ev
__ZN21CUtlCStringConversion14FindConversionEPKcPi
__ZN21CUtlCStringConversionC2EcPKciPN18CUtlCharConversion17ConversionArray_tE
__ZN21IDirect3DBaseTexture912GetLevelDescEjP16_D3DSURFACE_DESC
__ZN21IDirect3DBaseTexture913GetLevelCountEv
__ZN21IDirect3DBaseTexture97GetTypeEv
__ZN21IDirect3DCubeTexture912GetLevelDescEjP16_D3DSURFACE_DESC
__ZN21IDirect3DCubeTexture917GetCubeMapSurfaceE17_D3DCUBEMAP_FACESjPP17IDirect3DSurface9
__ZN21IDirect3DIndexBuffer916UnlockActualSizeEjPKv
__ZN21IDirect3DIndexBuffer94LockEjjPPvj
__ZN21IDirect3DIndexBuffer96UnlockEv
__ZN22CCleanupUtlSymbolTableD1Ev
__ZN22IDirect3DVertexBuffer916UnlockActualSizeEjPKv
__ZN22IDirect3DVertexBuffer94LockEjjPPvj
__ZN22IDirect3DVertexBuffer96UnlockEv
__ZN23IDirect3DVolumeTexture912GetLevelDescEjP15_D3DVOLUME_DESC
__ZN23IDirect3DVolumeTexture97LockBoxEjP14_D3DLOCKED_BOXPK7_D3DBOXj
__ZN23IDirect3DVolumeTexture99UnlockBoxEj
__ZN24CShaderAPIConVarAccessor22RegisterConCommandBaseEP14ConCommandBase
__ZN5CLZMA10UncompressEPhS0_
__ZN6ConVar10ClampValueERf
__ZN6ConVar16InternalSetValueEPKc
__ZN6ConVar17ChangeStringValueEPKcf
__ZN6ConVar19InternalSetIntValueEi
__ZN6ConVar21InternalSetFloatValueEfb
__ZN6ConVar4InitEv
__ZN6ConVar6CreateEPKcS1_iS1_bfbfbfbfPFvP7IConVarS1_fE
__ZN6ConVar8AddFlagsEi
__ZN6ConVar8SetValueEPKc
__ZN6ConVar8SetValueEf
__ZN6ConVar8SetValueEi
__ZN6ConVarC1EPKcS1_i
__ZN6ConVarC1EPKcS1_iS1_
__ZN6ConVarD0Ev
__ZN6ConVarD1Ev
__ZN7VMatrixaSERKS_
__ZN8CMeshDX810RenderPassEv
__ZN8CMeshDX810UnlockMeshEiiR10MeshDesc_t
__ZN8CMeshDX811ModifyBeginEiiiiR10MeshDesc_t
__ZN8CMeshDX811SetFlexMeshEP5IMeshi
__ZN8CMeshDX812SetColorMeshEP5IMeshi
__ZN8CMeshDX813ModifyBeginExEbiiiiR10MeshDesc_t
__ZN8CMeshDX813s_FirstVertexE
__ZN8CMeshDX813s_NumVerticesE
__ZN8CMeshDX814GetIndexBufferEv
__ZN8CMeshDX814SetRenderStateEiiy
__ZN8CMeshDX815DisableFlexMeshEv
__ZN8CMeshDX815GetVertexBufferEv
__ZN8CMeshDX816SetPrimitiveTypeE23MaterialPrimitiveType_t
__ZN8CMeshDX818HandleLateCreationEv
__ZN8CMeshDX819IsValidVertexFormatEy
__ZN8CMeshDX819SetColorStreamStateEv
__ZN8CMeshDX820SetVertexStreamStateEi
__ZN8CMeshDX822SetVertexIDStreamStateEv
__ZN8CMeshDX84DrawEP9CPrimListi
__ZN8CMeshDX84DrawEii
__ZN8CMeshDX84LockEbiiR11IndexDesc_t
__ZN8CMeshDX84LockEibR12VertexDesc_t
__ZN8CMeshDX86UnlockEiR11IndexDesc_t
__ZN8CMeshDX86UnlockEiR12VertexDesc_t
__ZN8CMeshDX88LockMeshEiiR10MeshDesc_t
__ZN8CMeshDX88s_nPrimsE
__ZN8CMeshDX88s_pPrimsE
__ZN8CMeshDX89ModifyEndER10MeshDesc_t
__ZN8CMeshDX8D0Ev
__ZN8CMeshDX8D1Ev
__ZN8CMeshDX8D2Ev
__ZN8CMeshMgr11GetFlexMeshEv
__ZN8CMeshMgr14GetDynamicMeshEP9IMaterialyibP5IMeshS3_
__ZN8CMeshMgr14GetMaxToRenderEP5IMeshbPiS2_
__ZN8CMeshMgr14ReleaseBuffersEv
__ZN8CMeshMgr14RestoreBuffersEv
__ZN8CMeshMgr14SetRenderStateEiiyi
__ZN8CMeshMgr14UseFatVerticesEb
__ZN8CMeshMgr15BindIndexBufferEP12IIndexBufferi
__ZN8CMeshMgr16BindVertexBufferEiP13IVertexBufferiiiyi
__ZN8CMeshMgr16CreateStaticMeshEyPKcP9IMaterial
__ZN8CMeshMgr17CreateIndexBufferE18ShaderBufferType_t21MaterialIndexFormat_tiPKc
__ZN8CMeshMgr17DestroyStaticMeshEP5IMesh
__ZN8CMeshMgr18CreateVertexBufferE18ShaderBufferType_tyiPKc
__ZN8CMeshMgr18DestroyIndexBufferEP12IIndexBuffer
__ZN8CMeshMgr18FillVertexIDBufferEP13CVertexBufferi
__ZN8CMeshMgr19DestroyVertexBufferEP13IVertexBuffer
__ZN8CMeshMgr20CreateVertexIDBufferEv
__ZN8CMeshMgr20DestroyVertexBuffersEv
__ZN8CMeshMgr20DiscardVertexBuffersEv
__ZN8CMeshMgr20SetVertexStreamStateEii
__ZN8CMeshMgr21DestroyVertexIDBufferEv
__ZN8CMeshMgr21GetDynamicIndexBufferE21MaterialIndexFormat_tb
__ZN8CMeshMgr21GetDynamicIndexBufferEP9IMaterialb
__ZN8CMeshMgr21GetMaxIndicesToRenderEv
__ZN8CMeshMgr22GetDynamicVertexBufferEP9IMaterialb
__ZN8CMeshMgr22GetDynamicVertexBufferEiyb
__ZN8CMeshMgr22GetMaxVerticesToRenderEP9IMaterial
__ZN8CMeshMgr22MarkUnusedVertexFieldsEjiPb
__ZN8CMeshMgr24CreateDynamicIndexBufferEv
__ZN8CMeshMgr24FindOrCreateVertexBufferEiy
__ZN8CMeshMgr35RenderPassWithVertexAndIndexBuffersEv
__ZN8CMeshMgr46CopyStaticMeshIndexBufferToTempMeshIndexBufferEP12CTempMeshDX8P8CMeshDX8
__ZN8CMeshMgr4DrawE23MaterialPrimitiveType_tii
__ZN8CMeshMgr4InitEv
__ZN8CMeshMgr5FlushEv
__ZN8CMeshMgr8ShutdownEv
__ZN8CMeshMgrC2Ev
__ZN8CMeshMgrD0Ev
__ZN8CMeshMgrD1Ev
__ZN8CMeshMgrD2Ev
__ZN9CFunctor1IPFvP21IDirect3DBaseTexture9ES1_12CRefCounted1I8CFunctor20CRefCountServiceBaseILb1E6CRefMTEEED0Ev
__ZN9CFunctor1IPFvP21IDirect3DBaseTexture9ES1_12CRefCounted1I8CFunctor20CRefCountServiceBaseILb1E6CRefMTEEED1Ev
__ZN9CFunctor1IPFvP21IDirect3DBaseTexture9ES1_12CRefCounted1I8CFunctor20CRefCountServiceBaseILb1E6CRefMTEEEclEv
__ZN9CMeshBase7GetMeshEv
__ZN9CMeshBaseC2Ev
__ZN9CMeshBaseD0Ev
__ZN9CMeshBaseD1Ev
__ZN9CMeshBaseD2Ev
__ZN9CUtlStackIi10CUtlMemoryIiiEED2Ev
__ZN9CVProfile19FindOrCreateCounterEPKc14CounterGroup_t
__ZN9ConVarRefC1EPKc
__ZN9D3DXPLANEcvPfEv
__ZN9D3DXPLANEixEi
__ZN9D3DXPLANEneERKS_
__ZN9KeyValues10GetWStringEPKcPKw
__ZN9KeyValues10SaveToFileEP15IBaseFileSystemPKcS3_bbb
__ZN9KeyValues10SetWStringEPKcPKw
__ZN9KeyValues10deleteThisEv
__ZN9KeyValues11GetDataTypeEPKc
__ZN9KeyValues12CreateNewKeyEv
__ZN9KeyValues12GetNextValueEv
__ZN9KeyValues12LoadFromFileEP15IBaseFileSystemPKcS3_b
__ZN9KeyValues13GetFirstValueEv
__ZN9KeyValues13SaveKeyToFileEPS_P15IBaseFileSystemPvP10CUtlBufferibb
__ZN9KeyValues14LoadFromBufferEPKcR10CUtlBufferP15IBaseFileSystemS1_
__ZN9KeyValues14LoadFromBufferEPKcS1_P15IBaseFileSystemS1_
__ZN9KeyValues16RemoveEverythingEv
__ZN9KeyValues17GetNextTrueSubKeyEv
__ZN9KeyValues17ParseIncludedKeysEPKcS1_P15IBaseFileSystemS1_R10CUtlVectorIPS_10CUtlMemoryIS5_iEE
__ZN9KeyValues18GetFirstTrueSubKeyEv
__ZN9KeyValues19RecursiveSaveToFileEP15IBaseFileSystemPvP10CUtlBufferibb
__ZN9KeyValues19RecursiveSaveToFileER10CUtlBufferibb
__ZN9KeyValues20WriteConvertedStringEP15IBaseFileSystemPvP10CUtlBufferPKc
__ZN9KeyValues22s_pfGetStringForSymbolE
__ZN9KeyValues22s_pfGetSymbolForStringE
__ZN9KeyValues23RecursiveLoadFromBufferEPKcR10CUtlBuffer
__ZN9KeyValues23RecursiveMergeKeyValuesEPS_
__ZN9KeyValues25GetStringForSymbolClassicEi
__ZN9KeyValues25GetSymbolForStringClassicEPKcb
__ZN9KeyValues28CreateKeyUsingKnownLastChildEPKcPS_
__ZN9KeyValues6GetIntEPKci
__ZN9KeyValues6GetPtrEPKcPv
__ZN9KeyValues6SetIntEPKci
__ZN9KeyValues6SetPtrEPKcPv
__ZN9KeyValues7FindKeyEPKcb
__ZN9KeyValues8GetColorEPKc
__ZN9KeyValues8GetFloatEPKcf
__ZN9KeyValues8SetColorEPKc5Color
__ZN9KeyValues8SetFloatEPKcf
__ZN9KeyValues9GetStringEPKcS1_
__ZN9KeyValues9ReadTokenER10CUtlBufferRbS2_
__ZN9KeyValues9SetStringEPKcS1_
__ZN9KeyValuesC1EPKc
__ZN9KeyValuesdlEPv
__ZN9KeyValuesnwEm
__ZNK10CUtlString3GetEv
__ZNK10CUtlSymbol6StringEv
__ZNK10ConCommand9IsCommandEv
__ZNK10D3DXMATRIXmlERKS_
__ZNK10D3DXMATRIXneERKS_
__ZNK10IShaderAPI28SupportsNormalMapCompressionEv
__ZNK12CBaseMeshDX811HasFlexMeshEv
__ZNK12CBaseMeshDX811IndexFormatEv
__ZNK12CBaseMeshDX811VertexCountEv
__ZNK12CBaseMeshDX812HasColorMeshEv
__ZNK12CBaseMeshDX813HasEnoughRoomEii
__ZNK12CBaseMeshDX814GetMorphFormatEv
__ZNK12CBaseMeshDX815GetVertexFormatEv
__ZNK12CBaseMeshDX816GetRoomRemainingEv
__ZNK12CBaseMeshDX816IsUsingMorphDataEv
__ZNK12CBaseMeshDX822NeedsVertexFormatResetEy
__ZNK12CEmptyConVar7GetNameEv
__ZNK12CEmptyConVar9IsFlagSetEi
__ZNK12CTempMeshDX810IndexCountEv
__ZNK12CTempMeshDX811VertexCountEv
__ZNK12CTempMeshDX816GetPrimitiveTypeEv
__ZNK12CTempMeshDX89IsDynamicEv
__ZNK13CShaderAPIDx811CurrentTimeEv
__ZNK13CShaderAPIDx811GetCullModeEv
__ZNK13CShaderAPIDx811IsAAEnabledEv
__ZNK13CShaderAPIDx812GetMaxLightsEv
__ZNK13CShaderAPIDx812GetViewportsEP16ShaderViewport_ti
__ZNK13CShaderAPIDx812InEditorModeEv
__ZNK13CShaderAPIDx813IsAlphaTestedEs
__ZNK13CShaderAPIDx813IsTranslucentEs
__ZNK13CShaderAPIDx815IsRenderingMeshEv
__ZNK13CShaderAPIDx816GetDX9LightStateEP12LightState_t
__ZNK13CShaderAPIDx816InFlashlightModeEv
__ZNK13CShaderAPIDx817GetCurrentFogTypeEv
__ZNK13CShaderAPIDx817IsInSelectionModeEv
__ZNK13CShaderAPIDx817StencilBufferBitsEv
__ZNK13CShaderAPIDx818ComputeMorphFormatEiPs
__ZNK13CShaderAPIDx818ComputeVertexUsageEiPs
__ZNK13CShaderAPIDx818GetCurrentNumBonesEv
__ZNK13CShaderAPIDx818GetFlashlightStateER7VMatrix
__ZNK13CShaderAPIDx819CanDownloadTexturesEv
__ZNK13CShaderAPIDx819ComputeVertexFormatEiPs
__ZNK13CShaderAPIDx819IsDepthWriteEnabledEs
__ZNK13CShaderAPIDx819IsHWMorphingEnabledEv
__ZNK13CShaderAPIDx820GetCurrentLightComboEv
__ZNK13CShaderAPIDx820GetFlashlightStateExER7VMatrixPP8ITexture
__ZNK13CShaderAPIDx821GetActualSamplerCountEv
__ZNK13CShaderAPIDx822GetCurrentFrameCounterEv
__ZNK13CShaderAPIDx822GetLightMapScaleFactorEv
__ZNK13CShaderAPIDx823GetBackBufferDimensionsERiS0_
__ZNK13CShaderAPIDx824ComputeVertexDescriptionEPhyR10MeshDesc_t
__ZNK13CShaderAPIDx824GetIntRenderingParameterEi
__ZNK13CShaderAPIDx824GetNumActiveDeformationsEv
__ZNK13CShaderAPIDx825GetNearestSupportedFormatE11ImageFormatb
__ZNK13CShaderAPIDx825GetToneMappingScaleLinearEv
__ZNK13CShaderAPIDx825UsesVertexAndPixelShadersEs
__ZNK13CShaderAPIDx826GetActualTextureStageCountEv
__ZNK13CShaderAPIDx826GetFloatRenderingParameterEi
__ZNK13CShaderAPIDx827GetVectorRenderingParameterEi
__ZNK13CShaderAPIDx827GetWorldSpaceCameraPositionEPf
__ZNK13CShaderAPIDx827ShouldWriteDepthToDestAlphaEv
__ZNK13CShaderAPIDx828GetNearestRenderTargetFormatE11ImageFormat
__ZNK13CShaderAPIDx829UsingSoftwareVertexProcessingEv
__ZNK13CShaderAPIDx830GammaToLinear_HardwareSpecificEf
__ZNK13CShaderAPIDx830LinearToGamma_HardwareSpecificEf
__ZNK13CShaderAPIDx831GetPackedDeformationInformationEiPfiiPi
__ZNK13CShaderAPIDx838DoRenderTargetsNeedSeparateDepthBufferEv
__ZNK13CShaderAPIDx88GetLightEi
__ZNK13CShaderBufferI11ID3DXBufferE7GetBitsEv
__ZNK13CShaderBufferI11ID3DXBufferE7GetSizeEv
__ZNK14CUtlSortVectorIN16CTransitionTable16TransitionList_tENS0_22UniqueSnapshotLessFuncE10CUtlVectorIS1_10CUtlMemoryIS1_iEEE15FindLessOrEqualIS1_EEiRKT_Pb
__ZNK14CUtlSortVectorIN16CTransitionTable19SnapshotDictEntry_tENS0_20SnapshotDictLessFuncE10CUtlVectorIS1_10CUtlMemoryIS1_iEEE15FindLessOrEqualIS1_EEiRKT_Pb
__ZNK14CUtlSortVectorIN16CTransitionTable22ShadowStateDictEntry_tENS0_23ShadowStateDictLessFuncE10CUtlVectorIS1_10CUtlMemoryIS1_iEEE15FindLessOrEqualIS1_EEiRKT_Pb
__ZNK14ConCommandBase11GetHelpTextEv
__ZNK14ConCommandBase12IsRegisteredEv
__ZNK14ConCommandBase16GetDLLIdentifierEv
__ZNK14ConCommandBase7GetNameEv
__ZNK14ConCommandBase9IsFlagSetEi
__ZNK15CDynamicMeshDX810IndexCountEv
__ZNK15CDynamicMeshDX813HasEnoughRoomEii
__ZNK15CDynamicMeshDX822NeedsVertexFormatResetEy
__ZNK15CDynamicMeshDX89IsDynamicEv
__ZNK15CHardwareConfig10GetHDRTypeEv
__ZNK15CHardwareConfig11IsAAEnabledEv
__ZNK15CHardwareConfig11SupportsHDREv
__ZNK15CHardwareConfig12MaxNumLightsEv
__ZNK15CHardwareConfig12MaxViewportsEv
__ZNK15CHardwareConfig12NeedsAAClampEv
__ZNK15CHardwareConfig12SupportsSRGBEv
__ZNK15CHardwareConfig13FakeSRGBWriteEv
__ZNK15CHardwareConfig13GetHDREnabledEv
__ZNK15CHardwareConfig14SupportsFetch4Ev
__ZNK15CHardwareConfig15GetSamplerCountEv
__ZNK15CHardwareConfig15MaxTextureDepthEv
__ZNK15CHardwareConfig15MaxTextureWidthEv
__ZNK15CHardwareConfig15SupportsHDRModeE9HDRType_t
__ZNK15CHardwareConfig15UseFastClippingEv
__ZNK15CHardwareConfig16GetShaderDLLNameEv
__ZNK15CHardwareConfig16HasStencilBufferEv
__ZNK15CHardwareConfig16MaxBlendMatricesEv
__ZNK15CHardwareConfig16MaxTextureHeightEv
__ZNK15CHardwareConfig16SupportsCubeMapsEv
__ZNK15CHardwareConfig17GetDXSupportLevelEv
__ZNK15CHardwareConfig17MaxUserClipPlanesEv
__ZNK15CHardwareConfig17StencilBufferBitsEv
__ZNK15CHardwareConfig17TextureMemorySizeEv
__ZNK15CHardwareConfig18GetHardwareHDRTypeEv
__ZNK15CHardwareConfig18HasDestAlphaBufferEv
__ZNK15CHardwareConfig18SupportsMipmappingEv
__ZNK15CHardwareConfig18SupportsOverbrightEv
__ZNK15CHardwareConfig19GetShadowFilterModeEv
__ZNK15CHardwareConfig19HasProjectedBumpEnvEv
__ZNK15CHardwareConfig19SupportsBorderColorEv
__ZNK15CHardwareConfig20CanDoSRGBReadFromRTsEv
__ZNK15CHardwareConfig20GetMaxDXSupportLevelEv
__ZNK15CHardwareConfig20GetTextureStageCountEv
__ZNK15CHardwareConfig20MaxHWMorphBatchCountEv
__ZNK15CHardwareConfig20NeedsATICentroidHackEv
__ZNK15CHardwareConfig20SupportsStreamOffsetEv
__ZNK15CHardwareConfig21GetActualSamplerCountEv
__ZNK15CHardwareConfig21GetVertexTextureCountEv
__ZNK15CHardwareConfig21HasFastVertexTexturesEv
__ZNK15CHardwareConfig21HasSetDeviceGammaRampEv
__ZNK15CHardwareConfig21MaxBlendMatrixIndicesEv
__ZNK15CHardwareConfig21MaxTextureAspectRatioEv
__ZNK15CHardwareConfig21PreferDynamicTexturesEv
__ZNK15CHardwareConfig21PreferReducedFillrateEv
__ZNK15CHardwareConfig21SupportsSpheremappingEv
__ZNK15CHardwareConfig23MaximumAnisotropicLevelEv
__ZNK15CHardwareConfig23NumPixelShaderConstantsEv
__ZNK15CHardwareConfig23SupportsNonPow2TexturesEv
__ZNK15CHardwareConfig23SupportsShaderModel_3_0Ev
__ZNK15CHardwareConfig23UsesSRGBCorrectBlendingEv
__ZNK15CHardwareConfig24GetFrameBufferColorDepthEv
__ZNK15CHardwareConfig24NumVertexShaderConstantsEv
__ZNK15CHardwareConfig24SupportsHardwareLightingEv
__ZNK15CHardwareConfig24SupportsPixelShaders_1_4Ev
__ZNK15CHardwareConfig24SupportsPixelShaders_2_0Ev
__ZNK15CHardwareConfig24SupportsPixelShaders_2_bEv
__ZNK15CHardwareConfig25NeedsShaderSRGBConversionEv
__ZNK15CHardwareConfig25ReadPixelsFromFrontBufferEv
__ZNK15CHardwareConfig25SupportsMipmappedCubemapsEv
__ZNK15CHardwareConfig25SupportsStaticControlFlowEv
__ZNK15CHardwareConfig25SupportsVertexShaders_2_0Ev
__ZNK15CHardwareConfig26CanStretchRectFromTexturesEv
__ZNK15CHardwareConfig26GetActualTextureStageCountEv
__ZNK15CHardwareConfig26GetHWSpecificShaderDLLNameEv
__ZNK15CHardwareConfig26SupportsCompressedTexturesEv
__ZNK15CHardwareConfig26SupportsCompressedVerticesEv
__ZNK15CHardwareConfig26SupportsGLMixedSizeTargetsEv
__ZNK15CHardwareConfig27SupportsColorOnSecondStreamEv
__ZNK15CHardwareConfig28GetMaxVertexTextureDimensionEv
__ZNK15CHardwareConfig28MaxVertexShaderBlendMatricesEv
__ZNK15CHardwareConfig29SupportsVertexAndPixelShadersEv
__ZNK15CHardwareConfig30NumBooleanPixelShaderConstantsEv
__ZNK15CHardwareConfig30NumIntegerPixelShaderConstantsEv
__ZNK15CHardwareConfig30SpecifiesFogColorInLinearSpaceEv
__ZNK15CHardwareConfig31NumBooleanVertexShaderConstantsEv
__ZNK15CHardwareConfig31NumIntegerVertexShaderConstantsEv
__ZNK15CHardwareConfig32ActuallySupportsPixelShaders_2_bEv
__ZNK15CHardwareConfig33SupportsStaticPlusDynamicLightingEv
__ZNK15CIndexBufferDx810IndexCountEv
__ZNK15CIndexBufferDx811IndexFormatEv
__ZNK15CIndexBufferDx816GetRoomRemainingEv
__ZNK15CIndexBufferDx89IsDynamicEv
__ZNK15CUtlSymbolTable5CLessclERKNS_16CStringPoolIndexES3_
__ZNK15CUtlSymbolTable6StringE10CUtlSymbol
__ZNK16CBufferedMeshDX810IndexCountEv
__ZNK16CBufferedMeshDX811IndexFormatEv
__ZNK16CBufferedMeshDX815GetVertexFormatEv
__ZNK16CBufferedMeshDX816GetPrimitiveTypeEv
__ZNK16CBufferedMeshDX816GetRoomRemainingEv
__ZNK16CBufferedMeshDX89IsDynamicEv
__ZNK16CShaderDeviceDx813IsDeactivatedEv
__ZNK16CShaderDeviceDx814SpewDriverInfoEv
__ZNK16CShaderDeviceDx815IsUsingGraphicsEv
__ZNK16CShaderDeviceDx817GetCurrentAdapterEv
__ZNK16CShaderDeviceDx819GetBackBufferFormatEv
__ZNK16CShaderDeviceDx823GetBackBufferDimensionsERiS0_
__ZNK16CShaderShadowDX819FlagsToVertexFormatEi
__ZNK16CTransitionTable15FindShadowStateERK13ShadowState_t
__ZNK16CTransitionTable17FindStateSnapshotEsRK19ShadowShaderState_t
__ZNK16CTransitionTable27FindIdenticalTransitionListEjtj
__ZNK16CVertexBufferDx811VertexCountEv
__ZNK16CVertexBufferDx815GetVertexFormatEv
__ZNK16CVertexBufferDx816GetRoomRemainingEv
__ZNK16CVertexBufferDx89IsDynamicEv
__ZNK17CShaderDeviceBase11IsAAEnabledEv
__ZNK17CShaderDeviceBase13GetWindowSizeERiS0_
__ZNK17CShaderDeviceBase17StencilBufferBitsEv
__ZNK17CShaderDeviceBase19GetBackBufferFormatEv
__ZNK17CUtlSymbolTableMT6StringE10CUtlSymbol
__ZNK19CShaderDeviceMgrDx811GetModeInfoEP19ShaderDisplayMode_tii
__ZNK19CShaderDeviceMgrDx812GetModeCountEi
__ZNK19CShaderDeviceMgrDx812ValidateModeEiRK18ShaderDeviceInfo_t
__ZNK19CShaderDeviceMgrDx814GetAdapterInfoEiR21MaterialAdapterInfo_t
__ZNK19CShaderDeviceMgrDx814GetVidMemBytesEi
__ZNK19CShaderDeviceMgrDx815GetAdapterCountEv
__ZNK19CShaderDeviceMgrDx818GetCurrentModeInfoEP19ShaderDisplayMode_ti
__ZNK20CShaderDeviceMgrBase15GetHardwareCapsEi
__ZNK20CShaderDeviceMgrBase23GetClosestActualDXLevelEi
__ZNK29IMaterialSystemHardwareConfig28SupportsNormalMapCompressionEv
__ZNK6ConVar11GetHelpTextEv
__ZNK6ConVar12IsRegisteredEv
__ZNK6ConVar7GetNameEv
__ZNK6ConVar9IsCommandEv
__ZNK6ConVar9IsFlagSetEi
__ZNK8CMeshDX810IndexCountEv
__ZNK8CMeshDX811HasFlexMeshEv
__ZNK8CMeshDX811VertexCountEv
__ZNK8CMeshDX812HasColorMeshEv
__ZNK8CMeshDX816GetPrimitiveTypeEv
__ZNK8CMeshDX89IsDynamicEv
__ZNK8CMeshMgr11BufferCountEv
__ZNK8CMeshMgr19ComputeVertexFormatEjiPiii
__ZNK8CMeshMgr22GetCurrentVertexFormatEv
__ZNK8CMeshMgr24ComputeVertexDescriptionEPhyR10MeshDesc_t
__ZNK9KeyValues7GetNameEv
__ZNK9KeyValues8MakeCopyEv
__ZNV16CThreadFastMutex4LockEjj
__ZSt9terminatev
__ZTI10ConCommand
__ZTI10IAppSystem
__ZTI10IShaderAPI
__ZTI11IRefCounted
__ZTI12CBaseMeshDX8
__ZTI12CEmptyConVar
__ZTI12CRefCounted1I8CFunctor20CRefCountServiceBaseILb1E6CRefMTEE
__ZTI12CTempMeshDX8
__ZTI12IIndexBuffer
__ZTI13CShaderAPIDx8
__ZTI13CShaderBufferI11ID3DXBufferE
__ZTI13IShaderAPIDX8
__ZTI13IShaderBuffer
__ZTI13IShaderDevice
__ZTI13IShaderShadow
__ZTI13IVertexBuffer
__ZTI14CShaderAPIBase
__ZTI14CShaderManager
__ZTI14ConCommandBase
__ZTI14IShaderManager
__ZTI15CDynamicMeshDX8
__ZTI15CHardwareConfig
__ZTI15CIndexBufferDx8
__ZTI15CVBAllocTracker
__ZTI15IVBAllocTracker
__ZTI16CBufferedMeshDX8
__ZTI16CDefaultAccessor
__ZTI16CIndexBufferBase
__ZTI16CShaderDeviceDx8
__ZTI16CShaderShadowDX8
__ZTI16CTransitionTable
__ZTI16CVertexBufferDx8
__ZTI16IShaderDeviceMgr
__ZTI16IShaderShadowDX8
__ZTI17CShaderDeviceBase
__ZTI17CVertexBufferBase
__ZTI17IDebugTextureInfo
__ZTI17IShaderDynamicAPI
__ZTI18CUtlCharConversion
__ZTI19CShaderDeviceMgrDx8
__ZTI19CUtlNoEscConversion
__ZTI20CRefCountServiceBaseILb1E6CRefMTE
__ZTI20CShaderDeviceMgrBase
__ZTI21CUtlCStringConversion
__ZTI23IConCommandBaseAccessor
__ZTI23IHardwareConfigInternal
__ZTI24CShaderAPIConVarAccessor
__ZTI29IMaterialSystemHardwareConfig
__ZTI5IMesh
__ZTI6ConVar
__ZTI7IConVar
__ZTI8CFunctor
__ZTI8CMeshDX8
__ZTI8CMeshMgr
__ZTI8IMeshMgr
__ZTI9CFunctor1IPFvP21IDirect3DBaseTexture9ES1_12CRefCounted1I8CFunctor20CRefCountServiceBaseILb1E6CRefMTEEE
__ZTI9CMeshBase
__ZTISt9bad_alloc
__ZTS10ConCommand
__ZTS10IAppSystem
__ZTS10IShaderAPI
__ZTS11IRefCounted
__ZTS12CBaseMeshDX8
__ZTS12CEmptyConVar
__ZTS12CRefCounted1I8CFunctor20CRefCountServiceBaseILb1E6CRefMTEE
__ZTS12CTempMeshDX8
__ZTS12IIndexBuffer
__ZTS13CShaderAPIDx8
__ZTS13CShaderBufferI11ID3DXBufferE
__ZTS13IShaderAPIDX8
__ZTS13IShaderBuffer
__ZTS13IShaderDevice
__ZTS13IShaderShadow
__ZTS13IVertexBuffer
__ZTS14CShaderAPIBase
__ZTS14CShaderManager
__ZTS14ConCommandBase
__ZTS14IShaderManager
__ZTS15CDynamicMeshDX8
__ZTS15CHardwareConfig
__ZTS15CIndexBufferDx8
__ZTS15CVBAllocTracker
__ZTS15IVBAllocTracker
__ZTS16CBufferedMeshDX8
__ZTS16CDefaultAccessor
__ZTS16CIndexBufferBase
__ZTS16CShaderDeviceDx8
__ZTS16CShaderShadowDX8
__ZTS16CTransitionTable
__ZTS16CVertexBufferDx8
__ZTS16IShaderDeviceMgr
__ZTS16IShaderShadowDX8
__ZTS17CShaderDeviceBase
__ZTS17CVertexBufferBase
__ZTS17IDebugTextureInfo
__ZTS17IShaderDynamicAPI
__ZTS18CUtlCharConversion
__ZTS19CShaderDeviceMgrDx8
__ZTS19CUtlNoEscConversion
__ZTS20CRefCountServiceBaseILb1E6CRefMTE
__ZTS20CShaderDeviceMgrBase
__ZTS21CUtlCStringConversion
__ZTS23IConCommandBaseAccessor
__ZTS23IHardwareConfigInternal
__ZTS24CShaderAPIConVarAccessor
__ZTS29IMaterialSystemHardwareConfig
__ZTS5IMesh
__ZTS6ConVar
__ZTS7IConVar
__ZTS8CFunctor
__ZTS8CMeshDX8
__ZTS8CMeshMgr
__ZTS8IMeshMgr
__ZTS9CFunctor1IPFvP21IDirect3DBaseTexture9ES1_12CRefCounted1I8CFunctor20CRefCountServiceBaseILb1E6CRefMTEEE
__ZTS9CMeshBase
__ZTV10ConCommand
__ZTV12CEmptyConVar
__ZTV12CTempMeshDX8
__ZTV13CShaderAPIDx8
__ZTV13CShaderBufferI11ID3DXBufferE
__ZTV14CShaderAPIBase
__ZTV14CShaderManager
__ZTV15CDynamicMeshDX8
__ZTV15CHardwareConfig
__ZTV15CIndexBufferDx8
__ZTV15CVBAllocTracker
__ZTV16CBufferedMeshDX8
__ZTV16CDefaultAccessor
__ZTV16CIndexBufferBase
__ZTV16CShaderDeviceDx8
__ZTV16CShaderShadowDX8
__ZTV16CTransitionTable
__ZTV16CVertexBufferDx8
__ZTV17CShaderDeviceBase
__ZTV17CVertexBufferBase
__ZTV18CUtlCharConversion
__ZTV19CShaderDeviceMgrDx8
__ZTV19CUtlNoEscConversion
__ZTV20CShaderDeviceMgrBase
__ZTV21CUtlCStringConversion
__ZTV24CShaderAPIConVarAccessor
__ZTV6ConVar
__ZTV8CMeshDX8
__ZTV8CMeshMgr
__ZTV9CFunctor1IPFvP21IDirect3DBaseTexture9ES1_12CRefCounted1I8CFunctor20CRefCountServiceBaseILb1E6CRefMTEEE
__ZTV9CMeshBase
__ZTVN10__cxxabiv117__class_type_infoE
__ZTVN10__cxxabiv120__si_class_type_infoE
__ZTVN10__cxxabiv121__vmi_class_type_infoE
__ZThn24_N12CEmptyConVar8SetValueEPKc
__ZThn24_N12CEmptyConVar8SetValueEf
__ZThn24_N12CEmptyConVar8SetValueEi
__ZThn24_N6ConVar8SetValueEPKc
__ZThn24_N6ConVar8SetValueEf
__ZThn24_N6ConVar8SetValueEi
__ZThn24_NK12CEmptyConVar7GetNameEv
__ZThn24_NK12CEmptyConVar9IsFlagSetEi
__ZThn24_NK6ConVar7GetNameEv
__ZThn24_NK6ConVar9IsFlagSetEi
__ZThn4_N12CBaseMeshDX811ModifyBeginEbiiR11IndexDesc_t
__ZThn4_N12CBaseMeshDX812ValidateDataEiRK11IndexDesc_t
__ZThn4_N12CBaseMeshDX813EndCastBufferEv
__ZThn4_N12CBaseMeshDX815BeginCastBufferE21MaterialIndexFormat_t
__ZThn4_N12CBaseMeshDX84LockEibR11IndexDesc_t
__ZThn4_N12CBaseMeshDX84SpewEiRK11IndexDesc_t
__ZThn4_N12CBaseMeshDX86UnlockEiR11IndexDesc_t
__ZThn4_N12CBaseMeshDX89ModifyEndER11IndexDesc_t
__ZThn4_N12CTempMeshDX8D0Ev
__ZThn4_N12CTempMeshDX8D1Ev
__ZThn4_N15CDynamicMeshDX8D0Ev
__ZThn4_N15CDynamicMeshDX8D1Ev
__ZThn4_N16CBufferedMeshDX813EndCastBufferEv
__ZThn4_N16CBufferedMeshDX815BeginCastBufferE21MaterialIndexFormat_t
__ZThn4_N16CBufferedMeshDX8D0Ev
__ZThn4_N16CBufferedMeshDX8D1Ev
__ZThn4_N8CMeshDX86UnlockEiR11IndexDesc_t
__ZThn4_N8CMeshDX8D0Ev
__ZThn4_N8CMeshDX8D1Ev
__ZThn4_N9CMeshBaseD0Ev
__ZThn4_N9CMeshBaseD1Ev
__ZThn4_NK12CBaseMeshDX811IndexFormatEv
__ZThn4_NK12CBaseMeshDX816GetRoomRemainingEv
__ZThn4_NK12CTempMeshDX810IndexCountEv
__ZThn4_NK12CTempMeshDX89IsDynamicEv
__ZThn4_NK15CDynamicMeshDX810IndexCountEv
__ZThn4_NK15CDynamicMeshDX89IsDynamicEv
__ZThn4_NK16CBufferedMeshDX810IndexCountEv
__ZThn4_NK16CBufferedMeshDX811IndexFormatEv
__ZThn4_NK16CBufferedMeshDX816GetRoomRemainingEv
__ZThn4_NK16CBufferedMeshDX89IsDynamicEv
__ZThn4_NK8CMeshDX810IndexCountEv
__ZThn4_NK8CMeshDX89IsDynamicEv
__ZThn544_N13CShaderAPIDx810ApplyZBiasERK13ShadowState_t
__ZThn544_N13CShaderAPIDx810BeginFrameEv
__ZThn544_N13CShaderAPIDx810LoadMatrixEPf
__ZThn544_N13CShaderAPIDx810MatrixModeE20MaterialMatrixMode_t
__ZThn544_N13CShaderAPIDx810MultMatrixEPf
__ZThn544_N13CShaderAPIDx810PickMatrixEiiii
__ZThn544_N13CShaderAPIDx810PushMatrixEv
__ZThn544_N13CShaderAPIDx810ReadPixelsEP6Rect_tS1_Ph11ImageFormati
__ZThn544_N13CShaderAPIDx810ReadPixelsEiiiiPh11ImageFormat
__ZThn544_N13CShaderAPIDx810RenderPassEii
__ZThn544_N13CShaderAPIDx810ShaderLockEv
__ZThn544_N13CShaderAPIDx810TexImage2DEii11ImageFormatiiiS0_bPv
__ZThn544_N13CShaderAPIDx810TexLodBiasEf
__ZThn544_N13CShaderAPIDx810UnlockRectEii
__ZThn544_N13CShaderAPIDx811BindTextureE9Sampler_ti
__ZThn544_N13CShaderAPIDx811EndPIXEventEv
__ZThn544_N13CShaderAPIDx811GetFlexMeshEv
__ZThn544_N13CShaderAPIDx811TexLodClampEi
__ZThn544_N13CShaderAPIDx812ApplyFogModeE15ShaderFogMode_tbb
__ZThn544_N13CShaderAPIDx812ClearBuffersEbbbii
__ZThn544_N13CShaderAPIDx812LoadIdentityEv
__ZThn544_N13CShaderAPIDx812OnDeviceInitEv
__ZThn544_N13CShaderAPIDx812PerspectiveXEdddd
__ZThn544_N13CShaderAPIDx812SceneFogModeE17MaterialFogMode_t
__ZThn544_N13CShaderAPIDx812SetClipPlaneEiPKf
__ZThn544_N13CShaderAPIDx812SetPIXMarkerEmPKc
__ZThn544_N13CShaderAPIDx812SetViewportsEiPK16ShaderViewport_t
__ZThn544_N13CShaderAPIDx812ShaderUnlockEv
__ZThn544_N13CShaderAPIDx812TakeSnapshotEv
__ZThn544_N13CShaderAPIDx812TexMagFilterE21ShaderTexFilterMode_t
__ZThn544_N13CShaderAPIDx812TexMinFilterE21ShaderTexFilterMode_t
__ZThn544_N13CShaderAPIDx813BeginPIXEventEmPKc
__ZThn544_N13CShaderAPIDx813ClearColor3ubEhhh
__ZThn544_N13CShaderAPIDx813ClearColor4ubEhhhh
__ZThn544_N13CShaderAPIDx813CreateTextureEiii11ImageFormatiiiPKcS2_
__ZThn544_N13CShaderAPIDx813DeleteTextureEi
__ZThn544_N13CShaderAPIDx813FlushHardwareEv
__ZThn544_N13CShaderAPIDx813FogMaxDensityEf
__ZThn544_N13CShaderAPIDx813GetD3DTextureEi
__ZThn544_N13CShaderAPIDx813ModifyTextureEi
__ZThn544_N13CShaderAPIDx813SelectionModeEb
__ZThn544_N13CShaderAPIDx813TexSubImage2DEiiiiiii11ImageFormatibPv
__ZThn544_N13CShaderAPIDx814ClearSnapshotsEv
__ZThn544_N13CShaderAPIDx814CreateTexturesEPiiiii11ImageFormatiiiPKcS3_
__ZThn544_N13CShaderAPIDx814EnableFastClipEb
__ZThn544_N13CShaderAPIDx814GetDynamicMeshEP9IMaterialibP5IMeshS3_
__ZThn544_N13CShaderAPIDx814GetMaxToRenderEP5IMeshbPiS2_
__ZThn544_N13CShaderAPIDx814LoadBoneMatrixEiPKf
__ZThn544_N13CShaderAPIDx814PopDeformationEv
__ZThn544_N13CShaderAPIDx814SetFlexWeightsEiiPK13MorphWeight_t
__ZThn544_N13CShaderAPIDx814SetHeightClipZEf
__ZThn544_N13CShaderAPIDx814SetRasterStateERK19ShaderRasterState_t
__ZThn544_N13CShaderAPIDx814SetScissorRectEiiiib
__ZThn544_N13CShaderAPIDx814SupportsFetch4Ev
__ZThn544_N13CShaderAPIDx814TexSetPriorityEi
__ZThn544_N13CShaderAPIDx815AdvancePIXFrameEv
__ZThn544_N13CShaderAPIDx815ApplyCullEnableEb
__ZThn544_N13CShaderAPIDx815BindIndexBufferEP12IIndexBufferi
__ZThn544_N13CShaderAPIDx815BindPixelShaderEP21PixelShaderHandle_t__
__ZThn544_N13CShaderAPIDx815ChangeVideoModeERK18ShaderDeviceInfo_t
__ZThn544_N13CShaderAPIDx815ComputeFillRateEv
__ZThn544_N13CShaderAPIDx815EnableClipPlaneEib
__ZThn544_N13CShaderAPIDx815GetFogDistancesEPfS0_S0_
__ZThn544_N13CShaderAPIDx815GetSceneFogModeEv
__ZThn544_N13CShaderAPIDx815MultMatrixLocalEPf
__ZThn544_N13CShaderAPIDx815OwnGPUResourcesEb
__ZThn544_N13CShaderAPIDx815PushDeformationEPK17DeformationBase_t
__ZThn544_N13CShaderAPIDx815SelectionBufferEPji
__ZThn544_N13CShaderAPIDx815SetAmbientLightEfff
__ZThn544_N13CShaderAPIDx815SetDefaultStateEv
__ZThn544_N13CShaderAPIDx815SetRenderTargetEii
__ZThn544_N13CShaderAPIDx815TexImageFromVTFEP11IVTFTexturei
__ZThn544_N13CShaderAPIDx816BindVertexBufferEiP13IVertexBufferiiiyi
__ZThn544_N13CShaderAPIDx816BindVertexShaderEP22VertexShaderHandle_t__
__ZThn544_N13CShaderAPIDx816CompareSnapshotsEss
__ZThn544_N13CShaderAPIDx816EnableHWMorphingEb
__ZThn544_N13CShaderAPIDx816EnabledSRGBWriteEb
__ZThn544_N13CShaderAPIDx816GetBoundMaterialEv
__ZThn544_N13CShaderAPIDx816GetBufferedStateER15BufferedState_t
__ZThn544_N13CShaderAPIDx816GetDynamicMeshExEP9IMaterialyibP5IMeshS3_
__ZThn544_N13CShaderAPIDx816GetPixelFogComboEv
__ZThn544_N13CShaderAPIDx816GetSceneFogColorEPh
__ZThn544_N13CShaderAPIDx816HandleDeviceLostEv
__ZThn544_N13CShaderAPIDx816ModifyVertexDataEv
__ZThn544_N13CShaderAPIDx816OnDeviceShutdownEv
__ZThn544_N13CShaderAPIDx816PopSelectionNameEv
__ZThn544_N13CShaderAPIDx816ResetRenderStateEb
__ZThn544_N13CShaderAPIDx816SceneFogColor3ubEhhh
__ZThn544_N13CShaderAPIDx816SetBumpEnvMatrixE14TextureStage_tffff
__ZThn544_N13CShaderAPIDx816SetFastClipPlaneEPKf
__ZThn544_N13CShaderAPIDx816SetPSNearAndFarZEi
__ZThn544_N13CShaderAPIDx816SetStencilEnableEb
__ZThn544_N13CShaderAPIDx816SupportsCSAAModeEii
__ZThn544_N13CShaderAPIDx816SupportsMSAAModeEi
__ZThn544_N13CShaderAPIDx817BindVertexTextureE22VertexTextureSampler_ti
__ZThn544_N13CShaderAPIDx817ForceHardwareSyncEv
__ZThn544_N13CShaderAPIDx817GetRenderTargetExEi
__ZThn544_N13CShaderAPIDx817IsTextureResidentEi
__ZThn544_N13CShaderAPIDx817LoadCameraToWorldEv
__ZThn544_N13CShaderAPIDx817LoadSelectionNameEi
__ZThn544_N13CShaderAPIDx817PushSelectionNameEi
__ZThn544_N13CShaderAPIDx817SetDisallowAccessEb
__ZThn544_N13CShaderAPIDx817SetHeightClipModeE24MaterialHeightClipMode_t
__ZThn544_N13CShaderAPIDx817SetLightingOriginE6Vector
__ZThn544_N13CShaderAPIDx817SetNumBoneWeightsEi
__ZThn544_N13CShaderAPIDx817SetRenderTargetExEiii
__ZThn544_N13CShaderAPIDx817UserClipTransformERK7VMatrix
__ZThn544_N13CShaderAPIDx818ApplyTextureEnableERK13ShadowState_ti
__ZThn544_N13CShaderAPIDx818BindGeometryShaderEP24GeometryShaderHandle_t__
__ZThn544_N13CShaderAPIDx818CreateDepthTextureE11ImageFormatiiPKcb
__ZThn544_N13CShaderAPIDx818GetDXLevelDefaultsERjS0_
__ZThn544_N13CShaderAPIDx818SetFlashlightStateERK17FlashlightState_tRK7VMatrix
__ZThn544_N13CShaderAPIDx818SetStencilTestMaskEj
__ZThn544_N13CShaderAPIDx819BindStandardTextureE9Sampler_t19StandardTextureId_t
__ZThn544_N13CShaderAPIDx819ClearSelectionNamesEv
__ZThn544_N13CShaderAPIDx819GetBoundMorphFormatEv
__ZThn544_N13CShaderAPIDx819OverrideDepthEnableEbb
__ZThn544_N13CShaderAPIDx819SetAmbientLightCubeEP8Vector4D
__ZThn544_N13CShaderAPIDx819SetAnisotropicLevelEi
__ZThn544_N13CShaderAPIDx819SetPixelShaderIndexEi
__ZThn544_N13CShaderAPIDx819SetSkinningMatricesEv
__ZThn544_N13CShaderAPIDx819SetStencilWriteMaskEj
__ZThn544_N13CShaderAPIDx819SetVertexBlendStateEi
__ZThn544_N13CShaderAPIDx820ApplyAlphaToCoverageEb
__ZThn544_N13CShaderAPIDx820CopyTextureToTextureEii
__ZThn544_N13CShaderAPIDx820DestroyVertexBuffersEb
__ZThn544_N13CShaderAPIDx820ExecuteCommandBufferEPh
__ZThn544_N13CShaderAPIDx820ForceDepthFuncEqualsEb
__ZThn544_N13CShaderAPIDx820GetNullTextureFormatEv
__ZThn544_N13CShaderAPIDx820RegisterSelectionHitEff
__ZThn544_N13CShaderAPIDx820ReleaseShaderObjectsEv
__ZThn544_N13CShaderAPIDx820RestoreShaderObjectsEv
__ZThn544_N13CShaderAPIDx820SetFlashlightStateExERK17FlashlightState_tRK7VMatrixP8ITexture
__ZThn544_N13CShaderAPIDx820SetVertexShaderIndexEi
__ZThn544_N13CShaderAPIDx821DXSupportLevelChangedEv
__ZThn544_N13CShaderAPIDx821DisableAllLocalLightsEv
__ZThn544_N13CShaderAPIDx821EnableAlphaToCoverageEv
__ZThn544_N13CShaderAPIDx821EvictManagedResourcesEv
__ZThn544_N13CShaderAPIDx821GetLightmapDimensionsEPiS0_
__ZThn544_N13CShaderAPIDx821GetMaxIndicesToRenderEv
__ZThn544_N13CShaderAPIDx821PerspectiveOffCenterXEdddddddd
__ZThn544_N13CShaderAPIDx821QueueResetRenderStateEv
__ZThn544_N13CShaderAPIDx822AcquireThreadOwnershipEv
__ZThn544_N13CShaderAPIDx822DisableAlphaToCoverageEv
__ZThn544_N13CShaderAPIDx822GetMaxVerticesToRenderEP9IMaterial
__ZThn544_N13CShaderAPIDx822GetVertexModifyBuilderEv
__ZThn544_N13CShaderAPIDx822MarkUnusedVertexFieldsEjiPb
__ZThn544_N13CShaderAPIDx822ReleaseThreadOwnershipEv
__ZThn544_N13CShaderAPIDx822SetPixelShaderConstantEiPKfib
__ZThn544_N13CShaderAPIDx823ClearBuffersObeyStencilEbb
__ZThn544_N13CShaderAPIDx823DisableTextureTransformE14TextureStage_t
__ZThn544_N13CShaderAPIDx823EnableShaderShaderMutexEb
__ZThn544_N13CShaderAPIDx823FlushBufferedPrimitivesEv
__ZThn544_N13CShaderAPIDx823GetCurrentDynamicVBSizeEv
__ZThn544_N13CShaderAPIDx823SetPixelShaderFogParamsEi
__ZThn544_N13CShaderAPIDx823SetStencilFailOperationE18StencilOperation_t
__ZThn544_N13CShaderAPIDx823SetStencilPassOperationE18StencilOperation_t
__ZThn544_N13CShaderAPIDx823SetVertexShaderConstantEiPKfib
__ZThn544_N13CShaderAPIDx824EnableBuffer2FramesAheadEb
__ZThn544_N13CShaderAPIDx824EndOcclusionQueryDrawingEP27ShaderAPIOcclusionQuery_t__
__ZThn544_N13CShaderAPIDx824OverrideAlphaWriteEnableEbb
__ZThn544_N13CShaderAPIDx824OverrideColorWriteEnableEbb
__ZThn544_N13CShaderAPIDx824SetIntRenderingParameterEii
__ZThn544_N13CShaderAPIDx824SetStandardTextureHandleE19StandardTextureId_ti
__ZThn544_N13CShaderAPIDx824SetStencilReferenceValueEi
__ZThn544_N13CShaderAPIDx824SetStencilZFailOperationE18StencilOperation_t
__ZThn544_N13CShaderAPIDx825BindStandardVertexTextureE22VertexTextureSampler_t19StandardTextureId_t
__ZThn544_N13CShaderAPIDx825ClearBuffersObeyStencilExEbbb
__ZThn544_N13CShaderAPIDx825CommitPixelShaderLightingEi
__ZThn544_N13CShaderAPIDx825CopyRenderTargetToTextureEi
__ZThn544_N13CShaderAPIDx825SetShadowDepthBiasFactorsEff
__ZThn544_N13CShaderAPIDx825SetStencilCompareFunctionE27StencilComparisonFunction_t
__ZThn544_N13CShaderAPIDx825SetToneMappingScaleLinearERK6Vector
__ZThn544_N13CShaderAPIDx826BeginOcclusionQueryDrawingEP27ShaderAPIOcclusionQuery_t__
__ZThn544_N13CShaderAPIDx826CreateOcclusionQueryObjectEv
__ZThn544_N13CShaderAPIDx826SetFloatRenderingParameterEif
__ZThn544_N13CShaderAPIDx826SetFullScreenTextureHandleEi
__ZThn544_N13CShaderAPIDx827ClearStencilBufferRectangleEiiiii
__ZThn544_N13CShaderAPIDx827CopyRenderTargetToTextureExEiiP6Rect_tS1_
__ZThn544_N13CShaderAPIDx827CopyTextureToRenderTargetExEiiP6Rect_tS1_
__ZThn544_N13CShaderAPIDx827DestroyOcclusionQueryObjectEP27ShaderAPIOcclusionQuery_t__
__ZThn544_N13CShaderAPIDx827GetShadowDepthTextureFormatEv
__ZThn544_N13CShaderAPIDx827SetVectorRenderingParameterEiRK6Vector
__ZThn544_N13CShaderAPIDx827SupportsShadowDepthTexturesEv
__ZThn544_N13CShaderAPIDx828GetAmbientLightCubeLuminanceEv
__ZThn544_N13CShaderAPIDx828GetStandardTextureDimensionsEPiS0_19StandardTextureId_t
__ZThn544_N13CShaderAPIDx828SetTextureTransformDimensionE14TextureStage_tib
__ZThn544_N13CShaderAPIDx829DrawWithVertexAndIndexBuffersEv
__ZThn544_N13CShaderAPIDx829SetBooleanPixelShaderConstantEiPKiib
__ZThn544_N13CShaderAPIDx829SetIntegerPixelShaderConstantEiPKiib
__ZThn544_N13CShaderAPIDx830SetBooleanVertexShaderConstantEiPKiib
__ZThn544_N13CShaderAPIDx830SetIntegerVertexShaderConstantEiPKiib
__ZThn544_N13CShaderAPIDx831EnableUserClipTransformOverrideEb
__ZThn544_N13CShaderAPIDx832CopyRenderTargetToScratchTextureEiiP6Rect_tS1_
__ZThn544_N13CShaderAPIDx832InvalidateDelayedShaderConstantsEv
__ZThn544_N13CShaderAPIDx832PurgeUnusedVertexAndPixelShadersEv
__ZThn544_N13CShaderAPIDx832SetStandardVertexShaderConstantsEf
__ZThn544_N13CShaderAPIDx833EnableLinearColorSpaceFrameBufferEb
__ZThn544_N13CShaderAPIDx833PerformFullScreenStencilOperationEv
__ZThn544_N13CShaderAPIDx834ClearVertexAndPixelShaderRefCountsEv
__ZThn544_N13CShaderAPIDx834SetLinearToGammaConversionTexturesEii
__ZThn544_N13CShaderAPIDx835OcclusionQuery_GetNumPixelsRenderedEP27ShaderAPIOcclusionQuery_t__b
__ZThn544_N13CShaderAPIDx835SetPixelShaderStateAmbientLightCubeEib
__ZThn544_N13CShaderAPIDx836SetVertexShaderStateAmbientLightCubeEv
__ZThn544_N13CShaderAPIDx836SetupSelectionModeVisualizationStateEv
__ZThn544_N13CShaderAPIDx837SetDepthFeatheringPixelShaderConstantEif
__ZThn544_N13CShaderAPIDx84BindEP9IMaterial
__ZThn544_N13CShaderAPIDx84DrawE23MaterialPrimitiveType_tii
__ZThn544_N13CShaderAPIDx84KnobEPcPf
__ZThn544_N13CShaderAPIDx85OrthoEdddddd
__ZThn544_N13CShaderAPIDx85ScaleEfff
__ZThn544_N13CShaderAPIDx86FogEndEf
__ZThn544_N13CShaderAPIDx86PrintfEPKcz
__ZThn544_N13CShaderAPIDx86RotateEffff
__ZThn544_N13CShaderAPIDx87Color3fEfff
__ZThn544_N13CShaderAPIDx87Color4fEffff
__ZThn544_N13CShaderAPIDx87FogModeE17MaterialFogMode_t
__ZThn544_N13CShaderAPIDx87ScaleXYEff
__ZThn544_N13CShaderAPIDx87SetFogZEf
__ZThn544_N13CShaderAPIDx87SetModeEPviRK18ShaderDeviceInfo_t
__ZThn544_N13CShaderAPIDx87TexLockEiiiiiiR12CPixelWriter
__ZThn544_N13CShaderAPIDx87TexWrapE25ShaderTexCoordComponent_t19ShaderTexWrapMode_t
__ZThn544_N13CShaderAPIDx88Color3fvEPKf
__ZThn544_N13CShaderAPIDx88Color3ubEhhh
__ZThn544_N13CShaderAPIDx88Color4fvEPKf
__ZThn544_N13CShaderAPIDx88Color4ubEhhhh
__ZThn544_N13CShaderAPIDx88CullModeE18MaterialCullMode_t
__ZThn544_N13CShaderAPIDx88DrawMeshEP9CMeshBase
__ZThn544_N13CShaderAPIDx88EndFrameEv
__ZThn544_N13CShaderAPIDx88FogStartEf
__ZThn544_N13CShaderAPIDx88LockRectEPPvPiiiiiiibb
__ZThn544_N13CShaderAPIDx88PrintfVAEPcS0_
__ZThn544_N13CShaderAPIDx88SetLightEiRK11LightDesc_t
__ZThn544_N13CShaderAPIDx89BeginPassEs
__ZThn544_N13CShaderAPIDx89Color3ubvEPKh
__ZThn544_N13CShaderAPIDx89Color4ubvEPKh
__ZThn544_N13CShaderAPIDx89GetMatrixE20MaterialMatrixMode_tPf
__ZThn544_N13CShaderAPIDx89IsTextureEi
__ZThn544_N13CShaderAPIDx89PopMatrixEv
__ZThn544_N13CShaderAPIDx89ShadeModeE17ShaderShadeMode_t
__ZThn544_N13CShaderAPIDx89SyncTokenEPKc
__ZThn544_N13CShaderAPIDx89TexUnlockEv
__ZThn544_N13CShaderAPIDx89TranslateEfff
__ZThn544_N13CShaderAPIDx8D0Ev
__ZThn544_N13CShaderAPIDx8D1Ev
__ZThn544_NK13CShaderAPIDx811CurrentTimeEv
__ZThn544_NK13CShaderAPIDx811GetCullModeEv
__ZThn544_NK13CShaderAPIDx812GetMaxLightsEv
__ZThn544_NK13CShaderAPIDx812GetViewportsEP16ShaderViewport_ti
__ZThn544_NK13CShaderAPIDx812InEditorModeEv
__ZThn544_NK13CShaderAPIDx813IsAlphaTestedEs
__ZThn544_NK13CShaderAPIDx813IsTranslucentEs
__ZThn544_NK13CShaderAPIDx815IsRenderingMeshEv
__ZThn544_NK13CShaderAPIDx816GetDX9LightStateEP12LightState_t
__ZThn544_NK13CShaderAPIDx816InFlashlightModeEv
__ZThn544_NK13CShaderAPIDx817GetCurrentFogTypeEv
__ZThn544_NK13CShaderAPIDx817IsInSelectionModeEv
__ZThn544_NK13CShaderAPIDx818ComputeMorphFormatEiPs
__ZThn544_NK13CShaderAPIDx818ComputeVertexUsageEiPs
__ZThn544_NK13CShaderAPIDx818GetCurrentNumBonesEv
__ZThn544_NK13CShaderAPIDx818GetFlashlightStateER7VMatrix
__ZThn544_NK13CShaderAPIDx819CanDownloadTexturesEv
__ZThn544_NK13CShaderAPIDx819ComputeVertexFormatEiPs
__ZThn544_NK13CShaderAPIDx819IsDepthWriteEnabledEs
__ZThn544_NK13CShaderAPIDx819IsHWMorphingEnabledEv
__ZThn544_NK13CShaderAPIDx820GetCurrentLightComboEv
__ZThn544_NK13CShaderAPIDx820GetFlashlightStateExER7VMatrixPP8ITexture
__ZThn544_NK13CShaderAPIDx821GetActualSamplerCountEv
__ZThn544_NK13CShaderAPIDx822GetCurrentFrameCounterEv
__ZThn544_NK13CShaderAPIDx822GetLightMapScaleFactorEv
__ZThn544_NK13CShaderAPIDx823GetBackBufferDimensionsERiS0_
__ZThn544_NK13CShaderAPIDx824ComputeVertexDescriptionEPhyR10MeshDesc_t
__ZThn544_NK13CShaderAPIDx824GetIntRenderingParameterEi
__ZThn544_NK13CShaderAPIDx824GetNumActiveDeformationsEv
__ZThn544_NK13CShaderAPIDx825GetNearestSupportedFormatE11ImageFormatb
__ZThn544_NK13CShaderAPIDx825GetToneMappingScaleLinearEv
__ZThn544_NK13CShaderAPIDx825UsesVertexAndPixelShadersEs
__ZThn544_NK13CShaderAPIDx826GetActualTextureStageCountEv
__ZThn544_NK13CShaderAPIDx826GetFloatRenderingParameterEi
__ZThn544_NK13CShaderAPIDx827GetVectorRenderingParameterEi
__ZThn544_NK13CShaderAPIDx827GetWorldSpaceCameraPositionEPf
__ZThn544_NK13CShaderAPIDx827ShouldWriteDepthToDestAlphaEv
__ZThn544_NK13CShaderAPIDx828GetNearestRenderTargetFormatE11ImageFormat
__ZThn544_NK13CShaderAPIDx829UsingSoftwareVertexProcessingEv
__ZThn544_NK13CShaderAPIDx830GammaToLinear_HardwareSpecificEf
__ZThn544_NK13CShaderAPIDx830LinearToGamma_HardwareSpecificEf
__ZThn544_NK13CShaderAPIDx831GetPackedDeformationInformationEiPfiiPi
__ZThn544_NK13CShaderAPIDx838DoRenderTargetsNeedSeparateDepthBufferEv
__ZThn544_NK13CShaderAPIDx88GetLightEi
__ZThn548_N13CShaderAPIDx819GetDebugTextureListEv
__ZThn548_N13CShaderAPIDx820EnableGetAllTexturesEb
__ZThn548_N13CShaderAPIDx820GetTextureMemoryUsedEN17IDebugTextureInfo17TextureMemoryTypeE
__ZThn548_N13CShaderAPIDx822EnableDebugTextureListEb
__ZThn548_N13CShaderAPIDx823IsDebugTextureListFreshEi
__ZThn548_N13CShaderAPIDx824SetDebugTextureRenderingEb
__ZThn8_N9CFunctor1IPFvP21IDirect3DBaseTexture9ES1_12CRefCounted1I8CFunctor20CRefCountServiceBaseILb1E6CRefMTEEED0Ev
__ZThn8_N9CFunctor1IPFvP21IDirect3DBaseTexture9ES1_12CRefCounted1I8CFunctor20CRefCountServiceBaseILb1E6CRefMTEEED1Ev
__ZZ17ComputeVertexDescPhyR12VertexDesc_tE4temp
__ZZL18InitShaderAPICVarsvE16g_ConVarAccessor
__ZZN10CUtlSymbol10InitializeEvE18symbolsInitialized
__ZZN12CIndexBuffer26HandlePerFrameTextureStatsEiE8_counter
__ZZN12CIndexBufferC1EP16IDirect3DDevice9ibbE8_counter
__ZZN12CIndexBufferD1EvE8_counter
__ZZN12CPixelWriter14SetPixelMemoryE11ImageFormatPviE20format_error_printed
__ZZN12CTempMeshDX813TestSelectionEvE15transformedVert
__ZZN13CShaderAPIDx815ComputeFillRateEvE4pBuf
__ZZN13CShaderAPIDx815SetTextureStateE9Sampler_tibE20materialSystemConfig
__ZZN13CShaderAPIDx817ExportTextureListEvE8_counter
__ZZN13CShaderAPIDx817ExportTextureListEvE8_counter_0
__ZZN13CShaderAPIDx87SetModeEPviRK18ShaderDeviceInfo_tE12bSetModeOnce
__ZZN14CShaderManager19CreateStaticShadersEvE17psIllegalMaterial
__ZZN15CIndexBufferDx826HandlePerFrameTextureStatsEiE8_counter
__ZZN15CIndexBufferDx84FreeEvE8_counter
__ZZN15CIndexBufferDx84FreeEvE8_counter_0
__ZZN15CIndexBufferDx88AllocateEvE8_counter
__ZZN15CIndexBufferDx88AllocateEvE8_counter_0
__ZZN16CShaderShadowDX824VertexShaderVertexFormatEjiPiiE11bComplained
__ZZN8CMeshDX810RenderPassEvE8_counter
__ZZN8CMeshDX810RenderPassEvE8_counter_0
__ZZN8CMeshDX810RenderPassEvE8_counter_1
__ZZN8CMeshDX810RenderPassEvE8_counter_2
__ZZN8CMeshDX819IsValidVertexFormatEyE11numWarnings
__ZZN8CMeshDX820SetVertexStreamStateEiE7bWarned
__ZZN9ConVarRef4InitEPKcbE6bFirst
__ZZN9KeyValues13SaveKeyToFileEPS_P15IBaseFileSystemPvP10CUtlBufferibbE3buf
__ZZNK15CHardwareConfig21HasFastVertexTexturesEvE25bEnableFastVertexTextures
__ZdaPv
__ZdlPv
__Znam
__Znwm
___bzero
___clang_call_terminate
___cxa_atexit
___cxa_begin_catch
___cxa_call_unexpected
___cxa_guard_abort
___cxa_guard_acquire
___cxa_guard_release
___cxa_pure_virtual
___error
___gxx_personality_v0
___maskrune
___stack_chk_fail
___stack_chk_guard
___tolower
_atof
_atoi
_colorcorrection
_cosf
_cvar
_gGL
_g_KeyValuesErrorStack
_g_VBAllocTracker
_g_VBAllocTrackerShaderAPI
_g_VProfCurrentProfile
_g_bShaderAccessDisallowed
_g_bUseShaderMutex
_g_pCVar
_g_pD3DDevice
_g_pFullFileSystem
_g_pHardwareConfig
_g_pInputSystem
_g_pMaterialSystem
_g_pMaterialSystemDebugTextureInfo
_g_pMaterialSystemHardwareConfig
_g_pMemAlloc
_g_pNetworkSystem
_g_pProcessUtils
_g_pQueuedLoader
_g_pShaderAPI
_g_pShaderAPIDX8
_g_pShaderDevice
_g_pShaderDeviceDx8
_g_pShaderDeviceMgr
_g_pShaderDeviceMgrDx8
_g_pShaderManager
_g_pShaderShadow
_g_pShaderShadowDx8
_g_pShaderUtil
_g_pTransitionTable
_g_pUtlSortVectorQSortContext
_k_pszShaderCacheRootKey
_lineartolightmap
_lineartovertex
_lzma_persistent_buffer
_mat_autoload_glshaders
_mat_autosave_glshaders
_mat_debugalttab
_mat_depthbias_shadowmap
_mat_fastclip
_mat_frame_sync_enable
_mat_frame_sync_force_texture
_mat_hdr_level
_mat_slopescaledepthbias_shadowmap
_mat_texture_limit
_materials
_mdllib
_memcmp
_memcpy
_memmove
_memset_pattern16
_p4
_pfFastCos
_pfFastSinCos
_pfInvRSquared
_pfRSqrt
_pfRSqrtFast
_pfSqrt
_pfVectorNormalize
_pfVectorNormalizeFast
_pow
_pthread_mutex_destroy
_pthread_mutex_init
_pthread_mutex_lock
_pthread_mutex_unlock
_pthread_mutexattr_init
_pthread_mutexattr_settype
_qsort
_raise
_s_NoEscConversion
_s_StringCharConversion
_s_bMathlibInitialized
_s_pIllegalMaterialPS
_s_pRenderFunctionTable
_s_pTextureFunctionTable
_sin
_sprintf
_sscanf
_strcasecmp
_strchr
_strcmp
_strlen
_strncat
_strncpy
_strtod$UNIX2003
_strtol
_strtoul
_swprintf
_tan
_toglGetClientRect
_vsnprintf
_wcslen
_wcstol
dyld_stub_binder
