GCC_except_table0
GCC_except_table0
GCC_except_table1
GCC_except_table1
GCC_except_table11
GCC_except_table112
GCC_except_table12
GCC_except_table12
GCC_except_table13
GCC_except_table13
GCC_except_table14
GCC_except_table15
GCC_except_table16
GCC_except_table18
GCC_except_table2
GCC_except_table20
GCC_except_table22
GCC_except_table24
GCC_except_table24
GCC_except_table25
GCC_except_table27
GCC_except_table31
GCC_except_table33
GCC_except_table37
GCC_except_table38
GCC_except_table44
GCC_except_table46
GCC_except_table47
GCC_except_table5
GCC_except_table52
GCC_except_table58
GCC_except_table66
GCC_except_table7
GCC_except_table72
GCC_except_table73
GCC_except_table74
GCC_except_table75
GCC_except_table76
GCC_except_table76
GCC_except_table79
GCC_except_table81
GCC_except_table82
GCC_except_table83
GCC_except_table87
GCC_except_table88
GCC_except_table90
GCC_except_table92
_COM_TimestampedLog
_CreateInterface
_DevMsg
_Error
_KeyValuesSystem
_Msg
_RandomFloat
_RandomFloatExp
_RandomInt
_ThreadGetCurrentId
_ThreadInterlockedAssignIf
_ThreadInterlockedExchange
_Warning
_ZERO_FLOAT16
__DefaultRuneLocale
__GLOBAL__sub_I_KeyValues.stdout.rel_tf_osx_builder.55432.qZWQhg.ii
__GLOBAL__sub_I_convar.stdout.rel_tf_osx_builder.55430.mXKsKU.ii
__GLOBAL__sub_I_soundemitt.stdout.rel_tf_osx_builder.55870.Ib3R1g.ii
__GLOBAL__sub_I_utlbuffer.stdout.rel_tf_osx_builder.8986.vt30zT.ii
__GLOBAL__sub_I_utlsymbol.stdout.rel_tf_osx_builder.55484.zcRfnN.ii
__Unwind_Resume
__Z10CRC32_InitPj
__Z10V_FileBasePKcPci
__Z10V_snprintfPciPKcz
__Z10V_strnicmpPKcS0_i
__Z11CRC32_FinalPj
__Z11V_vsnprintfPciPKcS_
__Z12ReadIntervalPKc
__Z13Q_UTF32ToUTF8PKwPci25EStringConvertErrorPolicy
__Z13TextToChannelPKc
__Z16TextToSoundLevelPKc
__Z18Sys_GetFactoryThisv
__Z19CRC32_ProcessBufferPjPKvi
__Z19EvaluateConditionalPKc
__Z22GetNoEscCharConversionv
__Z23CreateInterfaceInternalPKcPi
__Z24GetCStringCharConversionv
__Z6DevMsgPKcz
__Z6V_atofPKc
__Z9V_stricmpPKcS0_
__Z9V_stristrPKcS0_
__Z9V_strncatPcPKcmi
__Z9V_strncmpPKcS0_i
__Z9V_strncpyPcPKci
__ZGVZN23CSoundEmitterSystemBase21GetParametersForSoundEPKcR16CSoundParameters8gender_tbE13soundWarnings
__ZGVZN23CSoundEmitterSystemBase23GetParametersForSoundExEPKcRsR16CSoundParameters8gender_tbE13soundWarnings
__ZL10filesystem
__ZL11pulCRCTable
__ZL11s_pTokenBuf
__ZL11vec2_origin
__ZL11vec2_origin
__ZL11vec2_origin
__ZL11vec2_origin
__ZL11vec2_origin
__ZL12vec2_invalid
__ZL12vec2_invalid
__ZL12vec2_invalid
__ZL12vec2_invalid
__ZL12vec2_invalid
__ZL13s_EmptyConVar
__ZL14g_RandomStream
__ZL14g_pPitchLookup
__ZL14g_pSoundLevels
__ZL15g_pChannelNames
__ZL16s_nDLLIdentifier
__ZL20g_CleanupSymbolTable
__ZL21s_LastFileLoadingFrom
__ZL35s_pConversionArrays_NoEscConversion
__ZL40s_pConversionArrays_StringCharConversion
__ZL60__g_CreateCSoundEmitterSystemBaseISoundEmitterSystemBase_reg
__ZL64__CreateCSoundEmitterSystemBaseISoundEmitterSystemBase_interfacev
__ZL9g_KVMutex
__ZN10CUtlBuffer11GetOverflowEi
__ZN10CUtlBuffer11PutOverflowEi
__ZN10CUtlBuffer12AssumeMemoryEPviii
__ZN10CUtlBuffer13EatCPPCommentEv
__ZN10CUtlBuffer13EatWhiteSpaceEv
__ZN10CUtlBuffer14PeekWhiteSpaceEi
__ZN10CUtlBuffer15PeekStringMatchEiPKci
__ZN10CUtlBuffer16PeekStringLengthEv
__ZN10CUtlBuffer17GetStringInternalEPcm
__ZN10CUtlBuffer18AddNullTerminationEv
__ZN10CUtlBuffer18GetDelimitedStringEP18CUtlCharConversionPci
__ZN10CUtlBuffer21CheckArbitraryPeekGetEiRi
__ZN10CUtlBuffer24GetDelimitedCharInternalEP18CUtlCharConversion
__ZN10CUtlBuffer3PutEPKvi
__ZN10CUtlBuffer5ScanfEPKcz
__ZN10CUtlBuffer6PrintfEPKcz
__ZN10CUtlBuffer7PeekGetEii
__ZN10CUtlBuffer7SeekGetENS_10SeekType_tEi
__ZN10CUtlBuffer7VaScanfEPKcPc
__ZN10CUtlBuffer8CheckPutEi
__ZN10CUtlBuffer9PutStringEPKc
__ZN10CUtlBufferC1EPKvii
__ZN10CUtlBufferC1Eiii
__ZN10CUtlBufferC2EPKvii
__ZN10CUtlBufferC2Eiii
__ZN10CUtlMemoryI15UtlRBTreeNode_tIN15CUtlSymbolTable16CStringPoolIndexEtEtE4GrowEi
__ZN10CUtlMemoryI19UtlLinkedListElem_tI16CUtlKeyValuePairIP11CSoundEntry7empty_tEtEtE4GrowEi
__ZN10CUtlRBTreeIN15CUtlSymbolTable16CStringPoolIndexEtNS0_5CLessE10CUtlMemoryI15UtlRBTreeNode_tIS1_tEtEE10RotateLeftEt
__ZN10CUtlRBTreeIN15CUtlSymbolTable16CStringPoolIndexEtNS0_5CLessE10CUtlMemoryI15UtlRBTreeNode_tIS1_tEtEE11RotateRightEt
__ZN10CUtlRBTreeIN15CUtlSymbolTable16CStringPoolIndexEtNS0_5CLessE10CUtlMemoryI15UtlRBTreeNode_tIS1_tEtEE15InsertRebalanceEt
__ZN10CUtlRBTreeIN15CUtlSymbolTable16CStringPoolIndexEtNS0_5CLessE10CUtlMemoryI15UtlRBTreeNode_tIS1_tEtEE5PurgeEv
__ZN10CUtlRBTreeIN15CUtlSymbolTable16CStringPoolIndexEtNS0_5CLessE10CUtlMemoryI15UtlRBTreeNode_tIS1_tEtEE6InsertERKS1_
__ZN10CUtlRBTreeIN15CUtlSymbolTable16CStringPoolIndexEtNS0_5CLessE10CUtlMemoryI15UtlRBTreeNode_tIS1_tEtEE7NewNodeEv
__ZN10CUtlRBTreeIN15CUtlSymbolTable16CStringPoolIndexEtNS0_5CLessE10CUtlMemoryI15UtlRBTreeNode_tIS1_tEtEED2Ev
__ZN10CUtlSymbol14s_pSymbolTableE
__ZN10CUtlVectorIN23CSoundEmitterSystemBase16CSoundScriptFileE10CUtlMemoryIS1_iEED2Ev
__ZN10CUtlVectorIP11CSoundEntry10CUtlMemoryIS1_iEED2Ev
__ZN10CUtlVectorIP9KeyValues10CUtlMemoryIS1_iEE10GrowVectorEi
__ZN10CUtlVectorIP9KeyValues10CUtlMemoryIS1_iEED2Ev
__ZN10CUtlVectorIPKc10CUtlMemoryIS1_iEED2Ev
__ZN10CUtlVectorIPN15CUtlSymbolTable12StringPool_tE10CUtlMemoryIS2_iEED2Ev
__ZN10CUtlVectorIPv10CUtlMemoryIS0_iEED2Ev
__ZN10CUtlVectorIi10CUtlMemoryIiiEE9AddToTailERKi
__ZN10CUtlVectorIi10CUtlMemoryIiiEED2Ev
__ZN12CEmptyConVar8SetValueEPKc
__ZN12CEmptyConVar8SetValueEf
__ZN12CEmptyConVar8SetValueEi
__ZN12CEmptyConVarD0Ev
__ZN12CEmptyConVarD1Ev
__ZN12InterfaceReg16s_pInterfaceRegsE
__ZN12InterfaceRegC1EPFPvvEPKc
__ZN13CUtlHashtableI19CUtlConstStringBaseIcE8gender_t25CaselessStringHashFunctor40UTLConstStringCaselessStringEqualFunctorIcEPKcE21DoInsertUnconstructedEjb
__ZN13CUtlHashtableI19CUtlConstStringBaseIcE8gender_t25CaselessStringHashFunctor40UTLConstStringCaselessStringEqualFunctorIcEPKcE5PurgeEv
__ZN13CUtlHashtableI19CUtlConstStringBaseIcE8gender_t25CaselessStringHashFunctor40UTLConstStringCaselessStringEqualFunctorIcEPKcE8DoInsertIS7_EEjT_RKS2_jPb
__ZN13CUtlHashtableI19CUtlConstStringBaseIcE8gender_t25CaselessStringHashFunctor40UTLConstStringCaselessStringEqualFunctorIcEPKcE9BumpEntryEj
__ZN13CUtlHashtableI19CUtlConstStringBaseIcE8gender_t25CaselessStringHashFunctor40UTLConstStringCaselessStringEqualFunctorIcEPKcE9DoReallocEi
__ZN13CUtlHashtableI19CUtlConstStringBaseIcE8gender_t25CaselessStringHashFunctor40UTLConstStringCaselessStringEqualFunctorIcEPKcED2Ev
__ZN13CUtlHashtableIN19CUtlStableHashtableIP11CSoundEntry7empty_t22CSoundEntryHashFunctor23CSoundEntryEqualFunctortPKcE13IndirectIndexES3_NS8_9HashProxyENS8_10EqualProxyES7_E21DoInsertUnconstructedEjb
__ZN13CUtlHashtableIN19CUtlStableHashtableIP11CSoundEntry7empty_t22CSoundEntryHashFunctor23CSoundEntryEqualFunctortPKcE13IndirectIndexES3_NS8_9HashProxyENS8_10EqualProxyES7_E8DoRemoveIRKS9_EEiT_j
__ZN13CUtlHashtableIN19CUtlStableHashtableIP11CSoundEntry7empty_t22CSoundEntryHashFunctor23CSoundEntryEqualFunctortPKcE13IndirectIndexES3_NS8_9HashProxyENS8_10EqualProxyES7_E8DoRemoveIS9_EEiT_j
__ZN13CUtlHashtableIN19CUtlStableHashtableIP11CSoundEntry7empty_t22CSoundEntryHashFunctor23CSoundEntryEqualFunctortPKcE13IndirectIndexES3_NS8_9HashProxyENS8_10EqualProxyES7_E9BumpEntryEj
__ZN13CUtlHashtableIN19CUtlStableHashtableIP11CSoundEntry7empty_t22CSoundEntryHashFunctor23CSoundEntryEqualFunctortPKcE13IndirectIndexES3_NS8_9HashProxyENS8_10EqualProxyES7_E9DoReallocEi
__ZN14CUtlLinkedListI16CUtlKeyValuePairIP11CSoundEntry7empty_tEtLb0Et10CUtlMemoryI19UtlLinkedListElem_tIS4_tEtEE10LinkBeforeEtt
__ZN14CUtlLinkedListI16CUtlKeyValuePairIP11CSoundEntry7empty_tEtLb0Et10CUtlMemoryI19UtlLinkedListElem_tIS4_tEtEE13AllocInternalEb
__ZN14CUtlLinkedListI16CUtlKeyValuePairIP11CSoundEntry7empty_tEtLb0Et10CUtlMemoryI19UtlLinkedListElem_tIS4_tEtEE5PurgeEv
__ZN14CUtlLinkedListI16CUtlKeyValuePairIP11CSoundEntry7empty_tEtLb0Et10CUtlMemoryI19UtlLinkedListElem_tIS4_tEtEED2Ev
__ZN14ConCommandBase10CreateBaseEPKcS1_i
__ZN14ConCommandBase11s_pAccessorE
__ZN14ConCommandBase18s_pConCommandBasesE
__ZN15CUtlSymbolTable9AddStringEPKc
__ZN15CUtlSymbolTable9RemoveAllEv
__ZN15CUtlSymbolTableC1Eiib
__ZN15CUtlSymbolTableD1Ev
__ZN15CUtlSymbolTableD2Ev
__ZN17CThreadSyncObjectD2Ev
__ZN18CUtlCharConversion14FindConversionEPKcPi
__ZN19CUtlNoEscConversion14FindConversionEPKcPi
__ZN19CUtlStableHashtableIP11CSoundEntry7empty_t22CSoundEntryHashFunctor23CSoundEntryEqualFunctortPKcE16RemoveAndAdvanceEj
__ZN19CUtlStableHashtableIP11CSoundEntry7empty_t22CSoundEntryHashFunctor23CSoundEntryEqualFunctortPKcE8DoInsertIS1_EEjT_
__ZN19CUtlStableHashtableIP11CSoundEntry7empty_t22CSoundEntryHashFunctor23CSoundEntryEqualFunctortPKcE8DoRemoveIS1_EEbT_
__ZN19CUtlStableHashtableIP11CSoundEntry7empty_t22CSoundEntryHashFunctor23CSoundEntryEqualFunctortPKcED1Ev
__ZN20CKeyValuesErrorStack11ReportErrorEPKc
__ZN21CUtlCStringConversion14FindConversionEPKcPi
__ZN21CUtlCStringConversionC2EcPKciPN18CUtlCharConversion17ConversionArray_tE
__ZN22CCleanupUtlSymbolTableD1Ev
__ZN23CSoundEmitterSystemBase10DisconnectEv
__ZN23CSoundEmitterSystemBase11AddWaveNameEPKc
__ZN23CSoundEmitterSystemBase11GetWaveNameER10CUtlSymbol
__ZN23CSoundEmitterSystemBase11ModShutdownEv
__ZN23CSoundEmitterSystemBase11RemoveSoundEPKc
__ZN23CSoundEmitterSystemBase11RenameSoundEPKcS1_
__ZN23CSoundEmitterSystemBase12GetSoundNameEi
__ZN23CSoundEmitterSystemBase12IsValidIndexEi
__ZN23CSoundEmitterSystemBase13GetSoundCountEv
__ZN23CSoundEmitterSystemBase14GetActorGenderEPKc
__ZN23CSoundEmitterSystemBase14QueryInterfaceEPKc
__ZN23CSoundEmitterSystemBase15InternalModInitEv
__ZN23CSoundEmitterSystemBase16LoadGlobalActorsEv
__ZN23CSoundEmitterSystemBase16LookupSoundLevelEPKc
__ZN23CSoundEmitterSystemBase17AddSoundOverridesEPKcb
__ZN23CSoundEmitterSystemBase17AddSoundsFromFileEPKcbbb
__ZN23CSoundEmitterSystemBase18GenderExpandStringE8gender_tPKcPci
__ZN23CSoundEmitterSystemBase18GenderExpandStringEPKcS1_Pci
__ZN23CSoundEmitterSystemBase18GetWavFileForSoundEPKc8gender_t
__ZN23CSoundEmitterSystemBase18GetWavFileForSoundEPKcS1_
__ZN23CSoundEmitterSystemBase18IsUsingGenderTokenEPKc
__ZN23CSoundEmitterSystemBase19ClearSoundOverridesEv
__ZN23CSoundEmitterSystemBase19InternalModShutdownEv
__ZN23CSoundEmitterSystemBase20TranslateAttenuationEPKc
__ZN23CSoundEmitterSystemBase21ExpandSoundNameMacrosER24CSoundParametersInternalPKc
__ZN23CSoundEmitterSystemBase21GetParametersForSoundEPKcR16CSoundParameters8gender_tb
__ZN23CSoundEmitterSystemBase21UpdateSoundParametersEPKcRK24CSoundParametersInternal
__ZN23CSoundEmitterSystemBase22FindBestSoundForGenderEP9SoundFilei8gender_t
__ZN23CSoundEmitterSystemBase23CheckForMissingWavFilesEb
__ZN23CSoundEmitterSystemBase23GetParametersForSoundExEPKcRsR16CSoundParameters8gender_tb
__ZN23CSoundEmitterSystemBase24LookupSoundLevelByHandleEPKcRs
__ZN23CSoundEmitterSystemBase24ReloadSoundEntriesInListEP9IFileList
__ZN23CSoundEmitterSystemBase24SaveChangesToSoundScriptEi
__ZN23CSoundEmitterSystemBase27GetManifestFileTimeChecksumEv
__ZN23CSoundEmitterSystemBase27InitSoundInternalParametersEPKcP9KeyValuesR24CSoundParametersInternal
__ZN23CSoundEmitterSystemBase29EnsureAvailableSlotsForGenderEP9SoundFilei8gender_t
__ZN23CSoundEmitterSystemBase29InternalGetParametersForSoundEi
__ZN23CSoundEmitterSystemBase4InitEv
__ZN23CSoundEmitterSystemBase5FlushEv
__ZN23CSoundEmitterSystemBase7ConnectEPFPvPKcPiE
__ZN23CSoundEmitterSystemBase7ModInitEv
__ZN23CSoundEmitterSystemBase8AddSoundEPKcS1_RK24CSoundParametersInternal
__ZN23CSoundEmitterSystemBase8ShutdownEv
__ZN23CSoundEmitterSystemBase9MoveSoundEPKcS1_
__ZN23CSoundEmitterSystemBaseC2Ev
__ZN23CSoundEmitterSystemBaseD0Ev
__ZN23CSoundEmitterSystemBaseD1Ev
__ZN24CSoundParametersInternal15PitchFromStringEPKc
__ZN24CSoundParametersInternal16VolumeFromStringEPKc
__ZN24CSoundParametersInternal17ChannelFromStringEPKc
__ZN24CSoundParametersInternal20SoundLevelFromStringEPKc
__ZN24CSoundParametersInternal8CopyFromERKS_
__ZN24CSoundParametersInternal9AddToTailEPP9SoundFilePtRKS0_
__ZN24CSoundParametersInternalC1Ev
__ZN24CSoundParametersInternalD1Ev
__ZN32CSoundEmitterUniformRandomStream11RandomFloatEff
__ZN32CSoundEmitterUniformRandomStream14RandomFloatExpEfff
__ZN32CSoundEmitterUniformRandomStream7SetSeedEi
__ZN32CSoundEmitterUniformRandomStream9RandomIntEii
__ZN6ConVar10ClampValueERf
__ZN6ConVar16InternalSetValueEPKc
__ZN6ConVar17ChangeStringValueEPKcf
__ZN6ConVar19InternalSetIntValueEi
__ZN6ConVar21InternalSetFloatValueEfb
__ZN6ConVar4InitEv
__ZN6ConVar6CreateEPKcS1_iS1_bfbfbfbfPFvP7IConVarS1_fE
__ZN6ConVar8AddFlagsEi
__ZN6ConVar8SetValueEPKc
__ZN6ConVar8SetValueEf
__ZN6ConVar8SetValueEi
__ZN6ConVarD0Ev
__ZN6ConVarD1Ev
__ZN7float1620ConvertFloatTo16bitsEf
__ZN9KeyValues10deleteThisEv
__ZN9KeyValues12LoadFromFileEP15IBaseFileSystemPKcS3_b
__ZN9KeyValues14LoadFromBufferEPKcR10CUtlBufferP15IBaseFileSystemS1_
__ZN9KeyValues14LoadFromBufferEPKcS1_P15IBaseFileSystemS1_
__ZN9KeyValues16RemoveEverythingEv
__ZN9KeyValues17ParseIncludedKeysEPKcS1_P15IBaseFileSystemS1_R10CUtlVectorIPS_10CUtlMemoryIS5_iEE
__ZN9KeyValues22s_pfGetStringForSymbolE
__ZN9KeyValues22s_pfGetSymbolForStringE
__ZN9KeyValues23RecursiveLoadFromBufferEPKcR10CUtlBuffer
__ZN9KeyValues23RecursiveMergeKeyValuesEPS_
__ZN9KeyValues25GetStringForSymbolClassicEi
__ZN9KeyValues25GetSymbolForStringClassicEPKcb
__ZN9KeyValues28CreateKeyUsingKnownLastChildEPKcPS_
__ZN9KeyValues6GetIntEPKci
__ZN9KeyValues7FindKeyEPKcb
__ZN9KeyValues9GetStringEPKcS1_
__ZN9KeyValues9ReadTokenER10CUtlBufferRbS2_
__ZN9KeyValues9SetStringEPKcS1_
__ZN9KeyValuesC1EPKc
__ZN9KeyValuesdlEPv
__ZN9KeyValuesnwEm
__ZNK12CEmptyConVar7GetNameEv
__ZNK12CEmptyConVar9IsFlagSetEi
__ZNK13CUtlHashtableI19CUtlConstStringBaseIcE8gender_t25CaselessStringHashFunctor40UTLConstStringCaselessStringEqualFunctorIcEPKcE4FindES7_
__ZNK13CUtlHashtableIN19CUtlStableHashtableIP11CSoundEntry7empty_t22CSoundEntryHashFunctor23CSoundEntryEqualFunctortPKcE13IndirectIndexES3_NS8_9HashProxyENS8_10EqualProxyES7_E8DoLookupIS2_EEjT_jPj
__ZNK13CUtlHashtableIN19CUtlStableHashtableIP11CSoundEntry7empty_t22CSoundEntryHashFunctor23CSoundEntryEqualFunctortPKcE13IndirectIndexES3_NS8_9HashProxyENS8_10EqualProxyES7_E8DoLookupIS7_EEjT_jPj
__ZNK14ConCommandBase16GetDLLIdentifierEv
__ZNK15CUtlSymbolTable4FindEPKc
__ZNK15CUtlSymbolTable5CLessclERKNS_16CStringPoolIndexES3_
__ZNK15CUtlSymbolTable6StringE10CUtlSymbol
__ZNK16sound_interval_tI19float16_with_assignE6RandomEv
__ZNK23CSoundEmitterSystemBase12InvalidIndexEv
__ZNK23CSoundEmitterSystemBase13GetSoundIndexEPKc
__ZNK23CSoundEmitterSystemBase15FindSoundScriptEPKc
__ZNK23CSoundEmitterSystemBase18GetNumSoundScriptsEv
__ZNK23CSoundEmitterSystemBase18GetSoundScriptNameEi
__ZNK23CSoundEmitterSystemBase18IsSoundScriptDirtyEi
__ZNK23CSoundEmitterSystemBase21GetSourceFileForSoundEi
__ZNK23CSoundEmitterSystemBase4NextEi
__ZNK23CSoundEmitterSystemBase5FirstEv
__ZNK24CSoundParametersInternal13PitchToStringEv
__ZNK24CSoundParametersInternal14VolumeToStringEv
__ZNK24CSoundParametersInternal15ChannelToStringEv
__ZNK24CSoundParametersInternal18SoundLevelToStringEv
__ZNK24CSoundParametersInternaleqERKS_
__ZNK6ConVar11GetHelpTextEv
__ZNK6ConVar12IsRegisteredEv
__ZNK6ConVar7GetNameEv
__ZNK6ConVar9IsCommandEv
__ZNK6ConVar9IsFlagSetEi
__ZNK9KeyValues7GetNameEv
__ZNK9KeyValues8MakeCopyEv
__ZNV16CThreadFastMutex4LockEjj
__ZSt9terminatev
__ZTI10IAppSystem
__ZTI12CEmptyConVar
__ZTI14ConCommandBase
__ZTI18CUtlCharConversion
__ZTI19CUtlNoEscConversion
__ZTI20IUniformRandomStream
__ZTI21CUtlCStringConversion
__ZTI23CSoundEmitterSystemBase
__ZTI23ISoundEmitterSystemBase
__ZTI32CSoundEmitterUniformRandomStream
__ZTI6ConVar
__ZTI7IConVar
__ZTISt9bad_alloc
__ZTS10IAppSystem
__ZTS12CEmptyConVar
__ZTS14ConCommandBase
__ZTS18CUtlCharConversion
__ZTS19CUtlNoEscConversion
__ZTS20IUniformRandomStream
__ZTS21CUtlCStringConversion
__ZTS23CSoundEmitterSystemBase
__ZTS23ISoundEmitterSystemBase
__ZTS32CSoundEmitterUniformRandomStream
__ZTS6ConVar
__ZTS7IConVar
__ZTV12CEmptyConVar
__ZTV18CUtlCharConversion
__ZTV19CUtlNoEscConversion
__ZTV21CUtlCStringConversion
__ZTV23CSoundEmitterSystemBase
__ZTV32CSoundEmitterUniformRandomStream
__ZTV6ConVar
__ZTVN10__cxxabiv117__class_type_infoE
__ZTVN10__cxxabiv120__si_class_type_infoE
__ZTVN10__cxxabiv121__vmi_class_type_infoE
__ZThn24_N12CEmptyConVar8SetValueEPKc
__ZThn24_N12CEmptyConVar8SetValueEf
__ZThn24_N12CEmptyConVar8SetValueEi
__ZThn24_N6ConVar8SetValueEPKc
__ZThn24_N6ConVar8SetValueEf
__ZThn24_N6ConVar8SetValueEi
__ZThn24_NK12CEmptyConVar7GetNameEv
__ZThn24_NK12CEmptyConVar9IsFlagSetEi
__ZThn24_NK6ConVar7GetNameEv
__ZThn24_NK6ConVar9IsFlagSetEi
__ZZL14_PitchToStringfE2sz
__ZZL15_VolumeToStringfE2sz
__ZZL16_ChannelToStringiE2sz
__ZZL19_SoundLevelToString12soundlevel_tE2sz
__ZZN23CSoundEmitterSystemBase18GetWavFileForSoundEPKc8gender_tE8outsound
__ZZN23CSoundEmitterSystemBase21GetParametersForSoundEPKcR16CSoundParameters8gender_tbE13soundWarnings
__ZZN23CSoundEmitterSystemBase23GetParametersForSoundExEPKcRsR16CSoundParameters8gender_tbE13soundWarnings
__ZZNK23CSoundEmitterSystemBase18GetSoundScriptNameEiE2fn
__ZZNK23CSoundEmitterSystemBase21GetSourceFileForSoundEiE2fn
__ZZNK24CSoundParametersInternal13PitchToStringEvE2sz
__ZZNK24CSoundParametersInternal14VolumeToStringEvE2sz
__ZZNK24CSoundParametersInternal18SoundLevelToStringEvE2sz
__ZdaPv
__ZdlPv
__Znam
__Znwm
___bzero
___clang_call_terminate
___cxa_atexit
___cxa_begin_catch
___cxa_call_unexpected
___cxa_guard_abort
___cxa_guard_acquire
___cxa_guard_release
___error
___gxx_personality_v0
___maskrune
___stack_chk_fail
___stack_chk_guard
___tolower
_atof
_atoi
_cvar
_g_KeyValuesErrorStack
_g_SoundEmitterSystemBase
_g_pCVar
_g_pMemAlloc
_memcpy
_memmove
_pow
_pthread_mutex_destroy
_randomStream
_s_NoEscConversion
_s_StringCharConversion
_strcasecmp
_strchr
_strcmp
_strcpy
_strlen
_strncasecmp
_strncat
_strncpy
_strtod$UNIX2003
_strtok
_strtol
_strtoul
_vsnprintf
_wcslen
_wcstol
dyld_stub_binder
