GCC_except_table0
GCC_except_table18
GCC_except_table2
GCC_except_table34
GCC_except_table35
GCC_except_table43
GCC_except_table5
GCC_except_table6
GCC_except_table7
GCC_except_table9
_CreateInterface
_GetCPUInformation
_Msg
_SinCosTable
_VR_Init
_VR_Shutdown
_Warning
__GLOBAL__sub_I_convar.stdout.rel_tf_osx_builder.55430.mXKsKU.ii
__GLOBAL__sub_I_sourcevirt.stdout.rel_tf_osx_builder.71822.fk2tPn.ii
__GLOBAL__sub_I_sse.stdout.rel_tf_osx_builder.9376.gxVesc.ii
__GLOBAL__sub_I_utlbuffer.stdout.rel_tf_osx_builder.8986.vt30zT.ii
__Unwind_Resume
__Z10V_snprintfPciPKcz
__Z12MathLib_Initfffibbbb
__Z12_InvRSquaredPKf
__Z14_SSE_RSqrtFastf
__Z15BuildGammaTablefffi
__Z15ConVar_RegisteriP23IConCommandBaseAccessor
__Z16_SSE_InvRSquaredPKf
__Z16_VectorNormalizeR6Vector
__Z17ConVar_Unregisterv
__Z17MatrixSetIdentityR7VMatrix
__Z18CC_VR_Track_ReinitRK8CCommand
__Z18Sys_GetFactoryThisv
__Z18_SSE_RSqrtAccuratef
__Z20CC_VR_Reset_Home_PosRK8CCommand
__Z20_VectorNormalizeFastR6Vector
__Z21ConnectTier1LibrariesPPFPvPKcPiEi
__Z21ConnectTier2LibrariesPPFPvPKcPiEi
__Z21ConnectTier3LibrariesPPFPvPKcPiEi
__Z21DefaultCompletionFuncPKcPA64_c
__Z23CreateInterfaceInternalPKcPi
__Z24DisconnectTier1Librariesv
__Z24DisconnectTier2Librariesv
__Z24DisconnectTier3Librariesv
__Z24_SSE_VectorNormalizeFastR6Vector
__Z32CC_vr_refresh_distortion_textureRK8CCommand
__Z6SinCosfPfS_
__Z6V_atofPKc
__Z6_sqrtff
__Z7_rsqrtff
__Z9_SSE_Sqrtf
__ZL11s_nCVarFlag
__ZL11vec2_origin
__ZL11vec2_origin
__ZL11vec2_origin
__ZL11vec2_origin
__ZL11vec4_origin
__ZL12s_bConnected
__ZL12vec2_invalid
__ZL12vec2_invalid
__ZL12vec2_invalid
__ZL12vec2_invalid
__ZL12vec4_invalid
__ZL13s_EmptyConVar
__ZL13s_bMMXEnabled
__ZL13s_bRegistered
__ZL13s_bSSEEnabled
__ZL14lineartoscreen
__ZL14s_bSSE2Enabled
__ZL15lineartotexture
__ZL15texturetolinear
__ZL15vr_track_reinit
__ZL16s_nDLLIdentifier
__ZL17s_DefaultAccessor
__ZL17vr_reset_home_pos
__ZL23g_Mathlib_GammaToLinear
__ZL23g_Mathlib_LinearToGamma
__ZL2f3
__ZL35s_pConversionArrays_NoEscConversion
__ZL3f05
__ZL40s_pConversionArrays_StringCharConversion
__ZL56__g_CreateCSourceVirtualRealityISourceVirtualReality_reg
__ZL60__CreateCSourceVirtualRealityISourceVirtualReality_interfacev
__ZN10CUtlString3SetEPKc
__ZN10CUtlString5PurgeEv
__ZN10CUtlVectorI10CUtlString10CUtlMemoryIS0_iEE12InsertBeforeEiRKS0_
__ZN10ConCommand15CanAutoCompleteEv
__ZN10ConCommand19AutoCompleteSuggestEPKcR10CUtlVectorI10CUtlString10CUtlMemoryIS3_iEE
__ZN10ConCommand8DispatchERK8CCommand
__ZN10ConCommandC1EPKcPFvRK8CCommandES1_iPFiS1_PA64_cE
__ZN10ConCommandD0Ev
__ZN10ConCommandD1Ev
__ZN12CEmptyConVar8SetValueEPKc
__ZN12CEmptyConVar8SetValueEf
__ZN12CEmptyConVar8SetValueEi
__ZN12CEmptyConVarD0Ev
__ZN12CEmptyConVarD1Ev
__ZN12InterfaceReg16s_pInterfaceRegsE
__ZN12InterfaceRegC1EPFPvvEPKc
__ZN14ConCommandBase10CreateBaseEPKcS1_i
__ZN14ConCommandBase11s_pAccessorE
__ZN14ConCommandBase18s_pConCommandBasesE
__ZN14ConCommandBase4InitEv
__ZN14ConCommandBase8AddFlagsEi
__ZN16CDefaultAccessor22RegisterConCommandBaseEP14ConCommandBase
__ZN17CTextureReference4InitEP8ITexture
__ZN17CTextureReference8ShutdownEb
__ZN17CTextureReferenceC1Ev
__ZN17CTextureReferenceD1Ev
__ZN18CMaterialReference4InitEPKcS1_b
__ZN18CMaterialReference8ShutdownEv
__ZN18CMaterialReferenceC1EPKcS1_b
__ZN18CMaterialReferenceD1Ev
__ZN18CUtlCharConversion14FindConversionEPKcPi
__ZN19CUtlNoEscConversion14FindConversionEPKcPi
__ZN21CSourceVirtualReality10DeactivateEv
__ZN21CSourceVirtualReality10DisconnectEv
__ZN21CSourceVirtualReality12CompositeHudEN21ISourceVirtualReality5VREyeEPfbbb
__ZN21CSourceVirtualReality13GetMideyePoseEv
__ZN21CSourceVirtualReality13ShouldRunInVREv
__ZN21CSourceVirtualReality14IsHmdConnectedEv
__ZN21CSourceVirtualReality14QueryInterfaceEPKc
__ZN21CSourceVirtualReality14WillDriftInYawEv
__ZN21CSourceVirtualReality15GetRenderTargetEN21ISourceVirtualReality5VREyeENS0_18EWhichRenderTargetE
__ZN21CSourceVirtualReality16GetDisplayBoundsEP8VRRect_t
__ZN21CSourceVirtualReality16GetMidEyeFromEyeEN21ISourceVirtualReality5VREyeE
__ZN21CSourceVirtualReality16GetVRModeAdapterEv
__ZN21CSourceVirtualReality17GetViewportBoundsEN21ISourceVirtualReality5VREyeEPiS2_S2_S2_
__ZN21CSourceVirtualReality17ShouldForceVRModeEv
__ZN21CSourceVirtualReality19CreateRenderTargetsEP15IMaterialSystem
__ZN21CSourceVirtualReality19SampleTrackingStateEff
__ZN21CSourceVirtualReality20SetShouldForceVRModeEv
__ZN21CSourceVirtualReality21ShutdownRenderTargetsEv
__ZN21CSourceVirtualReality22DoDistortionProcessingEN21ISourceVirtualReality5VREyeE
__ZN21CSourceVirtualReality22GetEyeProjectionMatrixEP7VMatrixN21ISourceVirtualReality5VREyeEfff
__ZN21CSourceVirtualReality36GetRenderTargetFrameBufferDimensionsERiS0_
__ZN21CSourceVirtualReality4InitEv
__ZN21CSourceVirtualReality7ConnectEPFPvPKcPiE
__ZN21CSourceVirtualReality8ActivateEv
__ZN21CSourceVirtualReality8ShutdownEv
__ZN21CSourceVirtualRealityC2Ev
__ZN21CSourceVirtualRealityD0Ev
__ZN21CSourceVirtualRealityD1Ev
__ZN21CSourceVirtualRealityD2Ev
__ZN21CUtlCStringConversion14FindConversionEPKcPi
__ZN21CUtlCStringConversionC2EcPKciPN18CUtlCharConversion17ConversionArray_tE
__ZN23CDistortionTextureRegen21RegenerateTextureBitsEP8ITextureP11IVTFTextureP6Rect_t
__ZN23CDistortionTextureRegen7ReleaseEv
__ZN6ConVar10ClampValueERf
__ZN6ConVar16InternalSetValueEPKc
__ZN6ConVar17ChangeStringValueEPKcf
__ZN6ConVar19InternalSetIntValueEi
__ZN6ConVar21InternalSetFloatValueEfb
__ZN6ConVar4InitEv
__ZN6ConVar6CreateEPKcS1_iS1_bfbfbfbfPFvP7IConVarS1_fE
__ZN6ConVar8AddFlagsEi
__ZN6ConVar8SetValueEPKc
__ZN6ConVar8SetValueEf
__ZN6ConVar8SetValueEi
__ZN6ConVarC1EPKcS1_i
__ZN6ConVarC1EPKcS1_iS1_
__ZN6ConVarD0Ev
__ZN6ConVarD1Ev
__ZN7VMatrixaSERKS_
__ZNK10CUtlString3GetEv
__ZNK10ConCommand9IsCommandEv
__ZNK12CEmptyConVar7GetNameEv
__ZNK12CEmptyConVar9IsFlagSetEi
__ZNK14ConCommandBase11GetHelpTextEv
__ZNK14ConCommandBase12IsRegisteredEv
__ZNK14ConCommandBase16GetDLLIdentifierEv
__ZNK14ConCommandBase7GetNameEv
__ZNK14ConCommandBase9IsFlagSetEi
__ZNK6ConVar11GetHelpTextEv
__ZNK6ConVar12IsRegisteredEv
__ZNK6ConVar7GetNameEv
__ZNK6ConVar9IsCommandEv
__ZNK6ConVar9IsFlagSetEi
__ZSt9terminatev
__ZTI10ConCommand
__ZTI10IAppSystem
__ZTI12CEmptyConVar
__ZTI14CBaseAppSystemI21ISourceVirtualRealityE
__ZTI14ConCommandBase
__ZTI15CTier0AppSystemI21ISourceVirtualRealityE
__ZTI15CTier1AppSystemI21ISourceVirtualRealityLi0EE
__ZTI15CTier2AppSystemI21ISourceVirtualRealityLi0EE
__ZTI15CTier3AppSystemI21ISourceVirtualRealityLi0EE
__ZTI16CDefaultAccessor
__ZTI18CUtlCharConversion
__ZTI19CUtlNoEscConversion
__ZTI19ITextureRegenerator
__ZTI21CSourceVirtualReality
__ZTI21CUtlCStringConversion
__ZTI21ISourceVirtualReality
__ZTI23CDistortionTextureRegen
__ZTI23IConCommandBaseAccessor
__ZTI6ConVar
__ZTI7IConVar
__ZTISt9bad_alloc
__ZTS10ConCommand
__ZTS10IAppSystem
__ZTS12CEmptyConVar
__ZTS14CBaseAppSystemI21ISourceVirtualRealityE
__ZTS14ConCommandBase
__ZTS15CTier0AppSystemI21ISourceVirtualRealityE
__ZTS15CTier1AppSystemI21ISourceVirtualRealityLi0EE
__ZTS15CTier2AppSystemI21ISourceVirtualRealityLi0EE
__ZTS15CTier3AppSystemI21ISourceVirtualRealityLi0EE
__ZTS16CDefaultAccessor
__ZTS18CUtlCharConversion
__ZTS19CUtlNoEscConversion
__ZTS19ITextureRegenerator
__ZTS21CSourceVirtualReality
__ZTS21CUtlCStringConversion
__ZTS21ISourceVirtualReality
__ZTS23CDistortionTextureRegen
__ZTS23IConCommandBaseAccessor
__ZTS6ConVar
__ZTS7IConVar
__ZTV10ConCommand
__ZTV12CEmptyConVar
__ZTV16CDefaultAccessor
__ZTV18CUtlCharConversion
__ZTV19CUtlNoEscConversion
__ZTV21CSourceVirtualReality
__ZTV21CUtlCStringConversion
__ZTV23CDistortionTextureRegen
__ZTV6ConVar
__ZTVN10__cxxabiv117__class_type_infoE
__ZTVN10__cxxabiv120__si_class_type_infoE
__ZTVN10__cxxabiv121__vmi_class_type_infoE
__ZThn24_N12CEmptyConVar8SetValueEPKc
__ZThn24_N12CEmptyConVar8SetValueEf
__ZThn24_N12CEmptyConVar8SetValueEi
__ZThn24_N6ConVar8SetValueEPKc
__ZThn24_N6ConVar8SetValueEf
__ZThn24_N6ConVar8SetValueEi
__ZThn24_NK12CEmptyConVar7GetNameEv
__ZThn24_NK12CEmptyConVar9IsFlagSetEi
__ZThn24_NK6ConVar7GetNameEv
__ZThn24_NK6ConVar9IsFlagSetEi
__ZdaPv
__ZdlPv
__Znam
__Znwm
___bzero
___clang_call_terminate
___cxa_atexit
___cxa_begin_catch
___cxa_call_unexpected
___gxx_personality_v0
___stack_chk_fail
___stack_chk_guard
_atan
_atof
_atoi
_colorcorrection
_cosf
_cvar
_g_SourceVirtualReality
_g_VBAllocTracker
_g_pCVar
_g_pDataCache
_g_pDmeMakefileUtils
_g_pFullFileSystem
_g_pInputSystem
_g_pMDLCache
_g_pMatSystemSurface
_g_pMaterialSystem
_g_pMaterialSystemDebugTextureInfo
_g_pMaterialSystemHardwareConfig
_g_pMemAlloc
_g_pNetworkSystem
_g_pPhysicsCollision
_g_pProcessUtils
_g_pQueuedLoader
_g_pSoundEmitterSystem
_g_pStudioRender
_g_pVGui
_g_pVGuiInput
_g_pVGuiLocalize
_g_pVGuiPanel
_g_pVGuiSchemeManager
_g_pVGuiSurface
_g_pVGuiSystem
_g_pVTex
_g_pVideo
_lineartolightmap
_lineartovertex
_materials
_mdlcache
_mdllib
_memcpy
_memmove
_p4
_pfFastCos
_pfFastSinCos
_pfInvRSquared
_pfRSqrt
_pfRSqrtFast
_pfSqrt
_pfVectorNormalize
_pfVectorNormalizeFast
_pow
_printf
_s_NoEscConversion
_s_StringCharConversion
_s_bMathlibInitialized
_sin
_strcmp
_strlen
_studiorender
_tan
_vr_debug_nochromatic
_vr_debug_nodistortion
_vr_distortion_enable
_vr_refresh_distortion_texture
_vr_use_offscreen_render_target
_vsnprintf
dyld_stub_binder
