GCC_except_table0
GCC_except_table0
GCC_except_table0
GCC_except_table13
GCC_except_table14
GCC_except_table15
GCC_except_table15
GCC_except_table15
GCC_except_table15
GCC_except_table15
GCC_except_table15
GCC_except_table15
GCC_except_table15
GCC_except_table15
GCC_except_table15
GCC_except_table15
GCC_except_table15
GCC_except_table15
GCC_except_table15
GCC_except_table15
GCC_except_table15
GCC_except_table16
GCC_except_table16
GCC_except_table16
GCC_except_table16
GCC_except_table16
GCC_except_table16
GCC_except_table16
GCC_except_table16
GCC_except_table16
GCC_except_table16
GCC_except_table16
GCC_except_table16
GCC_except_table16
GCC_except_table16
GCC_except_table16
GCC_except_table16
GCC_except_table16
GCC_except_table16
GCC_except_table16
GCC_except_table16
GCC_except_table17
GCC_except_table17
GCC_except_table17
GCC_except_table17
GCC_except_table17
GCC_except_table17
GCC_except_table18
GCC_except_table18
GCC_except_table18
GCC_except_table19
GCC_except_table2
GCC_except_table2
GCC_except_table27
GCC_except_table27
GCC_except_table28
GCC_except_table28
GCC_except_table28
GCC_except_table28
GCC_except_table28
GCC_except_table28
GCC_except_table28
GCC_except_table28
GCC_except_table28
GCC_except_table28
GCC_except_table28
GCC_except_table28
GCC_except_table28
GCC_except_table29
GCC_except_table29
GCC_except_table29
GCC_except_table29
GCC_except_table29
GCC_except_table29
GCC_except_table29
GCC_except_table29
GCC_except_table29
GCC_except_table29
GCC_except_table29
GCC_except_table29
GCC_except_table29
GCC_except_table29
GCC_except_table29
GCC_except_table29
GCC_except_table29
GCC_except_table29
GCC_except_table29
GCC_except_table29
GCC_except_table29
GCC_except_table29
GCC_except_table29
GCC_except_table29
GCC_except_table3
GCC_except_table30
GCC_except_table30
GCC_except_table30
GCC_except_table30
GCC_except_table30
GCC_except_table30
GCC_except_table30
GCC_except_table30
GCC_except_table30
GCC_except_table30
GCC_except_table30
GCC_except_table30
GCC_except_table30
GCC_except_table30
GCC_except_table30
GCC_except_table30
GCC_except_table30
GCC_except_table30
GCC_except_table30
GCC_except_table31
GCC_except_table31
GCC_except_table31
GCC_except_table31
GCC_except_table31
GCC_except_table31
GCC_except_table31
GCC_except_table31
GCC_except_table31
GCC_except_table31
GCC_except_table31
GCC_except_table31
GCC_except_table32
GCC_except_table32
GCC_except_table32
GCC_except_table32
GCC_except_table32
GCC_except_table32
GCC_except_table34
GCC_except_table35
GCC_except_table5
GCC_except_table7
GCC_except_table9
_CommandLine_Tier0
_CreateInterface
_GetCPUInformation
_ProjectionInfo
_SinCosTable
_ThreadGetCurrentId
_Warning
__GLOBAL__sub_I_AccumBuff4.stdout.rel_tf_osx_builder.70282.dvxmG9.ii
__GLOBAL__sub_I_BaseShader.stdout.rel_tf_osx_builder.56206.qpE6FM.ii
__GLOBAL__sub_I_BaseVSShad.stdout.rel_tf_osx_builder.70286.HVgm2T.ii
__GLOBAL__sub_I_Bloom.stdout.rel_tf_osx_builder.70289.nSxjlN.ii
__GLOBAL__sub_I_BlurFilter.stdout.rel_tf_osx_builder.70291.aqg4PC.ii
__GLOBAL__sub_I_BlurFilter.stdout.rel_tf_osx_builder.70328.vlrTGK.ii
__GLOBAL__sub_I_BufferClea.stdout.rel_tf_osx_builder.70329.9PBLp1.ii
__GLOBAL__sub_I_DebugTextu.stdout.rel_tf_osx_builder.70387.QQuPSi.ii
__GLOBAL__sub_I_DecalBaseT.stdout.rel_tf_osx_builder.70390.w9mr9x.ii
__GLOBAL__sub_I_DecalModul.stdout.rel_tf_osx_builder.70397.e3CTu5.ii
__GLOBAL__sub_I_Downsample.stdout.rel_tf_osx_builder.70421.jQrxTR.ii
__GLOBAL__sub_I_Engine_Pos.stdout.rel_tf_osx_builder.70440.cHM4Ul.ii
__GLOBAL__sub_I_HDRCombine.stdout.rel_tf_osx_builder.70513.l5UGo3.ii
__GLOBAL__sub_I_HDRSelectR.stdout.rel_tf_osx_builder.70522.ftYfor.ii
__GLOBAL__sub_I_MonitorScr.stdout.rel_tf_osx_builder.70559.46nVBh.ii
__GLOBAL__sub_I_ShaderDLL.stdout.rel_tf_osx_builder.56207.UrAC90.ii
__GLOBAL__sub_I_TreeLeaf.stdout.rel_tf_osx_builder.70762.NGHZ8p.ii
__GLOBAL__sub_I_accumbuff5.stdout.rel_tf_osx_builder.70283.qlJnbR.ii
__GLOBAL__sub_I_aftershock.stdout.rel_tf_osx_builder.70284.iyQNLS.ii
__GLOBAL__sub_I_bik_dx90.stdout.rel_tf_osx_builder.70287.WdKsTd.ii
__GLOBAL__sub_I_cable_dx9.stdout.rel_tf_osx_builder.70330.nf5gyU.ii
__GLOBAL__sub_I_cloak.stdout.rel_tf_osx_builder.70331.uUm9KW.ii
__GLOBAL__sub_I_cloak_dx9_.stdout.rel_tf_osx_builder.70337.QuoeTA.ii
__GLOBAL__sub_I_cloud_dx9.stdout.rel_tf_osx_builder.70338.qYeB8n.ii
__GLOBAL__sub_I_color_proj.stdout.rel_tf_osx_builder.70376.H2qDUc.ii
__GLOBAL__sub_I_colorcorre.stdout.rel_tf_osx_builder.70372.1Mdxzq.ii
__GLOBAL__sub_I_compositor.stdout.rel_tf_osx_builder.70378.Pd1jS9.ii
__GLOBAL__sub_I_convar.stdout.rel_tf_osx_builder.55430.mXKsKU.ii
__GLOBAL__sub_I_core_dx9.stdout.rel_tf_osx_builder.70381.WG3WPG.ii
__GLOBAL__sub_I_debugmrtte.stdout.rel_tf_osx_builder.70382.PSlktm.ii
__GLOBAL__sub_I_depthwrite.stdout.rel_tf_osx_builder.70420.163769.ii
__GLOBAL__sub_I_downsample.stdout.rel_tf_osx_builder.70422.MHieQt.ii
__GLOBAL__sub_I_eye_refrac.stdout.rel_tf_osx_builder.70464.I8NHkf.ii
__GLOBAL__sub_I_eye_refrac.stdout.rel_tf_osx_builder.70466.h3Krp2.ii
__GLOBAL__sub_I_eyeglint_d.stdout.rel_tf_osx_builder.70446.whzhn4.ii
__GLOBAL__sub_I_eyes_dx8_d.stdout.rel_tf_osx_builder.70454.efZ4CD.ii
__GLOBAL__sub_I_eyes_dx9.stdout.rel_tf_osx_builder.70455.44Svhv.ii
__GLOBAL__sub_I_filmdust_d.stdout.rel_tf_osx_builder.70465.2PR4oV.ii
__GLOBAL__sub_I_filmgrain_.stdout.rel_tf_osx_builder.70467.o2YjIA.ii
__GLOBAL__sub_I_floatcombi.stdout.rel_tf_osx_builder.70491.ZD4gFb.ii
__GLOBAL__sub_I_floatcombi.stdout.rel_tf_osx_builder.70504.3weUIS.ii
__GLOBAL__sub_I_floattoscr.stdout.rel_tf_osx_builder.70510.bH30Pz.ii
__GLOBAL__sub_I_floattoscr.stdout.rel_tf_osx_builder.70511.JfGaiF.ii
__GLOBAL__sub_I_hsl_filmgr.stdout.rel_tf_osx_builder.70523.pCVNLq.ii
__GLOBAL__sub_I_hsl_filmgr.stdout.rel_tf_osx_builder.70524.FjFx8Q.ii
__GLOBAL__sub_I_hsv.stdout.rel_tf_osx_builder.70534.Dud716.ii
__GLOBAL__sub_I_introscree.stdout.rel_tf_osx_builder.70541.3Da3Pe.ii
__GLOBAL__sub_I_lightmappe.stdout.rel_tf_osx_builder.70556.so4Wqk.ii
__GLOBAL__sub_I_lightmappe.stdout.rel_tf_osx_builder.70558.NtZCZQ.ii
__GLOBAL__sub_I_lightmappe.stdout.rel_tf_osx_builder.70561.0jHWCS.ii
__GLOBAL__sub_I_modulate_d.stdout.rel_tf_osx_builder.70560.Dhiyxk.ii
__GLOBAL__sub_I_motion_blu.stdout.rel_tf_osx_builder.70562.vyJ2vm.ii
__GLOBAL__sub_I_occlusion_.stdout.rel_tf_osx_builder.70592.MXzwoP.ii
__GLOBAL__sub_I_particleli.stdout.rel_tf_osx_builder.70593.YtN3NK.ii
__GLOBAL__sub_I_particlesp.stdout.rel_tf_osx_builder.70606.X5Gygg.ii
__GLOBAL__sub_I_portal.stdout.rel_tf_osx_builder.70607.OFWfSB.ii
__GLOBAL__sub_I_portal_ref.stdout.rel_tf_osx_builder.70622.EF7xGp.ii
__GLOBAL__sub_I_portalstat.stdout.rel_tf_osx_builder.70614.J0vP39.ii
__GLOBAL__sub_I_pyro_visio.stdout.rel_tf_osx_builder.70627.efiNFP.ii
__GLOBAL__sub_I_refract.stdout.rel_tf_osx_builder.70628.BiE0bb.ii
__GLOBAL__sub_I_sample4x4.stdout.rel_tf_osx_builder.70652.Nj53wR.ii
__GLOBAL__sub_I_sample4x4_.stdout.rel_tf_osx_builder.70654.gRu6B1.ii
__GLOBAL__sub_I_screenspac.stdout.rel_tf_osx_builder.70660.YBfI7S.ii
__GLOBAL__sub_I_sfm_blurfi.stdout.rel_tf_osx_builder.70668.wtGBGm.ii
__GLOBAL__sub_I_sfm_blurfi.stdout.rel_tf_osx_builder.70670.ZmSV0E.ii
__GLOBAL__sub_I_sfm_downsa.stdout.rel_tf_osx_builder.70674.E3KuID.ii
__GLOBAL__sub_I_sfm_intege.stdout.rel_tf_osx_builder.70678.pLtWN1.ii
__GLOBAL__sub_I_shadow.stdout.rel_tf_osx_builder.70680.TcDK8e.ii
__GLOBAL__sub_I_shadowbuil.stdout.rel_tf_osx_builder.70702.ddxvSb.ii
__GLOBAL__sub_I_shadowmode.stdout.rel_tf_osx_builder.70708.8ogPNU.ii
__GLOBAL__sub_I_shatteredg.stdout.rel_tf_osx_builder.70712.femFUR.ii
__GLOBAL__sub_I_showz.stdout.rel_tf_osx_builder.70715.AlJtbc.ii
__GLOBAL__sub_I_skin_dx9_h.stdout.rel_tf_osx_builder.70716.lQmfiu.ii
__GLOBAL__sub_I_sky_dx9.stdout.rel_tf_osx_builder.70720.pXg7GA.ii
__GLOBAL__sub_I_sky_hdr_dx.stdout.rel_tf_osx_builder.70722.NXU6w7.ii
__GLOBAL__sub_I_sprite_dx9.stdout.rel_tf_osx_builder.70736.iGOIOL.ii
__GLOBAL__sub_I_spritecard.stdout.rel_tf_osx_builder.70732.HCrJgw.ii
__GLOBAL__sub_I_sse.stdout.rel_tf_osx_builder.9376.gxVesc.ii
__GLOBAL__sub_I_teeth.stdout.rel_tf_osx_builder.70746.BtYNn9.ii
__GLOBAL__sub_I_unlitgener.stdout.rel_tf_osx_builder.70764.6FoZXz.ii
__GLOBAL__sub_I_unlittwote.stdout.rel_tf_osx_builder.70772.24i7J8.ii
__GLOBAL__sub_I_utlbuffer.stdout.rel_tf_osx_builder.8986.vt30zT.ii
__GLOBAL__sub_I_vertexlitg.stdout.rel_tf_osx_builder.70773.Gnc0ps.ii
__GLOBAL__sub_I_vertexlitg.stdout.rel_tf_osx_builder.70780.5u3vTg.ii
__GLOBAL__sub_I_volume_clo.stdout.rel_tf_osx_builder.70784.orFFA9.ii
__GLOBAL__sub_I_vortwarp_d.stdout.rel_tf_osx_builder.70803.CazbTh.ii
__GLOBAL__sub_I_vr_distort.stdout.rel_tf_osx_builder.70808.KJM2Ha.ii
__GLOBAL__sub_I_vr_distort.stdout.rel_tf_osx_builder.70809.mtkZRX.ii
__GLOBAL__sub_I_warp.stdout.rel_tf_osx_builder.70822.orAGpq.ii
__GLOBAL__sub_I_water.stdout.rel_tf_osx_builder.70824.LtXdwv.ii
__GLOBAL__sub_I_windowimpo.stdout.rel_tf_osx_builder.70832.VLmJya.ii
__GLOBAL__sub_I_wireframe_.stdout.rel_tf_osx_builder.70833.wkRajZ.ii
__GLOBAL__sub_I_worldtwote.stdout.rel_tf_osx_builder.70836.QLkqV0.ii
__GLOBAL__sub_I_worldverte.stdout.rel_tf_osx_builder.70838.S5seED.ii
__GLOBAL__sub_I_worldverte.stdout.rel_tf_osx_builder.70841.GPDQwz.ii
__GLOBAL__sub_I_writestenc.stdout.rel_tf_osx_builder.70874.yq4v9m.ii
__GLOBAL__sub_I_writez_dx9.stdout.rel_tf_osx_builder.70875.V6twUu.ii
__Unwind_Resume
__Z10V_snprintfPciPKcz
__Z12DrawSkin_DX9P13CBaseVSShaderPP12IMaterialVarP17IShaderDynamicAPIP13IShaderShadowR27VertexLitGeneric_DX9_Vars_t23VertexCompressionType_tPP27CBasePerMaterialContextData
__Z12GetShaderDLLv
__Z12InitSkin_DX9P13CBaseVSShaderPP12IMaterialVarR27VertexLitGeneric_DX9_Vars_t
__Z12MathLib_Initfffibbbb
__Z12_InvRSquaredPKf
__Z13DrawCloak_DX9P13CBaseVSShaderPP12IMaterialVarP17IShaderDynamicAPIP13IShaderShadowR16Cloak_DX9_Vars_t23VertexCompressionType_t
__Z13GammaToLinearf
__Z13InitCloak_DX9P13CBaseVSShaderPP12IMaterialVarR16Cloak_DX9_Vars_t
__Z14DrawAftershockP13CBaseVSShaderPP12IMaterialVarP17IShaderDynamicAPIP13IShaderShadowR16AftershockVars_t23VertexCompressionType_t
__Z14InitAftershockP13CBaseVSShaderPP12IMaterialVarR16AftershockVars_t
__Z14MatrixMultiplyRK7VMatrixS1_RS_
__Z14_SSE_RSqrtFastf
__Z15BuildGammaTablefffi
__Z15ConVar_RegisteriP23IConCommandBaseAccessor
__Z15DrawRefract_DX9P13CBaseVSShaderPP12IMaterialVarP17IShaderDynamicAPIP13IShaderShadowR18Refract_DX9_Vars_t23VertexCompressionType_t
__Z15InitRefract_DX9P13CBaseVSShaderPP12IMaterialVarR18Refract_DX9_Vars_t
__Z15MatrixTransposeRK7VMatrixRS_
__Z16DrawEyes_DX8_DX9bP13CBaseVSShaderPP12IMaterialVarP17IShaderDynamicAPIP13IShaderShadowR19Eyes_DX8_DX9_Vars_t23VertexCompressionType_t
__Z16DrawVolumeCloudsP13CBaseVSShaderPP12IMaterialVarP17IShaderDynamicAPIP13IShaderShadowR18VolumeCloudsVars_t23VertexCompressionType_t
__Z16DrawVortWarp_DX9P13CBaseVSShaderPP12IMaterialVarP17IShaderDynamicAPIP13IShaderShadowbbR19VortWarp_DX9_Vars_t23VertexCompressionType_t
__Z16InitEyes_DX8_DX9P13CBaseVSShaderPP12IMaterialVarR19Eyes_DX8_DX9_Vars_t
__Z16InitVolumeCloudsP13CBaseVSShaderPP12IMaterialVarR18VolumeCloudsVars_t
__Z16_SSE_InvRSquaredPKf
__Z16_VectorNormalizeR6Vector
__Z17ConVar_Unregisterv
__Z17DrawPortalRefractP13CBaseVSShaderPP12IMaterialVarP17IShaderDynamicAPIP13IShaderShadowR19PortalRefractVars_t
__Z17Draw_Eyes_RefractP13CBaseVSShaderPP12IMaterialVarP17IShaderDynamicAPIP13IShaderShadowR18Eye_Refract_Vars_t23VertexCompressionType_t
__Z17InitPortalRefractP13CBaseVSShaderPP12IMaterialVarR19PortalRefractVars_t
__Z17Init_Eyes_RefractP13CBaseVSShaderPP12IMaterialVarR18Eye_Refract_Vars_t
__Z17MatrixSetIdentityR7VMatrix
__Z18InitParamsSkin_DX9P13CBaseVSShaderPP12IMaterialVarPKcR27VertexLitGeneric_DX9_Vars_t
__Z18InitShaderLibCVarsPFPvPKcPiE
__Z18_SSE_RSqrtAccuratef
__Z19DrawWeaponSheenPassP13CBaseVSShaderPP12IMaterialVarP17IShaderDynamicAPIP13IShaderShadowR21WeaponSheenPassVars_t23VertexCompressionType_t
__Z19InitParamsCloak_DX9P13CBaseVSShaderPP12IMaterialVarPKcR16Cloak_DX9_Vars_t
__Z19InitWeaponSheenPassP13CBaseVSShaderPP12IMaterialVarR21WeaponSheenPassVars_t
__Z20DrawCloakBlendedPassP13CBaseVSShaderPP12IMaterialVarP17IShaderDynamicAPIP13IShaderShadowR22CloakBlendedPassVars_t23VertexCompressionType_t
__Z20GetShaderDLLInternalv
__Z20InitCloakBlendedPassP13CBaseVSShaderPP12IMaterialVarR22CloakBlendedPassVars_t
__Z20InitParamsAftershockP13CBaseVSShaderPP12IMaterialVarPKcR16AftershockVars_t
__Z20_VectorNormalizeFastR6Vector
__Z21ConnectTier1LibrariesPPFPvPKcPiEi
__Z21DrawSkin_DX9_InternalP13CBaseVSShaderPP12IMaterialVarP17IShaderDynamicAPIP13IShaderShadowbR27VertexLitGeneric_DX9_Vars_t23VertexCompressionType_tPP27CBasePerMaterialContextData
__Z21InitParamsRefract_DX9P13CBaseVSShaderPP12IMaterialVarPKcR18Refract_DX9_Vars_t
__Z22InitParamsEyes_DX8_DX9P13CBaseVSShaderPP12IMaterialVarPKcR19Eyes_DX8_DX9_Vars_t
__Z22InitParamsVolumeCloudsP13CBaseVSShaderPP12IMaterialVarPKcR18VolumeCloudsVars_t
__Z23InitParamsPortalRefractP13CBaseVSShaderPP12IMaterialVarPKcR19PortalRefractVars_t
__Z23InitParams_Eyes_RefractP13CBaseVSShaderPP12IMaterialVarPKcR18Eye_Refract_Vars_t
__Z23ShouldDrawMaterialSheenPP12IMaterialVarR21WeaponSheenPassVars_t
__Z24DisconnectTier1Librariesv
__Z24DrawVertexLitGeneric_DX9P13CBaseVSShaderPP12IMaterialVarP17IShaderDynamicAPIP13IShaderShadowbR27VertexLitGeneric_DX9_Vars_t23VertexCompressionType_tPP27CBasePerMaterialContextData
__Z24InitVertexLitGeneric_DX9P13CBaseVSShaderPP12IMaterialVarbR27VertexLitGeneric_DX9_Vars_t
__Z24_SSE_VectorNormalizeFastR6Vector
__Z25InitParamsWeaponSheenPassP13CBaseVSShaderPP12IMaterialVarPKcR21WeaponSheenPassVars_t
__Z26DrawLightmappedGeneric_DX9P13CBaseVSShaderPP12IMaterialVarP17IShaderDynamicAPIP13IShaderShadowR29LightmappedGeneric_DX9_Vars_tPP27CBasePerMaterialContextData
__Z26Draw_Eyes_Refract_InternalP13CBaseVSShaderPP12IMaterialVarP17IShaderDynamicAPIP13IShaderShadowbR18Eye_Refract_Vars_t23VertexCompressionType_t
__Z26InitLightmappedGeneric_DX9P13CBaseVSShaderPP12IMaterialVarR29LightmappedGeneric_DX9_Vars_t
__Z26InitParamsCloakBlendedPassP13CBaseVSShaderPP12IMaterialVarPKcR22CloakBlendedPassVars_t
__Z28DrawFleshInteriorBlendedPassP13CBaseVSShaderPP12IMaterialVarP17IShaderDynamicAPIP13IShaderShadowR30FleshInteriorBlendedPassVars_t23VertexCompressionType_t
__Z28InitFleshInteriorBlendedPassP13CBaseVSShaderPP12IMaterialVarR30FleshInteriorBlendedPassVars_t
__Z29CloakBlendedPassIsFullyOpaquePP12IMaterialVarR22CloakBlendedPassVars_t
__Z29DrawEmissiveScrollBlendedPassP13CBaseVSShaderPP12IMaterialVarP17IShaderDynamicAPIP13IShaderShadowR31EmissiveScrollBlendedPassVars_t23VertexCompressionType_t
__Z29InitEmissiveScrollBlendedPassP13CBaseVSShaderPP12IMaterialVarR31EmissiveScrollBlendedPassVars_t
__Z30GetDefaultDepthFeatheringValuev
__Z30InitParamsVertexLitGeneric_DX9P13CBaseVSShaderPP12IMaterialVarPKcbR27VertexLitGeneric_DX9_Vars_t
__Z32InitParamsLightmappedGeneric_DX9P13CBaseVSShaderPP12IMaterialVarPKcR29LightmappedGeneric_DX9_Vars_t
__Z34InitParamsFleshInteriorBlendedPassP13CBaseVSShaderPP12IMaterialVarPKcR30FleshInteriorBlendedPassVars_t
__Z35DrawLightmappedGeneric_DX9_InternalP13CBaseVSShaderPP12IMaterialVarbP17IShaderDynamicAPIP13IShaderShadowR29LightmappedGeneric_DX9_Vars_tPP27CBasePerMaterialContextData
__Z35DrawWorldVertexTransitionEditor_DX8P13CBaseVSShaderPP12IMaterialVarP17IShaderDynamicAPIP13IShaderShadowR38WorldVertexTransitionEditor_DX8_Vars_t
__Z35InitParamsEmissiveScrollBlendedPassP13CBaseVSShaderPP12IMaterialVarPKcR31EmissiveScrollBlendedPassVars_t
__Z6SinCosfPfS_
__Z6V_atofPKc
__Z6_sqrtff
__Z7_rsqrtff
__Z9V_stricmpPKcS0_
__Z9_SSE_Sqrtf
__ZGVZ30GetDefaultDepthFeatheringValuevE19mat_reduceparticles
__ZGVZL33DrawVertexLitGeneric_DX9_InternalP13CBaseVSShaderPP12IMaterialVarP17IShaderDynamicAPIP13IShaderShadowbbR27VertexLitGeneric_DX9_Vars_t23VertexCompressionType_tPP27CBasePerMaterialContextDataE19mat_reduceparticles
__ZGVZN11pyro_vision7CShader14OnDrawElementsEPP12IMaterialVarP13IShaderShadowP17IShaderDynamicAPI23VertexCompressionType_tPP27CBasePerMaterialContextDataE24pyro_vignette_distortion
__ZL10mat_luxels
__ZL10r_rimlight
__ZL11s_nCVarFlag
__ZL11vec2_origin
__ZL11vec2_origin
__ZL11vec2_origin
__ZL11vec2_origin
__ZL11vec2_origin
__ZL11vec2_origin
__ZL11vec2_origin
__ZL11vec2_origin
__ZL11vec2_origin
__ZL11vec2_origin
__ZL11vec2_origin
__ZL11vec2_origin
__ZL11vec2_origin
__ZL11vec2_origin
__ZL11vec2_origin
__ZL11vec2_origin
__ZL11vec2_origin
__ZL11vec2_origin
__ZL11vec2_origin
__ZL11vec2_origin
__ZL11vec2_origin
__ZL11vec2_origin
__ZL11vec2_origin
__ZL11vec2_origin
__ZL11vec2_origin
__ZL11vec2_origin
__ZL11vec2_origin
__ZL11vec2_origin
__ZL11vec2_origin
__ZL11vec2_origin
__ZL11vec2_origin
__ZL11vec2_origin
__ZL11vec2_origin
__ZL11vec2_origin
__ZL11vec2_origin
__ZL11vec2_origin
__ZL11vec2_origin
__ZL11vec2_origin
__ZL11vec2_origin
__ZL11vec2_origin
__ZL11vec2_origin
__ZL11vec2_origin
__ZL11vec2_origin
__ZL11vec2_origin
__ZL11vec2_origin
__ZL11vec2_origin
__ZL11vec2_origin
__ZL11vec2_origin
__ZL11vec2_origin
__ZL11vec2_origin
__ZL11vec2_origin
__ZL11vec2_origin
__ZL11vec2_origin
__ZL11vec2_origin
__ZL11vec2_origin
__ZL11vec2_origin
__ZL11vec2_origin
__ZL11vec2_origin
__ZL11vec2_origin
__ZL11vec2_origin
__ZL11vec2_origin
__ZL11vec2_origin
__ZL11vec2_origin
__ZL11vec2_origin
__ZL11vec2_origin
__ZL11vec2_origin
__ZL11vec2_origin
__ZL11vec2_origin
__ZL11vec2_origin
__ZL11vec2_origin
__ZL11vec2_origin
__ZL11vec2_origin
__ZL11vec2_origin
__ZL11vec2_origin
__ZL11vec2_origin
__ZL11vec2_origin
__ZL11vec2_origin
__ZL11vec2_origin
__ZL11vec2_origin
__ZL11vec2_origin
__ZL11vec2_origin
__ZL11vec2_origin
__ZL11vec2_origin
__ZL11vec2_origin
__ZL11vec2_origin
__ZL11vec2_origin
__ZL11vec2_origin
__ZL11vec2_origin
__ZL11vec2_origin
__ZL11vec2_origin
__ZL11vec2_origin
__ZL11vec2_origin
__ZL11vec2_origin
__ZL11vec2_origin
__ZL11vec2_origin
__ZL11vec2_origin
__ZL11vec2_origin
__ZL11vec4_origin
__ZL11vec4_origin
__ZL11vec4_origin
__ZL11vec4_origin
__ZL11vec4_origin
__ZL11vec4_origin
__ZL11vec4_origin
__ZL11vec4_origin
__ZL11vec4_origin
__ZL11vec4_origin
__ZL11vec4_origin
__ZL11vec4_origin
__ZL11vec4_origin
__ZL11vec4_origin
__ZL11vec4_origin
__ZL11vec4_origin
__ZL11vec4_origin
__ZL11vec4_origin
__ZL11vec4_origin
__ZL11vec4_origin
__ZL11vec4_origin
__ZL11vec4_origin
__ZL11vec4_origin
__ZL11vec4_origin
__ZL11vec4_origin
__ZL11vec4_origin
__ZL11vec4_origin
__ZL11vec4_origin
__ZL11vec4_origin
__ZL11vec4_origin
__ZL11vec4_origin
__ZL11vec4_origin
__ZL11vec4_origin
__ZL11vec4_origin
__ZL11vec4_origin
__ZL11vec4_origin
__ZL11vec4_origin
__ZL11vec4_origin
__ZL11vec4_origin
__ZL11vec4_origin
__ZL11vec4_origin
__ZL11vec4_origin
__ZL11vec4_origin
__ZL11vec4_origin
__ZL11vec4_origin
__ZL11vec4_origin
__ZL11vec4_origin
__ZL11vec4_origin
__ZL11vec4_origin
__ZL11vec4_origin
__ZL11vec4_origin
__ZL11vec4_origin
__ZL11vec4_origin
__ZL11vec4_origin
__ZL11vec4_origin
__ZL11vec4_origin
__ZL11vec4_origin
__ZL11vec4_origin
__ZL11vec4_origin
__ZL11vec4_origin
__ZL11vec4_origin
__ZL11vec4_origin
__ZL11vec4_origin
__ZL11vec4_origin
__ZL11vec4_origin
__ZL11vec4_origin
__ZL11vec4_origin
__ZL11vec4_origin
__ZL11vec4_origin
__ZL11vec4_origin
__ZL11vec4_origin
__ZL11vec4_origin
__ZL11vec4_origin
__ZL11vec4_origin
__ZL11vec4_origin
__ZL11vec4_origin
__ZL11vec4_origin
__ZL11vec4_origin
__ZL11vec4_origin
__ZL11vec4_origin
__ZL11vec4_origin
__ZL11vec4_origin
__ZL11vec4_origin
__ZL11vec4_origin
__ZL11vec4_origin
__ZL11vec4_origin
__ZL11vec4_origin
__ZL11vec4_origin
__ZL11vec4_origin
__ZL11vec4_origin
__ZL11vec4_origin
__ZL11vec4_origin
__ZL11vec4_origin
__ZL11vec4_origin
__ZL12r_bloomtintb
__ZL12r_bloomtintg
__ZL12r_bloomtintr
__ZL12s_bConnected
__ZL12s_pShaderDLL
__ZL12vec2_invalid
__ZL12vec2_invalid
__ZL12vec2_invalid
__ZL12vec2_invalid
__ZL12vec2_invalid
__ZL12vec2_invalid
__ZL12vec2_invalid
__ZL12vec2_invalid
__ZL12vec2_invalid
__ZL12vec2_invalid
__ZL12vec2_invalid
__ZL12vec2_invalid
__ZL12vec2_invalid
__ZL12vec2_invalid
__ZL12vec2_invalid
__ZL12vec2_invalid
__ZL12vec2_invalid
__ZL12vec2_invalid
__ZL12vec2_invalid
__ZL12vec2_invalid
__ZL12vec2_invalid
__ZL12vec2_invalid
__ZL12vec2_invalid
__ZL12vec2_invalid
__ZL12vec2_invalid
__ZL12vec2_invalid
__ZL12vec2_invalid
__ZL12vec2_invalid
__ZL12vec2_invalid
__ZL12vec2_invalid
__ZL12vec2_invalid
__ZL12vec2_invalid
__ZL12vec2_invalid
__ZL12vec2_invalid
__ZL12vec2_invalid
__ZL12vec2_invalid
__ZL12vec2_invalid
__ZL12vec2_invalid
__ZL12vec2_invalid
__ZL12vec2_invalid
__ZL12vec2_invalid
__ZL12vec2_invalid
__ZL12vec2_invalid
__ZL12vec2_invalid
__ZL12vec2_invalid
__ZL12vec2_invalid
__ZL12vec2_invalid
__ZL12vec2_invalid
__ZL12vec2_invalid
__ZL12vec2_invalid
__ZL12vec2_invalid
__ZL12vec2_invalid
__ZL12vec2_invalid
__ZL12vec2_invalid
__ZL12vec2_invalid
__ZL12vec2_invalid
__ZL12vec2_invalid
__ZL12vec2_invalid
__ZL12vec2_invalid
__ZL12vec2_invalid
__ZL12vec2_invalid
__ZL12vec2_invalid
__ZL12vec2_invalid
__ZL12vec2_invalid
__ZL12vec2_invalid
__ZL12vec2_invalid
__ZL12vec2_invalid
__ZL12vec2_invalid
__ZL12vec2_invalid
__ZL12vec2_invalid
__ZL12vec2_invalid
__ZL12vec2_invalid
__ZL12vec2_invalid
__ZL12vec2_invalid
__ZL12vec2_invalid
__ZL12vec2_invalid
__ZL12vec2_invalid
__ZL12vec2_invalid
__ZL12vec2_invalid
__ZL12vec2_invalid
__ZL12vec2_invalid
__ZL12vec2_invalid
__ZL12vec2_invalid
__ZL12vec2_invalid
__ZL12vec2_invalid
__ZL12vec2_invalid
__ZL12vec2_invalid
__ZL12vec2_invalid
__ZL12vec2_invalid
__ZL12vec2_invalid
__ZL12vec2_invalid
__ZL12vec2_invalid
__ZL12vec2_invalid
__ZL12vec2_invalid
__ZL12vec2_invalid
__ZL12vec2_invalid
__ZL12vec2_invalid
__ZL12vec4_invalid
__ZL12vec4_invalid
__ZL12vec4_invalid
__ZL12vec4_invalid
__ZL12vec4_invalid
__ZL12vec4_invalid
__ZL12vec4_invalid
__ZL12vec4_invalid
__ZL12vec4_invalid
__ZL12vec4_invalid
__ZL12vec4_invalid
__ZL12vec4_invalid
__ZL12vec4_invalid
__ZL12vec4_invalid
__ZL12vec4_invalid
__ZL12vec4_invalid
__ZL12vec4_invalid
__ZL12vec4_invalid
__ZL12vec4_invalid
__ZL12vec4_invalid
__ZL12vec4_invalid
__ZL12vec4_invalid
__ZL12vec4_invalid
__ZL12vec4_invalid
__ZL12vec4_invalid
__ZL12vec4_invalid
__ZL12vec4_invalid
__ZL12vec4_invalid
__ZL12vec4_invalid
__ZL12vec4_invalid
__ZL12vec4_invalid
__ZL12vec4_invalid
__ZL12vec4_invalid
__ZL12vec4_invalid
__ZL12vec4_invalid
__ZL12vec4_invalid
__ZL12vec4_invalid
__ZL12vec4_invalid
__ZL12vec4_invalid
__ZL12vec4_invalid
__ZL12vec4_invalid
__ZL12vec4_invalid
__ZL12vec4_invalid
__ZL12vec4_invalid
__ZL12vec4_invalid
__ZL12vec4_invalid
__ZL12vec4_invalid
__ZL12vec4_invalid
__ZL12vec4_invalid
__ZL12vec4_invalid
__ZL12vec4_invalid
__ZL12vec4_invalid
__ZL12vec4_invalid
__ZL12vec4_invalid
__ZL12vec4_invalid
__ZL12vec4_invalid
__ZL12vec4_invalid
__ZL12vec4_invalid
__ZL12vec4_invalid
__ZL12vec4_invalid
__ZL12vec4_invalid
__ZL12vec4_invalid
__ZL12vec4_invalid
__ZL12vec4_invalid
__ZL12vec4_invalid
__ZL12vec4_invalid
__ZL12vec4_invalid
__ZL12vec4_invalid
__ZL12vec4_invalid
__ZL12vec4_invalid
__ZL12vec4_invalid
__ZL12vec4_invalid
__ZL12vec4_invalid
__ZL12vec4_invalid
__ZL12vec4_invalid
__ZL12vec4_invalid
__ZL12vec4_invalid
__ZL12vec4_invalid
__ZL12vec4_invalid
__ZL12vec4_invalid
__ZL12vec4_invalid
__ZL12vec4_invalid
__ZL12vec4_invalid
__ZL12vec4_invalid
__ZL12vec4_invalid
__ZL12vec4_invalid
__ZL12vec4_invalid
__ZL12vec4_invalid
__ZL12vec4_invalid
__ZL12vec4_invalid
__ZL12vec4_invalid
__ZL12vec4_invalid
__ZL12vec4_invalid
__ZL12vec4_invalid
__ZL13kDefaultIrisU
__ZL13kDefaultIrisV
__ZL13r_showz_power
__ZL13s_EmptyConVar
__ZL13s_bMMXEnabled
__ZL13s_bRegistered
__ZL13s_bSSEEnabled
__ZL14lineartoscreen
__ZL14mat_fullbright
__ZL14mat_fullbright
__ZL14mat_fullbright
__ZL14mat_fullbright
__ZL14s_bSSE2Enabled
__ZL15lineartotexture
__ZL15texturetolinear
__ZL16kDefaultGrayStep
__ZL16s_StandardParams
__ZL16s_nDLLIdentifier
__ZL17kDefaultColorTint
__ZL17kDefaultEyeOrigin
__ZL17mat_visualize_dof
__ZL17s_DefaultAccessor
__ZL18kDefaultBorderTint
__ZL19kDefaultStripeColor
__ZL19kDefaultStripeScale
__ZL19r_bloomtintexponent
__ZL19r_lightwarpidentity
__ZL19r_lightwarpidentity
__ZL19r_lightwarpidentity
__ZL19r_lightwarpidentity
__ZL20kDefaultEmissiveTint
__ZL20mat_color_projection
__ZL21kDefaultSelfIllumTint
__ZL21r_waterforceexpensive
__ZL22kDefaultCloakColorTint
__ZL22kDefaultSheenColorTint
__ZL22kDefaultSubsurfaceTint
__ZL23g_Mathlib_GammaToLinear
__ZL23g_Mathlib_LinearToGamma
__ZL24SetDepthFlashlightParamsP13CBaseVSShaderP17IShaderDynamicAPIRK7VMatrixRK17FlashlightState_t
__ZL24kDefaultAmbientOcclColor
__ZL25DrawEyes_DX8_DX9_InternalbP13CBaseVSShaderPP12IMaterialVarP17IShaderDynamicAPIP13IShaderShadowbR19Eyes_DX8_DX9_Vars_t23VertexCompressionType_t
__ZL25kDefaultStripeFadeNormal1
__ZL25kDefaultStripeFadeNormal2
__ZL26DrawCompositorStage_commonP13CBaseVSShaderPP12IMaterialVarP13IShaderShadowP17IShaderDynamicAPI23VertexCompressionType_tRK16CompositorInfo_t
__ZL26kDefaultEffectCenterRadius
__ZL28kDefaultEmissiveScrollVector
__ZL2f3
__ZL31mat_use_compressed_hdr_textures
__ZL32__g_CreateIShaderDLLInternal_reg
__ZL33DrawVertexLitGeneric_DX9_InternalP13CBaseVSShaderPP12IMaterialVarP17IShaderDynamicAPIP13IShaderShadowbbR27VertexLitGeneric_DX9_Vars_t23VertexCompressionType_tPP27CBasePerMaterialContextData
__ZL35s_pConversionArrays_NoEscConversion
__ZL3f05
__ZL40s_pConversionArrays_StringCharConversion
__ZL6s_info
__ZL6s_info
__ZN10Aftershock7CShader14OnDrawElementsEPP12IMaterialVarP13IShaderShadowP17IShaderDynamicAPI23VertexCompressionType_tPP27CBasePerMaterialContextData
__ZN10Aftershock7CShader20OnInitShaderInstanceEPP12IMaterialVarP11IShaderInitPKc
__ZN10AftershockL14s_ShaderParamsE
__ZN10AftershockL16s_ShaderInstanceE
__ZN10CShaderDLL10DisconnectEb
__ZN10CShaderDLL10DisconnectEv
__ZN10CShaderDLL12InsertShaderEP7IShader
__ZN10CShaderDLL7ConnectEPFPvPKcPiE
__ZN10CShaderDLL7ConnectEPFPvPKcPiEb
__ZN10CShaderDLL9GetShaderEi
__ZN10CUtlVectorIP7IShader10CUtlMemoryIS1_iEED2Ev
__ZN10CUtlVectorIPN10Aftershock12CShaderParamE10CUtlMemoryIS2_iEED1Ev
__ZN10CUtlVectorIPN10Aftershock12CShaderParamE10CUtlMemoryIS2_iEED2Ev
__ZN10CUtlVectorIPN10Cloak_DX9012CShaderParamE10CUtlMemoryIS2_iEED1Ev
__ZN10CUtlVectorIPN10Cloak_DX9012CShaderParamE10CUtlMemoryIS2_iEED2Ev
__ZN10CUtlVectorIPN10Compositor12CShaderParamE10CUtlMemoryIS2_iEED1Ev
__ZN10CUtlVectorIPN10Compositor12CShaderParamE10CUtlMemoryIS2_iEED2Ev
__ZN10CUtlVectorIPN10DepthWrite12CShaderParamE10CUtlMemoryIS2_iEED1Ev
__ZN10CUtlVectorIPN10DepthWrite12CShaderParamE10CUtlMemoryIS2_iEED2Ev
__ZN10CUtlVectorIPN10Downsample12CShaderParamE10CUtlMemoryIS2_iEED1Ev
__ZN10CUtlVectorIPN10Downsample12CShaderParamE10CUtlMemoryIS2_iEED2Ev
__ZN10CUtlVectorIPN10EyeRefract12CShaderParamE10CUtlMemoryIS2_iEED1Ev
__ZN10CUtlVectorIPN10EyeRefract12CShaderParamE10CUtlMemoryIS2_iEED2Ev
__ZN10CUtlVectorIPN10MotionBlur12CShaderParamE10CUtlMemoryIS2_iEED1Ev
__ZN10CUtlVectorIPN10MotionBlur12CShaderParamE10CUtlMemoryIS2_iEED2Ev
__ZN10CUtlVectorIPN10Sprite_DX912CShaderParamE10CUtlMemoryIS2_iEED1Ev
__ZN10CUtlVectorIPN10Sprite_DX912CShaderParamE10CUtlMemoryIS2_iEED2Ev
__ZN10CUtlVectorIPN10Spritecard12CShaderParamE10CUtlMemoryIS2_iEED1Ev
__ZN10CUtlVectorIPN10Spritecard12CShaderParamE10CUtlMemoryIS2_iEED2Ev
__ZN10CUtlVectorIPN10Water_DX9012CShaderParamE10CUtlMemoryIS2_iEED1Ev
__ZN10CUtlVectorIPN10Water_DX9012CShaderParamE10CUtlMemoryIS2_iEED2Ev
__ZN10CUtlVectorIPN10WriteZ_DX912CShaderParamE10CUtlMemoryIS2_iEED1Ev
__ZN10CUtlVectorIPN10WriteZ_DX912CShaderParamE10CUtlMemoryIS2_iEED2Ev
__ZN10CUtlVectorIPN11BlurFilterX12CShaderParamE10CUtlMemoryIS2_iEED1Ev
__ZN10CUtlVectorIPN11BlurFilterX12CShaderParamE10CUtlMemoryIS2_iEED2Ev
__ZN10CUtlVectorIPN11BlurFilterY12CShaderParamE10CUtlMemoryIS2_iEED1Ev
__ZN10CUtlVectorIPN11BlurFilterY12CShaderParamE10CUtlMemoryIS2_iEED2Ev
__ZN10CUtlVectorIPN11Engine_Post12CShaderParamE10CUtlMemoryIS2_iEED1Ev
__ZN10CUtlVectorIPN11Engine_Post12CShaderParamE10CUtlMemoryIS2_iEED2Ev
__ZN10CUtlVectorIPN11Portal_DX9012CShaderParamE10CUtlMemoryIS2_iEED1Ev
__ZN10CUtlVectorIPN11Portal_DX9012CShaderParamE10CUtlMemoryIS2_iEED2Ev
__ZN10CUtlVectorIPN11ShadowBuild12CShaderParamE10CUtlMemoryIS2_iEED1Ev
__ZN10CUtlVectorIPN11ShadowBuild12CShaderParamE10CUtlMemoryIS2_iEED2Ev
__ZN10CUtlVectorIPN11ShadowModel12CShaderParamE10CUtlMemoryIS2_iEED1Ev
__ZN10CUtlVectorIPN11ShadowModel12CShaderParamE10CUtlMemoryIS2_iEED2Ev
__ZN10CUtlVectorIPN11Sky_HDR_DX912CShaderParamE10CUtlMemoryIS2_iEED1Ev
__ZN10CUtlVectorIPN11Sky_HDR_DX912CShaderParamE10CUtlMemoryIS2_iEED2Ev
__ZN10CUtlVectorIPN11pyro_vision12CShaderParamE10CUtlMemoryIS2_iEED1Ev
__ZN10CUtlVectorIPN11pyro_vision12CShaderParamE10CUtlMemoryIS2_iEED2Ev
__ZN10CUtlVectorIPN12EyeGlint_dx912CShaderParamE10CUtlMemoryIS2_iEED1Ev
__ZN10CUtlVectorIPN12EyeGlint_dx912CShaderParamE10CUtlMemoryIS2_iEED2Ev
__ZN10CUtlVectorIPN12FilmDust_dx912CShaderParamE10CUtlMemoryIS2_iEED1Ev
__ZN10CUtlVectorIPN12FilmDust_dx912CShaderParamE10CUtlMemoryIS2_iEED2Ev
__ZN10CUtlVectorIPN12Modulate_DX912CShaderParamE10CUtlMemoryIS2_iEED1Ev
__ZN10CUtlVectorIPN12Modulate_DX912CShaderParamE10CUtlMemoryIS2_iEED2Ev
__ZN10CUtlVectorIPN12Refract_DX9012CShaderParamE10CUtlMemoryIS2_iEED1Ev
__ZN10CUtlVectorIPN12Refract_DX9012CShaderParamE10CUtlMemoryIS2_iEED2Ev
__ZN10CUtlVectorIPN12UnlitGeneric12CShaderParamE10CUtlMemoryIS2_iEED1Ev
__ZN10CUtlVectorIPN12UnlitGeneric12CShaderParamE10CUtlMemoryIS2_iEED2Ev
__ZN10CUtlVectorIPN12VolumeClouds12CShaderParamE10CUtlMemoryIS2_iEED1Ev
__ZN10CUtlVectorIPN12VolumeClouds12CShaderParamE10CUtlMemoryIS2_iEED2Ev
__ZN10CUtlVectorIPN12VortWarp_DX912CShaderParamE10CUtlMemoryIS2_iEED1Ev
__ZN10CUtlVectorIPN12VortWarp_DX912CShaderParamE10CUtlMemoryIS2_iEED2Ev
__ZN10CUtlVectorIPN12WriteStencil12CShaderParamE10CUtlMemoryIS2_iEED1Ev
__ZN10CUtlVectorIPN12WriteStencil12CShaderParamE10CUtlMemoryIS2_iEED2Ev
__ZN10CUtlVectorIPN12floatcombine12CShaderParamE10CUtlMemoryIS2_iEED1Ev
__ZN10CUtlVectorIPN12floatcombine12CShaderParamE10CUtlMemoryIS2_iEED2Ev
__ZN10CUtlVectorIPN13DecalModulate12CShaderParamE10CUtlMemoryIS2_iEED1Ev
__ZN10CUtlVectorIPN13DecalModulate12CShaderParamE10CUtlMemoryIS2_iEED2Ev
__ZN10CUtlVectorIPN13FilmGrain_dx912CShaderParamE10CUtlMemoryIS2_iEED1Ev
__ZN10CUtlVectorIPN13FilmGrain_dx912CShaderParamE10CUtlMemoryIS2_iEED2Ev
__ZN10CUtlVectorIPN13MonitorScreen12CShaderParamE10CUtlMemoryIS2_iEED1Ev
__ZN10CUtlVectorIPN13MonitorScreen12CShaderParamE10CUtlMemoryIS2_iEED2Ev
__ZN10CUtlVectorIPN13Occlusion_DX912CShaderParamE10CUtlMemoryIS2_iEED1Ev
__ZN10CUtlVectorIPN13Occlusion_DX912CShaderParamE10CUtlMemoryIS2_iEED2Ev
__ZN10CUtlVectorIPN13PortalRefract12CShaderParamE10CUtlMemoryIS2_iEED1Ev
__ZN10CUtlVectorIPN13PortalRefract12CShaderParamE10CUtlMemoryIS2_iEED2Ev
__ZN10CUtlVectorIPN13Wireframe_DX912CShaderParamE10CUtlMemoryIS2_iEED1Ev
__ZN10CUtlVectorIPN13Wireframe_DX912CShaderParamE10CUtlMemoryIS2_iEED2Ev
__ZN10CUtlVectorIPN13floattoscreen12CShaderParamE10CUtlMemoryIS2_iEED1Ev
__ZN10CUtlVectorIPN13floattoscreen12CShaderParamE10CUtlMemoryIS2_iEED2Ev
__ZN10CUtlVectorIPN14Aftershock_dx912CShaderParamE10CUtlMemoryIS2_iEED1Ev
__ZN10CUtlVectorIPN14Aftershock_dx912CShaderParamE10CUtlMemoryIS2_iEED2Ev
__ZN10CUtlVectorIPN14EyeRefract_dx912CShaderParamE10CUtlMemoryIS2_iEED1Ev
__ZN10CUtlVectorIPN14EyeRefract_dx912CShaderParamE10CUtlMemoryIS2_iEED2Ev
__ZN10CUtlVectorIPN14HDRSelectRange12CShaderParamE10CUtlMemoryIS2_iEED1Ev
__ZN10CUtlVectorIPN14HDRSelectRange12CShaderParamE10CUtlMemoryIS2_iEED2Ev
__ZN10CUtlVectorIPN14MotionBlur_dx912CShaderParamE10CUtlMemoryIS2_iEED1Ev
__ZN10CUtlVectorIPN14MotionBlur_dx912CShaderParamE10CUtlMemoryIS2_iEED2Ev
__ZN10CUtlVectorIPN14ParticleSphere12CShaderParamE10CUtlMemoryIS2_iEED1Ev
__ZN10CUtlVectorIPN14ParticleSphere12CShaderParamE10CUtlMemoryIS2_iEED2Ev
__ZN10CUtlVectorIPN14ShatteredGlass12CShaderParamE10CUtlMemoryIS2_iEED1Ev
__ZN10CUtlVectorIPN14ShatteredGlass12CShaderParamE10CUtlMemoryIS2_iEED2Ev
__ZN10CUtlVectorIPN14WindowImposter12CShaderParamE10CUtlMemoryIS2_iEED1Ev
__ZN10CUtlVectorIPN14WindowImposter12CShaderParamE10CUtlMemoryIS2_iEED2Ev
__ZN10CUtlVectorIPN14vr_distort_hud12CShaderParamE10CUtlMemoryIS2_iEED1Ev
__ZN10CUtlVectorIPN14vr_distort_hud12CShaderParamE10CUtlMemoryIS2_iEED2Ev
__ZN10CUtlVectorIPN15ColorCorrection12CShaderParamE10CUtlMemoryIS2_iEED1Ev
__ZN10CUtlVectorIPN15ColorCorrection12CShaderParamE10CUtlMemoryIS2_iEED2Ev
__ZN10CUtlVectorIPN15DebugMRTTexture12CShaderParamE10CUtlMemoryIS2_iEED1Ev
__ZN10CUtlVectorIPN15DebugMRTTexture12CShaderParamE10CUtlMemoryIS2_iEED2Ev
__ZN10CUtlVectorIPN15Engine_Post_dx912CShaderParamE10CUtlMemoryIS2_iEED1Ev
__ZN10CUtlVectorIPN15Engine_Post_dx912CShaderParamE10CUtlMemoryIS2_iEED2Ev
__ZN10CUtlVectorIPN15Sample4x4_Blend12CShaderParamE10CUtlMemoryIS2_iEED1Ev
__ZN10CUtlVectorIPN15Sample4x4_Blend12CShaderParamE10CUtlMemoryIS2_iEED2Ev
__ZN10CUtlVectorIPN15ShadowBuild_DX912CShaderParamE10CUtlMemoryIS2_iEED1Ev
__ZN10CUtlVectorIPN15ShadowBuild_DX912CShaderParamE10CUtlMemoryIS2_iEED2Ev
__ZN10CUtlVectorIPN15ShadowModel_DX912CShaderParamE10CUtlMemoryIS2_iEED1Ev
__ZN10CUtlVectorIPN15ShadowModel_DX912CShaderParamE10CUtlMemoryIS2_iEED2Ev
__ZN10CUtlVectorIPN15UnlitTwoTexture12CShaderParamE10CUtlMemoryIS2_iEED1Ev
__ZN10CUtlVectorIPN15UnlitTwoTexture12CShaderParamE10CUtlMemoryIS2_iEED2Ev
__ZN10CUtlVectorIPN16DebugTextureView12CShaderParamE10CUtlMemoryIS2_iEED1Ev
__ZN10CUtlVectorIPN16DebugTextureView12CShaderParamE10CUtlMemoryIS2_iEED2Ev
__ZN10CUtlVectorIPN16Downsample_nohdr12CShaderParamE10CUtlMemoryIS2_iEED1Ev
__ZN10CUtlVectorIPN16Downsample_nohdr12CShaderParamE10CUtlMemoryIS2_iEED2Ev
__ZN10CUtlVectorIPN16VertexLitGeneric12CShaderParamE10CUtlMemoryIS2_iEED1Ev
__ZN10CUtlVectorIPN16VertexLitGeneric12CShaderParamE10CUtlMemoryIS2_iEED2Ev
__ZN10CUtlVectorIPN16VolumeClouds_dx912CShaderParamE10CUtlMemoryIS2_iEED1Ev
__ZN10CUtlVectorIPN16VolumeClouds_dx912CShaderParamE10CUtlMemoryIS2_iEED2Ev
__ZN10CUtlVectorIPN16WorldVertexAlpha12CShaderParamE10CUtlMemoryIS2_iEED1Ev
__ZN10CUtlVectorIPN16WorldVertexAlpha12CShaderParamE10CUtlMemoryIS2_iEED2Ev
__ZN10CUtlVectorIPN16WriteStencil_DX912CShaderParamE10CUtlMemoryIS2_iEED1Ev
__ZN10CUtlVectorIPN16WriteStencil_DX912CShaderParamE10CUtlMemoryIS2_iEED2Ev
__ZN10CUtlVectorIPN16accumbuff4sample12CShaderParamE10CUtlMemoryIS2_iEED1Ev
__ZN10CUtlVectorIPN16accumbuff4sample12CShaderParamE10CUtlMemoryIS2_iEED2Ev
__ZN10CUtlVectorIPN16accumbuff5sample12CShaderParamE10CUtlMemoryIS2_iEED1Ev
__ZN10CUtlVectorIPN16accumbuff5sample12CShaderParamE10CUtlMemoryIS2_iEED2Ev
__ZN10CUtlVectorIPN16color_projection12CShaderParamE10CUtlMemoryIS2_iEED1Ev
__ZN10CUtlVectorIPN16color_projection12CShaderParamE10CUtlMemoryIS2_iEED2Ev
__ZN10CUtlVectorIPN17DecalModulate_dx912CShaderParamE10CUtlMemoryIS2_iEED1Ev
__ZN10CUtlVectorIPN17DecalModulate_dx912CShaderParamE10CUtlMemoryIS2_iEED2Ev
__ZN10CUtlVectorIPN17HDRCombineTo16Bit12CShaderParamE10CUtlMemoryIS2_iEED1Ev
__ZN10CUtlVectorIPN17HDRCombineTo16Bit12CShaderParamE10CUtlMemoryIS2_iEED2Ev
__ZN10CUtlVectorIPN17MonitorScreen_DX912CShaderParamE10CUtlMemoryIS2_iEED1Ev
__ZN10CUtlVectorIPN17MonitorScreen_DX912CShaderParamE10CUtlMemoryIS2_iEED2Ev
__ZN10CUtlVectorIPN17PortalRefract_dx912CShaderParamE10CUtlMemoryIS2_iEED1Ev
__ZN10CUtlVectorIPN17PortalRefract_dx912CShaderParamE10CUtlMemoryIS2_iEED2Ev
__ZN10CUtlVectorIPN18LightmappedGeneric12CShaderParamE10CUtlMemoryIS2_iEED1Ev
__ZN10CUtlVectorIPN18LightmappedGeneric12CShaderParamE10CUtlMemoryIS2_iEED2Ev
__ZN10CUtlVectorIPN18ParticleSphere_DX912CShaderParamE10CUtlMemoryIS2_iEED1Ev
__ZN10CUtlVectorIPN18ParticleSphere_DX912CShaderParamE10CUtlMemoryIS2_iEED2Ev
__ZN10CUtlVectorIPN18vr_distort_texture12CShaderParamE10CUtlMemoryIS2_iEED1Ev
__ZN10CUtlVectorIPN18vr_distort_texture12CShaderParamE10CUtlMemoryIS2_iEED2Ev
__ZN10CUtlVectorIPN19PortalStaticOverlay12CShaderParamE10CUtlMemoryIS2_iEED1Ev
__ZN10CUtlVectorIPN19PortalStaticOverlay12CShaderParamE10CUtlMemoryIS2_iEED2Ev
__ZN10CUtlVectorIPN19UnlitTwoTexture_DX912CShaderParamE10CUtlMemoryIS2_iEED1Ev
__ZN10CUtlVectorIPN19UnlitTwoTexture_DX912CShaderParamE10CUtlMemoryIS2_iEED2Ev
__ZN10CUtlVectorIPN19WindowImposter_DX9012CShaderParamE10CUtlMemoryIS2_iEED1Ev
__ZN10CUtlVectorIPN19WindowImposter_DX9012CShaderParamE10CUtlMemoryIS2_iEED2Ev
__ZN10CUtlVectorIPN19hsl_filmgrain_pass112CShaderParamE10CUtlMemoryIS2_iEED1Ev
__ZN10CUtlVectorIPN19hsl_filmgrain_pass112CShaderParamE10CUtlMemoryIS2_iEED2Ev
__ZN10CUtlVectorIPN19hsl_filmgrain_pass212CShaderParamE10CUtlMemoryIS2_iEED1Ev
__ZN10CUtlVectorIPN19hsl_filmgrain_pass212CShaderParamE10CUtlMemoryIS2_iEED2Ev
__ZN10CUtlVectorIPN19screenspace_general12CShaderParamE10CUtlMemoryIS2_iEED1Ev
__ZN10CUtlVectorIPN19screenspace_general12CShaderParamE10CUtlMemoryIS2_iEED2Ev
__ZN10CUtlVectorIPN20DebugTextureView_dx912CShaderParamE10CUtlMemoryIS2_iEED1Ev
__ZN10CUtlVectorIPN20DebugTextureView_dx912CShaderParamE10CUtlMemoryIS2_iEED2Ev
__ZN10CUtlVectorIPN20WorldTwoTextureBlend12CShaderParamE10CUtlMemoryIS2_iEED1Ev
__ZN10CUtlVectorIPN20WorldTwoTextureBlend12CShaderParamE10CUtlMemoryIS2_iEED2Ev
__ZN10CUtlVectorIPN21LightmappedReflective12CShaderParamE10CUtlMemoryIS2_iEED1Ev
__ZN10CUtlVectorIPN21LightmappedReflective12CShaderParamE10CUtlMemoryIS2_iEED2Ev
__ZN10CUtlVectorIPN21WorldVertexTransition12CShaderParamE10CUtlMemoryIS2_iEED1Ev
__ZN10CUtlVectorIPN21WorldVertexTransition12CShaderParamE10CUtlMemoryIS2_iEED2Ev
__ZN10CUtlVectorIPN21floattoscreen_vanilla12CShaderParamE10CUtlMemoryIS2_iEED1Ev
__ZN10CUtlVectorIPN21floattoscreen_vanilla12CShaderParamE10CUtlMemoryIS2_iEED2Ev
__ZN10CUtlVectorIPN21sfm_downsample_shader12CShaderParamE10CUtlMemoryIS2_iEED1Ev
__ZN10CUtlVectorIPN21sfm_downsample_shader12CShaderParamE10CUtlMemoryIS2_iEED2Ev
__ZN10CUtlVectorIPN22BufferClearObeyStencil12CShaderParamE10CUtlMemoryIS2_iEED1Ev
__ZN10CUtlVectorIPN22BufferClearObeyStencil12CShaderParamE10CUtlMemoryIS2_iEED2Ev
__ZN10CUtlVectorIPN22IntroScreenSpaceEffect12CShaderParamE10CUtlMemoryIS2_iEED1Ev
__ZN10CUtlVectorIPN22IntroScreenSpaceEffect12CShaderParamE10CUtlMemoryIS2_iEED2Ev
__ZN10CUtlVectorIPN22ParticleLitGeneric_DX912CShaderParamE10CUtlMemoryIS2_iEED1Ev
__ZN10CUtlVectorIPN22ParticleLitGeneric_DX912CShaderParamE10CUtlMemoryIS2_iEED2Ev
__ZN10CUtlVectorIPN22sfm_blurfilterx_shader12CShaderParamE10CUtlMemoryIS2_iEED1Ev
__ZN10CUtlVectorIPN22sfm_blurfilterx_shader12CShaderParamE10CUtlMemoryIS2_iEED2Ev
__ZN10CUtlVectorIPN22sfm_blurfiltery_shader12CShaderParamE10CUtlMemoryIS2_iEED1Ev
__ZN10CUtlVectorIPN22sfm_blurfiltery_shader12CShaderParamE10CUtlMemoryIS2_iEED2Ev
__ZN10CUtlVectorIPN23floatcombine_autoexpose12CShaderParamE10CUtlMemoryIS2_iEED1Ev
__ZN10CUtlVectorIPN23floatcombine_autoexpose12CShaderParamE10CUtlMemoryIS2_iEED2Ev
__ZN10CUtlVectorIPN23screenspace_general_dx912CShaderParamE10CUtlMemoryIS2_iEED1Ev
__ZN10CUtlVectorIPN23screenspace_general_dx912CShaderParamE10CUtlMemoryIS2_iEED2Ev
__ZN10CUtlVectorIPN25WorldVertexTransition_DX912CShaderParamE10CUtlMemoryIS2_iEED1Ev
__ZN10CUtlVectorIPN25WorldVertexTransition_DX912CShaderParamE10CUtlMemoryIS2_iEED2Ev
__ZN10CUtlVectorIPN25sfm_integercombine_shader12CShaderParamE10CUtlMemoryIS2_iEED1Ev
__ZN10CUtlVectorIPN25sfm_integercombine_shader12CShaderParamE10CUtlMemoryIS2_iEED2Ev
__ZN10CUtlVectorIPN26BufferClearObeyStencil_DX912CShaderParamE10CUtlMemoryIS2_iEED1Ev
__ZN10CUtlVectorIPN26BufferClearObeyStencil_DX912CShaderParamE10CUtlMemoryIS2_iEED2Ev
__ZN10CUtlVectorIPN26LightmappedReflective_DX9012CShaderParamE10CUtlMemoryIS2_iEED1Ev
__ZN10CUtlVectorIPN26LightmappedReflective_DX9012CShaderParamE10CUtlMemoryIS2_iEED2Ev
__ZN10CUtlVectorIPN3Bik12CShaderParamE10CUtlMemoryIS2_iEED1Ev
__ZN10CUtlVectorIPN3Bik12CShaderParamE10CUtlMemoryIS2_iEED2Ev
__ZN10CUtlVectorIPN3HSV12CShaderParamE10CUtlMemoryIS2_iEED1Ev
__ZN10CUtlVectorIPN3HSV12CShaderParamE10CUtlMemoryIS2_iEED2Ev
__ZN10CUtlVectorIPN3Sky12CShaderParamE10CUtlMemoryIS2_iEED1Ev
__ZN10CUtlVectorIPN3Sky12CShaderParamE10CUtlMemoryIS2_iEED2Ev
__ZN10CUtlVectorIPN41DecalBaseTimesLightmapAlphaBlendSelfIllum12CShaderParamE10CUtlMemoryIS2_iEED1Ev
__ZN10CUtlVectorIPN41DecalBaseTimesLightmapAlphaBlendSelfIllum12CShaderParamE10CUtlMemoryIS2_iEED2Ev
__ZN10CUtlVectorIPN45DecalBaseTimesLightmapAlphaBlendSelfIllum_DX912CShaderParamE10CUtlMemoryIS2_iEED1Ev
__ZN10CUtlVectorIPN45DecalBaseTimesLightmapAlphaBlendSelfIllum_DX912CShaderParamE10CUtlMemoryIS2_iEED2Ev
__ZN10CUtlVectorIPN4Core12CShaderParamE10CUtlMemoryIS2_iEED1Ev
__ZN10CUtlVectorIPN4Core12CShaderParamE10CUtlMemoryIS2_iEED2Ev
__ZN10CUtlVectorIPN4eyes12CShaderParamE10CUtlMemoryIS2_iEED1Ev
__ZN10CUtlVectorIPN4eyes12CShaderParamE10CUtlMemoryIS2_iEED2Ev
__ZN10CUtlVectorIPN4warp12CShaderParamE10CUtlMemoryIS2_iEED1Ev
__ZN10CUtlVectorIPN4warp12CShaderParamE10CUtlMemoryIS2_iEED2Ev
__ZN10CUtlVectorIPN5Bloom12CShaderParamE10CUtlMemoryIS2_iEED1Ev
__ZN10CUtlVectorIPN5Bloom12CShaderParamE10CUtlMemoryIS2_iEED2Ev
__ZN10CUtlVectorIPN5Cable12CShaderParamE10CUtlMemoryIS2_iEED1Ev
__ZN10CUtlVectorIPN5Cable12CShaderParamE10CUtlMemoryIS2_iEED2Ev
__ZN10CUtlVectorIPN5Cloak12CShaderParamE10CUtlMemoryIS2_iEED1Ev
__ZN10CUtlVectorIPN5Cloak12CShaderParamE10CUtlMemoryIS2_iEED2Ev
__ZN10CUtlVectorIPN5Cloud12CShaderParamE10CUtlMemoryIS2_iEED1Ev
__ZN10CUtlVectorIPN5Cloud12CShaderParamE10CUtlMemoryIS2_iEED2Ev
__ZN10CUtlVectorIPN5Teeth12CShaderParamE10CUtlMemoryIS2_iEED1Ev
__ZN10CUtlVectorIPN5Teeth12CShaderParamE10CUtlMemoryIS2_iEED2Ev
__ZN10CUtlVectorIPN5Water12CShaderParamE10CUtlMemoryIS2_iEED1Ev
__ZN10CUtlVectorIPN5Water12CShaderParamE10CUtlMemoryIS2_iEED2Ev
__ZN10CUtlVectorIPN5showz12CShaderParamE10CUtlMemoryIS2_iEED1Ev
__ZN10CUtlVectorIPN5showz12CShaderParamE10CUtlMemoryIS2_iEED2Ev
__ZN10CUtlVectorIPN6Portal12CShaderParamE10CUtlMemoryIS2_iEED1Ev
__ZN10CUtlVectorIPN6Portal12CShaderParamE10CUtlMemoryIS2_iEED2Ev
__ZN10CUtlVectorIPN6Shadow12CShaderParamE10CUtlMemoryIS2_iEED1Ev
__ZN10CUtlVectorIPN6Shadow12CShaderParamE10CUtlMemoryIS2_iEED2Ev
__ZN10CUtlVectorIPN6Sprite12CShaderParamE10CUtlMemoryIS2_iEED1Ev
__ZN10CUtlVectorIPN6Sprite12CShaderParamE10CUtlMemoryIS2_iEED2Ev
__ZN10CUtlVectorIPN6WriteZ12CShaderParamE10CUtlMemoryIS2_iEED1Ev
__ZN10CUtlVectorIPN6WriteZ12CShaderParamE10CUtlMemoryIS2_iEED2Ev
__ZN10CUtlVectorIPN7Refract12CShaderParamE10CUtlMemoryIS2_iEED1Ev
__ZN10CUtlVectorIPN7Refract12CShaderParamE10CUtlMemoryIS2_iEED2Ev
__ZN10CUtlVectorIPN7Sky_DX912CShaderParamE10CUtlMemoryIS2_iEED1Ev
__ZN10CUtlVectorIPN7Sky_DX912CShaderParamE10CUtlMemoryIS2_iEED2Ev
__ZN10CUtlVectorIPN8EyeGlint12CShaderParamE10CUtlMemoryIS2_iEED1Ev
__ZN10CUtlVectorIPN8EyeGlint12CShaderParamE10CUtlMemoryIS2_iEED2Ev
__ZN10CUtlVectorIPN8Eyes_dx912CShaderParamE10CUtlMemoryIS2_iEED1Ev
__ZN10CUtlVectorIPN8Eyes_dx912CShaderParamE10CUtlMemoryIS2_iEED2Ev
__ZN10CUtlVectorIPN8FilmDust12CShaderParamE10CUtlMemoryIS2_iEED1Ev
__ZN10CUtlVectorIPN8FilmDust12CShaderParamE10CUtlMemoryIS2_iEED2Ev
__ZN10CUtlVectorIPN8Modulate12CShaderParamE10CUtlMemoryIS2_iEED1Ev
__ZN10CUtlVectorIPN8Modulate12CShaderParamE10CUtlMemoryIS2_iEED2Ev
__ZN10CUtlVectorIPN8TreeLeaf12CShaderParamE10CUtlMemoryIS2_iEED1Ev
__ZN10CUtlVectorIPN8TreeLeaf12CShaderParamE10CUtlMemoryIS2_iEED2Ev
__ZN10CUtlVectorIPN8VortWarp12CShaderParamE10CUtlMemoryIS2_iEED1Ev
__ZN10CUtlVectorIPN8VortWarp12CShaderParamE10CUtlMemoryIS2_iEED2Ev
__ZN10CUtlVectorIPN9Cable_DX912CShaderParamE10CUtlMemoryIS2_iEED1Ev
__ZN10CUtlVectorIPN9Cable_DX912CShaderParamE10CUtlMemoryIS2_iEED2Ev
__ZN10CUtlVectorIPN9Cloud_dx912CShaderParamE10CUtlMemoryIS2_iEED1Ev
__ZN10CUtlVectorIPN9Cloud_dx912CShaderParamE10CUtlMemoryIS2_iEED2Ev
__ZN10CUtlVectorIPN9Core_DX9012CShaderParamE10CUtlMemoryIS2_iEED1Ev
__ZN10CUtlVectorIPN9Core_DX9012CShaderParamE10CUtlMemoryIS2_iEED2Ev
__ZN10CUtlVectorIPN9FilmGrain12CShaderParamE10CUtlMemoryIS2_iEED1Ev
__ZN10CUtlVectorIPN9FilmGrain12CShaderParamE10CUtlMemoryIS2_iEED2Ev
__ZN10CUtlVectorIPN9Occlusion12CShaderParamE10CUtlMemoryIS2_iEED1Ev
__ZN10CUtlVectorIPN9Occlusion12CShaderParamE10CUtlMemoryIS2_iEED2Ev
__ZN10CUtlVectorIPN9Sample4x412CShaderParamE10CUtlMemoryIS2_iEED1Ev
__ZN10CUtlVectorIPN9Sample4x412CShaderParamE10CUtlMemoryIS2_iEED2Ev
__ZN10CUtlVectorIPN9Teeth_DX912CShaderParamE10CUtlMemoryIS2_iEED1Ev
__ZN10CUtlVectorIPN9Teeth_DX912CShaderParamE10CUtlMemoryIS2_iEED2Ev
__ZN10CUtlVectorIPN9Wireframe12CShaderParamE10CUtlMemoryIS2_iEED1Ev
__ZN10CUtlVectorIPN9Wireframe12CShaderParamE10CUtlMemoryIS2_iEED2Ev
__ZN10CVProfNode10EnterScopeEv
__ZN10CVProfNode10GetSubNodeEPKciS1_i
__ZN10CVProfNode9ExitScopeEv
__ZN10Cloak_DX9012CShaderParamC1EPKc17ShaderParamType_tS2_S2_i
__ZN10Cloak_DX907CShader14OnDrawElementsEPP12IMaterialVarP13IShaderShadowP17IShaderDynamicAPI23VertexCompressionType_tPP27CBasePerMaterialContextData
__ZN10Cloak_DX907CShader18OnInitShaderParamsEPP12IMaterialVarPKc
__ZN10Cloak_DX907CShader20OnInitShaderInstanceEPP12IMaterialVarP11IShaderInitPKc
__ZN10Cloak_DX90L10PHONGBOOSTE
__ZN10Cloak_DX90L11CLOAKFACTORE
__ZN10Cloak_DX90L11REFRACTTINTE
__ZN10Cloak_DX90L13BUMPTRANSFORME
__ZN10Cloak_DX90L13PHONGEXPONENTE
__ZN10Cloak_DX90L13REFRACTAMOUNTE
__ZN10Cloak_DX90L13RIMLIGHTBOOSTE
__ZN10Cloak_DX90L14s_ShaderParamsE
__ZN10Cloak_DX90L15PHONGALBEDOTINTE
__ZN10Cloak_DX90L16LIGHTWARPTEXTUREE
__ZN10Cloak_DX90L16RIMLIGHTEXPONENTE
__ZN10Cloak_DX90L16s_ShaderInstanceE
__ZN10Cloak_DX90L17FRESNELREFLECTIONE
__ZN10Cloak_DX90L18PHONGFRESNELRANGESE
__ZN10Cloak_DX90L18REFRACTTINTTEXTUREE
__ZN10Cloak_DX90L20PHONGEXPONENTTEXTUREE
__ZN10Cloak_DX90L23REFRACTTINTTEXTUREFRAMEE
__ZN10Cloak_DX90L23s_pShaderParamOverridesE
__ZN10Cloak_DX90L4TIMEE
__ZN10Cloak_DX90L5ALPHAE
__ZN10Cloak_DX90L5COLORE
__ZN10Cloak_DX90L6MASKEDE
__ZN10Cloak_DX90L7RIMMASKE
__ZN10Cloak_DX90L8NOWRITEZE
__ZN10Cloak_DX90L8RIMLIGHTE
__ZN10Cloak_DX90L9BUMPFRAMEE
__ZN10Cloak_DX90L9NORMALMAPE
__ZN10Cloak_DX90L9PHONGTINTE
__ZN10Compositor12CShaderParamC1EPKc17ShaderParamType_tS2_S2_i
__ZN10Compositor7CShader14OnDrawElementsEPP12IMaterialVarP13IShaderShadowP17IShaderDynamicAPI23VertexCompressionType_tPP27CBasePerMaterialContextData
__ZN10Compositor7CShader20OnInitShaderInstanceEPP12IMaterialVarP11IShaderInitPKc
__ZN10CompositorL10DEBUG_MODEE
__ZN10CompositorL10SELECTOR10E
__ZN10CompositorL10SELECTOR11E
__ZN10CompositorL10SELECTOR12E
__ZN10CompositorL10SELECTOR13E
__ZN10CompositorL10SELECTOR14E
__ZN10CompositorL10SELECTOR15E
__ZN10CompositorL11SRCTEXTURE0E
__ZN10CompositorL11SRCTEXTURE1E
__ZN10CompositorL11SRCTEXTURE2E
__ZN10CompositorL11SRCTEXTURE3E
__ZN10CompositorL12COMBINE_MODEE
__ZN10CompositorL13TEXTRANSFORM0E
__ZN10CompositorL13TEXTRANSFORM1E
__ZN10CompositorL13TEXTRANSFORM2E
__ZN10CompositorL13TEXTRANSFORM3E
__ZN10CompositorL14s_ShaderParamsE
__ZN10CompositorL16TEXADJUSTLEVELS0E
__ZN10CompositorL16TEXADJUSTLEVELS1E
__ZN10CompositorL16TEXADJUSTLEVELS2E
__ZN10CompositorL16TEXADJUSTLEVELS3E
__ZN10CompositorL16s_ShaderInstanceE
__ZN10CompositorL17TEXTUREINPUTCOUNTE
__ZN10CompositorL9SELECTOR0E
__ZN10CompositorL9SELECTOR1E
__ZN10CompositorL9SELECTOR2E
__ZN10CompositorL9SELECTOR3E
__ZN10CompositorL9SELECTOR4E
__ZN10CompositorL9SELECTOR5E
__ZN10CompositorL9SELECTOR6E
__ZN10CompositorL9SELECTOR7E
__ZN10CompositorL9SELECTOR8E
__ZN10CompositorL9SELECTOR9E
__ZN10DepthWrite12CShaderParamC1EPKc17ShaderParamType_tS2_S2_i
__ZN10DepthWrite7CShader14OnDrawElementsEPP12IMaterialVarP13IShaderShadowP17IShaderDynamicAPI23VertexCompressionType_tPP27CBasePerMaterialContextData
__ZN10DepthWrite7CShader18OnInitShaderParamsEPP12IMaterialVarPKc
__ZN10DepthWrite7CShader20OnInitShaderInstanceEPP12IMaterialVarP11IShaderInitPKc
__ZN10DepthWriteL11COLOR_DEPTHE
__ZN10DepthWriteL13TREESWAYSPEEDE
__ZN10DepthWriteL14TREESWAYHEIGHTE
__ZN10DepthWriteL14TREESWAYRADIUSE
__ZN10DepthWriteL14TREESWAYSTATICE
__ZN10DepthWriteL14s_ShaderParamsE
__ZN10DepthWriteL16TREESWAYSTRENGTHE
__ZN10DepthWriteL16s_ShaderInstanceE
__ZN10DepthWriteL18ALPHATESTREFERENCEE
__ZN10DepthWriteL18TREESWAYFALLOFFEXPE
__ZN10DepthWriteL19TREESWAYSTARTHEIGHTE
__ZN10DepthWriteL19TREESWAYSTARTRADIUSE
__ZN10DepthWriteL20TREESWAYSPEEDLERPENDE
__ZN10DepthWriteL21TREESWAYSCRUMBLESPEEDE
__ZN10DepthWriteL22TREESWAYSPEEDLERPSTARTE
__ZN10DepthWriteL24TREESWAYSCRUMBLESTRENGTHE
__ZN10DepthWriteL25TREESWAYSCRUMBLEFREQUENCYE
__ZN10DepthWriteL26TREESWAYSCRUMBLEFALLOFFEXPE
__ZN10DepthWriteL31TREESWAYSPEEDHIGHWINDMULTIPLIERE
__ZN10DepthWriteL8TREESWAYE
__ZN10Downsample7CShader14OnDrawElementsEPP12IMaterialVarP13IShaderShadowP17IShaderDynamicAPI23VertexCompressionType_tPP27CBasePerMaterialContextData
__ZN10Downsample7CShader20OnInitShaderInstanceEPP12IMaterialVarP11IShaderInitPKc
__ZN10DownsampleL14s_ShaderParamsE
__ZN10DownsampleL16s_ShaderInstanceE
__ZN10EyeRefract7CShader14OnDrawElementsEPP12IMaterialVarP13IShaderShadowP17IShaderDynamicAPI23VertexCompressionType_tPP27CBasePerMaterialContextData
__ZN10EyeRefract7CShader20OnInitShaderInstanceEPP12IMaterialVarP11IShaderInitPKc
__ZN10EyeRefractL14s_ShaderParamsE
__ZN10EyeRefractL16s_ShaderInstanceE
__ZN10MotionBlur7CShader14OnDrawElementsEPP12IMaterialVarP13IShaderShadowP17IShaderDynamicAPI23VertexCompressionType_tPP27CBasePerMaterialContextData
__ZN10MotionBlur7CShader20OnInitShaderInstanceEPP12IMaterialVarP11IShaderInitPKc
__ZN10MotionBlurL14s_ShaderParamsE
__ZN10MotionBlurL16s_ShaderInstanceE
__ZN10Sprite_DX912CShaderParamC1EPKc17ShaderParamType_tS2_S2_i
__ZN10Sprite_DX97CShader14OnDrawElementsEPP12IMaterialVarP13IShaderShadowP17IShaderDynamicAPI23VertexCompressionType_tPP27CBasePerMaterialContextData
__ZN10Sprite_DX97CShader18OnInitShaderParamsEPP12IMaterialVarPKc
__ZN10Sprite_DX97CShader20OnInitShaderInstanceEPP12IMaterialVarP11IShaderInitPKc
__ZN10Sprite_DX97CShader26SetSpriteCommonShadowStateEj
__ZN10Sprite_DX97CShader27SetSpriteCommonDynamicStateEj
__ZN10Sprite_DX9L12SPRITEORIGINE
__ZN10Sprite_DX9L13HDRCOLORSCALEE
__ZN10Sprite_DX9L14s_ShaderParamsE
__ZN10Sprite_DX9L16SPRITERENDERMODEE
__ZN10Sprite_DX9L16s_ShaderInstanceE
__ZN10Sprite_DX9L17SPRITEORIENTATIONE
__ZN10Sprite_DX9L18IGNOREVERTEXCOLORSE
__ZN10Sprite_DX9L6NOSRGBE
__ZN10Spritecard12CShaderParamC1EPKc17ShaderParamType_tS2_S2_i
__ZN10Spritecard7CShader14OnDrawElementsEPP12IMaterialVarP13IShaderShadowP17IShaderDynamicAPI23VertexCompressionType_tPP27CBasePerMaterialContextData
__ZN10Spritecard7CShader18OnInitShaderParamsEPP12IMaterialVarPKc
__ZN10Spritecard7CShader20OnInitShaderInstanceEPP12IMaterialVarP11IShaderInitPKc
__ZN10SpritecardL10DEPTHBLENDE
__ZN10SpritecardL10SPLINETYPEE
__ZN10SpritecardL11BLENDFRAMESE
__ZN10SpritecardL11ENDFADESIZEE
__ZN10SpritecardL11MAXDISTANCEE
__ZN10SpritecardL11ORIENTATIONE
__ZN10SpritecardL11RAMPTEXTUREE
__ZN10SpritecardL12ADDOVERBLENDE
__ZN10SpritecardL12DUALSEQUENCEE
__ZN10SpritecardL13STARTFADESIZEE
__ZN10SpritecardL13USEINSTANCINGE
__ZN10SpritecardL14s_ShaderParamsE
__ZN10SpritecardL15ADDBASETEXTURE2E
__ZN10SpritecardL15DEPTHBLENDSCALEE
__ZN10SpritecardL15FARFADEINTERVALE
__ZN10SpritecardL15ZOOMANIMATESEQ2E
__ZN10SpritecardL16OVERBRIGHTFACTORE
__ZN10SpritecardL16s_ShaderInstanceE
__ZN10SpritecardL17EXTRACTGREENALPHAE
__ZN10SpritecardL17MAXLUMFRAMEBLEND1E
__ZN10SpritecardL17MAXLUMFRAMEBLEND2E
__ZN10SpritecardL19SEQUENCE_BLEND_MODEE
__ZN10SpritecardL7ADDSELFE
__ZN10SpritecardL7MAXSIZEE
__ZN10SpritecardL7MINSIZEE
__ZN10Water_DX9012CShaderParamC1EPKc17ShaderParamType_tS2_S2_i
__ZN10Water_DX9013Water_DX9_HDRL16s_ShaderInstanceE
__ZN10Water_DX907CShader14DrawCheapWaterEPP12IMaterialVarP13IShaderShadowP17IShaderDynamicAPIbb
__ZN10Water_DX907CShader14OnDrawElementsEPP12IMaterialVarP13IShaderShadowP17IShaderDynamicAPI23VertexCompressionType_tPP27CBasePerMaterialContextData
__ZN10Water_DX907CShader18OnInitShaderParamsEPP12IMaterialVarPKc
__ZN10Water_DX907CShader20OnInitShaderInstanceEPP12IMaterialVarP11IShaderInitPKc
__ZN10Water_DX907CShader24DrawReflectionRefractionEPP12IMaterialVarP13IShaderShadowP17IShaderDynamicAPIbb
__ZN10Water_DX90L10ABOVEWATERE
__ZN10Water_DX90L10FORCECHEAPE
__ZN10Water_DX90L10WATERDEPTHE
__ZN10Water_DX90L11BLURREFRACTE
__ZN10Water_DX90L11ENVMAPFRAMEE
__ZN10Water_DX90L11REFLECTTINTE
__ZN10Water_DX90L11REFRACTTINTE
__ZN10Water_DX90L13BUMPTRANSFORME
__ZN10Water_DX90L13REFLECTAMOUNTE
__ZN10Water_DX90L13REFRACTAMOUNTE
__ZN10Water_DX90L14FORCEEXPENSIVEE
__ZN10Water_DX90L14REFLECTTEXTUREE
__ZN10Water_DX90L14REFRACTTEXTUREE
__ZN10Water_DX90L14s_ShaderParamsE
__ZN10Water_DX90L15REFLECTENTITIESE
__ZN10Water_DX90L16NOLOWENDLIGHTMAPE
__ZN10Water_DX90L16s_ShaderInstanceE
__ZN10Water_DX90L18REFLECTBLENDFACTORE
__ZN10Water_DX90L21CHEAPWATERENDDISTANCEE
__ZN10Water_DX90L23CHEAPWATERSTARTDISTANCEE
__ZN10Water_DX90L4TIMEE
__ZN10Water_DX90L5SCALEE
__ZN10Water_DX90L6ENVMAPE
__ZN10Water_DX90L6FOGENDE
__ZN10Water_DX90L7SCROLL1E
__ZN10Water_DX90L7SCROLL2E
__ZN10Water_DX90L8FOGCOLORE
__ZN10Water_DX90L8FOGSTARTE
__ZN10Water_DX90L9BUMPFRAMEE
__ZN10Water_DX90L9NOFRESNELE
__ZN10Water_DX90L9NORMALMAPE
__ZN10WriteZ_DX97CShader14OnDrawElementsEPP12IMaterialVarP13IShaderShadowP17IShaderDynamicAPI23VertexCompressionType_tPP27CBasePerMaterialContextData
__ZN10WriteZ_DX97CShader18OnInitShaderParamsEPP12IMaterialVarPKc
__ZN10WriteZ_DX97CShader20OnInitShaderInstanceEPP12IMaterialVarP11IShaderInitPKc
__ZN10WriteZ_DX9L14s_ShaderParamsE
__ZN10WriteZ_DX9L16s_ShaderInstanceE
__ZN11BlurFilterX7CShader14OnDrawElementsEPP12IMaterialVarP13IShaderShadowP17IShaderDynamicAPI23VertexCompressionType_tPP27CBasePerMaterialContextData
__ZN11BlurFilterX7CShader20OnInitShaderInstanceEPP12IMaterialVarP11IShaderInitPKc
__ZN11BlurFilterXL14s_ShaderParamsE
__ZN11BlurFilterXL16s_ShaderInstanceE
__ZN11BlurFilterY12CShaderParamC1EPKc17ShaderParamType_tS2_S2_i
__ZN11BlurFilterY7CShader14OnDrawElementsEPP12IMaterialVarP13IShaderShadowP17IShaderDynamicAPI23VertexCompressionType_tPP27CBasePerMaterialContextData
__ZN11BlurFilterY7CShader18OnInitShaderParamsEPP12IMaterialVarPKc
__ZN11BlurFilterY7CShader20OnInitShaderInstanceEPP12IMaterialVarP11IShaderInitPKc
__ZN11BlurFilterYL11BLOOMAMOUNTE
__ZN11BlurFilterYL12FRAMETEXTUREE
__ZN11BlurFilterYL14s_ShaderParamsE
__ZN11BlurFilterYL16s_ShaderInstanceE
__ZN11CBaseShader10DefaultFogEv
__ZN11CBaseShader10FogToBlackEv
__ZN11CBaseShader10FogToWhiteEv
__ZN11CBaseShader10s_ppParamsE
__ZN11CBaseShader11BindTextureE9Sampler_tP8ITexturei
__ZN11CBaseShader11BindTextureE9Sampler_tii
__ZN11CBaseShader11LoadBumpMapEi
__ZN11CBaseShader11LoadCubeMapEii
__ZN11CBaseShader11LoadTextureEii
__ZN11CBaseShader12DrawElementsEPP12IMaterialVariP13IShaderShadowP17IShaderDynamicAPI23VertexCompressionType_tPP27CBasePerMaterialContextData
__ZN11CBaseShader12IsHDREnabledEv
__ZN11CBaseShader12s_pShaderAPIE
__ZN11CBaseShader13FogToFogColorEv
__ZN11CBaseShader13s_pShaderInitE
__ZN11CBaseShader14s_pMeshBuilderE
__ZN11CBaseShader15IsUsingGraphicsEv
__ZN11CBaseShader15s_pShaderShadowE
__ZN11CBaseShader16InitShaderParamsEPP12IMaterialVarPKc
__ZN11CBaseShader17FogToOOOverbrightEv
__ZN11CBaseShader17IsAlphaModulatingEv
__ZN11CBaseShader18InitShaderInstanceEPP12IMaterialVarP11IShaderInitPKcS6_
__ZN11CBaseShader18OnInitShaderParamsEPP12IMaterialVarPKc
__ZN11CBaseShader18s_nModulationFlagsE
__ZN11CBaseShader19EnableAlphaBlendingE19ShaderBlendFactor_tS0_
__ZN11CBaseShader19s_pTextureGroupNameE
__ZN11CBaseShader20DisableAlphaBlendingEv
__ZN11CBaseShader20GetTextureDimensionsEPfS0_i
__ZN11CBaseShader20TextureIsTranslucentEib
__ZN11CBaseShader21CanUseEditorMaterialsEv
__ZN11CBaseShader21SetInitialShadowStateEv
__ZN11CBaseShader22ComputeModulationColorEPf
__ZN11CBaseShader22ComputeModulationFlagsEPP12IMaterialVarP17IShaderDynamicAPI
__ZN11CBaseShader22SetBlendingShadowStateE11BlendType_t
__ZN11CBaseShader28SetNormalBlendingShadowStateEib
__ZN11CBaseShader29GetShaderAPITextureBindHandleEiii
__ZN11CBaseShader29SetDefaultBlendingShadowStateEib
__ZN11CBaseShader30SetAdditiveBlendingShadowStateEib
__ZN11CBaseShader4DrawEb
__ZN11CBaseShader9FogToGreyEv
__ZN11CBaseShaderC2Ev
__ZN11Engine_Post7CShader14OnDrawElementsEPP12IMaterialVarP13IShaderShadowP17IShaderDynamicAPI23VertexCompressionType_tPP27CBasePerMaterialContextData
__ZN11Engine_Post7CShader20OnInitShaderInstanceEPP12IMaterialVarP11IShaderInitPKc
__ZN11Engine_PostL14s_ShaderParamsE
__ZN11Engine_PostL16s_ShaderInstanceE
__ZN11Portal_DX9012CShaderParamC1EPKc17ShaderParamType_tS2_S2_i
__ZN11Portal_DX907CShader14OnDrawElementsEPP12IMaterialVarP13IShaderShadowP17IShaderDynamicAPI23VertexCompressionType_tPP27CBasePerMaterialContextData
__ZN11Portal_DX907CShader18OnInitShaderParamsEPP12IMaterialVarPKc
__ZN11Portal_DX907CShader20OnInitShaderInstanceEPP12IMaterialVarP11IShaderInitPKc
__ZN11Portal_DX90L10RENDERFIXZE
__ZN11Portal_DX90L12STATICAMOUNTE
__ZN11Portal_DX90L14s_ShaderParamsE
__ZN11Portal_DX90L16ALPHAMASKTEXTUREE
__ZN11Portal_DX90L16s_ShaderInstanceE
__ZN11Portal_DX90L18STATICBLENDTEXTUREE
__ZN11Portal_DX90L19ALTERNATEVIEWMATRIXE
__ZN11Portal_DX90L21ALPHAMASKTEXTUREFRAMEE
__ZN11Portal_DX90L22USEALTERNATEVIEWMATRIXE
__ZN11Portal_DX90L23STATICBLENDTEXTUREFRAMEE
__ZN11Portal_DX90L23s_pShaderParamOverridesE
__ZN11Portal_DX90L5ALPHAE
__ZN11Portal_DX90L5COLORE
__ZN11ShadowBuild7CShader14OnDrawElementsEPP12IMaterialVarP13IShaderShadowP17IShaderDynamicAPI23VertexCompressionType_tPP27CBasePerMaterialContextData
__ZN11ShadowBuild7CShader20OnInitShaderInstanceEPP12IMaterialVarP11IShaderInitPKc
__ZN11ShadowBuildL14s_ShaderParamsE
__ZN11ShadowBuildL16s_ShaderInstanceE
__ZN11ShadowModel7CShader14OnDrawElementsEPP12IMaterialVarP13IShaderShadowP17IShaderDynamicAPI23VertexCompressionType_tPP27CBasePerMaterialContextData
__ZN11ShadowModel7CShader20OnInitShaderInstanceEPP12IMaterialVarP11IShaderInitPKc
__ZN11ShadowModelL14s_ShaderParamsE
__ZN11ShadowModelL16s_ShaderInstanceE
__ZN11Sky_HDR_DX912CShaderParamC1EPKc17ShaderParamType_tS2_S2_i
__ZN11Sky_HDR_DX97CShader14OnDrawElementsEPP12IMaterialVarP13IShaderShadowP17IShaderDynamicAPI23VertexCompressionType_tPP27CBasePerMaterialContextData
__ZN11Sky_HDR_DX97CShader18OnInitShaderParamsEPP12IMaterialVarPKc
__ZN11Sky_HDR_DX97CShader20OnInitShaderInstanceEPP12IMaterialVarP11IShaderInitPKc
__ZN11Sky_HDR_DX9L14HDRBASETEXTUREE
__ZN11Sky_HDR_DX9L14s_ShaderParamsE
__ZN11Sky_HDR_DX9L16s_ShaderInstanceE
__ZN11Sky_HDR_DX9L20HDRCOMPRESSEDTEXTUREE
__ZN11Sky_HDR_DX9L21HDRCOMPRESSEDTEXTURE0E
__ZN11Sky_HDR_DX9L21HDRCOMPRESSEDTEXTURE1E
__ZN11Sky_HDR_DX9L21HDRCOMPRESSEDTEXTURE2E
__ZN11Sky_HDR_DX9L23s_pShaderParamOverridesE
__ZN11Sky_HDR_DX9L5COLORE
__ZN11pyro_vision12CShaderParamC1EPKc17ShaderParamType_tS2_S2_i
__ZN11pyro_vision7CShader14OnDrawElementsEPP12IMaterialVarP13IShaderShadowP17IShaderDynamicAPI23VertexCompressionType_tPP27CBasePerMaterialContextData
__ZN11pyro_vision7CShader18OnInitShaderParamsEPP12IMaterialVarPKc
__ZN11pyro_vision7CShader20OnInitShaderInstanceEPP12IMaterialVarP11IShaderInitPKc
__ZN11pyro_visionL10FULLBRIGHTE
__ZN11pyro_visionL10GRAY_POWERE
__ZN11pyro_visionL10TIME_SCALEE
__ZN11pyro_visionL10VERTEX_LITE
__ZN11pyro_visionL11BASETEXTUREE
__ZN11pyro_visionL11NOISE_SCALEE
__ZN11pyro_visionL11WARPTEXTUREE
__ZN11pyro_visionL12BASETEXTURE2E
__ZN11pyro_visionL12CANVAS_SCALEE
__ZN11pyro_visionL12DIFFUSE_BASEE
__ZN11pyro_visionL12NOISETEXTUREE
__ZN11pyro_visionL12STRIPE_COLORE
__ZN11pyro_visionL12STRIPE_SCALEE
__ZN11pyro_visionL13DIFFUSE_WHITEE
__ZN11pyro_visionL13SELFILLUMTINTE
__ZN11pyro_visionL13STRIPETEXTUREE
__ZN11pyro_visionL13VIGNETTE_TILEE
__ZN11pyro_visionL14s_ShaderParamsE
__ZN11pyro_visionL15BASE_STEP_RANGEE
__ZN11pyro_visionL15HEAT_HAZE_SCALEE
__ZN11pyro_visionL15STRIPE_LM_SCALEE
__ZN11pyro_visionL16CANVAS_COLOR_ENDE
__ZN11pyro_visionL16VIGNETTE_TEXTUREE
__ZN11pyro_visionL16s_ShaderInstanceE
__ZN11pyro_visionL17CANVAS_STEP_RANGEE
__ZN11pyro_visionL18ALPHATESTREFERENCEE
__ZN11pyro_visionL18BLENDMASKTRANSFORME
__ZN11pyro_visionL18CANVAS_COLOR_STARTE
__ZN11pyro_visionL18DOF_START_DISTANCEE
__ZN11pyro_visionL18LIGHTMAP_GRADIENTSE
__ZN11pyro_visionL19LIGHTMAP_STEP_RANGEE
__ZN11pyro_visionL19STRIPE_FADE_NORMAL1E
__ZN11pyro_visionL19STRIPE_FADE_NORMAL2E
__ZN11pyro_visionL20BLENDMODULATETEXTUREE
__ZN11pyro_visionL6CANVASE
__ZN11pyro_visionL6EFFECTE
__ZN11pyro_visionL7DOF_MAXE
__ZN11pyro_visionL8COLORBARE
__ZN11pyro_visionL9DOF_POWERE
__ZN11pyro_visionL9GRAY_STEPE
__ZN12CEmptyConVar8SetValueEPKc
__ZN12CEmptyConVar8SetValueEf
__ZN12CEmptyConVar8SetValueEi
__ZN12CEmptyConVarD0Ev
__ZN12CEmptyConVarD1Ev
__ZN12EyeGlint_dx97CShader14OnDrawElementsEPP12IMaterialVarP13IShaderShadowP17IShaderDynamicAPI23VertexCompressionType_tPP27CBasePerMaterialContextData
__ZN12EyeGlint_dx97CShader20OnInitShaderInstanceEPP12IMaterialVarP11IShaderInitPKc
__ZN12EyeGlint_dx9L14s_ShaderParamsE
__ZN12EyeGlint_dx9L16s_ShaderInstanceE
__ZN12FilmDust_dx912CShaderParamC1EPKc17ShaderParamType_tS2_S2_i
__ZN12FilmDust_dx97CShader14OnDrawElementsEPP12IMaterialVarP13IShaderShadowP17IShaderDynamicAPI23VertexCompressionType_tPP27CBasePerMaterialContextData
__ZN12FilmDust_dx97CShader18OnInitShaderParamsEPP12IMaterialVarPKc
__ZN12FilmDust_dx97CShader20OnInitShaderInstanceEPP12IMaterialVarP11IShaderInitPKc
__ZN12FilmDust_dx9L12DUST_TEXTUREE
__ZN12FilmDust_dx9L14CHANNEL_SELECTE
__ZN12FilmDust_dx9L14s_ShaderParamsE
__ZN12FilmDust_dx9L16s_ShaderInstanceE
__ZN12InterfaceReg16s_pInterfaceRegsE
__ZN12InterfaceRegC1EPFPvvEPKc
__ZN12Modulate_DX912CShaderParamC1EPKc17ShaderParamType_tS2_S2_i
__ZN12Modulate_DX97CShader14OnDrawElementsEPP12IMaterialVarP13IShaderShadowP17IShaderDynamicAPI23VertexCompressionType_tPP27CBasePerMaterialContextData
__ZN12Modulate_DX97CShader18OnInitShaderParamsEPP12IMaterialVarPKc
__ZN12Modulate_DX97CShader20OnInitShaderInstanceEPP12IMaterialVarP11IShaderInitPKc
__ZN12Modulate_DX9L11CLOAKFACTORE
__ZN12Modulate_DX9L13REFRACTAMOUNTE
__ZN12Modulate_DX9L14CLOAKCOLORTINTE
__ZN12Modulate_DX9L14s_ShaderParamsE
__ZN12Modulate_DX9L16CLOAKPASSENABLEDE
__ZN12Modulate_DX9L16s_ShaderInstanceE
__ZN12Modulate_DX9L5MOD2XE
__ZN12Modulate_DX9L6WRITEZE
__ZN12Refract_DX9012CShaderParamC1EPKc17ShaderParamType_tS2_S2_i
__ZN12Refract_DX907CShader14OnDrawElementsEPP12IMaterialVarP13IShaderShadowP17IShaderDynamicAPI23VertexCompressionType_tPP27CBasePerMaterialContextData
__ZN12Refract_DX907CShader18OnInitShaderParamsEPP12IMaterialVarPKc
__ZN12Refract_DX907CShader20OnInitShaderInstanceEPP12IMaterialVarP11IShaderInitPKc
__ZN12Refract_DX90L10BLURAMOUNTE
__ZN12Refract_DX90L10BUMPFRAME2E
__ZN12Refract_DX90L10ENVMAPTINTE
__ZN12Refract_DX90L10NORMALMAP2E
__ZN12Refract_DX90L11ENVMAPFRAMEE
__ZN12Refract_DX90L11REFRACTTINTE
__ZN12Refract_DX90L13BUMPTRANSFORME
__ZN12Refract_DX90L13REFRACTAMOUNTE
__ZN12Refract_DX90L14BUMPTRANSFORM2E
__ZN12Refract_DX90L14ENVMAPCONTRASTE
__ZN12Refract_DX90L14s_ShaderParamsE
__ZN12Refract_DX90L15FORCEALPHAWRITEE
__ZN12Refract_DX90L16ENVMAPSATURATIONE
__ZN12Refract_DX90L16s_ShaderInstanceE
__ZN12Refract_DX90L17FRESNELREFLECTIONE
__ZN12Refract_DX90L18REFRACTTINTTEXTUREE
__ZN12Refract_DX90L19FADEOUTONSILHOUETTEE
__ZN12Refract_DX90L19VERTEXCOLORMODULATEE
__ZN12Refract_DX90L23REFRACTTINTTEXTUREFRAMEE
__ZN12Refract_DX90L23s_pShaderParamOverridesE
__ZN12Refract_DX90L4TIMEE
__ZN12Refract_DX90L5ALPHAE
__ZN12Refract_DX90L5COLORE
__ZN12Refract_DX90L6ENVMAPE
__ZN12Refract_DX90L6MASKEDE
__ZN12Refract_DX90L8NOWRITEZE
__ZN12Refract_DX90L9BUMPFRAMEE
__ZN12Refract_DX90L9NORMALMAPE
__ZN12UnlitGeneric12CShaderParamC1EPKc17ShaderParamType_tS2_S2_i
__ZN12UnlitGeneric7CShader14OnDrawElementsEPP12IMaterialVarP13IShaderShadowP17IShaderDynamicAPI23VertexCompressionType_tPP27CBasePerMaterialContextData
__ZN12UnlitGeneric7CShader18OnInitShaderParamsEPP12IMaterialVarPKc
__ZN12UnlitGeneric7CShader20OnInitShaderInstanceEPP12IMaterialVarP11IShaderInitPKc
__ZN12UnlitGeneric7CShader9SetupVarsER27VertexLitGeneric_DX9_Vars_t
__ZN12UnlitGenericL10DEPTHBLENDE
__ZN12UnlitGenericL10ENVMAPMASKE
__ZN12UnlitGenericL10ENVMAPTINTE
__ZN12UnlitGenericL10PHONGBOOSTE
__ZN12UnlitGenericL11DETAILFRAMEE
__ZN12UnlitGenericL11DETAILSCALEE
__ZN12UnlitGenericL11ENVMAPFRAMEE
__ZN12UnlitGenericL11LINEARWRITEE
__ZN12UnlitGenericL11OUTLINEEND0E
__ZN12UnlitGenericL11OUTLINEEND1E
__ZN12UnlitGenericL12OUTLINEALPHAE
__ZN12UnlitGenericL12OUTLINECOLORE
__ZN12UnlitGenericL13DISTANCEALPHAE
__ZN12UnlitGenericL13HDRCOLORSCALEE
__ZN12UnlitGenericL13OUTLINESTART0E
__ZN12UnlitGenericL13OUTLINESTART1E
__ZN12UnlitGenericL13PHONGEXPONENTE
__ZN12UnlitGenericL13SELFILLUMMASKE
__ZN12UnlitGenericL14ENVMAPCONTRASTE
__ZN12UnlitGenericL14GAMMACOLORREADE
__ZN12UnlitGenericL14s_ShaderParamsE
__ZN12UnlitGenericL15DEPTHBLENDSCALEE
__ZN12UnlitGenericL15DETAILBLENDMODEE
__ZN12UnlitGenericL15EDGESOFTNESSENDE
__ZN12UnlitGenericL15ENVMAPMASKFRAMEE
__ZN12UnlitGenericL15PHONGALBEDOTINTE
__ZN12UnlitGenericL15VERTEXALPHATESTE
__ZN12UnlitGenericL16ENVMAPSATURATIONE
__ZN12UnlitGenericL16LIGHTWARPTEXTUREE
__ZN12UnlitGenericL16PHONGWARPTEXTUREE
__ZN12UnlitGenericL16s_ShaderInstanceE
__ZN12UnlitGenericL17DETAILBLENDFACTORE
__ZN12UnlitGenericL17EDGESOFTNESSSTARTE
__ZN12UnlitGenericL17RECEIVEFLASHLIGHTE
__ZN12UnlitGenericL17SEPARATEDETAILUVSE
__ZN12UnlitGenericL18ALPHATESTREFERENCEE
__ZN12UnlitGenericL18PHONGFRESNELRANGESE
__ZN12UnlitGenericL19ENVMAPMASKTRANSFORME
__ZN12UnlitGenericL20PHONGEXPONENTTEXTUREE
__ZN12UnlitGenericL22DETAILTEXTURETRANSFORME
__ZN12UnlitGenericL23DISTANCEALPHAFROMDETAILE
__ZN12UnlitGenericL33SCALEEDGESOFTNESSBASEDONSCREENRESE
__ZN12UnlitGenericL36SCALEOUTLINESOFTNESSBASEDONSCREENRESE
__ZN12UnlitGenericL4GLOWE
__ZN12UnlitGenericL5GLOWXE
__ZN12UnlitGenericL5GLOWYE
__ZN12UnlitGenericL5PHONGE
__ZN12UnlitGenericL6ALBEDOE
__ZN12UnlitGenericL6DETAILE
__ZN12UnlitGenericL6ENVMAPE
__ZN12UnlitGenericL7GLOWENDE
__ZN12UnlitGenericL7OUTLINEE
__ZN12UnlitGenericL9GLOWALPHAE
__ZN12UnlitGenericL9GLOWCOLORE
__ZN12UnlitGenericL9GLOWSTARTE
__ZN12UnlitGenericL9PHONGTINTE
__ZN12UnlitGenericL9SOFTEDGESE
__ZN12VolumeClouds7CShader14OnDrawElementsEPP12IMaterialVarP13IShaderShadowP17IShaderDynamicAPI23VertexCompressionType_tPP27CBasePerMaterialContextData
__ZN12VolumeClouds7CShader20OnInitShaderInstanceEPP12IMaterialVarP11IShaderInitPKc
__ZN12VolumeCloudsL14s_ShaderParamsE
__ZN12VolumeCloudsL16s_ShaderInstanceE
__ZN12VortWarp_DX912CShaderParamC1EPKc17ShaderParamType_tS2_S2_i
__ZN12VortWarp_DX97CShader14OnDrawElementsEPP12IMaterialVarP13IShaderShadowP17IShaderDynamicAPI23VertexCompressionType_tPP27CBasePerMaterialContextData
__ZN12VortWarp_DX97CShader18OnInitShaderParamsEPP12IMaterialVarPKc
__ZN12VortWarp_DX97CShader20OnInitShaderInstanceEPP12IMaterialVarP11IShaderInitPKc
__ZN12VortWarp_DX9L10ENVMAPMASKE
__ZN12VortWarp_DX9L10ENVMAPTINTE
__ZN12VortWarp_DX9L10PHONGBOOSTE
__ZN12VortWarp_DX9L11AMBIENTONLYE
__ZN12VortWarp_DX9L11DETAILFRAMEE
__ZN12VortWarp_DX9L11DETAILSCALEE
__ZN12VortWarp_DX9L11ENVMAPFRAMEE
__ZN12VortWarp_DX9L12ENTITYORIGINE
__ZN12VortWarp_DX9L12SELFILLUMMAPE
__ZN12VortWarp_DX9L13BUMPTRANSFORME
__ZN12VortWarp_DX9L13PHONGEXPONENTE
__ZN12VortWarp_DX9L13SELFILLUMTINTE
__ZN12VortWarp_DX9L14ENVMAPCONTRASTE
__ZN12VortWarp_DX9L14s_ShaderParamsE
__ZN12VortWarp_DX9L15ENVMAPMASKFRAMEE
__ZN12VortWarp_DX9L15PHONGALBEDOTINTE
__ZN12VortWarp_DX9L16ENVMAPSATURATIONE
__ZN12VortWarp_DX9L16LIGHTWARPTEXTUREE
__ZN12VortWarp_DX9L16PHONGWARPTEXTUREE
__ZN12VortWarp_DX9L16s_ShaderInstanceE
__ZN12VortWarp_DX9L18PHONGFRESNELRANGESE
__ZN12VortWarp_DX9L19ENVMAPMASKTRANSFORME
__ZN12VortWarp_DX9L20PHONGEXPONENTTEXTUREE
__ZN12VortWarp_DX9L26SELFILLUM_ENVMAPMASK_ALPHAE
__ZN12VortWarp_DX9L5PHONGE
__ZN12VortWarp_DX9L5UNLITE
__ZN12VortWarp_DX9L6ALBEDOE
__ZN12VortWarp_DX9L6DETAILE
__ZN12VortWarp_DX9L6ENVMAPE
__ZN12VortWarp_DX9L7BUMPMAPE
__ZN12VortWarp_DX9L7FLOWMAPE
__ZN12VortWarp_DX9L9BUMPFRAMEE
__ZN12VortWarp_DX9L9PHONGTINTE
__ZN12VortWarp_DX9L9WARPPARAME
__ZN12WriteStencil7CShader14OnDrawElementsEPP12IMaterialVarP13IShaderShadowP17IShaderDynamicAPI23VertexCompressionType_tPP27CBasePerMaterialContextData
__ZN12WriteStencil7CShader20OnInitShaderInstanceEPP12IMaterialVarP11IShaderInitPKc
__ZN12WriteStencilL14s_ShaderParamsE
__ZN12WriteStencilL16s_ShaderInstanceE
__ZN12floatcombine12CShaderParamC1EPKc17ShaderParamType_tS2_S2_i
__ZN12floatcombine7CShader14OnDrawElementsEPP12IMaterialVarP13IShaderShadowP17IShaderDynamicAPI23VertexCompressionType_tPP27CBasePerMaterialContextData
__ZN12floatcombine7CShader20OnInitShaderInstanceEPP12IMaterialVarP11IShaderInitPKc
__ZN12floatcombineL11BLOOMAMOUNTE
__ZN12floatcombineL12BLOOMTEXTUREE
__ZN12floatcombineL13BLOOMEXPONENTE
__ZN12floatcombineL13EDGE_SOFTNESSE
__ZN12floatcombineL14VIGNETTE_POWERE
__ZN12floatcombineL14s_ShaderParamsE
__ZN12floatcombineL16s_ShaderInstanceE
__ZN12floatcombineL18ALPHASHARPENFACTORE
__ZN12floatcombineL19VIGNETTE_MIN_BRIGHTE
__ZN12floatcombineL7WOODCUTE
__ZN12floatcombineL9SHARPNESSE
__ZN13CBaseVSShader18HashShadow2DJitterEfPfS0_
__ZN13CBaseVSShader19DrawFlashlight_dx90EPP12IMaterialVarP17IShaderDynamicAPIP13IShaderShadowRNS_26DrawFlashlight_dx90_Vars_tE
__ZN13CBaseVSShader22SetPixelShaderConstantEii
__ZN13CBaseVSShader22SetPixelShaderConstantEiii
__ZN13CBaseVSShader23SetVertexShaderConstantEii
__ZN13CBaseVSShader24SetPixelShaderConstant_WEiif
__ZN13CBaseVSShader24SetVertexShaderMatrix2x4Eii
__ZN13CBaseVSShader24SetVertexShaderMatrix3x4Eii
__ZN13CBaseVSShader25DrawEqualDepthToDestAlphaEv
__ZN13CBaseVSShader25EvaluateBlendRequirementsEibi
__ZN13CBaseVSShader27EnablePixelShaderOverbrightEibb
__ZN13CBaseVSShader27SetHWMorphVertexShaderStateEii22VertexTextureSampler_t
__ZN13CBaseVSShader27SetVertexShaderTextureScaleEii
__ZN13CBaseVSShader31SetVertexShaderTextureTransformEii
__ZN13CBaseVSShader34SetFlashlightVertexShaderConstantsEbibib
__ZN13CBaseVSShader35SetPixelShaderConstantGammaToLinearEii
__ZN13CBaseVSShader35SetPixelShaderConstantGammaToLinearEiii
__ZN13CBaseVSShader36SetEnvMapTintPixelShaderDynamicStateEiiib
__ZN13CBaseVSShader36SetModulationPixelShaderDynamicStateEi
__ZN13CBaseVSShader37SetModulationVertexShaderDynamicStateEv
__ZN13CBaseVSShader37SetVertexShaderTextureScaledTransformEiii
__ZN13CBaseVSShader38LoadViewMatrixIntoVertexShaderConstantEi
__ZN13CBaseVSShader38SetAmbientCubeDynamicStateVertexShaderEv
__ZN13CBaseVSShader43LoadModelViewMatrixIntoVertexShaderConstantEi
__ZN13CBaseVSShader44LoadProjectionMatrixIntoVertexShaderConstantEi
__ZN13CBaseVSShader51LoadViewportTransformScaledIntoVertexShaderConstantEi
__ZN13CBaseVSShader53SetModulationPixelShaderDynamicState_LinearColorSpaceEi
__ZN13CBaseVSShader65SetModulationPixelShaderDynamicState_LinearColorSpace_LinearScaleEif
__ZN13DecalModulate7CShader14OnDrawElementsEPP12IMaterialVarP13IShaderShadowP17IShaderDynamicAPI23VertexCompressionType_tPP27CBasePerMaterialContextData
__ZN13DecalModulate7CShader20OnInitShaderInstanceEPP12IMaterialVarP11IShaderInitPKc
__ZN13DecalModulateL14s_ShaderParamsE
__ZN13DecalModulateL16s_ShaderInstanceE
__ZN13FilmGrain_dx912CShaderParamC1EPKc17ShaderParamType_tS2_S2_i
__ZN13FilmGrain_dx97CShader14OnDrawElementsEPP12IMaterialVarP13IShaderShadowP17IShaderDynamicAPI23VertexCompressionType_tPP27CBasePerMaterialContextData
__ZN13FilmGrain_dx97CShader18OnInitShaderParamsEPP12IMaterialVarPKc
__ZN13FilmGrain_dx97CShader20OnInitShaderInstanceEPP12IMaterialVarP11IShaderInitPKc
__ZN13FilmGrain_dx9L10NOISESCALEE
__ZN13FilmGrain_dx9L13GRAIN_TEXTUREE
__ZN13FilmGrain_dx9L14s_ShaderParamsE
__ZN13FilmGrain_dx9L16s_ShaderInstanceE
__ZN13MonitorScreen7CShader14OnDrawElementsEPP12IMaterialVarP13IShaderShadowP17IShaderDynamicAPI23VertexCompressionType_tPP27CBasePerMaterialContextData
__ZN13MonitorScreen7CShader20OnInitShaderInstanceEPP12IMaterialVarP11IShaderInitPKc
__ZN13MonitorScreenL14s_ShaderParamsE
__ZN13MonitorScreenL16s_ShaderInstanceE
__ZN13Occlusion_DX97CShader14OnDrawElementsEPP12IMaterialVarP13IShaderShadowP17IShaderDynamicAPI23VertexCompressionType_tPP27CBasePerMaterialContextData
__ZN13Occlusion_DX97CShader18OnInitShaderParamsEPP12IMaterialVarPKc
__ZN13Occlusion_DX97CShader20OnInitShaderInstanceEPP12IMaterialVarP11IShaderInitPKc
__ZN13Occlusion_DX9L14s_ShaderParamsE
__ZN13Occlusion_DX9L16s_ShaderInstanceE
__ZN13PortalRefract7CShader14OnDrawElementsEPP12IMaterialVarP13IShaderShadowP17IShaderDynamicAPI23VertexCompressionType_tPP27CBasePerMaterialContextData
__ZN13PortalRefract7CShader20OnInitShaderInstanceEPP12IMaterialVarP11IShaderInitPKc
__ZN13PortalRefractL14s_ShaderParamsE
__ZN13PortalRefractL16s_ShaderInstanceE
__ZN13Wireframe_DX97CShader14OnDrawElementsEPP12IMaterialVarP13IShaderShadowP17IShaderDynamicAPI23VertexCompressionType_tPP27CBasePerMaterialContextData
__ZN13Wireframe_DX97CShader18OnInitShaderParamsEPP12IMaterialVarPKc
__ZN13Wireframe_DX97CShader20OnInitShaderInstanceEPP12IMaterialVarP11IShaderInitPKc
__ZN13Wireframe_DX9L14s_ShaderParamsE
__ZN13Wireframe_DX9L16s_ShaderInstanceE
__ZN13floattoscreen12CShaderParamC1EPKc17ShaderParamType_tS2_S2_i
__ZN13floattoscreen7CShader14OnDrawElementsEPP12IMaterialVarP13IShaderShadowP17IShaderDynamicAPI23VertexCompressionType_tPP27CBasePerMaterialContextData
__ZN13floattoscreen7CShader20OnInitShaderInstanceEPP12IMaterialVarP11IShaderInitPKc
__ZN13floattoscreenL14s_ShaderParamsE
__ZN13floattoscreenL16s_ShaderInstanceE
__ZN13floattoscreenL9FBTEXTUREE
__ZN13floattoscreenL9PIXSHADERE
__ZN14Aftershock_dx912CShaderParamC1EPKc17ShaderParamType_tS2_S2_i
__ZN14Aftershock_dx97CShader14OnDrawElementsEPP12IMaterialVarP13IShaderShadowP17IShaderDynamicAPI23VertexCompressionType_tPP27CBasePerMaterialContextData
__ZN14Aftershock_dx97CShader18OnInitShaderParamsEPP12IMaterialVarPKc
__ZN14Aftershock_dx97CShader20OnInitShaderInstanceEPP12IMaterialVarP11IShaderInitPKc
__ZN14Aftershock_dx9L10BLURAMOUNTE
__ZN14Aftershock_dx9L13BUMPTRANSFORME
__ZN14Aftershock_dx9L13REFRACTAMOUNTE
__ZN14Aftershock_dx9L14s_ShaderParamsE
__ZN14Aftershock_dx9L15SILHOUETTECOLORE
__ZN14Aftershock_dx9L16s_ShaderInstanceE
__ZN14Aftershock_dx9L19SILHOUETTETHICKNESSE
__ZN14Aftershock_dx9L4TIMEE
__ZN14Aftershock_dx9L9BUMPFRAMEE
__ZN14Aftershock_dx9L9COLORTINTE
__ZN14Aftershock_dx9L9GROUNDMAXE
__ZN14Aftershock_dx9L9GROUNDMINE
__ZN14Aftershock_dx9L9NORMALMAPE
__ZN14ConCommandBase10CreateBaseEPKcS1_i
__ZN14ConCommandBase11s_pAccessorE
__ZN14ConCommandBase18s_pConCommandBasesE
__ZN14EyeRefract_dx912CShaderParamC1EPKc17ShaderParamType_tS2_S2_i
__ZN14EyeRefract_dx97CShader14OnDrawElementsEPP12IMaterialVarP13IShaderShadowP17IShaderDynamicAPI23VertexCompressionType_tPP27CBasePerMaterialContextData
__ZN14EyeRefract_dx97CShader18OnInitShaderParamsEPP12IMaterialVarPKc
__ZN14EyeRefract_dx97CShader20OnInitShaderInstanceEPP12IMaterialVarP11IShaderInitPKc
__ZN14EyeRefract_dx9L10GLOSSINESSE
__ZN14EyeRefract_dx9L11CLOAKFACTORE
__ZN14EyeRefract_dx9L12ENTITYORIGINE
__ZN14EyeRefract_dx9L13CORNEATEXTUREE
__ZN14EyeRefract_dx9L13EYEBALLRADIUSE
__ZN14EyeRefract_dx9L13REFRACTAMOUNTE
__ZN14EyeRefract_dx9L14CLOAKCOLORTINTE
__ZN14EyeRefract_dx9L14RAYTRACESPHEREE
__ZN14EyeRefract_dx9L14s_ShaderParamsE
__ZN14EyeRefract_dx9L16AMBIENTOCCLCOLORE
__ZN14EyeRefract_dx9L16CLOAKPASSENABLEDE
__ZN14EyeRefract_dx9L16LIGHTWARPTEXTUREE
__ZN14EyeRefract_dx9L16PARALLAXSTRENGTHE
__ZN14EyeRefract_dx9L16s_ShaderInstanceE
__ZN14EyeRefract_dx9L17EMISSIVEBLENDTINTE
__ZN14EyeRefract_dx9L18AMBIENTOCCLTEXTUREE
__ZN14EyeRefract_dx9L18CORNEABUMPSTRENGTHE
__ZN14EyeRefract_dx9L18SPHERETEXKILLCOMBOE
__ZN14EyeRefract_dx9L20EMISSIVEBLENDENABLEDE
__ZN14EyeRefract_dx9L20EMISSIVEBLENDTEXTUREE
__ZN14EyeRefract_dx9L21EMISSIVEBLENDSTRENGTHE
__ZN14EyeRefract_dx9L24EMISSIVEBLENDFLOWTEXTUREE
__ZN14EyeRefract_dx9L25EMISSIVEBLENDSCROLLVECTORE
__ZN14EyeRefract_dx9L4IRISE
__ZN14EyeRefract_dx9L5INTROE
__ZN14EyeRefract_dx9L5IRISUE
__ZN14EyeRefract_dx9L5IRISVE
__ZN14EyeRefract_dx9L6ENVMAPE
__ZN14EyeRefract_dx9L8DILATIONE
__ZN14EyeRefract_dx9L9EYEORIGINE
__ZN14EyeRefract_dx9L9IRISFRAMEE
__ZN14EyeRefract_dx9L9WARPPARAME
__ZN14HDRSelectRange7CShader14OnDrawElementsEPP12IMaterialVarP13IShaderShadowP17IShaderDynamicAPI23VertexCompressionType_tPP27CBasePerMaterialContextData
__ZN14HDRSelectRange7CShader20OnInitShaderInstanceEPP12IMaterialVarP11IShaderInitPKc
__ZN14HDRSelectRangeL14s_ShaderParamsE
__ZN14HDRSelectRangeL16s_ShaderInstanceE
__ZN14HDRSelectRangeL21SOURCEMRTRENDERTARGETE
__ZN14MotionBlur_dx97CShader14OnDrawElementsEPP12IMaterialVarP13IShaderShadowP17IShaderDynamicAPI23VertexCompressionType_tPP27CBasePerMaterialContextData
__ZN14MotionBlur_dx97CShader18OnInitShaderParamsEPP12IMaterialVarPKc
__ZN14MotionBlur_dx97CShader20OnInitShaderInstanceEPP12IMaterialVarP11IShaderInitPKc
__ZN14MotionBlur_dx9L14s_ShaderParamsE
__ZN14MotionBlur_dx9L16s_ShaderInstanceE
__ZN14MotionBlur_dx9L18MOTIONBLURINTERNALE
__ZN14ParticleSphere7CShader14OnDrawElementsEPP12IMaterialVarP13IShaderShadowP17IShaderDynamicAPI23VertexCompressionType_tPP27CBasePerMaterialContextData
__ZN14ParticleSphere7CShader20OnInitShaderInstanceEPP12IMaterialVarP11IShaderInitPKc
__ZN14ParticleSphereL14s_ShaderParamsE
__ZN14ParticleSphereL16s_ShaderInstanceE
__ZN14ShatteredGlass12CShaderParamC1EPKc17ShaderParamType_tS2_S2_i
__ZN14ShatteredGlass7CShader14OnDrawElementsEPP12IMaterialVarP13IShaderShadowP17IShaderDynamicAPI23VertexCompressionType_tPP27CBasePerMaterialContextData
__ZN14ShatteredGlass7CShader18OnInitShaderParamsEPP12IMaterialVarPKc
__ZN14ShatteredGlass7CShader20OnInitShaderInstanceEPP12IMaterialVarP11IShaderInitPKc
__ZN14ShatteredGlassL10ENVMAPMASKE
__ZN14ShatteredGlassL10ENVMAPTINTE
__ZN14ShatteredGlassL11BASETEXTUREE
__ZN14ShatteredGlassL11DETAILSCALEE
__ZN14ShatteredGlassL11ENVMAPFRAMEE
__ZN14ShatteredGlassL11UNLITFACTORE
__ZN14ShatteredGlassL14ENVMAPCONTRASTE
__ZN14ShatteredGlassL14s_ShaderParamsE
__ZN14ShatteredGlassL15ENVMAPMASKFRAMEE
__ZN14ShatteredGlassL16ENVMAPSATURATIONE
__ZN14ShatteredGlassL16s_ShaderInstanceE
__ZN14ShatteredGlassL17FRESNELREFLECTIONE
__ZN14ShatteredGlassL19ENVMAPMASKTRANSFORME
__ZN14ShatteredGlassL23s_pShaderParamOverridesE
__ZN14ShatteredGlassL6DETAILE
__ZN14ShatteredGlassL6ENVMAPE
__ZN14WindowImposter7CShader14OnDrawElementsEPP12IMaterialVarP13IShaderShadowP17IShaderDynamicAPI23VertexCompressionType_tPP27CBasePerMaterialContextData
__ZN14WindowImposter7CShader20OnInitShaderInstanceEPP12IMaterialVarP11IShaderInitPKc
__ZN14WindowImposterL14s_ShaderParamsE
__ZN14WindowImposterL16s_ShaderInstanceE
__ZN14vr_distort_hud12CShaderParamC1EPKc17ShaderParamType_tS2_S2_i
__ZN14vr_distort_hud7CShader14OnDrawElementsEPP12IMaterialVarP13IShaderShadowP17IShaderDynamicAPI23VertexCompressionType_tPP27CBasePerMaterialContextData
__ZN14vr_distort_hud7CShader18OnInitShaderParamsEPP12IMaterialVarPKc
__ZN14vr_distort_hud7CShader20OnInitShaderInstanceEPP12IMaterialVarP11IShaderInitPKc
__ZN14vr_distort_hudL10DISTORTMAPE
__ZN14vr_distort_hudL11BASETEXTUREE
__ZN14vr_distort_hudL12HUDUNDISTORTE
__ZN14vr_distort_hudL13DISTORTBOUNDSE
__ZN14vr_distort_hudL14HUDTRANSLUCENTE
__ZN14vr_distort_hudL14s_ShaderParamsE
__ZN14vr_distort_hudL16s_ShaderInstanceE
__ZN15ColorCorrection12CShaderParamC1EPKc17ShaderParamType_tS2_S2_i
__ZN15ColorCorrection7CShader14OnDrawElementsEPP12IMaterialVarP13IShaderShadowP17IShaderDynamicAPI23VertexCompressionType_tPP27CBasePerMaterialContextData
__ZN15ColorCorrection7CShader18OnInitShaderParamsEPP12IMaterialVarPKc
__ZN15ColorCorrection7CShader20OnInitShaderInstanceEPP12IMaterialVarP11IShaderInitPKc
__ZN15ColorCorrectionL11NUM_LOOKUPSE
__ZN15ColorCorrectionL13INPUT_TEXTUREE
__ZN15ColorCorrectionL14USE_FB_TEXTUREE
__ZN15ColorCorrectionL14WEIGHT_DEFAULTE
__ZN15ColorCorrectionL14s_ShaderParamsE
__ZN15ColorCorrectionL16s_ShaderInstanceE
__ZN15ColorCorrectionL7WEIGHT0E
__ZN15ColorCorrectionL7WEIGHT1E
__ZN15ColorCorrectionL7WEIGHT2E
__ZN15ColorCorrectionL7WEIGHT3E
__ZN15DebugMRTTexture7CShader14OnDrawElementsEPP12IMaterialVarP13IShaderShadowP17IShaderDynamicAPI23VertexCompressionType_tPP27CBasePerMaterialContextData
__ZN15DebugMRTTexture7CShader18OnInitShaderParamsEPP12IMaterialVarPKc
__ZN15DebugMRTTexture7CShader20OnInitShaderInstanceEPP12IMaterialVarP11IShaderInitPKc
__ZN15DebugMRTTextureL14s_ShaderParamsE
__ZN15DebugMRTTextureL16s_ShaderInstanceE
__ZN15DebugMRTTextureL8MRTINDEXE
__ZN15Engine_Post_dx912CShaderParamC1EPKc17ShaderParamType_tS2_S2_i
__ZN15Engine_Post_dx97CShader14OnDrawElementsEPP12IMaterialVarP13IShaderShadowP17IShaderDynamicAPI23VertexCompressionType_tPP27CBasePerMaterialContextData
__ZN15Engine_Post_dx97CShader18OnInitShaderParamsEPP12IMaterialVarPKc
__ZN15Engine_Post_dx97CShader20OnInitShaderInstanceEPP12IMaterialVarP11IShaderInitPKc
__ZN15Engine_Post_dx9L11AAINTERNAL1E
__ZN15Engine_Post_dx9L11AAINTERNAL2E
__ZN15Engine_Post_dx9L11AAINTERNAL3E
__ZN15Engine_Post_dx9L11BLOOMENABLEE
__ZN15Engine_Post_dx9L14s_ShaderParamsE
__ZN15Engine_Post_dx9L16s_ShaderInstanceE
__ZN15Engine_Post_dx9L8AAENABLEE
__ZN15Engine_Post_dx9L9FBTEXTUREE
__ZN15Sample4x4_Blend12CShaderParamC1EPKc17ShaderParamType_tS2_S2_i
__ZN15Sample4x4_Blend7CShader14OnDrawElementsEPP12IMaterialVarP13IShaderShadowP17IShaderDynamicAPI23VertexCompressionType_tPP27CBasePerMaterialContextData
__ZN15Sample4x4_Blend7CShader20OnInitShaderInstanceEPP12IMaterialVarP11IShaderInitPKc
__ZN15Sample4x4_BlendL11BASETEXTUREE
__ZN15Sample4x4_BlendL14s_ShaderParamsE
__ZN15Sample4x4_BlendL16s_ShaderInstanceE
__ZN15Sample4x4_BlendL9PIXSHADERE
__ZN15ShadowBuild_DX97CShader14OnDrawElementsEPP12IMaterialVarP13IShaderShadowP17IShaderDynamicAPI23VertexCompressionType_tPP27CBasePerMaterialContextData
__ZN15ShadowBuild_DX97CShader18OnInitShaderParamsEPP12IMaterialVarPKc
__ZN15ShadowBuild_DX97CShader20OnInitShaderInstanceEPP12IMaterialVarP11IShaderInitPKc
__ZN15ShadowBuild_DX9L14s_ShaderParamsE
__ZN15ShadowBuild_DX9L16s_ShaderInstanceE
__ZN15ShadowBuild_DX9L20TRANSLUCENT_MATERIALE
__ZN15ShadowModel_DX912CShaderParamC1EPKc17ShaderParamType_tS2_S2_i
__ZN15ShadowModel_DX97CShader14OnDrawElementsEPP12IMaterialVarP13IShaderShadowP17IShaderDynamicAPI23VertexCompressionType_tPP27CBasePerMaterialContextData
__ZN15ShadowModel_DX97CShader18OnInitShaderParamsEPP12IMaterialVarPKc
__ZN15ShadowModel_DX97CShader20OnInitShaderInstanceEPP12IMaterialVarP11IShaderInitPKc
__ZN15ShadowModel_DX9L13FALLOFFAMOUNTE
__ZN15ShadowModel_DX9L13FALLOFFOFFSETE
__ZN15ShadowModel_DX9L14s_ShaderParamsE
__ZN15ShadowModel_DX9L15FALLOFFDISTANCEE
__ZN15ShadowModel_DX9L16BASETEXTURESCALEE
__ZN15ShadowModel_DX9L16s_ShaderInstanceE
__ZN15ShadowModel_DX9L17BASETEXTUREOFFSETE
__ZN15UnlitTwoTexture7CShader14OnDrawElementsEPP12IMaterialVarP13IShaderShadowP17IShaderDynamicAPI23VertexCompressionType_tPP27CBasePerMaterialContextData
__ZN15UnlitTwoTexture7CShader20OnInitShaderInstanceEPP12IMaterialVarP11IShaderInitPKc
__ZN15UnlitTwoTextureL14s_ShaderParamsE
__ZN15UnlitTwoTextureL16s_ShaderInstanceE
__ZN16CDefaultAccessor22RegisterConCommandBaseEP14ConCommandBase
__ZN16DebugTextureView7CShader14OnDrawElementsEPP12IMaterialVarP13IShaderShadowP17IShaderDynamicAPI23VertexCompressionType_tPP27CBasePerMaterialContextData
__ZN16DebugTextureView7CShader20OnInitShaderInstanceEPP12IMaterialVarP11IShaderInitPKc
__ZN16DebugTextureViewL14s_ShaderParamsE
__ZN16DebugTextureViewL16s_ShaderInstanceE
__ZN16Downsample_nohdr12CShaderParamC1EPKc17ShaderParamType_tS2_S2_i
__ZN16Downsample_nohdr7CShader14OnDrawElementsEPP12IMaterialVarP13IShaderShadowP17IShaderDynamicAPI23VertexCompressionType_tPP27CBasePerMaterialContextData
__ZN16Downsample_nohdr7CShader18OnInitShaderParamsEPP12IMaterialVarPKc
__ZN16Downsample_nohdr7CShader20OnInitShaderInstanceEPP12IMaterialVarP11IShaderInitPKc
__ZN16Downsample_nohdrL14s_ShaderParamsE
__ZN16Downsample_nohdrL15BLOOMTINTENABLEE
__ZN16Downsample_nohdrL16s_ShaderInstanceE
__ZN16Downsample_nohdrL7CSTRIKEE
__ZN16VertexLitGeneric12CShaderParamC1EPKc17ShaderParamType_tS2_S2_i
__ZN16VertexLitGeneric7CShader14OnDrawElementsEPP12IMaterialVarP13IShaderShadowP17IShaderDynamicAPI23VertexCompressionType_tPP27CBasePerMaterialContextData
__ZN16VertexLitGeneric7CShader18OnInitShaderParamsEPP12IMaterialVarPKc
__ZN16VertexLitGeneric7CShader20OnInitShaderInstanceEPP12IMaterialVarP11IShaderInitPKc
__ZN16VertexLitGeneric7CShader9SetupVarsER27VertexLitGeneric_DX9_Vars_t
__ZN16VertexLitGenericL10DEPTHBLENDE
__ZN16VertexLitGenericL10DETAILTINTE
__ZN16VertexLitGenericL10ENVMAPMASKE
__ZN16VertexLitGenericL10ENVMAPTINTE
__ZN16VertexLitGenericL10PHONGBOOSTE
__ZN16VertexLitGenericL10SHEENINDEXE
__ZN16VertexLitGenericL11AMBIENTONLYE
__ZN16VertexLitGenericL11BUMPSTRETCHE
__ZN16VertexLitGenericL11CLOAKFACTORE
__ZN16VertexLitGenericL11DETAILFRAMEE
__ZN16VertexLitGenericL11DETAILSCALEE
__ZN16VertexLitGenericL11ENVMAPFRAMEE
__ZN16VertexLitGenericL11LINEARWRITEE
__ZN16VertexLitGenericL12BUMPCOMPRESSE
__ZN16VertexLitGenericL12SHEENMAPMASKE
__ZN16VertexLitGenericL12SHEENMAPTINTE
__ZN16VertexLitGenericL13BUMPTRANSFORME
__ZN16VertexLitGenericL13ENVMAPFRESNELE
__ZN16VertexLitGenericL13PHONGEXPONENTE
__ZN16VertexLitGenericL13REFRACTAMOUNTE
__ZN16VertexLitGenericL13RIMLIGHTBOOSTE
__ZN16VertexLitGenericL13SEAMLESS_BASEE
__ZN16VertexLitGenericL13SELFILLUMMASKE
__ZN16VertexLitGenericL13SELFILLUMTINTE
__ZN16VertexLitGenericL13TREESWAYSPEEDE
__ZN16VertexLitGenericL14CLOAKCOLORTINTE
__ZN16VertexLitGenericL14ENVMAPCONTRASTE
__ZN16VertexLitGenericL14SEAMLESS_SCALEE
__ZN16VertexLitGenericL14TREESWAYHEIGHTE
__ZN16VertexLitGenericL14TREESWAYRADIUSE
__ZN16VertexLitGenericL14TREESWAYSTATICE
__ZN16VertexLitGenericL14s_ShaderParamsE
__ZN16VertexLitGenericL15DEPTHBLENDSCALEE
__ZN16VertexLitGenericL15DETAILBLENDMODEE
__ZN16VertexLitGenericL15ENVMAPMASKFRAMEE
__ZN16VertexLitGenericL15FLESHBORDERTINTE
__ZN16VertexLitGenericL15INVERTPHONGMASKE
__ZN16VertexLitGenericL15PHONGALBEDOTINTE
__ZN16VertexLitGenericL15SEAMLESS_DETAILE
__ZN16VertexLitGenericL16CLOAKPASSENABLEDE
__ZN16VertexLitGenericL16ENVMAPSATURATIONE
__ZN16VertexLitGenericL16FLESHBORDERWIDTHE
__ZN16VertexLitGenericL16FLESHCUBETEXTUREE
__ZN16VertexLitGenericL16FLESHSCROLLSPEEDE
__ZN16VertexLitGenericL16LIGHTWARPTEXTUREE
__ZN16VertexLitGenericL16PHONGWARPTEXTUREE
__ZN16VertexLitGenericL16RIMLIGHTEXPONENTE
__ZN16VertexLitGenericL16SELFILLUMFRESNELE
__ZN16VertexLitGenericL16SHEENPASSENABLEDE
__ZN16VertexLitGenericL16TREESWAYSTRENGTHE
__ZN16VertexLitGenericL16s_ShaderInstanceE
__ZN16VertexLitGenericL17DETAILBLENDFACTORE
__ZN16VertexLitGenericL17EMISSIVEBLENDTINTE
__ZN16VertexLitGenericL17SEPARATEDETAILUVSE
__ZN16VertexLitGenericL17SHEENMAPMASKFRAMEE
__ZN16VertexLitGenericL18ALPHATESTREFERENCEE
__ZN16VertexLitGenericL18FLESHGLOBALOPACITYE
__ZN16VertexLitGenericL18FLESHNORMALTEXTUREE
__ZN16VertexLitGenericL18PHONGFRESNELRANGESE
__ZN16VertexLitGenericL18SHEENMAPMASKSCALEXE
__ZN16VertexLitGenericL18SHEENMAPMASKSCALEYE
__ZN16VertexLitGenericL18TREESWAYFALLOFFEXPE
__ZN16VertexLitGenericL19ENVMAPMASKTRANSFORME
__ZN16VertexLitGenericL19FLASHLIGHTNOLAMBERTE
__ZN16VertexLitGenericL19FLESHBORDERSOFTNESSE
__ZN16VertexLitGenericL19FLESHSUBSURFACETINTE
__ZN16VertexLitGenericL19PHONGEXPONENTFACTORE
__ZN16VertexLitGenericL19SHEENMAPMASKOFFSETXE
__ZN16VertexLitGenericL19SHEENMAPMASKOFFSETYE
__ZN16VertexLitGenericL19TREESWAYSTARTHEIGHTE
__ZN16VertexLitGenericL19TREESWAYSTARTRADIUSE
__ZN16VertexLitGenericL20BLENDTINTBYBASEALPHAE
__ZN16VertexLitGenericL20EMISSIVEBLENDENABLEDE
__ZN16VertexLitGenericL20EMISSIVEBLENDTEXTUREE
__ZN16VertexLitGenericL20FLESHBORDERTEXTURE1DE
__ZN16VertexLitGenericL20FLESHGLOSSBRIGHTNESSE
__ZN16VertexLitGenericL20FLESHINTERIORENABLEDE
__ZN16VertexLitGenericL20FLESHINTERIORTEXTUREE
__ZN16VertexLitGenericL20PHONGEXPONENTTEXTUREE
__ZN16VertexLitGenericL20TREESWAYSPEEDLERPENDE
__ZN16VertexLitGenericL21BASEMAPALPHAPHONGMASKE
__ZN16VertexLitGenericL21EMISSIVEBLENDSTRENGTHE
__ZN16VertexLitGenericL21FLESHBORDERNOISESCALEE
__ZN16VertexLitGenericL21SHEENMAPMASKDIRECTIONE
__ZN16VertexLitGenericL21TREESWAYSCRUMBLESPEEDE
__ZN16VertexLitGenericL22BLENDTINTCOLOROVERBASEE
__ZN16VertexLitGenericL22DETAILTEXTURETRANSFORME
__ZN16VertexLitGenericL22FLESHDEBUGFORCEFLESHONE
__ZN16VertexLitGenericL22FLESHSUBSURFACETEXTUREE
__ZN16VertexLitGenericL22TREESWAYSPEEDLERPSTARTE
__ZN16VertexLitGenericL24EMISSIVEBLENDBASETEXTUREE
__ZN16VertexLitGenericL24EMISSIVEBLENDFLOWTEXTUREE
__ZN16VertexLitGenericL24FLESHEFFECTCENTERRADIUS1E
__ZN16VertexLitGenericL24FLESHEFFECTCENTERRADIUS2E
__ZN16VertexLitGenericL24FLESHEFFECTCENTERRADIUS3E
__ZN16VertexLitGenericL24FLESHEFFECTCENTERRADIUS4E
__ZN16VertexLitGenericL24TREESWAYSCRUMBLESTRENGTHE
__ZN16VertexLitGenericL25EMISSIVEBLENDSCROLLVECTORE
__ZN16VertexLitGenericL25FLESHINTERIORNOISETEXTUREE
__ZN16VertexLitGenericL25SELFILLUMFRESNELMINMAXEXPE
__ZN16VertexLitGenericL25TREESWAYSCRUMBLEFREQUENCYE
__ZN16VertexLitGenericL26SELFILLUM_ENVMAPMASK_ALPHAE
__ZN16VertexLitGenericL26TREESWAYSCRUMBLEFALLOFFEXPE
__ZN16VertexLitGenericL31TREESWAYSPEEDHIGHWINDMULTIPLIERE
__ZN16VertexLitGenericL4TIMEE
__ZN16VertexLitGenericL5PHONGE
__ZN16VertexLitGenericL6ALBEDOE
__ZN16VertexLitGenericL6DETAILE
__ZN16VertexLitGenericL6ENVMAPE
__ZN16VertexLitGenericL7BUMPMAPE
__ZN16VertexLitGenericL7RIMMASKE
__ZN16VertexLitGenericL7STRETCHE
__ZN16VertexLitGenericL8COMPRESSE
__ZN16VertexLitGenericL8LIGHTMAPE
__ZN16VertexLitGenericL8RIMLIGHTE
__ZN16VertexLitGenericL8SHEENMAPE
__ZN16VertexLitGenericL8TREESWAYE
__ZN16VertexLitGenericL9BUMPFRAMEE
__ZN16VertexLitGenericL9PHONGTINTE
__ZN16VolumeClouds_dx912CShaderParamC1EPKc17ShaderParamType_tS2_S2_i
__ZN16VolumeClouds_dx97CShader14OnDrawElementsEPP12IMaterialVarP13IShaderShadowP17IShaderDynamicAPI23VertexCompressionType_tPP27CBasePerMaterialContextData
__ZN16VolumeClouds_dx97CShader18OnInitShaderParamsEPP12IMaterialVarPKc
__ZN16VolumeClouds_dx97CShader20OnInitShaderInstanceEPP12IMaterialVarP11IShaderInitPKc
__ZN16VolumeClouds_dx9L11BASETEXTUREE
__ZN16VolumeClouds_dx9L12BASETEXTURE2E
__ZN16VolumeClouds_dx9L12BASETEXTURE3E
__ZN16VolumeClouds_dx9L13REFRACTAMOUNTE
__ZN16VolumeClouds_dx9L14s_ShaderParamsE
__ZN16VolumeClouds_dx9L16s_ShaderInstanceE
__ZN16VolumeClouds_dx9L4TIMEE
__ZN16WorldVertexAlpha7CShader14OnDrawElementsEPP12IMaterialVarP13IShaderShadowP17IShaderDynamicAPI23VertexCompressionType_tPP27CBasePerMaterialContextData
__ZN16WorldVertexAlpha7CShader18OnInitShaderParamsEPP12IMaterialVarPKc
__ZN16WorldVertexAlpha7CShader20OnInitShaderInstanceEPP12IMaterialVarP11IShaderInitPKc
__ZN16WorldVertexAlphaL14s_ShaderParamsE
__ZN16WorldVertexAlphaL16s_ShaderInstanceE
__ZN16WriteStencil_DX97CShader14OnDrawElementsEPP12IMaterialVarP13IShaderShadowP17IShaderDynamicAPI23VertexCompressionType_tPP27CBasePerMaterialContextData
__ZN16WriteStencil_DX97CShader18OnInitShaderParamsEPP12IMaterialVarPKc
__ZN16WriteStencil_DX97CShader20OnInitShaderInstanceEPP12IMaterialVarP11IShaderInitPKc
__ZN16WriteStencil_DX9L14s_ShaderParamsE
__ZN16WriteStencil_DX9L16s_ShaderInstanceE
__ZN16accumbuff4sample12CShaderParamC1EPKc17ShaderParamType_tS2_S2_i
__ZN16accumbuff4sample7CShader14OnDrawElementsEPP12IMaterialVarP13IShaderShadowP17IShaderDynamicAPI23VertexCompressionType_tPP27CBasePerMaterialContextData
__ZN16accumbuff4sample7CShader20OnInitShaderInstanceEPP12IMaterialVarP11IShaderInitPKc
__ZN16accumbuff4sampleL14s_ShaderParamsE
__ZN16accumbuff4sampleL16s_ShaderInstanceE
__ZN16accumbuff4sampleL7WEIGHTSE
__ZN16accumbuff4sampleL8TEXTURE0E
__ZN16accumbuff4sampleL8TEXTURE1E
__ZN16accumbuff4sampleL8TEXTURE2E
__ZN16accumbuff4sampleL8TEXTURE3E
__ZN16accumbuff5sample12CShaderParamC1EPKc17ShaderParamType_tS2_S2_i
__ZN16accumbuff5sample7CShader14OnDrawElementsEPP12IMaterialVarP13IShaderShadowP17IShaderDynamicAPI23VertexCompressionType_tPP27CBasePerMaterialContextData
__ZN16accumbuff5sample7CShader20OnInitShaderInstanceEPP12IMaterialVarP11IShaderInitPKc
__ZN16accumbuff5sampleL14s_ShaderParamsE
__ZN16accumbuff5sampleL16s_ShaderInstanceE
__ZN16accumbuff5sampleL7WEIGHTSE
__ZN16accumbuff5sampleL8TEXTURE0E
__ZN16accumbuff5sampleL8TEXTURE1E
__ZN16accumbuff5sampleL8TEXTURE2E
__ZN16accumbuff5sampleL8TEXTURE3E
__ZN16accumbuff5sampleL8TEXTURE4E
__ZN16color_projection12CShaderParamC1EPKc17ShaderParamType_tS2_S2_i
__ZN16color_projection7CShader14OnDrawElementsEPP12IMaterialVarP13IShaderShadowP17IShaderDynamicAPI23VertexCompressionType_tPP27CBasePerMaterialContextData
__ZN16color_projection7CShader18OnInitShaderParamsEPP12IMaterialVarPKc
__ZN16color_projection7CShader20OnInitShaderInstanceEPP12IMaterialVarP11IShaderInitPKc
__ZN16color_projectionL13FRAME_TEXTUREE
__ZN16color_projectionL14HSV_CORRECTIONE
__ZN16color_projectionL14s_ShaderParamsE
__ZN16color_projectionL16s_ShaderInstanceE
__ZN16color_projectionL19CONTRAST_CORRECTIONE
__ZN17CSkin_DX9_ContextD0Ev
__ZN17CSkin_DX9_ContextD1Ev
__ZN17CWarp_DX9_ContextD0Ev
__ZN17CWarp_DX9_ContextD1Ev
__ZN17DecalModulate_dx97CShader14OnDrawElementsEPP12IMaterialVarP13IShaderShadowP17IShaderDynamicAPI23VertexCompressionType_tPP27CBasePerMaterialContextData
__ZN17DecalModulate_dx97CShader18OnInitShaderParamsEPP12IMaterialVarPKc
__ZN17DecalModulate_dx97CShader20OnInitShaderInstanceEPP12IMaterialVarP11IShaderInitPKc
__ZN17DecalModulate_dx9L14s_ShaderParamsE
__ZN17DecalModulate_dx9L16s_ShaderInstanceE
__ZN17HDRCombineTo16Bit7CShader14OnDrawElementsEPP12IMaterialVarP13IShaderShadowP17IShaderDynamicAPI23VertexCompressionType_tPP27CBasePerMaterialContextData
__ZN17HDRCombineTo16Bit7CShader20OnInitShaderInstanceEPP12IMaterialVarP11IShaderInitPKc
__ZN17HDRCombineTo16BitL14s_ShaderParamsE
__ZN17HDRCombineTo16BitL16s_ShaderInstanceE
__ZN17HDRCombineTo16BitL21SOURCEMRTRENDERTARGETE
__ZN17MonitorScreen_DX912CShaderParamC1EPKc17ShaderParamType_tS2_S2_i
__ZN17MonitorScreen_DX97CShader14OnDrawElementsEPP12IMaterialVarP13IShaderShadowP17IShaderDynamicAPI23VertexCompressionType_tPP27CBasePerMaterialContextData
__ZN17MonitorScreen_DX97CShader18OnInitShaderParamsEPP12IMaterialVarPKc
__ZN17MonitorScreen_DX97CShader20OnInitShaderInstanceEPP12IMaterialVarP11IShaderInitPKc
__ZN17MonitorScreen_DX9L10SATURATIONE
__ZN17MonitorScreen_DX9L14s_ShaderParamsE
__ZN17MonitorScreen_DX9L16s_ShaderInstanceE
__ZN17MonitorScreen_DX9L17TEXTURE2TRANSFORME
__ZN17MonitorScreen_DX9L4TINTE
__ZN17MonitorScreen_DX9L6FRAME2E
__ZN17MonitorScreen_DX9L8CONTRASTE
__ZN17MonitorScreen_DX9L8TEXTURE2E
__ZN17PortalRefract_dx912CShaderParamC1EPKc17ShaderParamType_tS2_S2_i
__ZN17PortalRefract_dx97CShader14OnDrawElementsEPP12IMaterialVarP13IShaderShadowP17IShaderDynamicAPI23VertexCompressionType_tPP27CBasePerMaterialContextData
__ZN17PortalRefract_dx97CShader18OnInitShaderParamsEPP12IMaterialVarPKc
__ZN17PortalRefract_dx97CShader20OnInitShaderInstanceEPP12IMaterialVarP11IShaderInitPKc
__ZN17PortalRefract_dx9L12PORTALSTATICE
__ZN17PortalRefract_dx9L14s_ShaderParamsE
__ZN17PortalRefract_dx9L16PORTALCOLORSCALEE
__ZN17PortalRefract_dx9L16PORTALOPENAMOUNTE
__ZN17PortalRefract_dx9L16TEXTURETRANSFORME
__ZN17PortalRefract_dx9L16s_ShaderInstanceE
__ZN17PortalRefract_dx9L17PORTALMASKTEXTUREE
__ZN17PortalRefract_dx9L18PORTALCOLORTEXTUREE
__ZN17PortalRefract_dx9L4TIMEE
__ZN17PortalRefract_dx9L5STAGEE
__ZN18CUtlCharConversion14FindConversionEPKcPi
__ZN18LightmappedGeneric12CShaderParamC1EPKc17ShaderParamType_tS2_S2_i
__ZN18LightmappedGeneric7CShader14OnDrawElementsEPP12IMaterialVarP13IShaderShadowP17IShaderDynamicAPI23VertexCompressionType_tPP27CBasePerMaterialContextData
__ZN18LightmappedGeneric7CShader18OnInitShaderParamsEPP12IMaterialVarPKc
__ZN18LightmappedGeneric7CShader20OnInitShaderInstanceEPP12IMaterialVarP11IShaderInitPKc
__ZN18LightmappedGeneric7CShader9SetupVarsER29LightmappedGeneric_DX9_Vars_t
__ZN18LightmappedGenericL10BUMPFRAME2E
__ZN18LightmappedGenericL10DETAILTINTE
__ZN18LightmappedGenericL10ENVMAPMASKE
__ZN18LightmappedGenericL10ENVMAPTINTE
__ZN18LightmappedGenericL11DETAILFRAMEE
__ZN18LightmappedGenericL11DETAILSCALEE
__ZN18LightmappedGenericL11ENVMAPFRAMEE
__ZN18LightmappedGenericL11OUTLINEEND0E
__ZN18LightmappedGenericL11OUTLINEEND1E
__ZN18LightmappedGenericL12BASETEXTURE2E
__ZN18LightmappedGenericL12OUTLINEALPHAE
__ZN18LightmappedGenericL12OUTLINECOLORE
__ZN18LightmappedGenericL13BUMPTRANSFORME
__ZN18LightmappedGenericL13OUTLINESTART0E
__ZN18LightmappedGenericL13OUTLINESTART1E
__ZN18LightmappedGenericL13SELFILLUMTINTE
__ZN18LightmappedGenericL14BUMPTRANSFORM2E
__ZN18LightmappedGenericL14ENVMAPCONTRASTE
__ZN18LightmappedGenericL14MASKEDBLENDINGE
__ZN18LightmappedGenericL14SEAMLESS_SCALEE
__ZN18LightmappedGenericL14s_ShaderParamsE
__ZN18LightmappedGenericL15DETAILBLENDMODEE
__ZN18LightmappedGenericL15EDGESOFTNESSENDE
__ZN18LightmappedGenericL15ENVMAPMASKFRAMEE
__ZN18LightmappedGenericL16ENVMAPSATURATIONE
__ZN18LightmappedGenericL16LIGHTWARPTEXTUREE
__ZN18LightmappedGenericL16s_ShaderInstanceE
__ZN18LightmappedGenericL17DETAILBLENDFACTORE
__ZN18LightmappedGenericL17EDGESOFTNESSSTARTE
__ZN18LightmappedGenericL17FRESNELREFLECTIONE
__ZN18LightmappedGenericL18ALPHATESTREFERENCEE
__ZN18LightmappedGenericL18BLENDMASKTRANSFORME
__ZN18LightmappedGenericL19BASETEXTURENOENVMAPE
__ZN18LightmappedGenericL19ENVMAPMASKTRANSFORME
__ZN18LightmappedGenericL20BASETEXTURE2NOENVMAPE
__ZN18LightmappedGenericL20BLENDMODULATETEXTUREE
__ZN18LightmappedGenericL21NODIFFUSEBUMPLIGHTINGE
__ZN18LightmappedGenericL30DETAIL_ALPHA_MASK_BASE_TEXTUREE
__ZN18LightmappedGenericL6ALBEDOE
__ZN18LightmappedGenericL6ALPHA2E
__ZN18LightmappedGenericL6DETAILE
__ZN18LightmappedGenericL6ENVMAPE
__ZN18LightmappedGenericL6FRAME2E
__ZN18LightmappedGenericL6SSBUMPE
__ZN18LightmappedGenericL7BUMPMAPE
__ZN18LightmappedGenericL7OUTLINEE
__ZN18LightmappedGenericL8BUMPMAP2E
__ZN18LightmappedGenericL8BUMPMASKE
__ZN18LightmappedGenericL9BUMPFRAMEE
__ZN18LightmappedGenericL9SOFTEDGESE
__ZN18ParticleSphere_DX912CShaderParamC1EPKc17ShaderParamType_tS2_S2_i
__ZN18ParticleSphere_DX97CShader14OnDrawElementsEPP12IMaterialVarP13IShaderShadowP17IShaderDynamicAPI23VertexCompressionType_tPP27CBasePerMaterialContextData
__ZN18ParticleSphere_DX97CShader18OnInitShaderParamsEPP12IMaterialVarPKc
__ZN18ParticleSphere_DX97CShader20OnInitShaderInstanceEPP12IMaterialVarP11IShaderInitPKc
__ZN18ParticleSphere_DX9L10DEPTHBLENDE
__ZN18ParticleSphere_DX9L11LIGHT_COLORE
__ZN18ParticleSphere_DX9L14LIGHT_POSITIONE
__ZN18ParticleSphere_DX9L14s_ShaderParamsE
__ZN18ParticleSphere_DX9L15DEPTHBLENDSCALEE
__ZN18ParticleSphere_DX9L16USINGPIXELSHADERE
__ZN18ParticleSphere_DX9L16s_ShaderInstanceE
__ZN18ParticleSphere_DX9L6LIGHTSE
__ZN18ParticleSphere_DX9L7BUMPMAPE
__ZN18vr_distort_texture12CShaderParamC1EPKc17ShaderParamType_tS2_S2_i
__ZN18vr_distort_texture7CShader14OnDrawElementsEPP12IMaterialVarP13IShaderShadowP17IShaderDynamicAPI23VertexCompressionType_tPP27CBasePerMaterialContextData
__ZN18vr_distort_texture7CShader18OnInitShaderParamsEPP12IMaterialVarPKc
__ZN18vr_distort_texture7CShader20OnInitShaderInstanceEPP12IMaterialVarP11IShaderInitPKc
__ZN18vr_distort_textureL10DISTORTMAPE
__ZN18vr_distort_textureL11BASETEXTUREE
__ZN18vr_distort_textureL14s_ShaderParamsE
__ZN18vr_distort_textureL15USERENDERTARGETE
__ZN18vr_distort_textureL16s_ShaderInstanceE
__ZN19CUtlNoEscConversion14FindConversionEPKcPi
__ZN19PortalStaticOverlay12CShaderParamC1EPKc17ShaderParamType_tS2_S2_i
__ZN19PortalStaticOverlay7CShader14OnDrawElementsEPP12IMaterialVarP13IShaderShadowP17IShaderDynamicAPI23VertexCompressionType_tPP27CBasePerMaterialContextData
__ZN19PortalStaticOverlay7CShader18OnInitShaderParamsEPP12IMaterialVarPKc
__ZN19PortalStaticOverlay7CShader20OnInitShaderInstanceEPP12IMaterialVarP11IShaderInitPKc
__ZN19PortalStaticOverlayL12NOCOLORWRITEE
__ZN19PortalStaticOverlayL12STATICAMOUNTE
__ZN19PortalStaticOverlayL14s_ShaderParamsE
__ZN19PortalStaticOverlayL16ALPHAMASKTEXTUREE
__ZN19PortalStaticOverlayL16s_ShaderInstanceE
__ZN19PortalStaticOverlayL18STATICBLENDTEXTUREE
__ZN19PortalStaticOverlayL21ALPHAMASKTEXTUREFRAMEE
__ZN19PortalStaticOverlayL23STATICBLENDTEXTUREFRAMEE
__ZN19PortalStaticOverlayL23s_pShaderParamOverridesE
__ZN19PortalStaticOverlayL5ALPHAE
__ZN19PortalStaticOverlayL5COLORE
__ZN19UnlitTwoTexture_DX912CShaderParamC1EPKc17ShaderParamType_tS2_S2_i
__ZN19UnlitTwoTexture_DX97CShader14OnDrawElementsEPP12IMaterialVarP13IShaderShadowP17IShaderDynamicAPI23VertexCompressionType_tPP27CBasePerMaterialContextData
__ZN19UnlitTwoTexture_DX97CShader18OnInitShaderParamsEPP12IMaterialVarPKc
__ZN19UnlitTwoTexture_DX97CShader20OnInitShaderInstanceEPP12IMaterialVarP11IShaderInitPKc
__ZN19UnlitTwoTexture_DX9L11CLOAKFACTORE
__ZN19UnlitTwoTexture_DX9L13REFRACTAMOUNTE
__ZN19UnlitTwoTexture_DX9L14CLOAKCOLORTINTE
__ZN19UnlitTwoTexture_DX9L14s_ShaderParamsE
__ZN19UnlitTwoTexture_DX9L16CLOAKPASSENABLEDE
__ZN19UnlitTwoTexture_DX9L16s_ShaderInstanceE
__ZN19UnlitTwoTexture_DX9L17TEXTURE2TRANSFORME
__ZN19UnlitTwoTexture_DX9L6FRAME2E
__ZN19UnlitTwoTexture_DX9L8TEXTURE2E
__ZN19WindowImposter_DX907CShader14OnDrawElementsEPP12IMaterialVarP13IShaderShadowP17IShaderDynamicAPI23VertexCompressionType_tPP27CBasePerMaterialContextData
__ZN19WindowImposter_DX907CShader18OnInitShaderParamsEPP12IMaterialVarPKc
__ZN19WindowImposter_DX907CShader20OnInitShaderInstanceEPP12IMaterialVarP11IShaderInitPKc
__ZN19WindowImposter_DX90L14s_ShaderParamsE
__ZN19WindowImposter_DX90L16s_ShaderInstanceE
__ZN19WindowImposter_DX90L6ENVMAPE
__ZN19hsl_filmgrain_pass112CShaderParamC1EPKc17ShaderParamType_tS2_S2_i
__ZN19hsl_filmgrain_pass17CShader14OnDrawElementsEPP12IMaterialVarP13IShaderShadowP17IShaderDynamicAPI23VertexCompressionType_tPP27CBasePerMaterialContextData
__ZN19hsl_filmgrain_pass17CShader20OnInitShaderInstanceEPP12IMaterialVarP11IShaderInitPKc
__ZN19hsl_filmgrain_pass1L13HSLNOISESCALEE
__ZN19hsl_filmgrain_pass1L14s_ShaderParamsE
__ZN19hsl_filmgrain_pass1L16s_ShaderInstanceE
__ZN19hsl_filmgrain_pass1L5GRAINE
__ZN19hsl_filmgrain_pass1L5INPUTE
__ZN19hsl_filmgrain_pass1L9SCALEBIASE
__ZN19hsl_filmgrain_pass27CShader14OnDrawElementsEPP12IMaterialVarP13IShaderShadowP17IShaderDynamicAPI23VertexCompressionType_tPP27CBasePerMaterialContextData
__ZN19hsl_filmgrain_pass27CShader20OnInitShaderInstanceEPP12IMaterialVarP11IShaderInitPKc
__ZN19hsl_filmgrain_pass2L14s_ShaderParamsE
__ZN19hsl_filmgrain_pass2L16s_ShaderInstanceE
__ZN19hsl_filmgrain_pass2L5INPUTE
__ZN19screenspace_general7CShader14OnDrawElementsEPP12IMaterialVarP13IShaderShadowP17IShaderDynamicAPI23VertexCompressionType_tPP27CBasePerMaterialContextData
__ZN19screenspace_general7CShader20OnInitShaderInstanceEPP12IMaterialVarP11IShaderInitPKc
__ZN19screenspace_generalL14s_ShaderParamsE
__ZN19screenspace_generalL16s_ShaderInstanceE
__ZN20DebugTextureView_dx97CShader14OnDrawElementsEPP12IMaterialVarP13IShaderShadowP17IShaderDynamicAPI23VertexCompressionType_tPP27CBasePerMaterialContextData
__ZN20DebugTextureView_dx97CShader20OnInitShaderInstanceEPP12IMaterialVarP11IShaderInitPKc
__ZN20DebugTextureView_dx9L14s_ShaderParamsE
__ZN20DebugTextureView_dx9L16s_ShaderInstanceE
__ZN20DebugTextureView_dx9L9SHOWALPHAE
__ZN20WorldTwoTextureBlend12CShaderParamC1EPKc17ShaderParamType_tS2_S2_i
__ZN20WorldTwoTextureBlend7CShader14OnDrawElementsEPP12IMaterialVarP13IShaderShadowP17IShaderDynamicAPI23VertexCompressionType_tPP27CBasePerMaterialContextData
__ZN20WorldTwoTextureBlend7CShader18OnInitShaderParamsEPP12IMaterialVarPKc
__ZN20WorldTwoTextureBlend7CShader20OnInitShaderInstanceEPP12IMaterialVarP11IShaderInitPKc
__ZN20WorldTwoTextureBlend7CShader8DrawPassEPP12IMaterialVarP17IShaderDynamicAPIP13IShaderShadowb23VertexCompressionType_t
__ZN20WorldTwoTextureBlendL11BASETEXTUREE
__ZN20WorldTwoTextureBlendL11DETAILFRAMEE
__ZN20WorldTwoTextureBlendL11DETAILSCALEE
__ZN20WorldTwoTextureBlendL13BUMPTRANSFORME
__ZN20WorldTwoTextureBlendL13SELFILLUMTINTE
__ZN20WorldTwoTextureBlendL14SEAMLESS_SCALEE
__ZN20WorldTwoTextureBlendL14s_ShaderParamsE
__ZN20WorldTwoTextureBlendL16s_ShaderInstanceE
__ZN20WorldTwoTextureBlendL21NODIFFUSEBUMPLIGHTINGE
__ZN20WorldTwoTextureBlendL23s_pShaderParamOverridesE
__ZN20WorldTwoTextureBlendL30DETAIL_ALPHA_MASK_BASE_TEXTUREE
__ZN20WorldTwoTextureBlendL6ALBEDOE
__ZN20WorldTwoTextureBlendL6DETAILE
__ZN20WorldTwoTextureBlendL7BUMPMAPE
__ZN20WorldTwoTextureBlendL9BUMPFRAMEE
__ZN21CCommandBufferBuilderI26CFixedCommandStorageBufferILi1000EEE37SetVertexShaderTextureScaledTransformEiii
__ZN21CCommandBufferBuilderI26CFixedCommandStorageBufferILi800EEE37SetVertexShaderTextureScaledTransformEiii
__ZN21CUtlCStringConversion14FindConversionEPKcPi
__ZN21CUtlCStringConversionC2EcPKciPN18CUtlCharConversion17ConversionArray_tE
__ZN21LightmappedReflective7CShader14OnDrawElementsEPP12IMaterialVarP13IShaderShadowP17IShaderDynamicAPI23VertexCompressionType_tPP27CBasePerMaterialContextData
__ZN21LightmappedReflective7CShader20OnInitShaderInstanceEPP12IMaterialVarP11IShaderInitPKc
__ZN21LightmappedReflectiveL14s_ShaderParamsE
__ZN21LightmappedReflectiveL16s_ShaderInstanceE
__ZN21WorldVertexTransition7CShader14OnDrawElementsEPP12IMaterialVarP13IShaderShadowP17IShaderDynamicAPI23VertexCompressionType_tPP27CBasePerMaterialContextData
__ZN21WorldVertexTransition7CShader20OnInitShaderInstanceEPP12IMaterialVarP11IShaderInitPKc
__ZN21WorldVertexTransitionL14s_ShaderParamsE
__ZN21WorldVertexTransitionL16s_ShaderInstanceE
__ZN21floattoscreen_vanilla7CShader14OnDrawElementsEPP12IMaterialVarP13IShaderShadowP17IShaderDynamicAPI23VertexCompressionType_tPP27CBasePerMaterialContextData
__ZN21floattoscreen_vanilla7CShader20OnInitShaderInstanceEPP12IMaterialVarP11IShaderInitPKc
__ZN21floattoscreen_vanillaL14s_ShaderParamsE
__ZN21floattoscreen_vanillaL16s_ShaderInstanceE
__ZN21floattoscreen_vanillaL9FBTEXTUREE
__ZN21sfm_downsample_shader7CShader14OnDrawElementsEPP12IMaterialVarP13IShaderShadowP17IShaderDynamicAPI23VertexCompressionType_tPP27CBasePerMaterialContextData
__ZN21sfm_downsample_shader7CShader20OnInitShaderInstanceEPP12IMaterialVarP11IShaderInitPKc
__ZN21sfm_downsample_shaderL14s_ShaderParamsE
__ZN21sfm_downsample_shaderL16s_ShaderInstanceE
__ZN22BufferClearObeyStencil7CShader14OnDrawElementsEPP12IMaterialVarP13IShaderShadowP17IShaderDynamicAPI23VertexCompressionType_tPP27CBasePerMaterialContextData
__ZN22BufferClearObeyStencil7CShader20OnInitShaderInstanceEPP12IMaterialVarP11IShaderInitPKc
__ZN22BufferClearObeyStencilL14s_ShaderParamsE
__ZN22BufferClearObeyStencilL16s_ShaderInstanceE
__ZN22IntroScreenSpaceEffect12CShaderParamC1EPKc17ShaderParamType_tS2_S2_i
__ZN22IntroScreenSpaceEffect7CShader14OnDrawElementsEPP12IMaterialVarP13IShaderShadowP17IShaderDynamicAPI23VertexCompressionType_tPP27CBasePerMaterialContextData
__ZN22IntroScreenSpaceEffect7CShader18OnInitShaderParamsEPP12IMaterialVarPKc
__ZN22IntroScreenSpaceEffect7CShader20OnInitShaderInstanceEPP12IMaterialVarP11IShaderInitPKc
__ZN22IntroScreenSpaceEffectL10ENABLESRGBE
__ZN22IntroScreenSpaceEffectL14s_ShaderParamsE
__ZN22IntroScreenSpaceEffectL16s_ShaderInstanceE
__ZN22IntroScreenSpaceEffectL4MODEE
__ZN22ParticleLitGeneric_DX912CShaderParamC1EPKc17ShaderParamType_tS2_S2_i
__ZN22ParticleLitGeneric_DX97CShader14OnDrawElementsEPP12IMaterialVarP13IShaderShadowP17IShaderDynamicAPI23VertexCompressionType_tPP27CBasePerMaterialContextData
__ZN22ParticleLitGeneric_DX97CShader18OnInitShaderParamsEPP12IMaterialVarPKc
__ZN22ParticleLitGeneric_DX97CShader20OnInitShaderInstanceEPP12IMaterialVarP11IShaderInitPKc
__ZN22ParticleLitGeneric_DX9L13BUMPTRANSFORME
__ZN22ParticleLitGeneric_DX9L14s_ShaderParamsE
__ZN22ParticleLitGeneric_DX9L16s_ShaderInstanceE
__ZN22ParticleLitGeneric_DX9L7BUMPMAPE
__ZN22ParticleLitGeneric_DX9L9BUMPFRAMEE
__ZN22sfm_blurfilterx_shader7CShader14OnDrawElementsEPP12IMaterialVarP13IShaderShadowP17IShaderDynamicAPI23VertexCompressionType_tPP27CBasePerMaterialContextData
__ZN22sfm_blurfilterx_shader7CShader20OnInitShaderInstanceEPP12IMaterialVarP11IShaderInitPKc
__ZN22sfm_blurfilterx_shaderL14s_ShaderParamsE
__ZN22sfm_blurfilterx_shaderL16s_ShaderInstanceE
__ZN22sfm_blurfiltery_shader7CShader14OnDrawElementsEPP12IMaterialVarP13IShaderShadowP17IShaderDynamicAPI23VertexCompressionType_tPP27CBasePerMaterialContextData
__ZN22sfm_blurfiltery_shader7CShader20OnInitShaderInstanceEPP12IMaterialVarP11IShaderInitPKc
__ZN22sfm_blurfiltery_shaderL14s_ShaderParamsE
__ZN22sfm_blurfiltery_shaderL16s_ShaderInstanceE
__ZN23CPyroVision_DX9_ContextD0Ev
__ZN23CPyroVision_DX9_ContextD1Ev
__ZN23floatcombine_autoexpose12CShaderParamC1EPKc17ShaderParamType_tS2_S2_i
__ZN23floatcombine_autoexpose7CShader14OnDrawElementsEPP12IMaterialVarP13IShaderShadowP17IShaderDynamicAPI23VertexCompressionType_tPP27CBasePerMaterialContextData
__ZN23floatcombine_autoexpose7CShader20OnInitShaderInstanceEPP12IMaterialVarP11IShaderInitPKc
__ZN23floatcombine_autoexposeL11BLOOMAMOUNTE
__ZN23floatcombine_autoexposeL12BLOOMTEXTUREE
__ZN23floatcombine_autoexposeL13BLOOMEXPONENTE
__ZN23floatcombine_autoexposeL13EDGE_SOFTNESSE
__ZN23floatcombine_autoexposeL14AUTOEXPOSE_MAXE
__ZN23floatcombine_autoexposeL14AUTOEXPOSE_MINE
__ZN23floatcombine_autoexposeL14VIGNETTE_POWERE
__ZN23floatcombine_autoexposeL14s_ShaderParamsE
__ZN23floatcombine_autoexposeL16EXPOSURE_TEXTUREE
__ZN23floatcombine_autoexposeL16s_ShaderInstanceE
__ZN23floatcombine_autoexposeL18ALPHASHARPENFACTORE
__ZN23floatcombine_autoexposeL19VIGNETTE_MIN_BRIGHTE
__ZN23floatcombine_autoexposeL7WOODCUTE
__ZN23floatcombine_autoexposeL9SHARPNESSE
__ZN23screenspace_general_dx912CShaderParamC1EPKc17ShaderParamType_tS2_S2_i
__ZN23screenspace_general_dx97CShader14OnDrawElementsEPP12IMaterialVarP13IShaderShadowP17IShaderDynamicAPI23VertexCompressionType_tPP27CBasePerMaterialContextData
__ZN23screenspace_general_dx97CShader20OnInitShaderInstanceEPP12IMaterialVarP11IShaderInitPKc
__ZN23screenspace_general_dx9L11ALPHATESTEDE
__ZN23screenspace_general_dx9L11ALPHA_BLENDE
__ZN23screenspace_general_dx9L11LINEARWRITEE
__ZN23screenspace_general_dx9L14X360APPCHOOSERE
__ZN23screenspace_general_dx9L14s_ShaderParamsE
__ZN23screenspace_general_dx9L16s_ShaderInstanceE
__ZN23screenspace_general_dx9L19LINEARREAD_TEXTURE1E
__ZN23screenspace_general_dx9L19LINEARREAD_TEXTURE2E
__ZN23screenspace_general_dx9L19LINEARREAD_TEXTURE3E
__ZN23screenspace_general_dx9L20DISABLE_COLOR_WRITESE
__ZN23screenspace_general_dx9L22LINEARREAD_BASETEXTUREE
__ZN23screenspace_general_dx9L25ALPHA_BLEND_COLOR_OVERLAYE
__ZN23screenspace_general_dx9L4C0_WE
__ZN23screenspace_general_dx9L4C0_XE
__ZN23screenspace_general_dx9L4C0_YE
__ZN23screenspace_general_dx9L4C0_ZE
__ZN23screenspace_general_dx9L4C1_WE
__ZN23screenspace_general_dx9L4C1_XE
__ZN23screenspace_general_dx9L4C1_YE
__ZN23screenspace_general_dx9L4C1_ZE
__ZN23screenspace_general_dx9L4C2_WE
__ZN23screenspace_general_dx9L4C2_XE
__ZN23screenspace_general_dx9L4C2_YE
__ZN23screenspace_general_dx9L4C2_ZE
__ZN23screenspace_general_dx9L4C3_WE
__ZN23screenspace_general_dx9L4C3_XE
__ZN23screenspace_general_dx9L4C3_YE
__ZN23screenspace_general_dx9L4C3_ZE
__ZN23screenspace_general_dx9L8TEXTURE1E
__ZN23screenspace_general_dx9L8TEXTURE2E
__ZN23screenspace_general_dx9L8TEXTURE3E
__ZN23screenspace_general_dx9L9COPYALPHAE
__ZN23screenspace_general_dx9L9PIXSHADERE
__ZN24CShaderLibConVarAccessor22RegisterConCommandBaseEP14ConCommandBase
__ZN25WorldVertexTransition_DX912CShaderParamC1EPKc17ShaderParamType_tS2_S2_i
__ZN25WorldVertexTransition_DX97CShader14OnDrawElementsEPP12IMaterialVarP13IShaderShadowP17IShaderDynamicAPI23VertexCompressionType_tPP27CBasePerMaterialContextData
__ZN25WorldVertexTransition_DX97CShader18OnInitShaderParamsEPP12IMaterialVarPKc
__ZN25WorldVertexTransition_DX97CShader20OnInitShaderInstanceEPP12IMaterialVarP11IShaderInitPKc
__ZN25WorldVertexTransition_DX97CShader9SetupVarsER29LightmappedGeneric_DX9_Vars_t
__ZN25WorldVertexTransition_DX9L10BUMPFRAME2E
__ZN25WorldVertexTransition_DX9L10DETAILTINTE
__ZN25WorldVertexTransition_DX9L10ENVMAPMASKE
__ZN25WorldVertexTransition_DX9L10ENVMAPTINTE
__ZN25WorldVertexTransition_DX9L11DETAILFRAMEE
__ZN25WorldVertexTransition_DX9L11DETAILSCALEE
__ZN25WorldVertexTransition_DX9L11ENVMAPFRAMEE
__ZN25WorldVertexTransition_DX9L12BASETEXTURE2E
__ZN25WorldVertexTransition_DX9L13BUMPTRANSFORME
__ZN25WorldVertexTransition_DX9L13SELFILLUMTINTE
__ZN25WorldVertexTransition_DX9L14BUMPTRANSFORM2E
__ZN25WorldVertexTransition_DX9L14ENVMAPCONTRASTE
__ZN25WorldVertexTransition_DX9L14MASKEDBLENDINGE
__ZN25WorldVertexTransition_DX9L14SEAMLESS_SCALEE
__ZN25WorldVertexTransition_DX9L14s_ShaderParamsE
__ZN25WorldVertexTransition_DX9L15DETAILBLENDMODEE
__ZN25WorldVertexTransition_DX9L15ENVMAPMASKFRAMEE
__ZN25WorldVertexTransition_DX9L16ENVMAPSATURATIONE
__ZN25WorldVertexTransition_DX9L16LIGHTWARPTEXTUREE
__ZN25WorldVertexTransition_DX9L16s_ShaderInstanceE
__ZN25WorldVertexTransition_DX9L17DETAILBLENDFACTORE
__ZN25WorldVertexTransition_DX9L17FRESNELREFLECTIONE
__ZN25WorldVertexTransition_DX9L18BLENDMASKTRANSFORME
__ZN25WorldVertexTransition_DX9L19BASETEXTURENOENVMAPE
__ZN25WorldVertexTransition_DX9L19ENVMAPMASKTRANSFORME
__ZN25WorldVertexTransition_DX9L20BASETEXTURE2NOENVMAPE
__ZN25WorldVertexTransition_DX9L20BLENDMODULATETEXTUREE
__ZN25WorldVertexTransition_DX9L21NODIFFUSEBUMPLIGHTINGE
__ZN25WorldVertexTransition_DX9L30DETAIL_ALPHA_MASK_BASE_TEXTUREE
__ZN25WorldVertexTransition_DX9L6ALBEDOE
__ZN25WorldVertexTransition_DX9L6DETAILE
__ZN25WorldVertexTransition_DX9L6ENVMAPE
__ZN25WorldVertexTransition_DX9L6FRAME2E
__ZN25WorldVertexTransition_DX9L6SSBUMPE
__ZN25WorldVertexTransition_DX9L7BUMPMAPE
__ZN25WorldVertexTransition_DX9L8BUMPMAP2E
__ZN25WorldVertexTransition_DX9L8BUMPMASKE
__ZN25WorldVertexTransition_DX9L9BUMPFRAMEE
__ZN25sfm_integercombine_shader12CShaderParamC1EPKc17ShaderParamType_tS2_S2_i
__ZN25sfm_integercombine_shader7CShader14OnDrawElementsEPP12IMaterialVarP13IShaderShadowP17IShaderDynamicAPI23VertexCompressionType_tPP27CBasePerMaterialContextData
__ZN25sfm_integercombine_shader7CShader20OnInitShaderInstanceEPP12IMaterialVarP11IShaderInitPKc
__ZN25sfm_integercombine_shaderL11BLOOMAMOUNTE
__ZN25sfm_integercombine_shaderL14BLURREDTEXTUREE
__ZN25sfm_integercombine_shaderL14s_ShaderParamsE
__ZN25sfm_integercombine_shaderL15ORIGINALTEXTUREE
__ZN25sfm_integercombine_shaderL16s_ShaderInstanceE
__ZN26BufferClearObeyStencil_DX912CShaderParamC1EPKc17ShaderParamType_tS2_S2_i
__ZN26BufferClearObeyStencil_DX97CShader14OnDrawElementsEPP12IMaterialVarP13IShaderShadowP17IShaderDynamicAPI23VertexCompressionType_tPP27CBasePerMaterialContextData
__ZN26BufferClearObeyStencil_DX97CShader18OnInitShaderParamsEPP12IMaterialVarPKc
__ZN26BufferClearObeyStencil_DX97CShader20OnInitShaderInstanceEPP12IMaterialVarP11IShaderInitPKc
__ZN26BufferClearObeyStencil_DX9L10CLEARALPHAE
__ZN26BufferClearObeyStencil_DX9L10CLEARCOLORE
__ZN26BufferClearObeyStencil_DX9L10CLEARDEPTHE
__ZN26BufferClearObeyStencil_DX9L14s_ShaderParamsE
__ZN26BufferClearObeyStencil_DX9L16s_ShaderInstanceE
__ZN26LightmappedReflective_DX9012CShaderParamC1EPKc17ShaderParamType_tS2_S2_i
__ZN26LightmappedReflective_DX907CShader14OnDrawElementsEPP12IMaterialVarP13IShaderShadowP17IShaderDynamicAPI23VertexCompressionType_tPP27CBasePerMaterialContextData
__ZN26LightmappedReflective_DX907CShader18OnInitShaderParamsEPP12IMaterialVarPKc
__ZN26LightmappedReflective_DX907CShader20OnInitShaderInstanceEPP12IMaterialVarP11IShaderInitPKc
__ZN26LightmappedReflective_DX907CShader24DrawReflectionRefractionEPP12IMaterialVarP13IShaderShadowP17IShaderDynamicAPIbb
__ZN26LightmappedReflective_DX90L10ENVMAPMASKE
__ZN26LightmappedReflective_DX90L11REFLECTTINTE
__ZN26LightmappedReflective_DX90L11REFRACTTINTE
__ZN26LightmappedReflective_DX90L12FRESNELPOWERE
__ZN26LightmappedReflective_DX90L13BUMPTRANSFORME
__ZN26LightmappedReflective_DX90L13REFLECTAMOUNTE
__ZN26LightmappedReflective_DX90L13REFRACTAMOUNTE
__ZN26LightmappedReflective_DX90L14REFLECTTEXTUREE
__ZN26LightmappedReflective_DX90L14REFRACTTEXTUREE
__ZN26LightmappedReflective_DX90L14s_ShaderParamsE
__ZN26LightmappedReflective_DX90L15ENVMAPMASKFRAMEE
__ZN26LightmappedReflective_DX90L15MAXREFLECTIVITYE
__ZN26LightmappedReflective_DX90L15MINREFLECTIVITYE
__ZN26LightmappedReflective_DX90L16s_ShaderInstanceE
__ZN26LightmappedReflective_DX90L9BUMPFRAMEE
__ZN26LightmappedReflective_DX90L9NORMALMAPE
__ZN29CVRDistortTexture_DX9_ContextD0Ev
__ZN29CVRDistortTexture_DX9_ContextD1Ev
__ZN29CVertexLitGeneric_DX9_ContextD0Ev
__ZN29CVertexLitGeneric_DX9_ContextD1Ev
__ZN31CLightmappedGeneric_DX9_ContextD0Ev
__ZN31CLightmappedGeneric_DX9_ContextD1Ev
__ZN3Bik12CShaderParamC1EPKc17ShaderParamType_tS2_S2_i
__ZN3Bik7CShader14OnDrawElementsEPP12IMaterialVarP13IShaderShadowP17IShaderDynamicAPI23VertexCompressionType_tPP27CBasePerMaterialContextData
__ZN3Bik7CShader18OnInitShaderParamsEPP12IMaterialVarPKc
__ZN3Bik7CShader20OnInitShaderInstanceEPP12IMaterialVarP11IShaderInitPKc
__ZN3BikL14s_ShaderParamsE
__ZN3BikL16s_ShaderInstanceE
__ZN3BikL8YTEXTUREE
__ZN3BikL9CBTEXTUREE
__ZN3BikL9CRTEXTUREE
__ZN3HSV7CShader14OnDrawElementsEPP12IMaterialVarP13IShaderShadowP17IShaderDynamicAPI23VertexCompressionType_tPP27CBasePerMaterialContextData
__ZN3HSV7CShader18OnInitShaderParamsEPP12IMaterialVarPKc
__ZN3HSV7CShader20OnInitShaderInstanceEPP12IMaterialVarP11IShaderInitPKc
__ZN3HSVL14s_ShaderParamsE
__ZN3HSVL16s_ShaderInstanceE
__ZN3Sky7CShader14OnDrawElementsEPP12IMaterialVarP13IShaderShadowP17IShaderDynamicAPI23VertexCompressionType_tPP27CBasePerMaterialContextData
__ZN3Sky7CShader20OnInitShaderInstanceEPP12IMaterialVarP11IShaderInitPKc
__ZN3SkyL14s_ShaderParamsE
__ZN3SkyL16s_ShaderInstanceE
__ZN41DecalBaseTimesLightmapAlphaBlendSelfIllum7CShader14OnDrawElementsEPP12IMaterialVarP13IShaderShadowP17IShaderDynamicAPI23VertexCompressionType_tPP27CBasePerMaterialContextData
__ZN41DecalBaseTimesLightmapAlphaBlendSelfIllum7CShader20OnInitShaderInstanceEPP12IMaterialVarP11IShaderInitPKc
__ZN41DecalBaseTimesLightmapAlphaBlendSelfIllumL14s_ShaderParamsE
__ZN41DecalBaseTimesLightmapAlphaBlendSelfIllumL16s_ShaderInstanceE
__ZN45DecalBaseTimesLightmapAlphaBlendSelfIllum_DX912CShaderParamC1EPKc17ShaderParamType_tS2_S2_i
__ZN45DecalBaseTimesLightmapAlphaBlendSelfIllum_DX97CShader14OnDrawElementsEPP12IMaterialVarP13IShaderShadowP17IShaderDynamicAPI23VertexCompressionType_tPP27CBasePerMaterialContextData
__ZN45DecalBaseTimesLightmapAlphaBlendSelfIllum_DX97CShader18OnInitShaderParamsEPP12IMaterialVarPKc
__ZN45DecalBaseTimesLightmapAlphaBlendSelfIllum_DX97CShader20OnInitShaderInstanceEPP12IMaterialVarP11IShaderInitPKc
__ZN45DecalBaseTimesLightmapAlphaBlendSelfIllum_DX97CShader9DrawDecalEPP12IMaterialVarP17IShaderDynamicAPIP13IShaderShadow
__ZN45DecalBaseTimesLightmapAlphaBlendSelfIllum_DX9L11BASETEXTUREE
__ZN45DecalBaseTimesLightmapAlphaBlendSelfIllum_DX9L14s_ShaderParamsE
__ZN45DecalBaseTimesLightmapAlphaBlendSelfIllum_DX9L16SELFILLUMTEXTUREE
__ZN45DecalBaseTimesLightmapAlphaBlendSelfIllum_DX9L16s_ShaderInstanceE
__ZN45DecalBaseTimesLightmapAlphaBlendSelfIllum_DX9L21SELFILLUMTEXTUREFRAMEE
__ZN45DecalBaseTimesLightmapAlphaBlendSelfIllum_DX9L23s_pShaderParamOverridesE
__ZN4Core7CShader14OnDrawElementsEPP12IMaterialVarP13IShaderShadowP17IShaderDynamicAPI23VertexCompressionType_tPP27CBasePerMaterialContextData
__ZN4Core7CShader20OnInitShaderInstanceEPP12IMaterialVarP11IShaderInitPKc
__ZN4CoreL14s_ShaderParamsE
__ZN4CoreL16s_ShaderInstanceE
__ZN4eyes7CShader14OnDrawElementsEPP12IMaterialVarP13IShaderShadowP17IShaderDynamicAPI23VertexCompressionType_tPP27CBasePerMaterialContextData
__ZN4eyes7CShader20OnInitShaderInstanceEPP12IMaterialVarP11IShaderInitPKc
__ZN4eyesL14s_ShaderParamsE
__ZN4eyesL16s_ShaderInstanceE
__ZN4warp7CShader14OnDrawElementsEPP12IMaterialVarP13IShaderShadowP17IShaderDynamicAPI23VertexCompressionType_tPP27CBasePerMaterialContextData
__ZN4warp7CShader18OnInitShaderParamsEPP12IMaterialVarPKc
__ZN4warp7CShader20OnInitShaderInstanceEPP12IMaterialVarP11IShaderInitPKc
__ZN4warpL11BASETEXTUREE
__ZN4warpL14s_ShaderParamsE
__ZN4warpL16s_ShaderInstanceE
__ZN5Bloom12CShaderParamC1EPKc17ShaderParamType_tS2_S2_i
__ZN5Bloom7CShader14OnDrawElementsEPP12IMaterialVarP13IShaderShadowP17IShaderDynamicAPI23VertexCompressionType_tPP27CBasePerMaterialContextData
__ZN5Bloom7CShader20OnInitShaderInstanceEPP12IMaterialVarP11IShaderInitPKc
__ZN5BloomL11BLURTEXTUREE
__ZN5BloomL14s_ShaderParamsE
__ZN5BloomL16s_ShaderInstanceE
__ZN5BloomL9FBTEXTUREE
__ZN5Cable7CShader14OnDrawElementsEPP12IMaterialVarP13IShaderShadowP17IShaderDynamicAPI23VertexCompressionType_tPP27CBasePerMaterialContextData
__ZN5Cable7CShader20OnInitShaderInstanceEPP12IMaterialVarP11IShaderInitPKc
__ZN5CableL14s_ShaderParamsE
__ZN5CableL16s_ShaderInstanceE
__ZN5Cloak7CShader14OnDrawElementsEPP12IMaterialVarP13IShaderShadowP17IShaderDynamicAPI23VertexCompressionType_tPP27CBasePerMaterialContextData
__ZN5Cloak7CShader20OnInitShaderInstanceEPP12IMaterialVarP11IShaderInitPKc
__ZN5CloakL14s_ShaderParamsE
__ZN5CloakL16s_ShaderInstanceE
__ZN5Cloud7CShader14OnDrawElementsEPP12IMaterialVarP13IShaderShadowP17IShaderDynamicAPI23VertexCompressionType_tPP27CBasePerMaterialContextData
__ZN5Cloud7CShader20OnInitShaderInstanceEPP12IMaterialVarP11IShaderInitPKc
__ZN5CloudL14s_ShaderParamsE
__ZN5CloudL16s_ShaderInstanceE
__ZN5Teeth7CShader14OnDrawElementsEPP12IMaterialVarP13IShaderShadowP17IShaderDynamicAPI23VertexCompressionType_tPP27CBasePerMaterialContextData
__ZN5Teeth7CShader20OnInitShaderInstanceEPP12IMaterialVarP11IShaderInitPKc
__ZN5TeethL14s_ShaderParamsE
__ZN5TeethL16s_ShaderInstanceE
__ZN5Water7CShader14OnDrawElementsEPP12IMaterialVarP13IShaderShadowP17IShaderDynamicAPI23VertexCompressionType_tPP27CBasePerMaterialContextData
__ZN5Water7CShader20OnInitShaderInstanceEPP12IMaterialVarP11IShaderInitPKc
__ZN5WaterL14s_ShaderParamsE
__ZN5WaterL16s_ShaderInstanceE
__ZN5showz7CShader14OnDrawElementsEPP12IMaterialVarP13IShaderShadowP17IShaderDynamicAPI23VertexCompressionType_tPP27CBasePerMaterialContextData
__ZN5showz7CShader18OnInitShaderParamsEPP12IMaterialVarPKc
__ZN5showz7CShader20OnInitShaderInstanceEPP12IMaterialVarP11IShaderInitPKc
__ZN5showzL10ALPHADEPTHE
__ZN5showzL14s_ShaderParamsE
__ZN5showzL16s_ShaderInstanceE
__ZN6ConVar10ClampValueERf
__ZN6ConVar16InternalSetValueEPKc
__ZN6ConVar17ChangeStringValueEPKcf
__ZN6ConVar19InternalSetIntValueEi
__ZN6ConVar21InternalSetFloatValueEfb
__ZN6ConVar4InitEv
__ZN6ConVar6CreateEPKcS1_iS1_bfbfbfbfPFvP7IConVarS1_fE
__ZN6ConVar8AddFlagsEi
__ZN6ConVar8SetValueEPKc
__ZN6ConVar8SetValueEf
__ZN6ConVar8SetValueEi
__ZN6ConVarC1EPKcS1_i
__ZN6ConVarD0Ev
__ZN6ConVarD1Ev
__ZN6Portal7CShader14OnDrawElementsEPP12IMaterialVarP13IShaderShadowP17IShaderDynamicAPI23VertexCompressionType_tPP27CBasePerMaterialContextData
__ZN6Portal7CShader20OnInitShaderInstanceEPP12IMaterialVarP11IShaderInitPKc
__ZN6PortalL14s_ShaderParamsE
__ZN6PortalL16s_ShaderInstanceE
__ZN6Shadow7CShader14OnDrawElementsEPP12IMaterialVarP13IShaderShadowP17IShaderDynamicAPI23VertexCompressionType_tPP27CBasePerMaterialContextData
__ZN6Shadow7CShader18OnInitShaderParamsEPP12IMaterialVarPKc
__ZN6Shadow7CShader20OnInitShaderInstanceEPP12IMaterialVarP11IShaderInitPKc
__ZN6ShadowL14s_ShaderParamsE
__ZN6ShadowL16s_ShaderInstanceE
__ZN6Sprite7CShader14OnDrawElementsEPP12IMaterialVarP13IShaderShadowP17IShaderDynamicAPI23VertexCompressionType_tPP27CBasePerMaterialContextData
__ZN6Sprite7CShader20OnInitShaderInstanceEPP12IMaterialVarP11IShaderInitPKc
__ZN6SpriteL14s_ShaderParamsE
__ZN6SpriteL16s_ShaderInstanceE
__ZN6WriteZ7CShader14OnDrawElementsEPP12IMaterialVarP13IShaderShadowP17IShaderDynamicAPI23VertexCompressionType_tPP27CBasePerMaterialContextData
__ZN6WriteZ7CShader20OnInitShaderInstanceEPP12IMaterialVarP11IShaderInitPKc
__ZN6WriteZL14s_ShaderParamsE
__ZN6WriteZL16s_ShaderInstanceE
__ZN7Refract7CShader14OnDrawElementsEPP12IMaterialVarP13IShaderShadowP17IShaderDynamicAPI23VertexCompressionType_tPP27CBasePerMaterialContextData
__ZN7Refract7CShader20OnInitShaderInstanceEPP12IMaterialVarP11IShaderInitPKc
__ZN7RefractL14s_ShaderParamsE
__ZN7RefractL16s_ShaderInstanceE
__ZN7Sky_DX97CShader14OnDrawElementsEPP12IMaterialVarP13IShaderShadowP17IShaderDynamicAPI23VertexCompressionType_tPP27CBasePerMaterialContextData
__ZN7Sky_DX97CShader18OnInitShaderParamsEPP12IMaterialVarPKc
__ZN7Sky_DX97CShader20OnInitShaderInstanceEPP12IMaterialVarP11IShaderInitPKc
__ZN7Sky_DX9L14s_ShaderParamsE
__ZN7Sky_DX9L16s_ShaderInstanceE
__ZN7Sky_DX9L23s_pShaderParamOverridesE
__ZN7Sky_DX9L5ALPHAE
__ZN7Sky_DX9L5COLORE
__ZN7VMatrixaSERKS_
__ZN8EyeGlint7CShader14OnDrawElementsEPP12IMaterialVarP13IShaderShadowP17IShaderDynamicAPI23VertexCompressionType_tPP27CBasePerMaterialContextData
__ZN8EyeGlint7CShader20OnInitShaderInstanceEPP12IMaterialVarP11IShaderInitPKc
__ZN8EyeGlintL14s_ShaderParamsE
__ZN8EyeGlintL16s_ShaderInstanceE
__ZN8Eyes_dx912CShaderParamC1EPKc17ShaderParamType_tS2_S2_i
__ZN8Eyes_dx97CShader14OnDrawElementsEPP12IMaterialVarP13IShaderShadowP17IShaderDynamicAPI23VertexCompressionType_tPP27CBasePerMaterialContextData
__ZN8Eyes_dx97CShader18OnInitShaderParamsEPP12IMaterialVarPKc
__ZN8Eyes_dx97CShader20OnInitShaderInstanceEPP12IMaterialVarP11IShaderInitPKc
__ZN8Eyes_dx9L12ENTITYORIGINE
__ZN8Eyes_dx9L14s_ShaderParamsE
__ZN8Eyes_dx9L16s_ShaderInstanceE
__ZN8Eyes_dx9L4IRISE
__ZN8Eyes_dx9L5EYEUPE
__ZN8Eyes_dx9L5GLINTE
__ZN8Eyes_dx9L5INTROE
__ZN8Eyes_dx9L5IRISUE
__ZN8Eyes_dx9L5IRISVE
__ZN8Eyes_dx9L6GLINTUE
__ZN8Eyes_dx9L6GLINTVE
__ZN8Eyes_dx9L8DILATIONE
__ZN8Eyes_dx9L9EYEORIGINE
__ZN8Eyes_dx9L9IRISFRAMEE
__ZN8Eyes_dx9L9WARPPARAME
__ZN8FilmDust7CShader14OnDrawElementsEPP12IMaterialVarP13IShaderShadowP17IShaderDynamicAPI23VertexCompressionType_tPP27CBasePerMaterialContextData
__ZN8FilmDust7CShader20OnInitShaderInstanceEPP12IMaterialVarP11IShaderInitPKc
__ZN8FilmDustL14s_ShaderParamsE
__ZN8FilmDustL16s_ShaderInstanceE
__ZN8Modulate7CShader14OnDrawElementsEPP12IMaterialVarP13IShaderShadowP17IShaderDynamicAPI23VertexCompressionType_tPP27CBasePerMaterialContextData
__ZN8Modulate7CShader20OnInitShaderInstanceEPP12IMaterialVarP11IShaderInitPKc
__ZN8ModulateL14s_ShaderParamsE
__ZN8ModulateL16s_ShaderInstanceE
__ZN8TreeLeaf7CShader14OnDrawElementsEPP12IMaterialVarP13IShaderShadowP17IShaderDynamicAPI23VertexCompressionType_tPP27CBasePerMaterialContextData
__ZN8TreeLeaf7CShader18OnInitShaderParamsEPP12IMaterialVarPKc
__ZN8TreeLeaf7CShader20OnInitShaderInstanceEPP12IMaterialVarP11IShaderInitPKc
__ZN8TreeLeafL10LEAFCENTERE
__ZN8TreeLeafL14s_ShaderParamsE
__ZN8TreeLeafL16s_ShaderInstanceE
__ZN8VortWarp7CShader14OnDrawElementsEPP12IMaterialVarP13IShaderShadowP17IShaderDynamicAPI23VertexCompressionType_tPP27CBasePerMaterialContextData
__ZN8VortWarp7CShader20OnInitShaderInstanceEPP12IMaterialVarP11IShaderInitPKc
__ZN8VortWarpL14s_ShaderParamsE
__ZN8VortWarpL16s_ShaderInstanceE
__ZN9Cable_DX912CShaderParamC1EPKc17ShaderParamType_tS2_S2_i
__ZN9Cable_DX97CShader14OnDrawElementsEPP12IMaterialVarP13IShaderShadowP17IShaderDynamicAPI23VertexCompressionType_tPP27CBasePerMaterialContextData
__ZN9Cable_DX97CShader20OnInitShaderInstanceEPP12IMaterialVarP11IShaderInitPKc
__ZN9Cable_DX9L14s_ShaderParamsE
__ZN9Cable_DX9L16s_ShaderInstanceE
__ZN9Cable_DX9L7BUMPMAPE
__ZN9Cable_DX9L8MAXLIGHTE
__ZN9Cable_DX9L8MINLIGHTE
__ZN9Cloud_dx912CShaderParamC1EPKc17ShaderParamType_tS2_S2_i
__ZN9Cloud_dx97CShader14OnDrawElementsEPP12IMaterialVarP13IShaderShadowP17IShaderDynamicAPI23VertexCompressionType_tPP27CBasePerMaterialContextData
__ZN9Cloud_dx97CShader20OnInitShaderInstanceEPP12IMaterialVarP11IShaderInitPKc
__ZN9Cloud_dx9L10CLOUDSCALEE
__ZN9Cloud_dx9L11BASETEXTUREE
__ZN9Cloud_dx9L14s_ShaderParamsE
__ZN9Cloud_dx9L16s_ShaderInstanceE
__ZN9Cloud_dx9L17CLOUDALPHATEXTUREE
__ZN9Cloud_dx9L23s_pShaderParamOverridesE
__ZN9Cloud_dx9L9MASKSCALEE
__ZN9ConVarRefC1EPKc
__ZN9Core_DX9012CShaderParamC1EPKc17ShaderParamType_tS2_S2_i
__ZN9Core_DX907CShader14OnDrawElementsEPP12IMaterialVarP13IShaderShadowP17IShaderDynamicAPI23VertexCompressionType_tPP27CBasePerMaterialContextData
__ZN9Core_DX907CShader18OnInitShaderParamsEPP12IMaterialVarPKc
__ZN9Core_DX907CShader20OnInitShaderInstanceEPP12IMaterialVarP11IShaderInitPKc
__ZN9Core_DX907CShader8DrawPassEPP12IMaterialVarP13IShaderShadowP17IShaderDynamicAPIi23VertexCompressionType_t
__ZN9Core_DX90L10ENVMAPTINTE
__ZN9Core_DX90L11ENVMAPFRAMEE
__ZN9Core_DX90L11REFRACTTINTE
__ZN9Core_DX90L12FLOWMAPFRAMEE
__ZN9Core_DX90L13BUMPTRANSFORME
__ZN9Core_DX90L13REFRACTAMOUNTE
__ZN9Core_DX90L14ENVMAPCONTRASTE
__ZN9Core_DX90L14s_ShaderParamsE
__ZN9Core_DX90L16CORECOLORTEXTUREE
__ZN9Core_DX90L16ENVMAPSATURATIONE
__ZN9Core_DX90L16s_ShaderInstanceE
__ZN9Core_DX90L17FLOWMAPSCROLLRATEE
__ZN9Core_DX90L21CORECOLORTEXTUREFRAMEE
__ZN9Core_DX90L21FLOWMAPTEXCOORDOFFSETE
__ZN9Core_DX90L23s_pShaderParamOverridesE
__ZN9Core_DX90L4TIMEE
__ZN9Core_DX90L5ALPHAE
__ZN9Core_DX90L5COLORE
__ZN9Core_DX90L6ENVMAPE
__ZN9Core_DX90L7FLOWMAPE
__ZN9Core_DX90L9BUMPFRAMEE
__ZN9Core_DX90L9NORMALMAPE
__ZN9FilmGrain7CShader14OnDrawElementsEPP12IMaterialVarP13IShaderShadowP17IShaderDynamicAPI23VertexCompressionType_tPP27CBasePerMaterialContextData
__ZN9FilmGrain7CShader20OnInitShaderInstanceEPP12IMaterialVarP11IShaderInitPKc
__ZN9FilmGrainL14s_ShaderParamsE
__ZN9FilmGrainL16s_ShaderInstanceE
__ZN9Occlusion7CShader14OnDrawElementsEPP12IMaterialVarP13IShaderShadowP17IShaderDynamicAPI23VertexCompressionType_tPP27CBasePerMaterialContextData
__ZN9Occlusion7CShader20OnInitShaderInstanceEPP12IMaterialVarP11IShaderInitPKc
__ZN9OcclusionL14s_ShaderParamsE
__ZN9OcclusionL16s_ShaderInstanceE
__ZN9Sample4x412CShaderParamC1EPKc17ShaderParamType_tS2_S2_i
__ZN9Sample4x47CShader14OnDrawElementsEPP12IMaterialVarP13IShaderShadowP17IShaderDynamicAPI23VertexCompressionType_tPP27CBasePerMaterialContextData
__ZN9Sample4x47CShader20OnInitShaderInstanceEPP12IMaterialVarP11IShaderInitPKc
__ZN9Sample4x4L11BASETEXTUREE
__ZN9Sample4x4L14s_ShaderParamsE
__ZN9Sample4x4L16s_ShaderInstanceE
__ZN9Sample4x4L9PIXSHADERE
__ZN9Teeth_DX912CShaderParamC1EPKc17ShaderParamType_tS2_S2_i
__ZN9Teeth_DX97CShader14DrawFlashlightEPP12IMaterialVarP17IShaderDynamicAPIP13IShaderShadow23VertexCompressionType_t
__ZN9Teeth_DX97CShader14OnDrawElementsEPP12IMaterialVarP13IShaderShadowP17IShaderDynamicAPI23VertexCompressionType_tPP27CBasePerMaterialContextData
__ZN9Teeth_DX97CShader18OnInitShaderParamsEPP12IMaterialVarPKc
__ZN9Teeth_DX97CShader20OnInitShaderInstanceEPP12IMaterialVarP11IShaderInitPKc
__ZN9Teeth_DX97CShader21DrawUsingVertexShaderEPP12IMaterialVarP17IShaderDynamicAPIP13IShaderShadow23VertexCompressionType_t
__ZN9Teeth_DX9L11ILLUMFACTORE
__ZN9Teeth_DX9L12ENTITYORIGINE
__ZN9Teeth_DX9L13PHONGEXPONENTE
__ZN9Teeth_DX9L14s_ShaderParamsE
__ZN9Teeth_DX9L16s_ShaderInstanceE
__ZN9Teeth_DX9L5INTROE
__ZN9Teeth_DX9L7BUMPMAPE
__ZN9Teeth_DX9L7FORWARDE
__ZN9Teeth_DX9L9WARPPARAME
__ZN9Wireframe7CShader14OnDrawElementsEPP12IMaterialVarP13IShaderShadowP17IShaderDynamicAPI23VertexCompressionType_tPP27CBasePerMaterialContextData
__ZN9Wireframe7CShader20OnInitShaderInstanceEPP12IMaterialVarP11IShaderInitPKc
__ZN9WireframeL14s_ShaderParamsE
__ZN9WireframeL16s_ShaderInstanceE
__ZNK10Aftershock7CShader12GetNumParamsEv
__ZNK10Aftershock7CShader12GetParamHelpEi
__ZNK10Aftershock7CShader12GetParamNameEi
__ZNK10Aftershock7CShader12GetParamTypeEi
__ZNK10Aftershock7CShader13GetParamFlagsEi
__ZNK10Aftershock7CShader15GetParamDefaultEi
__ZNK10Aftershock7CShader17GetFallbackShaderEPP12IMaterialVar
__ZNK10Aftershock7CShader7GetNameEv
__ZNK10Aftershock7CShader8GetFlagsEv
__ZNK10CShaderDLL11ShaderCountEv
__ZNK10Cloak_DX907CShader12GetNumParamsEv
__ZNK10Cloak_DX907CShader12GetParamHelpEi
__ZNK10Cloak_DX907CShader12GetParamNameEi
__ZNK10Cloak_DX907CShader12GetParamTypeEi
__ZNK10Cloak_DX907CShader13GetParamFlagsEi
__ZNK10Cloak_DX907CShader13IsTranslucentEPP12IMaterialVar
__ZNK10Cloak_DX907CShader15GetParamDefaultEi
__ZNK10Cloak_DX907CShader17GetFallbackShaderEPP12IMaterialVar
__ZNK10Cloak_DX907CShader33NeedsPowerOfTwoFrameBufferTextureEPP12IMaterialVarb
__ZNK10Cloak_DX907CShader7GetNameEv
__ZNK10Cloak_DX907CShader8GetFlagsEv
__ZNK10Compositor7CShader12GetNumParamsEv
__ZNK10Compositor7CShader12GetParamHelpEi
__ZNK10Compositor7CShader12GetParamNameEi
__ZNK10Compositor7CShader12GetParamTypeEi
__ZNK10Compositor7CShader13GetParamFlagsEi
__ZNK10Compositor7CShader15GetParamDefaultEi
__ZNK10Compositor7CShader17GetFallbackShaderEPP12IMaterialVar
__ZNK10Compositor7CShader7GetNameEv
__ZNK10Compositor7CShader8GetFlagsEv
__ZNK10DepthWrite7CShader12GetNumParamsEv
__ZNK10DepthWrite7CShader12GetParamHelpEi
__ZNK10DepthWrite7CShader12GetParamNameEi
__ZNK10DepthWrite7CShader12GetParamTypeEi
__ZNK10DepthWrite7CShader13GetParamFlagsEi
__ZNK10DepthWrite7CShader15GetParamDefaultEi
__ZNK10DepthWrite7CShader17GetFallbackShaderEPP12IMaterialVar
__ZNK10DepthWrite7CShader7GetNameEv
__ZNK10DepthWrite7CShader8GetFlagsEv
__ZNK10Downsample7CShader12GetNumParamsEv
__ZNK10Downsample7CShader12GetParamHelpEi
__ZNK10Downsample7CShader12GetParamNameEi
__ZNK10Downsample7CShader12GetParamTypeEi
__ZNK10Downsample7CShader13GetParamFlagsEi
__ZNK10Downsample7CShader15GetParamDefaultEi
__ZNK10Downsample7CShader17GetFallbackShaderEPP12IMaterialVar
__ZNK10Downsample7CShader7GetNameEv
__ZNK10Downsample7CShader8GetFlagsEv
__ZNK10EyeRefract7CShader12GetNumParamsEv
__ZNK10EyeRefract7CShader12GetParamHelpEi
__ZNK10EyeRefract7CShader12GetParamNameEi
__ZNK10EyeRefract7CShader12GetParamTypeEi
__ZNK10EyeRefract7CShader13GetParamFlagsEi
__ZNK10EyeRefract7CShader15GetParamDefaultEi
__ZNK10EyeRefract7CShader17GetFallbackShaderEPP12IMaterialVar
__ZNK10EyeRefract7CShader7GetNameEv
__ZNK10EyeRefract7CShader8GetFlagsEv
__ZNK10MotionBlur7CShader12GetNumParamsEv
__ZNK10MotionBlur7CShader12GetParamHelpEi
__ZNK10MotionBlur7CShader12GetParamNameEi
__ZNK10MotionBlur7CShader12GetParamTypeEi
__ZNK10MotionBlur7CShader13GetParamFlagsEi
__ZNK10MotionBlur7CShader15GetParamDefaultEi
__ZNK10MotionBlur7CShader17GetFallbackShaderEPP12IMaterialVar
__ZNK10MotionBlur7CShader7GetNameEv
__ZNK10MotionBlur7CShader8GetFlagsEv
__ZNK10Sprite_DX97CShader12GetNumParamsEv
__ZNK10Sprite_DX97CShader12GetParamHelpEi
__ZNK10Sprite_DX97CShader12GetParamNameEi
__ZNK10Sprite_DX97CShader12GetParamTypeEi
__ZNK10Sprite_DX97CShader13GetParamFlagsEi
__ZNK10Sprite_DX97CShader15GetParamDefaultEi
__ZNK10Sprite_DX97CShader17GetFallbackShaderEPP12IMaterialVar
__ZNK10Sprite_DX97CShader7GetNameEv
__ZNK10Sprite_DX97CShader8GetFlagsEv
__ZNK10Spritecard7CShader12GetNumParamsEv
__ZNK10Spritecard7CShader12GetParamHelpEi
__ZNK10Spritecard7CShader12GetParamNameEi
__ZNK10Spritecard7CShader12GetParamTypeEi
__ZNK10Spritecard7CShader13GetParamFlagsEi
__ZNK10Spritecard7CShader15GetParamDefaultEi
__ZNK10Spritecard7CShader17GetFallbackShaderEPP12IMaterialVar
__ZNK10Spritecard7CShader7GetNameEv
__ZNK10Spritecard7CShader8GetFlagsEv
__ZNK10Water_DX9013Water_DX9_HDR7CShader17GetFallbackShaderEPP12IMaterialVar
__ZNK10Water_DX9013Water_DX9_HDR7CShader7GetNameEv
__ZNK10Water_DX9013Water_DX9_HDR7CShader8GetFlagsEv
__ZNK10Water_DX907CShader12GetNumParamsEv
__ZNK10Water_DX907CShader12GetParamHelpEi
__ZNK10Water_DX907CShader12GetParamNameEi
__ZNK10Water_DX907CShader12GetParamTypeEi
__ZNK10Water_DX907CShader13GetParamFlagsEi
__ZNK10Water_DX907CShader15GetParamDefaultEi
__ZNK10Water_DX907CShader17GetFallbackShaderEPP12IMaterialVar
__ZNK10Water_DX907CShader7GetNameEv
__ZNK10Water_DX907CShader8GetFlagsEv
__ZNK10WriteZ_DX97CShader12GetNumParamsEv
__ZNK10WriteZ_DX97CShader12GetParamHelpEi
__ZNK10WriteZ_DX97CShader12GetParamNameEi
__ZNK10WriteZ_DX97CShader12GetParamTypeEi
__ZNK10WriteZ_DX97CShader13GetParamFlagsEi
__ZNK10WriteZ_DX97CShader15GetParamDefaultEi
__ZNK10WriteZ_DX97CShader17GetFallbackShaderEPP12IMaterialVar
__ZNK10WriteZ_DX97CShader7GetNameEv
__ZNK10WriteZ_DX97CShader8GetFlagsEv
__ZNK11BlurFilterX7CShader12GetNumParamsEv
__ZNK11BlurFilterX7CShader12GetParamHelpEi
__ZNK11BlurFilterX7CShader12GetParamNameEi
__ZNK11BlurFilterX7CShader12GetParamTypeEi
__ZNK11BlurFilterX7CShader13GetParamFlagsEi
__ZNK11BlurFilterX7CShader15GetParamDefaultEi
__ZNK11BlurFilterX7CShader17GetFallbackShaderEPP12IMaterialVar
__ZNK11BlurFilterX7CShader7GetNameEv
__ZNK11BlurFilterX7CShader8GetFlagsEv
__ZNK11BlurFilterY7CShader12GetNumParamsEv
__ZNK11BlurFilterY7CShader12GetParamHelpEi
__ZNK11BlurFilterY7CShader12GetParamNameEi
__ZNK11BlurFilterY7CShader12GetParamTypeEi
__ZNK11BlurFilterY7CShader13GetParamFlagsEi
__ZNK11BlurFilterY7CShader15GetParamDefaultEi
__ZNK11BlurFilterY7CShader17GetFallbackShaderEPP12IMaterialVar
__ZNK11BlurFilterY7CShader7GetNameEv
__ZNK11BlurFilterY7CShader8GetFlagsEv
__ZNK11CBaseShader11UsingEditorEPP12IMaterialVar
__ZNK11CBaseShader12GetNumParamsEv
__ZNK11CBaseShader12GetParamHelpEi
__ZNK11CBaseShader12GetParamNameEi
__ZNK11CBaseShader12GetParamTypeEi
__ZNK11CBaseShader13GetParamFlagsEi
__ZNK11CBaseShader13IsTranslucentEPP12IMaterialVar
__ZNK11CBaseShader15GetParamDefaultEi
__ZNK11CBaseShader15UsingFlashlightEPP12IMaterialVar
__ZNK11CBaseShader17GetFallbackShaderEPP12IMaterialVar
__ZNK11CBaseShader23GetSoftwareVertexShaderEv
__ZNK11CBaseShader27NeedsFullFrameBufferTextureEPP12IMaterialVarb
__ZNK11CBaseShader33NeedsPowerOfTwoFrameBufferTextureEPP12IMaterialVarb
__ZNK11Engine_Post7CShader12GetNumParamsEv
__ZNK11Engine_Post7CShader12GetParamHelpEi
__ZNK11Engine_Post7CShader12GetParamNameEi
__ZNK11Engine_Post7CShader12GetParamTypeEi
__ZNK11Engine_Post7CShader13GetParamFlagsEi
__ZNK11Engine_Post7CShader15GetParamDefaultEi
__ZNK11Engine_Post7CShader17GetFallbackShaderEPP12IMaterialVar
__ZNK11Engine_Post7CShader7GetNameEv
__ZNK11Engine_Post7CShader8GetFlagsEv
__ZNK11Portal_DX907CShader12GetNumParamsEv
__ZNK11Portal_DX907CShader12GetParamHelpEi
__ZNK11Portal_DX907CShader12GetParamNameEi
__ZNK11Portal_DX907CShader12GetParamTypeEi
__ZNK11Portal_DX907CShader13GetParamFlagsEi
__ZNK11Portal_DX907CShader15GetParamDefaultEi
__ZNK11Portal_DX907CShader17GetFallbackShaderEPP12IMaterialVar
__ZNK11Portal_DX907CShader7GetNameEv
__ZNK11Portal_DX907CShader8GetFlagsEv
__ZNK11ShadowBuild7CShader12GetNumParamsEv
__ZNK11ShadowBuild7CShader12GetParamHelpEi
__ZNK11ShadowBuild7CShader12GetParamNameEi
__ZNK11ShadowBuild7CShader12GetParamTypeEi
__ZNK11ShadowBuild7CShader13GetParamFlagsEi
__ZNK11ShadowBuild7CShader15GetParamDefaultEi
__ZNK11ShadowBuild7CShader17GetFallbackShaderEPP12IMaterialVar
__ZNK11ShadowBuild7CShader7GetNameEv
__ZNK11ShadowBuild7CShader8GetFlagsEv
__ZNK11ShadowModel7CShader12GetNumParamsEv
__ZNK11ShadowModel7CShader12GetParamHelpEi
__ZNK11ShadowModel7CShader12GetParamNameEi
__ZNK11ShadowModel7CShader12GetParamTypeEi
__ZNK11ShadowModel7CShader13GetParamFlagsEi
__ZNK11ShadowModel7CShader15GetParamDefaultEi
__ZNK11ShadowModel7CShader17GetFallbackShaderEPP12IMaterialVar
__ZNK11ShadowModel7CShader7GetNameEv
__ZNK11ShadowModel7CShader8GetFlagsEv
__ZNK11Sky_HDR_DX97CShader12GetNumParamsEv
__ZNK11Sky_HDR_DX97CShader12GetParamHelpEi
__ZNK11Sky_HDR_DX97CShader12GetParamNameEi
__ZNK11Sky_HDR_DX97CShader12GetParamTypeEi
__ZNK11Sky_HDR_DX97CShader13GetParamFlagsEi
__ZNK11Sky_HDR_DX97CShader15GetParamDefaultEi
__ZNK11Sky_HDR_DX97CShader17GetFallbackShaderEPP12IMaterialVar
__ZNK11Sky_HDR_DX97CShader7GetNameEv
__ZNK11Sky_HDR_DX97CShader8GetFlagsEv
__ZNK11pyro_vision7CShader12GetNumParamsEv
__ZNK11pyro_vision7CShader12GetParamHelpEi
__ZNK11pyro_vision7CShader12GetParamNameEi
__ZNK11pyro_vision7CShader12GetParamTypeEi
__ZNK11pyro_vision7CShader13GetParamFlagsEi
__ZNK11pyro_vision7CShader15GetParamDefaultEi
__ZNK11pyro_vision7CShader17GetFallbackShaderEPP12IMaterialVar
__ZNK11pyro_vision7CShader7GetNameEv
__ZNK11pyro_vision7CShader8GetFlagsEv
__ZNK12CEmptyConVar7GetNameEv
__ZNK12CEmptyConVar9IsFlagSetEi
__ZNK12EyeGlint_dx97CShader12GetNumParamsEv
__ZNK12EyeGlint_dx97CShader12GetParamHelpEi
__ZNK12EyeGlint_dx97CShader12GetParamNameEi
__ZNK12EyeGlint_dx97CShader12GetParamTypeEi
__ZNK12EyeGlint_dx97CShader13GetParamFlagsEi
__ZNK12EyeGlint_dx97CShader15GetParamDefaultEi
__ZNK12EyeGlint_dx97CShader17GetFallbackShaderEPP12IMaterialVar
__ZNK12EyeGlint_dx97CShader7GetNameEv
__ZNK12EyeGlint_dx97CShader8GetFlagsEv
__ZNK12FilmDust_dx97CShader12GetNumParamsEv
__ZNK12FilmDust_dx97CShader12GetParamHelpEi
__ZNK12FilmDust_dx97CShader12GetParamNameEi
__ZNK12FilmDust_dx97CShader12GetParamTypeEi
__ZNK12FilmDust_dx97CShader13GetParamFlagsEi
__ZNK12FilmDust_dx97CShader15GetParamDefaultEi
__ZNK12FilmDust_dx97CShader17GetFallbackShaderEPP12IMaterialVar
__ZNK12FilmDust_dx97CShader7GetNameEv
__ZNK12FilmDust_dx97CShader8GetFlagsEv
__ZNK12Modulate_DX97CShader12GetNumParamsEv
__ZNK12Modulate_DX97CShader12GetParamHelpEi
__ZNK12Modulate_DX97CShader12GetParamNameEi
__ZNK12Modulate_DX97CShader12GetParamTypeEi
__ZNK12Modulate_DX97CShader13GetParamFlagsEi
__ZNK12Modulate_DX97CShader13IsTranslucentEPP12IMaterialVar
__ZNK12Modulate_DX97CShader15GetParamDefaultEi
__ZNK12Modulate_DX97CShader17GetFallbackShaderEPP12IMaterialVar
__ZNK12Modulate_DX97CShader33NeedsPowerOfTwoFrameBufferTextureEPP12IMaterialVarb
__ZNK12Modulate_DX97CShader7GetNameEv
__ZNK12Modulate_DX97CShader8GetFlagsEv
__ZNK12Refract_DX907CShader12GetNumParamsEv
__ZNK12Refract_DX907CShader12GetParamHelpEi
__ZNK12Refract_DX907CShader12GetParamNameEi
__ZNK12Refract_DX907CShader12GetParamTypeEi
__ZNK12Refract_DX907CShader13GetParamFlagsEi
__ZNK12Refract_DX907CShader15GetParamDefaultEi
__ZNK12Refract_DX907CShader17GetFallbackShaderEPP12IMaterialVar
__ZNK12Refract_DX907CShader7GetNameEv
__ZNK12Refract_DX907CShader8GetFlagsEv
__ZNK12UnlitGeneric7CShader12GetNumParamsEv
__ZNK12UnlitGeneric7CShader12GetParamHelpEi
__ZNK12UnlitGeneric7CShader12GetParamNameEi
__ZNK12UnlitGeneric7CShader12GetParamTypeEi
__ZNK12UnlitGeneric7CShader13GetParamFlagsEi
__ZNK12UnlitGeneric7CShader15GetParamDefaultEi
__ZNK12UnlitGeneric7CShader17GetFallbackShaderEPP12IMaterialVar
__ZNK12UnlitGeneric7CShader7GetNameEv
__ZNK12UnlitGeneric7CShader8GetFlagsEv
__ZNK12VolumeClouds7CShader12GetNumParamsEv
__ZNK12VolumeClouds7CShader12GetParamHelpEi
__ZNK12VolumeClouds7CShader12GetParamNameEi
__ZNK12VolumeClouds7CShader12GetParamTypeEi
__ZNK12VolumeClouds7CShader13GetParamFlagsEi
__ZNK12VolumeClouds7CShader15GetParamDefaultEi
__ZNK12VolumeClouds7CShader17GetFallbackShaderEPP12IMaterialVar
__ZNK12VolumeClouds7CShader7GetNameEv
__ZNK12VolumeClouds7CShader8GetFlagsEv
__ZNK12VortWarp_DX97CShader12GetNumParamsEv
__ZNK12VortWarp_DX97CShader12GetParamHelpEi
__ZNK12VortWarp_DX97CShader12GetParamNameEi
__ZNK12VortWarp_DX97CShader12GetParamTypeEi
__ZNK12VortWarp_DX97CShader13GetParamFlagsEi
__ZNK12VortWarp_DX97CShader15GetParamDefaultEi
__ZNK12VortWarp_DX97CShader17GetFallbackShaderEPP12IMaterialVar
__ZNK12VortWarp_DX97CShader7GetNameEv
__ZNK12VortWarp_DX97CShader8GetFlagsEv
__ZNK12WriteStencil7CShader12GetNumParamsEv
__ZNK12WriteStencil7CShader12GetParamHelpEi
__ZNK12WriteStencil7CShader12GetParamNameEi
__ZNK12WriteStencil7CShader12GetParamTypeEi
__ZNK12WriteStencil7CShader13GetParamFlagsEi
__ZNK12WriteStencil7CShader15GetParamDefaultEi
__ZNK12WriteStencil7CShader17GetFallbackShaderEPP12IMaterialVar
__ZNK12WriteStencil7CShader7GetNameEv
__ZNK12WriteStencil7CShader8GetFlagsEv
__ZNK12floatcombine7CShader12GetNumParamsEv
__ZNK12floatcombine7CShader12GetParamHelpEi
__ZNK12floatcombine7CShader12GetParamNameEi
__ZNK12floatcombine7CShader12GetParamTypeEi
__ZNK12floatcombine7CShader13GetParamFlagsEi
__ZNK12floatcombine7CShader15GetParamDefaultEi
__ZNK12floatcombine7CShader17GetFallbackShaderEPP12IMaterialVar
__ZNK12floatcombine7CShader7GetNameEv
__ZNK12floatcombine7CShader8GetFlagsEv
__ZNK13DecalModulate7CShader12GetNumParamsEv
__ZNK13DecalModulate7CShader12GetParamHelpEi
__ZNK13DecalModulate7CShader12GetParamNameEi
__ZNK13DecalModulate7CShader12GetParamTypeEi
__ZNK13DecalModulate7CShader13GetParamFlagsEi
__ZNK13DecalModulate7CShader15GetParamDefaultEi
__ZNK13DecalModulate7CShader17GetFallbackShaderEPP12IMaterialVar
__ZNK13DecalModulate7CShader7GetNameEv
__ZNK13DecalModulate7CShader8GetFlagsEv
__ZNK13FilmGrain_dx97CShader12GetNumParamsEv
__ZNK13FilmGrain_dx97CShader12GetParamHelpEi
__ZNK13FilmGrain_dx97CShader12GetParamNameEi
__ZNK13FilmGrain_dx97CShader12GetParamTypeEi
__ZNK13FilmGrain_dx97CShader13GetParamFlagsEi
__ZNK13FilmGrain_dx97CShader15GetParamDefaultEi
__ZNK13FilmGrain_dx97CShader17GetFallbackShaderEPP12IMaterialVar
__ZNK13FilmGrain_dx97CShader7GetNameEv
__ZNK13FilmGrain_dx97CShader8GetFlagsEv
__ZNK13MonitorScreen7CShader12GetNumParamsEv
__ZNK13MonitorScreen7CShader12GetParamHelpEi
__ZNK13MonitorScreen7CShader12GetParamNameEi
__ZNK13MonitorScreen7CShader12GetParamTypeEi
__ZNK13MonitorScreen7CShader13GetParamFlagsEi
__ZNK13MonitorScreen7CShader15GetParamDefaultEi
__ZNK13MonitorScreen7CShader17GetFallbackShaderEPP12IMaterialVar
__ZNK13MonitorScreen7CShader7GetNameEv
__ZNK13MonitorScreen7CShader8GetFlagsEv
__ZNK13Occlusion_DX97CShader12GetNumParamsEv
__ZNK13Occlusion_DX97CShader12GetParamHelpEi
__ZNK13Occlusion_DX97CShader12GetParamNameEi
__ZNK13Occlusion_DX97CShader12GetParamTypeEi
__ZNK13Occlusion_DX97CShader13GetParamFlagsEi
__ZNK13Occlusion_DX97CShader15GetParamDefaultEi
__ZNK13Occlusion_DX97CShader17GetFallbackShaderEPP12IMaterialVar
__ZNK13Occlusion_DX97CShader7GetNameEv
__ZNK13Occlusion_DX97CShader8GetFlagsEv
__ZNK13PortalRefract7CShader12GetNumParamsEv
__ZNK13PortalRefract7CShader12GetParamHelpEi
__ZNK13PortalRefract7CShader12GetParamNameEi
__ZNK13PortalRefract7CShader12GetParamTypeEi
__ZNK13PortalRefract7CShader13GetParamFlagsEi
__ZNK13PortalRefract7CShader15GetParamDefaultEi
__ZNK13PortalRefract7CShader17GetFallbackShaderEPP12IMaterialVar
__ZNK13PortalRefract7CShader7GetNameEv
__ZNK13PortalRefract7CShader8GetFlagsEv
__ZNK13Wireframe_DX97CShader12GetNumParamsEv
__ZNK13Wireframe_DX97CShader12GetParamHelpEi
__ZNK13Wireframe_DX97CShader12GetParamNameEi
__ZNK13Wireframe_DX97CShader12GetParamTypeEi
__ZNK13Wireframe_DX97CShader13GetParamFlagsEi
__ZNK13Wireframe_DX97CShader15GetParamDefaultEi
__ZNK13Wireframe_DX97CShader17GetFallbackShaderEPP12IMaterialVar
__ZNK13Wireframe_DX97CShader7GetNameEv
__ZNK13Wireframe_DX97CShader8GetFlagsEv
__ZNK13floattoscreen7CShader12GetNumParamsEv
__ZNK13floattoscreen7CShader12GetParamHelpEi
__ZNK13floattoscreen7CShader12GetParamNameEi
__ZNK13floattoscreen7CShader12GetParamTypeEi
__ZNK13floattoscreen7CShader13GetParamFlagsEi
__ZNK13floattoscreen7CShader15GetParamDefaultEi
__ZNK13floattoscreen7CShader17GetFallbackShaderEPP12IMaterialVar
__ZNK13floattoscreen7CShader7GetNameEv
__ZNK13floattoscreen7CShader8GetFlagsEv
__ZNK14Aftershock_dx97CShader12GetNumParamsEv
__ZNK14Aftershock_dx97CShader12GetParamHelpEi
__ZNK14Aftershock_dx97CShader12GetParamNameEi
__ZNK14Aftershock_dx97CShader12GetParamTypeEi
__ZNK14Aftershock_dx97CShader13GetParamFlagsEi
__ZNK14Aftershock_dx97CShader15GetParamDefaultEi
__ZNK14Aftershock_dx97CShader17GetFallbackShaderEPP12IMaterialVar
__ZNK14Aftershock_dx97CShader7GetNameEv
__ZNK14Aftershock_dx97CShader8GetFlagsEv
__ZNK14ConCommandBase16GetDLLIdentifierEv
__ZNK14EyeRefract_dx97CShader12GetNumParamsEv
__ZNK14EyeRefract_dx97CShader12GetParamHelpEi
__ZNK14EyeRefract_dx97CShader12GetParamNameEi
__ZNK14EyeRefract_dx97CShader12GetParamTypeEi
__ZNK14EyeRefract_dx97CShader13GetParamFlagsEi
__ZNK14EyeRefract_dx97CShader13IsTranslucentEPP12IMaterialVar
__ZNK14EyeRefract_dx97CShader15GetParamDefaultEi
__ZNK14EyeRefract_dx97CShader17GetFallbackShaderEPP12IMaterialVar
__ZNK14EyeRefract_dx97CShader33NeedsPowerOfTwoFrameBufferTextureEPP12IMaterialVarb
__ZNK14EyeRefract_dx97CShader7GetNameEv
__ZNK14EyeRefract_dx97CShader8GetFlagsEv
__ZNK14HDRSelectRange7CShader12GetNumParamsEv
__ZNK14HDRSelectRange7CShader12GetParamHelpEi
__ZNK14HDRSelectRange7CShader12GetParamNameEi
__ZNK14HDRSelectRange7CShader12GetParamTypeEi
__ZNK14HDRSelectRange7CShader13GetParamFlagsEi
__ZNK14HDRSelectRange7CShader15GetParamDefaultEi
__ZNK14HDRSelectRange7CShader17GetFallbackShaderEPP12IMaterialVar
__ZNK14HDRSelectRange7CShader7GetNameEv
__ZNK14HDRSelectRange7CShader8GetFlagsEv
__ZNK14MotionBlur_dx97CShader12GetNumParamsEv
__ZNK14MotionBlur_dx97CShader12GetParamHelpEi
__ZNK14MotionBlur_dx97CShader12GetParamNameEi
__ZNK14MotionBlur_dx97CShader12GetParamTypeEi
__ZNK14MotionBlur_dx97CShader13GetParamFlagsEi
__ZNK14MotionBlur_dx97CShader15GetParamDefaultEi
__ZNK14MotionBlur_dx97CShader17GetFallbackShaderEPP12IMaterialVar
__ZNK14MotionBlur_dx97CShader7GetNameEv
__ZNK14MotionBlur_dx97CShader8GetFlagsEv
__ZNK14ParticleSphere7CShader12GetNumParamsEv
__ZNK14ParticleSphere7CShader12GetParamHelpEi
__ZNK14ParticleSphere7CShader12GetParamNameEi
__ZNK14ParticleSphere7CShader12GetParamTypeEi
__ZNK14ParticleSphere7CShader13GetParamFlagsEi
__ZNK14ParticleSphere7CShader15GetParamDefaultEi
__ZNK14ParticleSphere7CShader17GetFallbackShaderEPP12IMaterialVar
__ZNK14ParticleSphere7CShader7GetNameEv
__ZNK14ParticleSphere7CShader8GetFlagsEv
__ZNK14ShatteredGlass7CShader12GetNumParamsEv
__ZNK14ShatteredGlass7CShader12GetParamHelpEi
__ZNK14ShatteredGlass7CShader12GetParamNameEi
__ZNK14ShatteredGlass7CShader12GetParamTypeEi
__ZNK14ShatteredGlass7CShader13GetParamFlagsEi
__ZNK14ShatteredGlass7CShader15GetParamDefaultEi
__ZNK14ShatteredGlass7CShader17GetFallbackShaderEPP12IMaterialVar
__ZNK14ShatteredGlass7CShader7GetNameEv
__ZNK14ShatteredGlass7CShader8GetFlagsEv
__ZNK14WindowImposter7CShader12GetNumParamsEv
__ZNK14WindowImposter7CShader12GetParamHelpEi
__ZNK14WindowImposter7CShader12GetParamNameEi
__ZNK14WindowImposter7CShader12GetParamTypeEi
__ZNK14WindowImposter7CShader13GetParamFlagsEi
__ZNK14WindowImposter7CShader15GetParamDefaultEi
__ZNK14WindowImposter7CShader17GetFallbackShaderEPP12IMaterialVar
__ZNK14WindowImposter7CShader7GetNameEv
__ZNK14WindowImposter7CShader8GetFlagsEv
__ZNK14vr_distort_hud7CShader12GetNumParamsEv
__ZNK14vr_distort_hud7CShader12GetParamHelpEi
__ZNK14vr_distort_hud7CShader12GetParamNameEi
__ZNK14vr_distort_hud7CShader12GetParamTypeEi
__ZNK14vr_distort_hud7CShader13GetParamFlagsEi
__ZNK14vr_distort_hud7CShader15GetParamDefaultEi
__ZNK14vr_distort_hud7CShader17GetFallbackShaderEPP12IMaterialVar
__ZNK14vr_distort_hud7CShader7GetNameEv
__ZNK14vr_distort_hud7CShader8GetFlagsEv
__ZNK15ColorCorrection7CShader12GetNumParamsEv
__ZNK15ColorCorrection7CShader12GetParamHelpEi
__ZNK15ColorCorrection7CShader12GetParamNameEi
__ZNK15ColorCorrection7CShader12GetParamTypeEi
__ZNK15ColorCorrection7CShader13GetParamFlagsEi
__ZNK15ColorCorrection7CShader15GetParamDefaultEi
__ZNK15ColorCorrection7CShader17GetFallbackShaderEPP12IMaterialVar
__ZNK15ColorCorrection7CShader7GetNameEv
__ZNK15ColorCorrection7CShader8GetFlagsEv
__ZNK15DebugMRTTexture7CShader12GetNumParamsEv
__ZNK15DebugMRTTexture7CShader12GetParamHelpEi
__ZNK15DebugMRTTexture7CShader12GetParamNameEi
__ZNK15DebugMRTTexture7CShader12GetParamTypeEi
__ZNK15DebugMRTTexture7CShader13GetParamFlagsEi
__ZNK15DebugMRTTexture7CShader15GetParamDefaultEi
__ZNK15DebugMRTTexture7CShader17GetFallbackShaderEPP12IMaterialVar
__ZNK15DebugMRTTexture7CShader7GetNameEv
__ZNK15DebugMRTTexture7CShader8GetFlagsEv
__ZNK15Engine_Post_dx97CShader12GetNumParamsEv
__ZNK15Engine_Post_dx97CShader12GetParamHelpEi
__ZNK15Engine_Post_dx97CShader12GetParamNameEi
__ZNK15Engine_Post_dx97CShader12GetParamTypeEi
__ZNK15Engine_Post_dx97CShader13GetParamFlagsEi
__ZNK15Engine_Post_dx97CShader15GetParamDefaultEi
__ZNK15Engine_Post_dx97CShader17GetFallbackShaderEPP12IMaterialVar
__ZNK15Engine_Post_dx97CShader7GetNameEv
__ZNK15Engine_Post_dx97CShader8GetFlagsEv
__ZNK15Sample4x4_Blend7CShader12GetNumParamsEv
__ZNK15Sample4x4_Blend7CShader12GetParamHelpEi
__ZNK15Sample4x4_Blend7CShader12GetParamNameEi
__ZNK15Sample4x4_Blend7CShader12GetParamTypeEi
__ZNK15Sample4x4_Blend7CShader13GetParamFlagsEi
__ZNK15Sample4x4_Blend7CShader15GetParamDefaultEi
__ZNK15Sample4x4_Blend7CShader17GetFallbackShaderEPP12IMaterialVar
__ZNK15Sample4x4_Blend7CShader7GetNameEv
__ZNK15Sample4x4_Blend7CShader8GetFlagsEv
__ZNK15ShadowBuild_DX97CShader12GetNumParamsEv
__ZNK15ShadowBuild_DX97CShader12GetParamHelpEi
__ZNK15ShadowBuild_DX97CShader12GetParamNameEi
__ZNK15ShadowBuild_DX97CShader12GetParamTypeEi
__ZNK15ShadowBuild_DX97CShader13GetParamFlagsEi
__ZNK15ShadowBuild_DX97CShader15GetParamDefaultEi
__ZNK15ShadowBuild_DX97CShader17GetFallbackShaderEPP12IMaterialVar
__ZNK15ShadowBuild_DX97CShader7GetNameEv
__ZNK15ShadowBuild_DX97CShader8GetFlagsEv
__ZNK15ShadowModel_DX97CShader12GetNumParamsEv
__ZNK15ShadowModel_DX97CShader12GetParamHelpEi
__ZNK15ShadowModel_DX97CShader12GetParamNameEi
__ZNK15ShadowModel_DX97CShader12GetParamTypeEi
__ZNK15ShadowModel_DX97CShader13GetParamFlagsEi
__ZNK15ShadowModel_DX97CShader15GetParamDefaultEi
__ZNK15ShadowModel_DX97CShader17GetFallbackShaderEPP12IMaterialVar
__ZNK15ShadowModel_DX97CShader7GetNameEv
__ZNK15ShadowModel_DX97CShader8GetFlagsEv
__ZNK15UnlitTwoTexture7CShader12GetNumParamsEv
__ZNK15UnlitTwoTexture7CShader12GetParamHelpEi
__ZNK15UnlitTwoTexture7CShader12GetParamNameEi
__ZNK15UnlitTwoTexture7CShader12GetParamTypeEi
__ZNK15UnlitTwoTexture7CShader13GetParamFlagsEi
__ZNK15UnlitTwoTexture7CShader15GetParamDefaultEi
__ZNK15UnlitTwoTexture7CShader17GetFallbackShaderEPP12IMaterialVar
__ZNK15UnlitTwoTexture7CShader7GetNameEv
__ZNK15UnlitTwoTexture7CShader8GetFlagsEv
__ZNK16DebugTextureView7CShader12GetNumParamsEv
__ZNK16DebugTextureView7CShader12GetParamHelpEi
__ZNK16DebugTextureView7CShader12GetParamNameEi
__ZNK16DebugTextureView7CShader12GetParamTypeEi
__ZNK16DebugTextureView7CShader13GetParamFlagsEi
__ZNK16DebugTextureView7CShader15GetParamDefaultEi
__ZNK16DebugTextureView7CShader17GetFallbackShaderEPP12IMaterialVar
__ZNK16DebugTextureView7CShader7GetNameEv
__ZNK16DebugTextureView7CShader8GetFlagsEv
__ZNK16Downsample_nohdr7CShader12GetNumParamsEv
__ZNK16Downsample_nohdr7CShader12GetParamHelpEi
__ZNK16Downsample_nohdr7CShader12GetParamNameEi
__ZNK16Downsample_nohdr7CShader12GetParamTypeEi
__ZNK16Downsample_nohdr7CShader13GetParamFlagsEi
__ZNK16Downsample_nohdr7CShader15GetParamDefaultEi
__ZNK16Downsample_nohdr7CShader17GetFallbackShaderEPP12IMaterialVar
__ZNK16Downsample_nohdr7CShader7GetNameEv
__ZNK16Downsample_nohdr7CShader8GetFlagsEv
__ZNK16VertexLitGeneric7CShader12GetNumParamsEv
__ZNK16VertexLitGeneric7CShader12GetParamHelpEi
__ZNK16VertexLitGeneric7CShader12GetParamNameEi
__ZNK16VertexLitGeneric7CShader12GetParamTypeEi
__ZNK16VertexLitGeneric7CShader13GetParamFlagsEi
__ZNK16VertexLitGeneric7CShader13IsTranslucentEPP12IMaterialVar
__ZNK16VertexLitGeneric7CShader15GetParamDefaultEi
__ZNK16VertexLitGeneric7CShader17GetFallbackShaderEPP12IMaterialVar
__ZNK16VertexLitGeneric7CShader33NeedsPowerOfTwoFrameBufferTextureEPP12IMaterialVarb
__ZNK16VertexLitGeneric7CShader7GetNameEv
__ZNK16VertexLitGeneric7CShader8GetFlagsEv
__ZNK16VolumeClouds_dx97CShader12GetNumParamsEv
__ZNK16VolumeClouds_dx97CShader12GetParamHelpEi
__ZNK16VolumeClouds_dx97CShader12GetParamNameEi
__ZNK16VolumeClouds_dx97CShader12GetParamTypeEi
__ZNK16VolumeClouds_dx97CShader13GetParamFlagsEi
__ZNK16VolumeClouds_dx97CShader15GetParamDefaultEi
__ZNK16VolumeClouds_dx97CShader17GetFallbackShaderEPP12IMaterialVar
__ZNK16VolumeClouds_dx97CShader7GetNameEv
__ZNK16VolumeClouds_dx97CShader8GetFlagsEv
__ZNK16WorldVertexAlpha7CShader12GetNumParamsEv
__ZNK16WorldVertexAlpha7CShader12GetParamHelpEi
__ZNK16WorldVertexAlpha7CShader12GetParamNameEi
__ZNK16WorldVertexAlpha7CShader12GetParamTypeEi
__ZNK16WorldVertexAlpha7CShader13GetParamFlagsEi
__ZNK16WorldVertexAlpha7CShader15GetParamDefaultEi
__ZNK16WorldVertexAlpha7CShader17GetFallbackShaderEPP12IMaterialVar
__ZNK16WorldVertexAlpha7CShader7GetNameEv
__ZNK16WorldVertexAlpha7CShader8GetFlagsEv
__ZNK16WriteStencil_DX97CShader12GetNumParamsEv
__ZNK16WriteStencil_DX97CShader12GetParamHelpEi
__ZNK16WriteStencil_DX97CShader12GetParamNameEi
__ZNK16WriteStencil_DX97CShader12GetParamTypeEi
__ZNK16WriteStencil_DX97CShader13GetParamFlagsEi
__ZNK16WriteStencil_DX97CShader15GetParamDefaultEi
__ZNK16WriteStencil_DX97CShader17GetFallbackShaderEPP12IMaterialVar
__ZNK16WriteStencil_DX97CShader7GetNameEv
__ZNK16WriteStencil_DX97CShader8GetFlagsEv
__ZNK16accumbuff4sample7CShader12GetNumParamsEv
__ZNK16accumbuff4sample7CShader12GetParamHelpEi
__ZNK16accumbuff4sample7CShader12GetParamNameEi
__ZNK16accumbuff4sample7CShader12GetParamTypeEi
__ZNK16accumbuff4sample7CShader13GetParamFlagsEi
__ZNK16accumbuff4sample7CShader15GetParamDefaultEi
__ZNK16accumbuff4sample7CShader17GetFallbackShaderEPP12IMaterialVar
__ZNK16accumbuff4sample7CShader7GetNameEv
__ZNK16accumbuff4sample7CShader8GetFlagsEv
__ZNK16accumbuff5sample7CShader12GetNumParamsEv
__ZNK16accumbuff5sample7CShader12GetParamHelpEi
__ZNK16accumbuff5sample7CShader12GetParamNameEi
__ZNK16accumbuff5sample7CShader12GetParamTypeEi
__ZNK16accumbuff5sample7CShader13GetParamFlagsEi
__ZNK16accumbuff5sample7CShader15GetParamDefaultEi
__ZNK16accumbuff5sample7CShader17GetFallbackShaderEPP12IMaterialVar
__ZNK16accumbuff5sample7CShader7GetNameEv
__ZNK16accumbuff5sample7CShader8GetFlagsEv
__ZNK16color_projection7CShader12GetNumParamsEv
__ZNK16color_projection7CShader12GetParamHelpEi
__ZNK16color_projection7CShader12GetParamNameEi
__ZNK16color_projection7CShader12GetParamTypeEi
__ZNK16color_projection7CShader13GetParamFlagsEi
__ZNK16color_projection7CShader15GetParamDefaultEi
__ZNK16color_projection7CShader17GetFallbackShaderEPP12IMaterialVar
__ZNK16color_projection7CShader7GetNameEv
__ZNK16color_projection7CShader8GetFlagsEv
__ZNK17DecalModulate_dx97CShader12GetNumParamsEv
__ZNK17DecalModulate_dx97CShader12GetParamHelpEi
__ZNK17DecalModulate_dx97CShader12GetParamNameEi
__ZNK17DecalModulate_dx97CShader12GetParamTypeEi
__ZNK17DecalModulate_dx97CShader13GetParamFlagsEi
__ZNK17DecalModulate_dx97CShader15GetParamDefaultEi
__ZNK17DecalModulate_dx97CShader17GetFallbackShaderEPP12IMaterialVar
__ZNK17DecalModulate_dx97CShader7GetNameEv
__ZNK17DecalModulate_dx97CShader8GetFlagsEv
__ZNK17HDRCombineTo16Bit7CShader12GetNumParamsEv
__ZNK17HDRCombineTo16Bit7CShader12GetParamHelpEi
__ZNK17HDRCombineTo16Bit7CShader12GetParamNameEi
__ZNK17HDRCombineTo16Bit7CShader12GetParamTypeEi
__ZNK17HDRCombineTo16Bit7CShader13GetParamFlagsEi
__ZNK17HDRCombineTo16Bit7CShader15GetParamDefaultEi
__ZNK17HDRCombineTo16Bit7CShader17GetFallbackShaderEPP12IMaterialVar
__ZNK17HDRCombineTo16Bit7CShader7GetNameEv
__ZNK17HDRCombineTo16Bit7CShader8GetFlagsEv
__ZNK17MonitorScreen_DX97CShader12GetNumParamsEv
__ZNK17MonitorScreen_DX97CShader12GetParamHelpEi
__ZNK17MonitorScreen_DX97CShader12GetParamNameEi
__ZNK17MonitorScreen_DX97CShader12GetParamTypeEi
__ZNK17MonitorScreen_DX97CShader13GetParamFlagsEi
__ZNK17MonitorScreen_DX97CShader15GetParamDefaultEi
__ZNK17MonitorScreen_DX97CShader17GetFallbackShaderEPP12IMaterialVar
__ZNK17MonitorScreen_DX97CShader7GetNameEv
__ZNK17MonitorScreen_DX97CShader8GetFlagsEv
__ZNK17PortalRefract_dx97CShader12GetNumParamsEv
__ZNK17PortalRefract_dx97CShader12GetParamHelpEi
__ZNK17PortalRefract_dx97CShader12GetParamNameEi
__ZNK17PortalRefract_dx97CShader12GetParamTypeEi
__ZNK17PortalRefract_dx97CShader13GetParamFlagsEi
__ZNK17PortalRefract_dx97CShader15GetParamDefaultEi
__ZNK17PortalRefract_dx97CShader17GetFallbackShaderEPP12IMaterialVar
__ZNK17PortalRefract_dx97CShader33NeedsPowerOfTwoFrameBufferTextureEPP12IMaterialVarb
__ZNK17PortalRefract_dx97CShader7GetNameEv
__ZNK17PortalRefract_dx97CShader8GetFlagsEv
__ZNK18LightmappedGeneric7CShader12GetNumParamsEv
__ZNK18LightmappedGeneric7CShader12GetParamHelpEi
__ZNK18LightmappedGeneric7CShader12GetParamNameEi
__ZNK18LightmappedGeneric7CShader12GetParamTypeEi
__ZNK18LightmappedGeneric7CShader13GetParamFlagsEi
__ZNK18LightmappedGeneric7CShader15GetParamDefaultEi
__ZNK18LightmappedGeneric7CShader17GetFallbackShaderEPP12IMaterialVar
__ZNK18LightmappedGeneric7CShader7GetNameEv
__ZNK18LightmappedGeneric7CShader8GetFlagsEv
__ZNK18ParticleSphere_DX97CShader12GetNumParamsEv
__ZNK18ParticleSphere_DX97CShader12GetParamHelpEi
__ZNK18ParticleSphere_DX97CShader12GetParamNameEi
__ZNK18ParticleSphere_DX97CShader12GetParamTypeEi
__ZNK18ParticleSphere_DX97CShader13GetParamFlagsEi
__ZNK18ParticleSphere_DX97CShader15GetParamDefaultEi
__ZNK18ParticleSphere_DX97CShader17GetFallbackShaderEPP12IMaterialVar
__ZNK18ParticleSphere_DX97CShader7GetNameEv
__ZNK18ParticleSphere_DX97CShader8GetFlagsEv
__ZNK18vr_distort_texture7CShader12GetNumParamsEv
__ZNK18vr_distort_texture7CShader12GetParamHelpEi
__ZNK18vr_distort_texture7CShader12GetParamNameEi
__ZNK18vr_distort_texture7CShader12GetParamTypeEi
__ZNK18vr_distort_texture7CShader13GetParamFlagsEi
__ZNK18vr_distort_texture7CShader15GetParamDefaultEi
__ZNK18vr_distort_texture7CShader17GetFallbackShaderEPP12IMaterialVar
__ZNK18vr_distort_texture7CShader7GetNameEv
__ZNK18vr_distort_texture7CShader8GetFlagsEv
__ZNK19PortalStaticOverlay7CShader12GetNumParamsEv
__ZNK19PortalStaticOverlay7CShader12GetParamHelpEi
__ZNK19PortalStaticOverlay7CShader12GetParamNameEi
__ZNK19PortalStaticOverlay7CShader12GetParamTypeEi
__ZNK19PortalStaticOverlay7CShader13GetParamFlagsEi
__ZNK19PortalStaticOverlay7CShader15GetParamDefaultEi
__ZNK19PortalStaticOverlay7CShader17GetFallbackShaderEPP12IMaterialVar
__ZNK19PortalStaticOverlay7CShader7GetNameEv
__ZNK19PortalStaticOverlay7CShader8GetFlagsEv
__ZNK19UnlitTwoTexture_DX97CShader12GetNumParamsEv
__ZNK19UnlitTwoTexture_DX97CShader12GetParamHelpEi
__ZNK19UnlitTwoTexture_DX97CShader12GetParamNameEi
__ZNK19UnlitTwoTexture_DX97CShader12GetParamTypeEi
__ZNK19UnlitTwoTexture_DX97CShader13GetParamFlagsEi
__ZNK19UnlitTwoTexture_DX97CShader13IsTranslucentEPP12IMaterialVar
__ZNK19UnlitTwoTexture_DX97CShader15GetParamDefaultEi
__ZNK19UnlitTwoTexture_DX97CShader17GetFallbackShaderEPP12IMaterialVar
__ZNK19UnlitTwoTexture_DX97CShader33NeedsPowerOfTwoFrameBufferTextureEPP12IMaterialVarb
__ZNK19UnlitTwoTexture_DX97CShader7GetNameEv
__ZNK19UnlitTwoTexture_DX97CShader8GetFlagsEv
__ZNK19WindowImposter_DX907CShader12GetNumParamsEv
__ZNK19WindowImposter_DX907CShader12GetParamHelpEi
__ZNK19WindowImposter_DX907CShader12GetParamNameEi
__ZNK19WindowImposter_DX907CShader12GetParamTypeEi
__ZNK19WindowImposter_DX907CShader13GetParamFlagsEi
__ZNK19WindowImposter_DX907CShader15GetParamDefaultEi
__ZNK19WindowImposter_DX907CShader17GetFallbackShaderEPP12IMaterialVar
__ZNK19WindowImposter_DX907CShader7GetNameEv
__ZNK19WindowImposter_DX907CShader8GetFlagsEv
__ZNK19hsl_filmgrain_pass17CShader12GetNumParamsEv
__ZNK19hsl_filmgrain_pass17CShader12GetParamHelpEi
__ZNK19hsl_filmgrain_pass17CShader12GetParamNameEi
__ZNK19hsl_filmgrain_pass17CShader12GetParamTypeEi
__ZNK19hsl_filmgrain_pass17CShader13GetParamFlagsEi
__ZNK19hsl_filmgrain_pass17CShader15GetParamDefaultEi
__ZNK19hsl_filmgrain_pass17CShader17GetFallbackShaderEPP12IMaterialVar
__ZNK19hsl_filmgrain_pass17CShader7GetNameEv
__ZNK19hsl_filmgrain_pass17CShader8GetFlagsEv
__ZNK19hsl_filmgrain_pass27CShader12GetNumParamsEv
__ZNK19hsl_filmgrain_pass27CShader12GetParamHelpEi
__ZNK19hsl_filmgrain_pass27CShader12GetParamNameEi
__ZNK19hsl_filmgrain_pass27CShader12GetParamTypeEi
__ZNK19hsl_filmgrain_pass27CShader13GetParamFlagsEi
__ZNK19hsl_filmgrain_pass27CShader15GetParamDefaultEi
__ZNK19hsl_filmgrain_pass27CShader17GetFallbackShaderEPP12IMaterialVar
__ZNK19hsl_filmgrain_pass27CShader7GetNameEv
__ZNK19hsl_filmgrain_pass27CShader8GetFlagsEv
__ZNK19screenspace_general7CShader12GetNumParamsEv
__ZNK19screenspace_general7CShader12GetParamHelpEi
__ZNK19screenspace_general7CShader12GetParamNameEi
__ZNK19screenspace_general7CShader12GetParamTypeEi
__ZNK19screenspace_general7CShader13GetParamFlagsEi
__ZNK19screenspace_general7CShader15GetParamDefaultEi
__ZNK19screenspace_general7CShader17GetFallbackShaderEPP12IMaterialVar
__ZNK19screenspace_general7CShader7GetNameEv
__ZNK19screenspace_general7CShader8GetFlagsEv
__ZNK20DebugTextureView_dx97CShader12GetNumParamsEv
__ZNK20DebugTextureView_dx97CShader12GetParamHelpEi
__ZNK20DebugTextureView_dx97CShader12GetParamNameEi
__ZNK20DebugTextureView_dx97CShader12GetParamTypeEi
__ZNK20DebugTextureView_dx97CShader13GetParamFlagsEi
__ZNK20DebugTextureView_dx97CShader15GetParamDefaultEi
__ZNK20DebugTextureView_dx97CShader17GetFallbackShaderEPP12IMaterialVar
__ZNK20DebugTextureView_dx97CShader7GetNameEv
__ZNK20DebugTextureView_dx97CShader8GetFlagsEv
__ZNK20WorldTwoTextureBlend7CShader12GetNumParamsEv
__ZNK20WorldTwoTextureBlend7CShader12GetParamHelpEi
__ZNK20WorldTwoTextureBlend7CShader12GetParamNameEi
__ZNK20WorldTwoTextureBlend7CShader12GetParamTypeEi
__ZNK20WorldTwoTextureBlend7CShader13GetParamFlagsEi
__ZNK20WorldTwoTextureBlend7CShader15GetParamDefaultEi
__ZNK20WorldTwoTextureBlend7CShader17GetFallbackShaderEPP12IMaterialVar
__ZNK20WorldTwoTextureBlend7CShader7GetNameEv
__ZNK20WorldTwoTextureBlend7CShader8GetFlagsEv
__ZNK21LightmappedReflective7CShader12GetNumParamsEv
__ZNK21LightmappedReflective7CShader12GetParamHelpEi
__ZNK21LightmappedReflective7CShader12GetParamNameEi
__ZNK21LightmappedReflective7CShader12GetParamTypeEi
__ZNK21LightmappedReflective7CShader13GetParamFlagsEi
__ZNK21LightmappedReflective7CShader15GetParamDefaultEi
__ZNK21LightmappedReflective7CShader17GetFallbackShaderEPP12IMaterialVar
__ZNK21LightmappedReflective7CShader7GetNameEv
__ZNK21LightmappedReflective7CShader8GetFlagsEv
__ZNK21WorldVertexTransition7CShader12GetNumParamsEv
__ZNK21WorldVertexTransition7CShader12GetParamHelpEi
__ZNK21WorldVertexTransition7CShader12GetParamNameEi
__ZNK21WorldVertexTransition7CShader12GetParamTypeEi
__ZNK21WorldVertexTransition7CShader13GetParamFlagsEi
__ZNK21WorldVertexTransition7CShader15GetParamDefaultEi
__ZNK21WorldVertexTransition7CShader17GetFallbackShaderEPP12IMaterialVar
__ZNK21WorldVertexTransition7CShader7GetNameEv
__ZNK21WorldVertexTransition7CShader8GetFlagsEv
__ZNK21floattoscreen_vanilla7CShader12GetNumParamsEv
__ZNK21floattoscreen_vanilla7CShader12GetParamHelpEi
__ZNK21floattoscreen_vanilla7CShader12GetParamNameEi
__ZNK21floattoscreen_vanilla7CShader12GetParamTypeEi
__ZNK21floattoscreen_vanilla7CShader13GetParamFlagsEi
__ZNK21floattoscreen_vanilla7CShader15GetParamDefaultEi
__ZNK21floattoscreen_vanilla7CShader17GetFallbackShaderEPP12IMaterialVar
__ZNK21floattoscreen_vanilla7CShader7GetNameEv
__ZNK21floattoscreen_vanilla7CShader8GetFlagsEv
__ZNK21sfm_downsample_shader7CShader12GetNumParamsEv
__ZNK21sfm_downsample_shader7CShader12GetParamHelpEi
__ZNK21sfm_downsample_shader7CShader12GetParamNameEi
__ZNK21sfm_downsample_shader7CShader12GetParamTypeEi
__ZNK21sfm_downsample_shader7CShader13GetParamFlagsEi
__ZNK21sfm_downsample_shader7CShader15GetParamDefaultEi
__ZNK21sfm_downsample_shader7CShader17GetFallbackShaderEPP12IMaterialVar
__ZNK21sfm_downsample_shader7CShader7GetNameEv
__ZNK21sfm_downsample_shader7CShader8GetFlagsEv
__ZNK22BufferClearObeyStencil7CShader12GetNumParamsEv
__ZNK22BufferClearObeyStencil7CShader12GetParamHelpEi
__ZNK22BufferClearObeyStencil7CShader12GetParamNameEi
__ZNK22BufferClearObeyStencil7CShader12GetParamTypeEi
__ZNK22BufferClearObeyStencil7CShader13GetParamFlagsEi
__ZNK22BufferClearObeyStencil7CShader15GetParamDefaultEi
__ZNK22BufferClearObeyStencil7CShader17GetFallbackShaderEPP12IMaterialVar
__ZNK22BufferClearObeyStencil7CShader7GetNameEv
__ZNK22BufferClearObeyStencil7CShader8GetFlagsEv
__ZNK22IntroScreenSpaceEffect7CShader12GetNumParamsEv
__ZNK22IntroScreenSpaceEffect7CShader12GetParamHelpEi
__ZNK22IntroScreenSpaceEffect7CShader12GetParamNameEi
__ZNK22IntroScreenSpaceEffect7CShader12GetParamTypeEi
__ZNK22IntroScreenSpaceEffect7CShader13GetParamFlagsEi
__ZNK22IntroScreenSpaceEffect7CShader15GetParamDefaultEi
__ZNK22IntroScreenSpaceEffect7CShader17GetFallbackShaderEPP12IMaterialVar
__ZNK22IntroScreenSpaceEffect7CShader7GetNameEv
__ZNK22IntroScreenSpaceEffect7CShader8GetFlagsEv
__ZNK22ParticleLitGeneric_DX97CShader12GetNumParamsEv
__ZNK22ParticleLitGeneric_DX97CShader12GetParamHelpEi
__ZNK22ParticleLitGeneric_DX97CShader12GetParamNameEi
__ZNK22ParticleLitGeneric_DX97CShader12GetParamTypeEi
__ZNK22ParticleLitGeneric_DX97CShader13GetParamFlagsEi
__ZNK22ParticleLitGeneric_DX97CShader15GetParamDefaultEi
__ZNK22ParticleLitGeneric_DX97CShader17GetFallbackShaderEPP12IMaterialVar
__ZNK22ParticleLitGeneric_DX97CShader7GetNameEv
__ZNK22ParticleLitGeneric_DX97CShader8GetFlagsEv
__ZNK22sfm_blurfilterx_shader7CShader12GetNumParamsEv
__ZNK22sfm_blurfilterx_shader7CShader12GetParamHelpEi
__ZNK22sfm_blurfilterx_shader7CShader12GetParamNameEi
__ZNK22sfm_blurfilterx_shader7CShader12GetParamTypeEi
__ZNK22sfm_blurfilterx_shader7CShader13GetParamFlagsEi
__ZNK22sfm_blurfilterx_shader7CShader15GetParamDefaultEi
__ZNK22sfm_blurfilterx_shader7CShader17GetFallbackShaderEPP12IMaterialVar
__ZNK22sfm_blurfilterx_shader7CShader7GetNameEv
__ZNK22sfm_blurfilterx_shader7CShader8GetFlagsEv
__ZNK22sfm_blurfiltery_shader7CShader12GetNumParamsEv
__ZNK22sfm_blurfiltery_shader7CShader12GetParamHelpEi
__ZNK22sfm_blurfiltery_shader7CShader12GetParamNameEi
__ZNK22sfm_blurfiltery_shader7CShader12GetParamTypeEi
__ZNK22sfm_blurfiltery_shader7CShader13GetParamFlagsEi
__ZNK22sfm_blurfiltery_shader7CShader15GetParamDefaultEi
__ZNK22sfm_blurfiltery_shader7CShader17GetFallbackShaderEPP12IMaterialVar
__ZNK22sfm_blurfiltery_shader7CShader7GetNameEv
__ZNK22sfm_blurfiltery_shader7CShader8GetFlagsEv
__ZNK23floatcombine_autoexpose7CShader12GetNumParamsEv
__ZNK23floatcombine_autoexpose7CShader12GetParamHelpEi
__ZNK23floatcombine_autoexpose7CShader12GetParamNameEi
__ZNK23floatcombine_autoexpose7CShader12GetParamTypeEi
__ZNK23floatcombine_autoexpose7CShader13GetParamFlagsEi
__ZNK23floatcombine_autoexpose7CShader15GetParamDefaultEi
__ZNK23floatcombine_autoexpose7CShader17GetFallbackShaderEPP12IMaterialVar
__ZNK23floatcombine_autoexpose7CShader7GetNameEv
__ZNK23floatcombine_autoexpose7CShader8GetFlagsEv
__ZNK23screenspace_general_dx97CShader12GetNumParamsEv
__ZNK23screenspace_general_dx97CShader12GetParamHelpEi
__ZNK23screenspace_general_dx97CShader12GetParamNameEi
__ZNK23screenspace_general_dx97CShader12GetParamTypeEi
__ZNK23screenspace_general_dx97CShader13GetParamFlagsEi
__ZNK23screenspace_general_dx97CShader15GetParamDefaultEi
__ZNK23screenspace_general_dx97CShader17GetFallbackShaderEPP12IMaterialVar
__ZNK23screenspace_general_dx97CShader7GetNameEv
__ZNK23screenspace_general_dx97CShader8GetFlagsEv
__ZNK25WorldVertexTransition_DX97CShader12GetNumParamsEv
__ZNK25WorldVertexTransition_DX97CShader12GetParamHelpEi
__ZNK25WorldVertexTransition_DX97CShader12GetParamNameEi
__ZNK25WorldVertexTransition_DX97CShader12GetParamTypeEi
__ZNK25WorldVertexTransition_DX97CShader13GetParamFlagsEi
__ZNK25WorldVertexTransition_DX97CShader15GetParamDefaultEi
__ZNK25WorldVertexTransition_DX97CShader17GetFallbackShaderEPP12IMaterialVar
__ZNK25WorldVertexTransition_DX97CShader7GetNameEv
__ZNK25WorldVertexTransition_DX97CShader8GetFlagsEv
__ZNK25sfm_integercombine_shader7CShader12GetNumParamsEv
__ZNK25sfm_integercombine_shader7CShader12GetParamHelpEi
__ZNK25sfm_integercombine_shader7CShader12GetParamNameEi
__ZNK25sfm_integercombine_shader7CShader12GetParamTypeEi
__ZNK25sfm_integercombine_shader7CShader13GetParamFlagsEi
__ZNK25sfm_integercombine_shader7CShader15GetParamDefaultEi
__ZNK25sfm_integercombine_shader7CShader17GetFallbackShaderEPP12IMaterialVar
__ZNK25sfm_integercombine_shader7CShader7GetNameEv
__ZNK25sfm_integercombine_shader7CShader8GetFlagsEv
__ZNK26BufferClearObeyStencil_DX97CShader12GetNumParamsEv
__ZNK26BufferClearObeyStencil_DX97CShader12GetParamHelpEi
__ZNK26BufferClearObeyStencil_DX97CShader12GetParamNameEi
__ZNK26BufferClearObeyStencil_DX97CShader12GetParamTypeEi
__ZNK26BufferClearObeyStencil_DX97CShader13GetParamFlagsEi
__ZNK26BufferClearObeyStencil_DX97CShader15GetParamDefaultEi
__ZNK26BufferClearObeyStencil_DX97CShader17GetFallbackShaderEPP12IMaterialVar
__ZNK26BufferClearObeyStencil_DX97CShader7GetNameEv
__ZNK26BufferClearObeyStencil_DX97CShader8GetFlagsEv
__ZNK26LightmappedReflective_DX907CShader12GetNumParamsEv
__ZNK26LightmappedReflective_DX907CShader12GetParamHelpEi
__ZNK26LightmappedReflective_DX907CShader12GetParamNameEi
__ZNK26LightmappedReflective_DX907CShader12GetParamTypeEi
__ZNK26LightmappedReflective_DX907CShader13GetParamFlagsEi
__ZNK26LightmappedReflective_DX907CShader15GetParamDefaultEi
__ZNK26LightmappedReflective_DX907CShader17GetFallbackShaderEPP12IMaterialVar
__ZNK26LightmappedReflective_DX907CShader7GetNameEv
__ZNK26LightmappedReflective_DX907CShader8GetFlagsEv
__ZNK3Bik7CShader12GetNumParamsEv
__ZNK3Bik7CShader12GetParamHelpEi
__ZNK3Bik7CShader12GetParamNameEi
__ZNK3Bik7CShader12GetParamTypeEi
__ZNK3Bik7CShader13GetParamFlagsEi
__ZNK3Bik7CShader15GetParamDefaultEi
__ZNK3Bik7CShader17GetFallbackShaderEPP12IMaterialVar
__ZNK3Bik7CShader7GetNameEv
__ZNK3Bik7CShader8GetFlagsEv
__ZNK3HSV7CShader12GetNumParamsEv
__ZNK3HSV7CShader12GetParamHelpEi
__ZNK3HSV7CShader12GetParamNameEi
__ZNK3HSV7CShader12GetParamTypeEi
__ZNK3HSV7CShader13GetParamFlagsEi
__ZNK3HSV7CShader15GetParamDefaultEi
__ZNK3HSV7CShader17GetFallbackShaderEPP12IMaterialVar
__ZNK3HSV7CShader7GetNameEv
__ZNK3HSV7CShader8GetFlagsEv
__ZNK3Sky7CShader12GetNumParamsEv
__ZNK3Sky7CShader12GetParamHelpEi
__ZNK3Sky7CShader12GetParamNameEi
__ZNK3Sky7CShader12GetParamTypeEi
__ZNK3Sky7CShader13GetParamFlagsEi
__ZNK3Sky7CShader15GetParamDefaultEi
__ZNK3Sky7CShader17GetFallbackShaderEPP12IMaterialVar
__ZNK3Sky7CShader7GetNameEv
__ZNK3Sky7CShader8GetFlagsEv
__ZNK41DecalBaseTimesLightmapAlphaBlendSelfIllum7CShader12GetNumParamsEv
__ZNK41DecalBaseTimesLightmapAlphaBlendSelfIllum7CShader12GetParamHelpEi
__ZNK41DecalBaseTimesLightmapAlphaBlendSelfIllum7CShader12GetParamNameEi
__ZNK41DecalBaseTimesLightmapAlphaBlendSelfIllum7CShader12GetParamTypeEi
__ZNK41DecalBaseTimesLightmapAlphaBlendSelfIllum7CShader13GetParamFlagsEi
__ZNK41DecalBaseTimesLightmapAlphaBlendSelfIllum7CShader15GetParamDefaultEi
__ZNK41DecalBaseTimesLightmapAlphaBlendSelfIllum7CShader17GetFallbackShaderEPP12IMaterialVar
__ZNK41DecalBaseTimesLightmapAlphaBlendSelfIllum7CShader7GetNameEv
__ZNK41DecalBaseTimesLightmapAlphaBlendSelfIllum7CShader8GetFlagsEv
__ZNK45DecalBaseTimesLightmapAlphaBlendSelfIllum_DX97CShader12GetNumParamsEv
__ZNK45DecalBaseTimesLightmapAlphaBlendSelfIllum_DX97CShader12GetParamHelpEi
__ZNK45DecalBaseTimesLightmapAlphaBlendSelfIllum_DX97CShader12GetParamNameEi
__ZNK45DecalBaseTimesLightmapAlphaBlendSelfIllum_DX97CShader12GetParamTypeEi
__ZNK45DecalBaseTimesLightmapAlphaBlendSelfIllum_DX97CShader13GetParamFlagsEi
__ZNK45DecalBaseTimesLightmapAlphaBlendSelfIllum_DX97CShader15GetParamDefaultEi
__ZNK45DecalBaseTimesLightmapAlphaBlendSelfIllum_DX97CShader17GetFallbackShaderEPP12IMaterialVar
__ZNK45DecalBaseTimesLightmapAlphaBlendSelfIllum_DX97CShader7GetNameEv
__ZNK45DecalBaseTimesLightmapAlphaBlendSelfIllum_DX97CShader8GetFlagsEv
__ZNK4Core7CShader12GetNumParamsEv
__ZNK4Core7CShader12GetParamHelpEi
__ZNK4Core7CShader12GetParamNameEi
__ZNK4Core7CShader12GetParamTypeEi
__ZNK4Core7CShader13GetParamFlagsEi
__ZNK4Core7CShader15GetParamDefaultEi
__ZNK4Core7CShader17GetFallbackShaderEPP12IMaterialVar
__ZNK4Core7CShader7GetNameEv
__ZNK4Core7CShader8GetFlagsEv
__ZNK4eyes7CShader12GetNumParamsEv
__ZNK4eyes7CShader12GetParamHelpEi
__ZNK4eyes7CShader12GetParamNameEi
__ZNK4eyes7CShader12GetParamTypeEi
__ZNK4eyes7CShader13GetParamFlagsEi
__ZNK4eyes7CShader15GetParamDefaultEi
__ZNK4eyes7CShader17GetFallbackShaderEPP12IMaterialVar
__ZNK4eyes7CShader7GetNameEv
__ZNK4eyes7CShader8GetFlagsEv
__ZNK4warp7CShader12GetNumParamsEv
__ZNK4warp7CShader12GetParamHelpEi
__ZNK4warp7CShader12GetParamNameEi
__ZNK4warp7CShader12GetParamTypeEi
__ZNK4warp7CShader13GetParamFlagsEi
__ZNK4warp7CShader15GetParamDefaultEi
__ZNK4warp7CShader17GetFallbackShaderEPP12IMaterialVar
__ZNK4warp7CShader7GetNameEv
__ZNK4warp7CShader8GetFlagsEv
__ZNK5Bloom7CShader12GetNumParamsEv
__ZNK5Bloom7CShader12GetParamHelpEi
__ZNK5Bloom7CShader12GetParamNameEi
__ZNK5Bloom7CShader12GetParamTypeEi
__ZNK5Bloom7CShader13GetParamFlagsEi
__ZNK5Bloom7CShader15GetParamDefaultEi
__ZNK5Bloom7CShader17GetFallbackShaderEPP12IMaterialVar
__ZNK5Bloom7CShader7GetNameEv
__ZNK5Bloom7CShader8GetFlagsEv
__ZNK5Cable7CShader12GetNumParamsEv
__ZNK5Cable7CShader12GetParamHelpEi
__ZNK5Cable7CShader12GetParamNameEi
__ZNK5Cable7CShader12GetParamTypeEi
__ZNK5Cable7CShader13GetParamFlagsEi
__ZNK5Cable7CShader15GetParamDefaultEi
__ZNK5Cable7CShader17GetFallbackShaderEPP12IMaterialVar
__ZNK5Cable7CShader7GetNameEv
__ZNK5Cable7CShader8GetFlagsEv
__ZNK5Cloak7CShader12GetNumParamsEv
__ZNK5Cloak7CShader12GetParamHelpEi
__ZNK5Cloak7CShader12GetParamNameEi
__ZNK5Cloak7CShader12GetParamTypeEi
__ZNK5Cloak7CShader13GetParamFlagsEi
__ZNK5Cloak7CShader15GetParamDefaultEi
__ZNK5Cloak7CShader17GetFallbackShaderEPP12IMaterialVar
__ZNK5Cloak7CShader7GetNameEv
__ZNK5Cloak7CShader8GetFlagsEv
__ZNK5Cloud7CShader12GetNumParamsEv
__ZNK5Cloud7CShader12GetParamHelpEi
__ZNK5Cloud7CShader12GetParamNameEi
__ZNK5Cloud7CShader12GetParamTypeEi
__ZNK5Cloud7CShader13GetParamFlagsEi
__ZNK5Cloud7CShader15GetParamDefaultEi
__ZNK5Cloud7CShader17GetFallbackShaderEPP12IMaterialVar
__ZNK5Cloud7CShader7GetNameEv
__ZNK5Cloud7CShader8GetFlagsEv
__ZNK5Teeth7CShader12GetNumParamsEv
__ZNK5Teeth7CShader12GetParamHelpEi
__ZNK5Teeth7CShader12GetParamNameEi
__ZNK5Teeth7CShader12GetParamTypeEi
__ZNK5Teeth7CShader13GetParamFlagsEi
__ZNK5Teeth7CShader15GetParamDefaultEi
__ZNK5Teeth7CShader17GetFallbackShaderEPP12IMaterialVar
__ZNK5Teeth7CShader7GetNameEv
__ZNK5Teeth7CShader8GetFlagsEv
__ZNK5Water7CShader12GetNumParamsEv
__ZNK5Water7CShader12GetParamHelpEi
__ZNK5Water7CShader12GetParamNameEi
__ZNK5Water7CShader12GetParamTypeEi
__ZNK5Water7CShader13GetParamFlagsEi
__ZNK5Water7CShader15GetParamDefaultEi
__ZNK5Water7CShader17GetFallbackShaderEPP12IMaterialVar
__ZNK5Water7CShader7GetNameEv
__ZNK5Water7CShader8GetFlagsEv
__ZNK5showz7CShader12GetNumParamsEv
__ZNK5showz7CShader12GetParamHelpEi
__ZNK5showz7CShader12GetParamNameEi
__ZNK5showz7CShader12GetParamTypeEi
__ZNK5showz7CShader13GetParamFlagsEi
__ZNK5showz7CShader15GetParamDefaultEi
__ZNK5showz7CShader17GetFallbackShaderEPP12IMaterialVar
__ZNK5showz7CShader7GetNameEv
__ZNK5showz7CShader8GetFlagsEv
__ZNK6ConVar11GetHelpTextEv
__ZNK6ConVar12IsRegisteredEv
__ZNK6ConVar7GetNameEv
__ZNK6ConVar9IsCommandEv
__ZNK6ConVar9IsFlagSetEi
__ZNK6Portal7CShader12GetNumParamsEv
__ZNK6Portal7CShader12GetParamHelpEi
__ZNK6Portal7CShader12GetParamNameEi
__ZNK6Portal7CShader12GetParamTypeEi
__ZNK6Portal7CShader13GetParamFlagsEi
__ZNK6Portal7CShader15GetParamDefaultEi
__ZNK6Portal7CShader17GetFallbackShaderEPP12IMaterialVar
__ZNK6Portal7CShader7GetNameEv
__ZNK6Portal7CShader8GetFlagsEv
__ZNK6Shadow7CShader12GetNumParamsEv
__ZNK6Shadow7CShader12GetParamHelpEi
__ZNK6Shadow7CShader12GetParamNameEi
__ZNK6Shadow7CShader12GetParamTypeEi
__ZNK6Shadow7CShader13GetParamFlagsEi
__ZNK6Shadow7CShader15GetParamDefaultEi
__ZNK6Shadow7CShader17GetFallbackShaderEPP12IMaterialVar
__ZNK6Shadow7CShader7GetNameEv
__ZNK6Shadow7CShader8GetFlagsEv
__ZNK6Sprite7CShader12GetNumParamsEv
__ZNK6Sprite7CShader12GetParamHelpEi
__ZNK6Sprite7CShader12GetParamNameEi
__ZNK6Sprite7CShader12GetParamTypeEi
__ZNK6Sprite7CShader13GetParamFlagsEi
__ZNK6Sprite7CShader15GetParamDefaultEi
__ZNK6Sprite7CShader17GetFallbackShaderEPP12IMaterialVar
__ZNK6Sprite7CShader7GetNameEv
__ZNK6Sprite7CShader8GetFlagsEv
__ZNK6WriteZ7CShader12GetNumParamsEv
__ZNK6WriteZ7CShader12GetParamHelpEi
__ZNK6WriteZ7CShader12GetParamNameEi
__ZNK6WriteZ7CShader12GetParamTypeEi
__ZNK6WriteZ7CShader13GetParamFlagsEi
__ZNK6WriteZ7CShader15GetParamDefaultEi
__ZNK6WriteZ7CShader17GetFallbackShaderEPP12IMaterialVar
__ZNK6WriteZ7CShader7GetNameEv
__ZNK6WriteZ7CShader8GetFlagsEv
__ZNK7Refract7CShader12GetNumParamsEv
__ZNK7Refract7CShader12GetParamHelpEi
__ZNK7Refract7CShader12GetParamNameEi
__ZNK7Refract7CShader12GetParamTypeEi
__ZNK7Refract7CShader13GetParamFlagsEi
__ZNK7Refract7CShader15GetParamDefaultEi
__ZNK7Refract7CShader17GetFallbackShaderEPP12IMaterialVar
__ZNK7Refract7CShader7GetNameEv
__ZNK7Refract7CShader8GetFlagsEv
__ZNK7Sky_DX97CShader12GetNumParamsEv
__ZNK7Sky_DX97CShader12GetParamHelpEi
__ZNK7Sky_DX97CShader12GetParamNameEi
__ZNK7Sky_DX97CShader12GetParamTypeEi
__ZNK7Sky_DX97CShader13GetParamFlagsEi
__ZNK7Sky_DX97CShader15GetParamDefaultEi
__ZNK7Sky_DX97CShader17GetFallbackShaderEPP12IMaterialVar
__ZNK7Sky_DX97CShader7GetNameEv
__ZNK7Sky_DX97CShader8GetFlagsEv
__ZNK7VMatrix12Transpose3x3Ev
__ZNK7VMatrix9MatrixMulERKS_RS_
__ZNK7VMatrix9TransposeEv
__ZNK7VMatrixmlERKS_
__ZNK8EyeGlint7CShader12GetNumParamsEv
__ZNK8EyeGlint7CShader12GetParamHelpEi
__ZNK8EyeGlint7CShader12GetParamNameEi
__ZNK8EyeGlint7CShader12GetParamTypeEi
__ZNK8EyeGlint7CShader13GetParamFlagsEi
__ZNK8EyeGlint7CShader15GetParamDefaultEi
__ZNK8EyeGlint7CShader17GetFallbackShaderEPP12IMaterialVar
__ZNK8EyeGlint7CShader7GetNameEv
__ZNK8EyeGlint7CShader8GetFlagsEv
__ZNK8Eyes_dx97CShader12GetNumParamsEv
__ZNK8Eyes_dx97CShader12GetParamHelpEi
__ZNK8Eyes_dx97CShader12GetParamNameEi
__ZNK8Eyes_dx97CShader12GetParamTypeEi
__ZNK8Eyes_dx97CShader13GetParamFlagsEi
__ZNK8Eyes_dx97CShader15GetParamDefaultEi
__ZNK8Eyes_dx97CShader17GetFallbackShaderEPP12IMaterialVar
__ZNK8Eyes_dx97CShader7GetNameEv
__ZNK8Eyes_dx97CShader8GetFlagsEv
__ZNK8FilmDust7CShader12GetNumParamsEv
__ZNK8FilmDust7CShader12GetParamHelpEi
__ZNK8FilmDust7CShader12GetParamNameEi
__ZNK8FilmDust7CShader12GetParamTypeEi
__ZNK8FilmDust7CShader13GetParamFlagsEi
__ZNK8FilmDust7CShader15GetParamDefaultEi
__ZNK8FilmDust7CShader17GetFallbackShaderEPP12IMaterialVar
__ZNK8FilmDust7CShader7GetNameEv
__ZNK8FilmDust7CShader8GetFlagsEv
__ZNK8Modulate7CShader12GetNumParamsEv
__ZNK8Modulate7CShader12GetParamHelpEi
__ZNK8Modulate7CShader12GetParamNameEi
__ZNK8Modulate7CShader12GetParamTypeEi
__ZNK8Modulate7CShader13GetParamFlagsEi
__ZNK8Modulate7CShader15GetParamDefaultEi
__ZNK8Modulate7CShader17GetFallbackShaderEPP12IMaterialVar
__ZNK8Modulate7CShader7GetNameEv
__ZNK8Modulate7CShader8GetFlagsEv
__ZNK8TreeLeaf7CShader12GetNumParamsEv
__ZNK8TreeLeaf7CShader12GetParamHelpEi
__ZNK8TreeLeaf7CShader12GetParamNameEi
__ZNK8TreeLeaf7CShader12GetParamTypeEi
__ZNK8TreeLeaf7CShader13GetParamFlagsEi
__ZNK8TreeLeaf7CShader15GetParamDefaultEi
__ZNK8TreeLeaf7CShader17GetFallbackShaderEPP12IMaterialVar
__ZNK8TreeLeaf7CShader7GetNameEv
__ZNK8TreeLeaf7CShader8GetFlagsEv
__ZNK8VortWarp7CShader12GetNumParamsEv
__ZNK8VortWarp7CShader12GetParamHelpEi
__ZNK8VortWarp7CShader12GetParamNameEi
__ZNK8VortWarp7CShader12GetParamTypeEi
__ZNK8VortWarp7CShader13GetParamFlagsEi
__ZNK8VortWarp7CShader15GetParamDefaultEi
__ZNK8VortWarp7CShader17GetFallbackShaderEPP12IMaterialVar
__ZNK8VortWarp7CShader7GetNameEv
__ZNK8VortWarp7CShader8GetFlagsEv
__ZNK9Cable_DX97CShader12GetNumParamsEv
__ZNK9Cable_DX97CShader12GetParamHelpEi
__ZNK9Cable_DX97CShader12GetParamNameEi
__ZNK9Cable_DX97CShader12GetParamTypeEi
__ZNK9Cable_DX97CShader13GetParamFlagsEi
__ZNK9Cable_DX97CShader15GetParamDefaultEi
__ZNK9Cable_DX97CShader17GetFallbackShaderEPP12IMaterialVar
__ZNK9Cable_DX97CShader7GetNameEv
__ZNK9Cable_DX97CShader8GetFlagsEv
__ZNK9Cloud_dx97CShader12GetNumParamsEv
__ZNK9Cloud_dx97CShader12GetParamHelpEi
__ZNK9Cloud_dx97CShader12GetParamNameEi
__ZNK9Cloud_dx97CShader12GetParamTypeEi
__ZNK9Cloud_dx97CShader13GetParamFlagsEi
__ZNK9Cloud_dx97CShader15GetParamDefaultEi
__ZNK9Cloud_dx97CShader17GetFallbackShaderEPP12IMaterialVar
__ZNK9Cloud_dx97CShader7GetNameEv
__ZNK9Cloud_dx97CShader8GetFlagsEv
__ZNK9Core_DX907CShader12GetNumParamsEv
__ZNK9Core_DX907CShader12GetParamHelpEi
__ZNK9Core_DX907CShader12GetParamNameEi
__ZNK9Core_DX907CShader12GetParamTypeEi
__ZNK9Core_DX907CShader13GetParamFlagsEi
__ZNK9Core_DX907CShader15GetParamDefaultEi
__ZNK9Core_DX907CShader17GetFallbackShaderEPP12IMaterialVar
__ZNK9Core_DX907CShader7GetNameEv
__ZNK9Core_DX907CShader8GetFlagsEv
__ZNK9FilmGrain7CShader12GetNumParamsEv
__ZNK9FilmGrain7CShader12GetParamHelpEi
__ZNK9FilmGrain7CShader12GetParamNameEi
__ZNK9FilmGrain7CShader12GetParamTypeEi
__ZNK9FilmGrain7CShader13GetParamFlagsEi
__ZNK9FilmGrain7CShader15GetParamDefaultEi
__ZNK9FilmGrain7CShader17GetFallbackShaderEPP12IMaterialVar
__ZNK9FilmGrain7CShader7GetNameEv
__ZNK9FilmGrain7CShader8GetFlagsEv
__ZNK9Occlusion7CShader12GetNumParamsEv
__ZNK9Occlusion7CShader12GetParamHelpEi
__ZNK9Occlusion7CShader12GetParamNameEi
__ZNK9Occlusion7CShader12GetParamTypeEi
__ZNK9Occlusion7CShader13GetParamFlagsEi
__ZNK9Occlusion7CShader15GetParamDefaultEi
__ZNK9Occlusion7CShader17GetFallbackShaderEPP12IMaterialVar
__ZNK9Occlusion7CShader7GetNameEv
__ZNK9Occlusion7CShader8GetFlagsEv
__ZNK9Sample4x47CShader12GetNumParamsEv
__ZNK9Sample4x47CShader12GetParamHelpEi
__ZNK9Sample4x47CShader12GetParamNameEi
__ZNK9Sample4x47CShader12GetParamTypeEi
__ZNK9Sample4x47CShader13GetParamFlagsEi
__ZNK9Sample4x47CShader15GetParamDefaultEi
__ZNK9Sample4x47CShader17GetFallbackShaderEPP12IMaterialVar
__ZNK9Sample4x47CShader7GetNameEv
__ZNK9Sample4x47CShader8GetFlagsEv
__ZNK9Teeth_DX97CShader12GetNumParamsEv
__ZNK9Teeth_DX97CShader12GetParamHelpEi
__ZNK9Teeth_DX97CShader12GetParamNameEi
__ZNK9Teeth_DX97CShader12GetParamTypeEi
__ZNK9Teeth_DX97CShader13GetParamFlagsEi
__ZNK9Teeth_DX97CShader15GetParamDefaultEi
__ZNK9Teeth_DX97CShader17GetFallbackShaderEPP12IMaterialVar
__ZNK9Teeth_DX97CShader7GetNameEv
__ZNK9Teeth_DX97CShader8GetFlagsEv
__ZNK9Wireframe7CShader12GetNumParamsEv
__ZNK9Wireframe7CShader12GetParamHelpEi
__ZNK9Wireframe7CShader12GetParamNameEi
__ZNK9Wireframe7CShader12GetParamTypeEi
__ZNK9Wireframe7CShader13GetParamFlagsEi
__ZNK9Wireframe7CShader15GetParamDefaultEi
__ZNK9Wireframe7CShader17GetFallbackShaderEPP12IMaterialVar
__ZNK9Wireframe7CShader7GetNameEv
__ZNK9Wireframe7CShader8GetFlagsEv
__ZSt9terminatev
__ZTI10CShaderDLL
__ZTI10IShaderDLL
__ZTI11CBaseShader
__ZTI12CEmptyConVar
__ZTI13CBaseVSShader
__ZTI14ConCommandBase
__ZTI16CDefaultAccessor
__ZTI17CSkin_DX9_Context
__ZTI17CWarp_DX9_Context
__ZTI18CUtlCharConversion
__ZTI18IShaderDLLInternal
__ZTI19CUtlNoEscConversion
__ZTI21CUtlCStringConversion
__ZTI23CPyroVision_DX9_Context
__ZTI23IConCommandBaseAccessor
__ZTI24CShaderLibConVarAccessor
__ZTI27CBasePerMaterialContextData
__ZTI29CVRDistortTexture_DX9_Context
__ZTI29CVertexLitGeneric_DX9_Context
__ZTI31CLightmappedGeneric_DX9_Context
__ZTI6ConVar
__ZTI7IConVar
__ZTI7IShader
__ZTIN10Aftershock7CShaderE
__ZTIN10Cloak_DX907CShaderE
__ZTIN10Compositor7CShaderE
__ZTIN10DepthWrite7CShaderE
__ZTIN10Downsample7CShaderE
__ZTIN10EyeRefract7CShaderE
__ZTIN10MotionBlur7CShaderE
__ZTIN10Sprite_DX97CShaderE
__ZTIN10Spritecard7CShaderE
__ZTIN10Water_DX9013Water_DX9_HDR7CShaderE
__ZTIN10Water_DX907CShaderE
__ZTIN10WriteZ_DX97CShaderE
__ZTIN11BlurFilterX7CShaderE
__ZTIN11BlurFilterY7CShaderE
__ZTIN11Engine_Post7CShaderE
__ZTIN11Portal_DX907CShaderE
__ZTIN11ShadowBuild7CShaderE
__ZTIN11ShadowModel7CShaderE
__ZTIN11Sky_HDR_DX97CShaderE
__ZTIN11pyro_vision7CShaderE
__ZTIN12EyeGlint_dx97CShaderE
__ZTIN12FilmDust_dx97CShaderE
__ZTIN12Modulate_DX97CShaderE
__ZTIN12Refract_DX907CShaderE
__ZTIN12UnlitGeneric7CShaderE
__ZTIN12VolumeClouds7CShaderE
__ZTIN12VortWarp_DX97CShaderE
__ZTIN12WriteStencil7CShaderE
__ZTIN12floatcombine7CShaderE
__ZTIN13DecalModulate7CShaderE
__ZTIN13FilmGrain_dx97CShaderE
__ZTIN13MonitorScreen7CShaderE
__ZTIN13Occlusion_DX97CShaderE
__ZTIN13PortalRefract7CShaderE
__ZTIN13Wireframe_DX97CShaderE
__ZTIN13floattoscreen7CShaderE
__ZTIN14Aftershock_dx97CShaderE
__ZTIN14EyeRefract_dx97CShaderE
__ZTIN14HDRSelectRange7CShaderE
__ZTIN14MotionBlur_dx97CShaderE
__ZTIN14ParticleSphere7CShaderE
__ZTIN14ShatteredGlass7CShaderE
__ZTIN14WindowImposter7CShaderE
__ZTIN14vr_distort_hud7CShaderE
__ZTIN15ColorCorrection7CShaderE
__ZTIN15DebugMRTTexture7CShaderE
__ZTIN15Engine_Post_dx97CShaderE
__ZTIN15Sample4x4_Blend7CShaderE
__ZTIN15ShadowBuild_DX97CShaderE
__ZTIN15ShadowModel_DX97CShaderE
__ZTIN15UnlitTwoTexture7CShaderE
__ZTIN16DebugTextureView7CShaderE
__ZTIN16Downsample_nohdr7CShaderE
__ZTIN16VertexLitGeneric7CShaderE
__ZTIN16VolumeClouds_dx97CShaderE
__ZTIN16WorldVertexAlpha7CShaderE
__ZTIN16WriteStencil_DX97CShaderE
__ZTIN16accumbuff4sample7CShaderE
__ZTIN16accumbuff5sample7CShaderE
__ZTIN16color_projection7CShaderE
__ZTIN17DecalModulate_dx97CShaderE
__ZTIN17HDRCombineTo16Bit7CShaderE
__ZTIN17MonitorScreen_DX97CShaderE
__ZTIN17PortalRefract_dx97CShaderE
__ZTIN18LightmappedGeneric7CShaderE
__ZTIN18ParticleSphere_DX97CShaderE
__ZTIN18vr_distort_texture7CShaderE
__ZTIN19PortalStaticOverlay7CShaderE
__ZTIN19UnlitTwoTexture_DX97CShaderE
__ZTIN19WindowImposter_DX907CShaderE
__ZTIN19hsl_filmgrain_pass17CShaderE
__ZTIN19hsl_filmgrain_pass27CShaderE
__ZTIN19screenspace_general7CShaderE
__ZTIN20DebugTextureView_dx97CShaderE
__ZTIN20WorldTwoTextureBlend7CShaderE
__ZTIN21LightmappedReflective7CShaderE
__ZTIN21WorldVertexTransition7CShaderE
__ZTIN21floattoscreen_vanilla7CShaderE
__ZTIN21sfm_downsample_shader7CShaderE
__ZTIN22BufferClearObeyStencil7CShaderE
__ZTIN22IntroScreenSpaceEffect7CShaderE
__ZTIN22ParticleLitGeneric_DX97CShaderE
__ZTIN22sfm_blurfilterx_shader7CShaderE
__ZTIN22sfm_blurfiltery_shader7CShaderE
__ZTIN23floatcombine_autoexpose7CShaderE
__ZTIN23screenspace_general_dx97CShaderE
__ZTIN25WorldVertexTransition_DX97CShaderE
__ZTIN25sfm_integercombine_shader7CShaderE
__ZTIN26BufferClearObeyStencil_DX97CShaderE
__ZTIN26LightmappedReflective_DX907CShaderE
__ZTIN3Bik7CShaderE
__ZTIN3HSV7CShaderE
__ZTIN3Sky7CShaderE
__ZTIN41DecalBaseTimesLightmapAlphaBlendSelfIllum7CShaderE
__ZTIN45DecalBaseTimesLightmapAlphaBlendSelfIllum_DX97CShaderE
__ZTIN4Core7CShaderE
__ZTIN4eyes7CShaderE
__ZTIN4warp7CShaderE
__ZTIN5Bloom7CShaderE
__ZTIN5Cable7CShaderE
__ZTIN5Cloak7CShaderE
__ZTIN5Cloud7CShaderE
__ZTIN5Teeth7CShaderE
__ZTIN5Water7CShaderE
__ZTIN5showz7CShaderE
__ZTIN6Portal7CShaderE
__ZTIN6Shadow7CShaderE
__ZTIN6Sprite7CShaderE
__ZTIN6WriteZ7CShaderE
__ZTIN7Refract7CShaderE
__ZTIN7Sky_DX97CShaderE
__ZTIN8EyeGlint7CShaderE
__ZTIN8Eyes_dx97CShaderE
__ZTIN8FilmDust7CShaderE
__ZTIN8Modulate7CShaderE
__ZTIN8TreeLeaf7CShaderE
__ZTIN8VortWarp7CShaderE
__ZTIN9Cable_DX97CShaderE
__ZTIN9Cloud_dx97CShaderE
__ZTIN9Core_DX907CShaderE
__ZTIN9FilmGrain7CShaderE
__ZTIN9Occlusion7CShaderE
__ZTIN9Sample4x47CShaderE
__ZTIN9Teeth_DX97CShaderE
__ZTIN9Wireframe7CShaderE
__ZTISt9bad_alloc
__ZTS10CShaderDLL
__ZTS10IShaderDLL
__ZTS11CBaseShader
__ZTS12CEmptyConVar
__ZTS13CBaseVSShader
__ZTS14ConCommandBase
__ZTS16CDefaultAccessor
__ZTS17CSkin_DX9_Context
__ZTS17CWarp_DX9_Context
__ZTS18CUtlCharConversion
__ZTS18IShaderDLLInternal
__ZTS19CUtlNoEscConversion
__ZTS21CUtlCStringConversion
__ZTS23CPyroVision_DX9_Context
__ZTS23IConCommandBaseAccessor
__ZTS24CShaderLibConVarAccessor
__ZTS27CBasePerMaterialContextData
__ZTS29CVRDistortTexture_DX9_Context
__ZTS29CVertexLitGeneric_DX9_Context
__ZTS31CLightmappedGeneric_DX9_Context
__ZTS6ConVar
__ZTS7IConVar
__ZTS7IShader
__ZTSN10Aftershock7CShaderE
__ZTSN10Cloak_DX907CShaderE
__ZTSN10Compositor7CShaderE
__ZTSN10DepthWrite7CShaderE
__ZTSN10Downsample7CShaderE
__ZTSN10EyeRefract7CShaderE
__ZTSN10MotionBlur7CShaderE
__ZTSN10Sprite_DX97CShaderE
__ZTSN10Spritecard7CShaderE
__ZTSN10Water_DX9013Water_DX9_HDR7CShaderE
__ZTSN10Water_DX907CShaderE
__ZTSN10WriteZ_DX97CShaderE
__ZTSN11BlurFilterX7CShaderE
__ZTSN11BlurFilterY7CShaderE
__ZTSN11Engine_Post7CShaderE
__ZTSN11Portal_DX907CShaderE
__ZTSN11ShadowBuild7CShaderE
__ZTSN11ShadowModel7CShaderE
__ZTSN11Sky_HDR_DX97CShaderE
__ZTSN11pyro_vision7CShaderE
__ZTSN12EyeGlint_dx97CShaderE
__ZTSN12FilmDust_dx97CShaderE
__ZTSN12Modulate_DX97CShaderE
__ZTSN12Refract_DX907CShaderE
__ZTSN12UnlitGeneric7CShaderE
__ZTSN12VolumeClouds7CShaderE
__ZTSN12VortWarp_DX97CShaderE
__ZTSN12WriteStencil7CShaderE
__ZTSN12floatcombine7CShaderE
__ZTSN13DecalModulate7CShaderE
__ZTSN13FilmGrain_dx97CShaderE
__ZTSN13MonitorScreen7CShaderE
__ZTSN13Occlusion_DX97CShaderE
__ZTSN13PortalRefract7CShaderE
__ZTSN13Wireframe_DX97CShaderE
__ZTSN13floattoscreen7CShaderE
__ZTSN14Aftershock_dx97CShaderE
__ZTSN14EyeRefract_dx97CShaderE
__ZTSN14HDRSelectRange7CShaderE
__ZTSN14MotionBlur_dx97CShaderE
__ZTSN14ParticleSphere7CShaderE
__ZTSN14ShatteredGlass7CShaderE
__ZTSN14WindowImposter7CShaderE
__ZTSN14vr_distort_hud7CShaderE
__ZTSN15ColorCorrection7CShaderE
__ZTSN15DebugMRTTexture7CShaderE
__ZTSN15Engine_Post_dx97CShaderE
__ZTSN15Sample4x4_Blend7CShaderE
__ZTSN15ShadowBuild_DX97CShaderE
__ZTSN15ShadowModel_DX97CShaderE
__ZTSN15UnlitTwoTexture7CShaderE
__ZTSN16DebugTextureView7CShaderE
__ZTSN16Downsample_nohdr7CShaderE
__ZTSN16VertexLitGeneric7CShaderE
__ZTSN16VolumeClouds_dx97CShaderE
__ZTSN16WorldVertexAlpha7CShaderE
__ZTSN16WriteStencil_DX97CShaderE
__ZTSN16accumbuff4sample7CShaderE
__ZTSN16accumbuff5sample7CShaderE
__ZTSN16color_projection7CShaderE
__ZTSN17DecalModulate_dx97CShaderE
__ZTSN17HDRCombineTo16Bit7CShaderE
__ZTSN17MonitorScreen_DX97CShaderE
__ZTSN17PortalRefract_dx97CShaderE
__ZTSN18LightmappedGeneric7CShaderE
__ZTSN18ParticleSphere_DX97CShaderE
__ZTSN18vr_distort_texture7CShaderE
__ZTSN19PortalStaticOverlay7CShaderE
__ZTSN19UnlitTwoTexture_DX97CShaderE
__ZTSN19WindowImposter_DX907CShaderE
__ZTSN19hsl_filmgrain_pass17CShaderE
__ZTSN19hsl_filmgrain_pass27CShaderE
__ZTSN19screenspace_general7CShaderE
__ZTSN20DebugTextureView_dx97CShaderE
__ZTSN20WorldTwoTextureBlend7CShaderE
__ZTSN21LightmappedReflective7CShaderE
__ZTSN21WorldVertexTransition7CShaderE
__ZTSN21floattoscreen_vanilla7CShaderE
__ZTSN21sfm_downsample_shader7CShaderE
__ZTSN22BufferClearObeyStencil7CShaderE
__ZTSN22IntroScreenSpaceEffect7CShaderE
__ZTSN22ParticleLitGeneric_DX97CShaderE
__ZTSN22sfm_blurfilterx_shader7CShaderE
__ZTSN22sfm_blurfiltery_shader7CShaderE
__ZTSN23floatcombine_autoexpose7CShaderE
__ZTSN23screenspace_general_dx97CShaderE
__ZTSN25WorldVertexTransition_DX97CShaderE
__ZTSN25sfm_integercombine_shader7CShaderE
__ZTSN26BufferClearObeyStencil_DX97CShaderE
__ZTSN26LightmappedReflective_DX907CShaderE
__ZTSN3Bik7CShaderE
__ZTSN3HSV7CShaderE
__ZTSN3Sky7CShaderE
__ZTSN41DecalBaseTimesLightmapAlphaBlendSelfIllum7CShaderE
__ZTSN45DecalBaseTimesLightmapAlphaBlendSelfIllum_DX97CShaderE
__ZTSN4Core7CShaderE
__ZTSN4eyes7CShaderE
__ZTSN4warp7CShaderE
__ZTSN5Bloom7CShaderE
__ZTSN5Cable7CShaderE
__ZTSN5Cloak7CShaderE
__ZTSN5Cloud7CShaderE
__ZTSN5Teeth7CShaderE
__ZTSN5Water7CShaderE
__ZTSN5showz7CShaderE
__ZTSN6Portal7CShaderE
__ZTSN6Shadow7CShaderE
__ZTSN6Sprite7CShaderE
__ZTSN6WriteZ7CShaderE
__ZTSN7Refract7CShaderE
__ZTSN7Sky_DX97CShaderE
__ZTSN8EyeGlint7CShaderE
__ZTSN8Eyes_dx97CShaderE
__ZTSN8FilmDust7CShaderE
__ZTSN8Modulate7CShaderE
__ZTSN8TreeLeaf7CShaderE
__ZTSN8VortWarp7CShaderE
__ZTSN9Cable_DX97CShaderE
__ZTSN9Cloud_dx97CShaderE
__ZTSN9Core_DX907CShaderE
__ZTSN9FilmGrain7CShaderE
__ZTSN9Occlusion7CShaderE
__ZTSN9Sample4x47CShaderE
__ZTSN9Teeth_DX97CShaderE
__ZTSN9Wireframe7CShaderE
__ZTV10CShaderDLL
__ZTV11CBaseShader
__ZTV12CEmptyConVar
__ZTV16CDefaultAccessor
__ZTV17CSkin_DX9_Context
__ZTV17CWarp_DX9_Context
__ZTV18CUtlCharConversion
__ZTV19CUtlNoEscConversion
__ZTV21CUtlCStringConversion
__ZTV23CPyroVision_DX9_Context
__ZTV24CShaderLibConVarAccessor
__ZTV29CVRDistortTexture_DX9_Context
__ZTV29CVertexLitGeneric_DX9_Context
__ZTV31CLightmappedGeneric_DX9_Context
__ZTV6ConVar
__ZTVN10Aftershock7CShaderE
__ZTVN10Cloak_DX907CShaderE
__ZTVN10Compositor7CShaderE
__ZTVN10DepthWrite7CShaderE
__ZTVN10Downsample7CShaderE
__ZTVN10EyeRefract7CShaderE
__ZTVN10MotionBlur7CShaderE
__ZTVN10Sprite_DX97CShaderE
__ZTVN10Spritecard7CShaderE
__ZTVN10Water_DX9013Water_DX9_HDR7CShaderE
__ZTVN10Water_DX907CShaderE
__ZTVN10WriteZ_DX97CShaderE
__ZTVN10__cxxabiv117__class_type_infoE
__ZTVN10__cxxabiv120__si_class_type_infoE
__ZTVN10__cxxabiv121__vmi_class_type_infoE
__ZTVN11BlurFilterX7CShaderE
__ZTVN11BlurFilterY7CShaderE
__ZTVN11Engine_Post7CShaderE
__ZTVN11Portal_DX907CShaderE
__ZTVN11ShadowBuild7CShaderE
__ZTVN11ShadowModel7CShaderE
__ZTVN11Sky_HDR_DX97CShaderE
__ZTVN11pyro_vision7CShaderE
__ZTVN12EyeGlint_dx97CShaderE
__ZTVN12FilmDust_dx97CShaderE
__ZTVN12Modulate_DX97CShaderE
__ZTVN12Refract_DX907CShaderE
__ZTVN12UnlitGeneric7CShaderE
__ZTVN12VolumeClouds7CShaderE
__ZTVN12VortWarp_DX97CShaderE
__ZTVN12WriteStencil7CShaderE
__ZTVN12floatcombine7CShaderE
__ZTVN13DecalModulate7CShaderE
__ZTVN13FilmGrain_dx97CShaderE
__ZTVN13MonitorScreen7CShaderE
__ZTVN13Occlusion_DX97CShaderE
__ZTVN13PortalRefract7CShaderE
__ZTVN13Wireframe_DX97CShaderE
__ZTVN13floattoscreen7CShaderE
__ZTVN14Aftershock_dx97CShaderE
__ZTVN14EyeRefract_dx97CShaderE
__ZTVN14HDRSelectRange7CShaderE
__ZTVN14MotionBlur_dx97CShaderE
__ZTVN14ParticleSphere7CShaderE
__ZTVN14ShatteredGlass7CShaderE
__ZTVN14WindowImposter7CShaderE
__ZTVN14vr_distort_hud7CShaderE
__ZTVN15ColorCorrection7CShaderE
__ZTVN15DebugMRTTexture7CShaderE
__ZTVN15Engine_Post_dx97CShaderE
__ZTVN15Sample4x4_Blend7CShaderE
__ZTVN15ShadowBuild_DX97CShaderE
__ZTVN15ShadowModel_DX97CShaderE
__ZTVN15UnlitTwoTexture7CShaderE
__ZTVN16DebugTextureView7CShaderE
__ZTVN16Downsample_nohdr7CShaderE
__ZTVN16VertexLitGeneric7CShaderE
__ZTVN16VolumeClouds_dx97CShaderE
__ZTVN16WorldVertexAlpha7CShaderE
__ZTVN16WriteStencil_DX97CShaderE
__ZTVN16accumbuff4sample7CShaderE
__ZTVN16accumbuff5sample7CShaderE
__ZTVN16color_projection7CShaderE
__ZTVN17DecalModulate_dx97CShaderE
__ZTVN17HDRCombineTo16Bit7CShaderE
__ZTVN17MonitorScreen_DX97CShaderE
__ZTVN17PortalRefract_dx97CShaderE
__ZTVN18LightmappedGeneric7CShaderE
__ZTVN18ParticleSphere_DX97CShaderE
__ZTVN18vr_distort_texture7CShaderE
__ZTVN19PortalStaticOverlay7CShaderE
__ZTVN19UnlitTwoTexture_DX97CShaderE
__ZTVN19WindowImposter_DX907CShaderE
__ZTVN19hsl_filmgrain_pass17CShaderE
__ZTVN19hsl_filmgrain_pass27CShaderE
__ZTVN19screenspace_general7CShaderE
__ZTVN20DebugTextureView_dx97CShaderE
__ZTVN20WorldTwoTextureBlend7CShaderE
__ZTVN21LightmappedReflective7CShaderE
__ZTVN21WorldVertexTransition7CShaderE
__ZTVN21floattoscreen_vanilla7CShaderE
__ZTVN21sfm_downsample_shader7CShaderE
__ZTVN22BufferClearObeyStencil7CShaderE
__ZTVN22IntroScreenSpaceEffect7CShaderE
__ZTVN22ParticleLitGeneric_DX97CShaderE
__ZTVN22sfm_blurfilterx_shader7CShaderE
__ZTVN22sfm_blurfiltery_shader7CShaderE
__ZTVN23floatcombine_autoexpose7CShaderE
__ZTVN23screenspace_general_dx97CShaderE
__ZTVN25WorldVertexTransition_DX97CShaderE
__ZTVN25sfm_integercombine_shader7CShaderE
__ZTVN26BufferClearObeyStencil_DX97CShaderE
__ZTVN26LightmappedReflective_DX907CShaderE
__ZTVN3Bik7CShaderE
__ZTVN3HSV7CShaderE
__ZTVN3Sky7CShaderE
__ZTVN41DecalBaseTimesLightmapAlphaBlendSelfIllum7CShaderE
__ZTVN45DecalBaseTimesLightmapAlphaBlendSelfIllum_DX97CShaderE
__ZTVN4Core7CShaderE
__ZTVN4eyes7CShaderE
__ZTVN4warp7CShaderE
__ZTVN5Bloom7CShaderE
__ZTVN5Cable7CShaderE
__ZTVN5Cloak7CShaderE
__ZTVN5Cloud7CShaderE
__ZTVN5Teeth7CShaderE
__ZTVN5Water7CShaderE
__ZTVN5showz7CShaderE
__ZTVN6Portal7CShaderE
__ZTVN6Shadow7CShaderE
__ZTVN6Sprite7CShaderE
__ZTVN6WriteZ7CShaderE
__ZTVN7Refract7CShaderE
__ZTVN7Sky_DX97CShaderE
__ZTVN8EyeGlint7CShaderE
__ZTVN8Eyes_dx97CShaderE
__ZTVN8FilmDust7CShaderE
__ZTVN8Modulate7CShaderE
__ZTVN8TreeLeaf7CShaderE
__ZTVN8VortWarp7CShaderE
__ZTVN9Cable_DX97CShaderE
__ZTVN9Cloud_dx97CShaderE
__ZTVN9Core_DX907CShaderE
__ZTVN9FilmGrain7CShaderE
__ZTVN9Occlusion7CShaderE
__ZTVN9Sample4x47CShaderE
__ZTVN9Teeth_DX97CShaderE
__ZTVN9Wireframe7CShaderE
__ZThn24_N12CEmptyConVar8SetValueEPKc
__ZThn24_N12CEmptyConVar8SetValueEf
__ZThn24_N12CEmptyConVar8SetValueEi
__ZThn24_N6ConVar8SetValueEPKc
__ZThn24_N6ConVar8SetValueEf
__ZThn24_N6ConVar8SetValueEi
__ZThn24_NK12CEmptyConVar7GetNameEv
__ZThn24_NK12CEmptyConVar9IsFlagSetEi
__ZThn24_NK6ConVar7GetNameEv
__ZThn24_NK6ConVar9IsFlagSetEi
__ZThn4_N10CShaderDLL12InsertShaderEP7IShader
__ZZ30GetDefaultDepthFeatheringValuevE19mat_reduceparticles
__ZZ30GetDefaultDepthFeatheringValuevE7iRetVal
__ZZL33DrawVertexLitGeneric_DX9_InternalP13CBaseVSShaderPP12IMaterialVarP17IShaderDynamicAPIP13IShaderShadowbbR27VertexLitGeneric_DX9_Vars_t23VertexCompressionType_tPP27CBasePerMaterialContextDataE19mat_reduceparticles
__ZZN10Spritecard7CShader14OnDrawElementsEPP12IMaterialVarP13IShaderShadowP17IShaderDynamicAPI23VertexCompressionType_tPP27CBasePerMaterialContextDataE14s_TexCoordSize
__ZZN10Spritecard7CShader14OnDrawElementsEPP12IMaterialVarP13IShaderShadowP17IShaderDynamicAPI23VertexCompressionType_tPP27CBasePerMaterialContextDataE20s_TexCoordSizeSpline
__ZZN11pyro_vision7CShader14OnDrawElementsEPP12IMaterialVarP13IShaderShadowP17IShaderDynamicAPI23VertexCompressionType_tPP27CBasePerMaterialContextDataE24pyro_vignette_distortion
__ZZN9ConVarRef4InitEPKcbE6bFirst
__ZdaPv
__ZdlPv
__Znam
__Znwm
___bzero
___clang_call_terminate
___cxa_atexit
___cxa_begin_catch
___cxa_call_unexpected
___cxa_guard_abort
___cxa_guard_acquire
___cxa_guard_release
___cxa_pure_virtual
___gxx_personality_v0
___stack_chk_fail
___stack_chk_guard
_atof
_atoi
_cosf
_cvar
_floorf
_fmod
_g_ConVarAccessor
_g_VProfCurrentProfile
_g_nSnapShots
_g_pCVar
_g_pConfig
_g_pHardwareConfig
_g_pMemAlloc
_g_pProcessUtils
_g_pSLShaderSystem
_g_shaderConfigDumpEnable
_gl_amd_occlusion_workaround
_lineartolightmap
_lineartovertex
_mat_disable_fancy_blending
_mat_disable_lightwarp
_mat_fullbright
_mat_motion_blur_percent_of_screen_max
_memcpy
_memmove
_memset
_my_mat_fullbright
_pfFastCos
_pfFastSinCos
_pfInvRSquared
_pfRSqrt
_pfRSqrtFast
_pfSqrt
_pfVectorNormalize
_pfVectorNormalizeFast
_pow
_printf
_r_flashlight_version2
_s_NoEscConversion
_s_StringCharConversion
_s_bMathlibInitialized
_sin
_strcasecmp
_strcmp
_strlen
_vsnprintf
dyld_stub_binder
