GCC_except_table0
GCC_except_table0
GCC_except_table0
GCC_except_table0
GCC_except_table0
GCC_except_table1
GCC_except_table1
GCC_except_table10
GCC_except_table10
GCC_except_table11
GCC_except_table12
GCC_except_table15
GCC_except_table16
GCC_except_table17
GCC_except_table17
GCC_except_table19
GCC_except_table19
GCC_except_table2
GCC_except_table2
GCC_except_table2
GCC_except_table2
GCC_except_table20
GCC_except_table21
GCC_except_table22
GCC_except_table22
GCC_except_table22
GCC_except_table23
GCC_except_table24
GCC_except_table24
GCC_except_table25
GCC_except_table26
GCC_except_table27
GCC_except_table28
GCC_except_table28
GCC_except_table29
GCC_except_table29
GCC_except_table29
GCC_except_table3
GCC_except_table3
GCC_except_table3
GCC_except_table3
GCC_except_table31
GCC_except_table32
GCC_except_table34
GCC_except_table4
GCC_except_table4
GCC_except_table4
GCC_except_table44
GCC_except_table44
GCC_except_table45
GCC_except_table46
GCC_except_table47
GCC_except_table5
GCC_except_table5
GCC_except_table5
GCC_except_table5
GCC_except_table52
GCC_except_table53
GCC_except_table54
GCC_except_table57
GCC_except_table59
GCC_except_table6
GCC_except_table64
GCC_except_table66
GCC_except_table67
GCC_except_table68
GCC_except_table69
GCC_except_table7
GCC_except_table70
GCC_except_table71
GCC_except_table72
GCC_except_table77
GCC_except_table8
GCC_except_table9
GCC_except_table9
_ConDMsg
_CreateInterface
_Error
_GetCPUInformation
_KeyValuesSystem
_Msg
_RandomFloat
_RandomInt
_SinCosTable
_ThreadGetCurrentId
_ThreadInterlockedAssignIf
_ThreadInterlockedDecrement
_ThreadInterlockedExchange
_ThreadInterlockedIncrement
_Warning
__GLOBAL__sub_I_KeyValues.stdout.rel_tf_osx_builder.55432.qZWQhg.ii
__GLOBAL__sub_I_convar.stdout.rel_tf_osx_builder.55430.mXKsKU.ii
__GLOBAL__sub_I_r_studiodr.stdout.rel_tf_osx_builder.56028.HqaCER.ii
__GLOBAL__sub_I_r_studiofl.stdout.rel_tf_osx_builder.56029.qhZi4C.ii
__GLOBAL__sub_I_r_studiost.stdout.rel_tf_osx_builder.56033.fylUmN.ii
__GLOBAL__sub_I_sse.stdout.rel_tf_osx_builder.9376.gxVesc.ii
__GLOBAL__sub_I_studiorend.stdout.rel_tf_osx_builder.56032.jbVr2z.ii
__GLOBAL__sub_I_studiorend.stdout.rel_tf_osx_builder.56074.8OzN3D.ii
__GLOBAL__sub_I_utlbuffer.stdout.rel_tf_osx_builder.8986.vt30zT.ii
__Unwind_Resume
__Z10MatrixCopyRK11matrix3x4_tRS_
__Z10V_snprintfPciPKcz
__Z11V_vsnprintfPciPKcS_
__Z12MathLib_Initfffibbbb
__Z12V_FixSlashesPcc
__Z12VectorRotatePKfRK11matrix3x4_tPf
__Z12_InvRSquaredPKf
__Z13VectorIRotatePKfRK11matrix3x4_tPf
__Z14MatrixMultiplyRK7VMatrixS1_RS_
__Z14_SSE_RSqrtFastf
__Z15BuildGammaTablefffi
__Z15ConVar_RegisteriP23IConCommandBaseAccessor
__Z15LinearToTexturef
__Z15TextureToLineari
__Z15VectorTransformPKfRK11matrix3x4_tPf
__Z16ConcatTransformsRK11matrix3x4_tS1_RS_
__Z16_SSE_InvRSquaredPKf
__Z16_VectorNormalizeR6Vector
__Z17ConVar_Unregisterv
__Z17R_LightAmbient_4DRK6VectorP8Vector4DRS_
__Z17SetIdentityMatrixR11matrix3x4_t
__Z17V_ComposeFileNamePKcS0_Pci
__Z18ComputePoseToWorldP11matrix3x4_tP11studiohdr_tiRK6VectorPKS_
__Z18MathLib_SSEEnabledv
__Z18R_StudioSetupModeliiPP14mstudiomodel_tPK11studiohdr_t
__Z18Sys_GetFactoryThisv
__Z18_SSE_RSqrtAccuratef
__Z20ComputeTrianglePlaneRK6VectorS1_S1_RS_Rf
__Z20R_LightStrengthWorldRK6VectoriP11LightDesc_tP10lightpos_t
__Z20StudioChangeCallbackP7IConVarPKcf
__Z20_VectorNormalizeFastR6Vector
__Z21ConnectTier1LibrariesPPFPvPKcPiEi
__Z21ConnectTier2LibrariesPPFPvPKcPiEi
__Z21ConnectTier3LibrariesPPFPvPKcPiEi
__Z22CopyLocalLightingStateiP11LightDesc_tiPKS_
__Z23CreateInterfaceInternalPKcPi
__Z23GenerateQuadIndexBufferPtii
__Z24DisconnectTier1Librariesv
__Z24DisconnectTier2Librariesv
__Z24DisconnectTier3Librariesv
__Z24_SSE_VectorNormalizeFastR6Vector
__Z26GeneratePolygonIndexBufferPtii
__Z27GenerateLineLoopIndexBufferPtii
__Z28GenerateLineStripIndexBufferPtii
__Z29GenerateSequentialIndexBufferPtii
__Z6ConMsgPKcz
__Z6SinCosfPfS_
__Z6V_atofPKc
__Z6_sqrtff
__Z7_rsqrtff
__Z9V_stricmpPKcS0_
__Z9V_strncatPcPKcmi
__Z9V_strncpyPcPKci
__Z9_SSE_Sqrtf
__ZL10eyeUpCache
__ZL10glintCache
__ZL10irisUCache
__ZL10irisVCache
__ZL11glintUCache
__ZL11glintVCache
__ZL11s_nCVarFlag
__ZL11vec2_origin
__ZL11vec2_origin
__ZL11vec2_origin
__ZL11vec2_origin
__ZL11vec2_origin
__ZL11vec2_origin
__ZL11vec2_origin
__ZL11vec2_origin
__ZL11vec2_origin
__ZL11vec4_origin
__ZL11vec4_origin
__ZL11vec4_origin
__ZL11vec4_origin
__ZL11vec4_origin
__ZL12r_randomflex
__ZL12s_bConnected
__ZL12s_pLightMask
__ZL12s_pProcGlint
__ZL12sg_IndexSwap
__ZL12vec2_invalid
__ZL12vec2_invalid
__ZL12vec2_invalid
__ZL12vec2_invalid
__ZL12vec2_invalid
__ZL12vec2_invalid
__ZL12vec2_invalid
__ZL12vec2_invalid
__ZL12vec2_invalid
__ZL12vec4_invalid
__ZL12vec4_invalid
__ZL12vec4_invalid
__ZL12vec4_invalid
__ZL12vec4_invalid
__ZL13SortVertCountPKvS0_
__ZL13illumVarCache
__ZL13s_EmptyConVar
__ZL13s_bMMXEnabled
__ZL13s_bRegistered
__ZL13s_bSSEEnabled
__ZL14IntersectPlaneR16DecalClipState_tiiif
__ZL14eyeOriginCache
__ZL14lineartoscreen
__ZL14r_studio_stats
__ZL14s_bSSE2Enabled
__ZL14s_pVertexCount
__ZL15forwardVarCache
__ZL15lineartotexture
__ZL15texturetolinear
__ZL16s_nDLLIdentifier
__ZL17ComputeSkinMatrixR19mstudioboneweight_tP11matrix3x4_tRS1_
__ZL17s_DefaultAccessor
__ZL17studio_queue_mode
__ZL18g_nTotalDecalVerts
__ZL18r_glint_alwaysdraw
__ZL18r_glint_procedural
__ZL18s_pAmbientLightDir
__ZL18s_pZeroFlexWeights
__ZL19r_flashlightscissor
__ZL19s_GlintTextureRegen
__ZL21s_StudioRenderContext
__ZL22s_nSolidModelHullCache
__ZL23g_Mathlib_GammaToLinear
__ZL23g_Mathlib_LinearToGamma
__ZL24ClipTriangleAgainstPlaneR16DecalClipState_tiif
__ZL25g_SoftwareProcessMeshFunc
__ZL28ReleaseMaterialSystemObjectsv
__ZL28RestoreMaterialSystemObjectsi
__ZL28s_nTranslucentModelHullCache
__ZL2f3
__ZL35s_pConversionArrays_NoEscConversion
__ZL3f05
__ZL40s_pConversionArrays_StringCharConversion
__ZL47__g_CreateCStudioRenderContextIStudioRender_reg
__ZL51__CreateCStudioRenderContextIStudioRender_interfacev
__ZL6boxpnt
__ZL8lightpos
__ZL8s_pWhite
__ZL9g_KVMutex
__ZL9hullcolor
__ZL9r_hwmorph
__ZN10CUtlBuffer18AddNullTerminationEv
__ZN10CUtlBuffer3PutEPKvi
__ZN10CUtlBuffer6PrintfEPKcz
__ZN10CUtlBuffer9PutStringEPKc
__ZN10CUtlMemoryI19UtlLinkedListElem_tI13DecalVertex_ttEtE4GrowEi
__ZN10CUtlMemoryI19UtlLinkedListElem_tIN13CStudioRender14DecalHistory_tEtEtE4GrowEi
__ZN10CUtlMemoryI19UtlLinkedListElem_tIN13CStudioRender15DecalMaterial_tEtEtE4GrowEi
__ZN10CUtlMemoryI19UtlLinkedListElem_tIN13CStudioRender7Decal_tEtEtE4GrowEi
__ZN10CUtlVectorI21GetTriangles_Vertex_t10CUtlMemoryIS0_iEE20InsertMultipleBeforeEii
__ZN10CUtlVectorI21GetTriangles_Vertex_t10CUtlMemoryIS0_iEED2Ev
__ZN10CUtlVectorI6Vector10CUtlMemoryIS0_iEE20InsertMultipleBeforeEii
__ZN10CUtlVectorI6Vector10CUtlMemoryIS0_iEED2Ev
__ZN10CUtlVectorI8Vector2D10CUtlMemoryIS0_iEE20InsertMultipleBeforeEii
__ZN10CUtlVectorI8Vector2D10CUtlMemoryIS0_iEED2Ev
__ZN10CUtlVectorIN13CStudioRender13ShadowState_tE10CUtlMemoryIS1_iEED2Ev
__ZN10CUtlVectorIN17CCachedRenderData11CacheDict_tE10CUtlMemoryIS1_iEE20InsertMultipleBeforeEii
__ZN10CUtlVectorIN17CCachedRenderData11CacheDict_tE10CUtlMemoryIS1_iEED2Ev
__ZN10CUtlVectorIS_IN17CCachedRenderData11CacheDict_tE10CUtlMemoryIS1_iEES2_IS4_iEE20InsertMultipleBeforeEii
__ZN10CUtlVectorIS_IN17CCachedRenderData11CacheDict_tE10CUtlMemoryIS1_iEES2_IS4_iEED2Ev
__ZN10CUtlVectorIS_IS_IN17CCachedRenderData11CacheDict_tE10CUtlMemoryIS1_iEES2_IS4_iEES2_IS6_iEE20InsertMultipleBeforeEii
__ZN10CUtlVectorIS_IS_IN17CCachedRenderData11CacheDict_tE10CUtlMemoryIS1_iEES2_IS4_iEES2_IS6_iEED2Ev
__ZN10CUtlVectorIb10CUtlMemoryIbiEE20InsertMultipleBeforeEii
__ZN10CUtlVectorIb10CUtlMemoryIbiEED2Ev
__ZN10CUtlVectorIf10CUtlMemoryIfiEE20InsertMultipleBeforeEii
__ZN10CUtlVectorIf10CUtlMemoryIfiEED2Ev
__ZN10CUtlVectorIi10CUtlMemoryIiiEE10GrowVectorEi
__ZN10CUtlVectorIi10CUtlMemoryIiiEED2Ev
__ZN10CUtlVectorIs10CUtlMemoryIsiEE20InsertMultipleBeforeEii
__ZN10CUtlVectorIs10CUtlMemoryIsiEED2Ev
__ZN10CUtlVectorIt10CUtlMemoryItiEE9AddToTailERKt
__ZN10CUtlVectorIt10CUtlMemoryItiEED2Ev
__ZN10CVProfNode10EnterScopeEv
__ZN10CVProfNode10GetSubNodeEPKciS1_i
__ZN10CVProfNode9ExitScopeEv
__ZN12CEmptyConVar8SetValueEPKc
__ZN12CEmptyConVar8SetValueEf
__ZN12CEmptyConVar8SetValueEi
__ZN12CEmptyConVarD0Ev
__ZN12CEmptyConVarD1Ev
__ZN12CRefCounted1I8CFunctor20CRefCountServiceBaseILb1E6CRefMTEE6AddRefEv
__ZN12CRefCounted1I8CFunctor20CRefCountServiceBaseILb1E6CRefMTEE7ReleaseEv
__ZN12InterfaceReg16s_pInterfaceRegsE
__ZN12InterfaceRegC1EPFPvvEPKc
__ZN13CStudioRender10ModelStatsERK15DrawModelInfo_tRK21StudioRenderContext_tP11matrix3x4_tRK13FlexWeights_ti
__ZN13CStudioRender11DrawShadowsERK15DrawModelInfo_tii
__ZN13CStudioRender11RetireDecalERNS_16DecalModelList_tEtii
__ZN13CStudioRender12PreDrawDecalEP17IMatRenderContextRK15DrawModelInfo_t
__ZN13CStudioRender12UncacheGlintEv
__ZN13CStudioRender13EnableScissorEP17FlashlightState_t
__ZN13CStudioRender13PrecacheGlintEv
__ZN13CStudioRender13R_GatherStatsEP17studiomeshgroup_tR12CMeshBuilderP5IMeshP9IMaterial
__ZN13CStudioRender14AddDecalToMeshERNS_16DecalBuildInfo_tE
__ZN13CStudioRender14DisableScissorEv
__ZN13CStudioRender14DrawModelArrayERK15DrawModelInfo_tRK21StudioRenderContext_tiP22model_array_instance_tii
__ZN13CStudioRender14RampFlexWeightER13mstudioflex_tf
__ZN13CStudioRender15AddDecalToModelERNS_16DecalBuildInfo_tE
__ZN13CStudioRender15ClearAllShadowsEv
__ZN13CStudioRender15CreateDecalListEP14studiohwdata_t
__ZN13CStudioRender15R_MouthLightingEfRK6VectorS2_RS0_
__ZN13CStudioRender16DestroyDecalListEP21StudioDecalHandle_t__
__ZN13CStudioRender16GetDecalMaterialERNS_10DecalLod_tEP9IMaterial
__ZN13CStudioRender16R_StudioDrawMeshEP17IMatRenderContextP13mstudiomesh_tP16studiomeshdata_t21StudioModelLighting_tP9IMaterialP15ColorMeshInfo_ti
__ZN13CStudioRender17DrawDecalMaterialEP17IMatRenderContextRNS_15DecalMaterial_tEP11studiohdr_tP15studioloddata_t
__ZN13CStudioRender17R_StudioDrawBonesEv
__ZN13CStudioRender17R_StudioDrawHullsEib
__ZN13CStudioRender17R_StudioFlexVertsEP13mstudiomesh_ti
__ZN13CStudioRender18AddTriangleToDecalERNS_16DecalBuildInfo_tEiiiiii
__ZN13CStudioRender18ComputeFlexWeightsEiP13mstudioflex_tP13MorphWeight_t
__ZN13CStudioRender18ComputePoseToDecalERK5Ray_tRK6Vector
__ZN13CStudioRender18InitDebugMaterialsEv
__ZN13CStudioRender18R_StudioDrawPointsEP17IMatRenderContextiPvPP9IMaterialPiiiP15ColorMeshInfo_t
__ZN13CStudioRender18R_StudioEyelidFACSEPK16mstudioeyeball_tPK14eyeballstate_t
__ZN13CStudioRender18RenderGlintTextureEPK14eyeballstate_tRK6VectorS5_S5_
__ZN13CStudioRender18SetEyeMaterialVarsEP9IMaterialP16mstudioeyeball_tRK6VectorRK11matrix3x4_tS9_
__ZN13CStudioRender19DrawModelStaticPropERK15DrawModelInfo_tRK21StudioRenderContext_tRK11matrix3x4_ti
__ZN13CStudioRender19DrawMultiBoneDecalsER12CMeshBuilderRNS_15DecalMaterial_tEP11studiohdr_t
__ZN13CStudioRender19R_StudioDrawEyeballEP17IMatRenderContextP13mstudiomesh_tP16studiomeshdata_t21StudioModelLighting_tP9IMateriali
__ZN13CStudioRender19R_StudioRenderFinalEP17IMatRenderContextiiPNS_14BodyPartInfo_tEPvPP9IMaterialPiiiP15ColorMeshInfo_t
__ZN13CStudioRender19R_StudioRenderModelEP17IMatRenderContextiiiPvPP9IMaterialPiiiiP15ColorMeshInfo_t
__ZN13CStudioRender19R_StudioRestoreMeshIL23VertexCompressionType_t0EEEvP13mstudiomesh_tP17studiomeshgroup_t
__ZN13CStudioRender19R_StudioRestoreMeshIL23VertexCompressionType_t1EEEvP13mstudiomesh_tP17studiomeshgroup_t
__ZN13CStudioRender20BuildGlintRenderDataEPNS_17GlintRenderData_tEiPK14eyeballstate_tRK6VectorS7_S7_
__ZN13CStudioRender20DrawFlashlightDecalsERK15DrawModelInfo_ti
__ZN13CStudioRender20DrawSingleBoneDecalsER12CMeshBuilderRNS_15DecalMaterial_tE
__ZN13CStudioRender20DrawStaticPropDecalsERK15DrawModelInfo_tRK21StudioRenderContext_tRK11matrix3x4_t
__ZN13CStudioRender20ProjectDecalOntoMeshERNS_16DecalBuildInfo_tEPNS_22DecalBuildVertexInfo_tEP13mstudiomesh_t
__ZN13CStudioRender20R_LightGlintPositionEiRK6VectorRS0_S3_
__ZN13CStudioRender20R_StudioEyeballGlintEPK14eyeballstate_tP12IMaterialVarRK6VectorS7_S7_
__ZN13CStudioRender21DrawStaticPropShadowsERK15DrawModelInfo_tRK21StudioRenderContext_tRK11matrix3x4_ti
__ZN13CStudioRender21R_StudioFlexMeshGroupEP17studiomeshgroup_t
__ZN13CStudioRender21TransformToDecalSpaceERNS_16DecalBuildInfo_tERK6VectorP19mstudioboneweight_tR8Vector2D
__ZN13CStudioRender22R_StudioDrawStaticMeshEP17IMatRenderContextP13mstudiomesh_tP17studiomeshgroup_t21StudioModelLighting_tfP9IMaterialiP15ColorMeshInfo_t
__ZN13CStudioRender22SetLightingRenderStateEv
__ZN13CStudioRender23ComputeVertexAllocationEiiP14studiohwdata_tP16MeshVertexInfo_t
__ZN13CStudioRender23R_StudioDrawDynamicMeshEP17IMatRenderContextP13mstudiomesh_tP17studiomeshgroup_t21StudioModelLighting_tfP9IMateriali
__ZN13CStudioRender23R_StudioDrawGroupHWSkinEP17IMatRenderContextP17studiomeshgroup_tP5IMeshP15ColorMeshInfo_t
__ZN13CStudioRender23R_StudioDrawGroupSWSkinEP17studiomeshgroup_tP5IMesh
__ZN13CStudioRender23R_StudioEyeballPositionEPK16mstudioeyeball_tP14eyeballstate_t
__ZN13CStudioRender23SetupTreeSwayDepthWriteEP9IMaterialS1_
__ZN13CStudioRender24GenerateMorphAccumulatorEP14mstudiomodel_t
__ZN13CStudioRender24R_InitLightEffectsWorld3Ev
__ZN13CStudioRender24R_MouthSetupVertexShaderEP9IMaterial
__ZN13CStudioRender25AddClippedDecalToTriangleERNS_16DecalBuildInfo_tER16DecalClipState_t
__ZN13CStudioRender25DrawMultiBoneFlexedDecalsEP17IMatRenderContextR12CMeshBuilderRNS_15DecalMaterial_tEP11studiohdr_tP15studioloddata_t
__ZN13CStudioRender25R_StudioProcessFlexedMeshEP13mstudiomesh_tR12CMeshBuilderiPt
__ZN13CStudioRender26DrawSingleBoneFlexedDecalsEP17IMatRenderContextR12CMeshBuilderRNS_15DecalMaterial_tE
__ZN13CStudioRender27R_StudioSoftwareProcessMeshEP13mstudiomesh_tR12CMeshBuilderiPt21StudioModelLighting_tbfbbP9IMaterial
__ZN13CStudioRender28R_MouthComputeLightingValuesERfR6Vector
__ZN13CStudioRender28R_StudioSetupSkinAndLightingEP17IMatRenderContextiPP9IMaterialiPvP15ColorMeshInfo_tR21StudioModelLighting_t
__ZN13CStudioRender29ComputeGlintTextureProjectionEPK14eyeballstate_tRK6VectorS5_R11matrix3x4_t
__ZN13CStudioRender30ConvertMeshVertexToDecalVertexERNS_16DecalBuildInfo_tEiR13DecalVertex_ti
__ZN13CStudioRender35R_StudioSoftwareProcessMesh_NormalsEP13mstudiomesh_tR12CMeshBuilderiPt21StudioModelLighting_tbfbb
__ZN13CStudioRender38R_StudioProcessFlexedMesh_StreamOffsetEP13mstudiomesh_ti
__ZN13CStudioRender4InitEv
__ZN13CStudioRender8AddDecalEP21StudioDecalHandle_t__RK21StudioRenderContext_tP11matrix3x4_tP11studiohdr_tRK5Ray_tRK6VectorP9IMaterialfibi
__ZN13CStudioRender8AddGlintER12CPixelWriterffRK6Vector
__ZN13CStudioRender8ShutdownEv
__ZN13CStudioRender9AddShadowEP9IMaterialPvP17FlashlightState_tP7VMatrixP8ITexture
__ZN13CStudioRender9ClipDecalERNS_16DecalBuildInfo_tEiiiPi
__ZN13CStudioRender9DrawDecalERK15DrawModelInfo_tii
__ZN13CStudioRender9DrawModelERK15DrawModelInfo_tRK21StudioRenderContext_tP11matrix3x4_tRK13FlexWeights_ti
__ZN13CStudioRenderC2Ev
__ZN13CStudioRenderD1Ev
__ZN13CStudioRenderD2Ev
__ZN14CUtlLinkedListI13DecalVertex_ttLb0Et10CUtlMemoryI19UtlLinkedListElem_tIS0_tEtEE10LinkBeforeEtt
__ZN14CUtlLinkedListI13DecalVertex_ttLb0Et10CUtlMemoryI19UtlLinkedListElem_tIS0_tEtEE12InsertBeforeEtRKS0_
__ZN14CUtlLinkedListI13DecalVertex_ttLb0Et10CUtlMemoryI19UtlLinkedListElem_tIS0_tEtEE13AllocInternalEb
__ZN14CUtlLinkedListI13DecalVertex_ttLb0Et10CUtlMemoryI19UtlLinkedListElem_tIS0_tEtEE5PurgeEv
__ZN14CUtlLinkedListI13DecalVertex_ttLb0Et10CUtlMemoryI19UtlLinkedListElem_tIS0_tEtEED2Ev
__ZN14CUtlLinkedListIN13CStudioRender10DecalLRU_tEiLb1Ei15CUtlFixedMemoryI19UtlLinkedListElem_tIS1_iEEE13AllocInternalEb
__ZN14CUtlLinkedListIN13CStudioRender10DecalLRU_tEiLb1Ei15CUtlFixedMemoryI19UtlLinkedListElem_tIS1_iEEE6UnlinkEi
__ZN14CUtlLinkedListIN13CStudioRender10DecalLRU_tEiLb1Ei15CUtlFixedMemoryI19UtlLinkedListElem_tIS1_iEEE9RemoveAllEv
__ZN14CUtlLinkedListIN13CStudioRender14DecalHistory_tEtLb0Et10CUtlMemoryI19UtlLinkedListElem_tIS1_tEtEE10LinkBeforeEtt
__ZN14CUtlLinkedListIN13CStudioRender14DecalHistory_tEtLb0Et10CUtlMemoryI19UtlLinkedListElem_tIS1_tEtEE13AllocInternalEb
__ZN14CUtlLinkedListIN13CStudioRender14DecalHistory_tEtLb0Et10CUtlMemoryI19UtlLinkedListElem_tIS1_tEtEED2Ev
__ZN14CUtlLinkedListIN13CStudioRender15DecalMaterial_tEtLb1Et10CUtlMemoryI19UtlLinkedListElem_tIS1_tEtEE10LinkBeforeEtt
__ZN14CUtlLinkedListIN13CStudioRender15DecalMaterial_tEtLb1Et10CUtlMemoryI19UtlLinkedListElem_tIS1_tEtEE13AllocInternalEb
__ZN14CUtlLinkedListIN13CStudioRender15DecalMaterial_tEtLb1Et10CUtlMemoryI19UtlLinkedListElem_tIS1_tEtEE4FreeEt
__ZN14CUtlLinkedListIN13CStudioRender15DecalMaterial_tEtLb1Et10CUtlMemoryI19UtlLinkedListElem_tIS1_tEtEE9RemoveAllEv
__ZN14CUtlLinkedListIN13CStudioRender16DecalModelList_tEiLb1Ei15CUtlFixedMemoryI19UtlLinkedListElem_tIS1_iEEE13AllocInternalEb
__ZN14CUtlLinkedListIN13CStudioRender16DecalModelList_tEiLb1Ei15CUtlFixedMemoryI19UtlLinkedListElem_tIS1_iEEE6UnlinkEi
__ZN14CUtlLinkedListIN13CStudioRender16DecalModelList_tEiLb1Ei15CUtlFixedMemoryI19UtlLinkedListElem_tIS1_iEEE9RemoveAllEv
__ZN14CUtlLinkedListIN13CStudioRender7Decal_tEtLb0Et10CUtlMemoryI19UtlLinkedListElem_tIS1_tEtEE10LinkBeforeEtt
__ZN14CUtlLinkedListIN13CStudioRender7Decal_tEtLb0Et10CUtlMemoryI19UtlLinkedListElem_tIS1_tEtEE13AllocInternalEb
__ZN14CUtlLinkedListIN13CStudioRender7Decal_tEtLb0Et10CUtlMemoryI19UtlLinkedListElem_tIS1_tEtEE5PurgeEv
__ZN14CUtlLinkedListIN13CStudioRender7Decal_tEtLb0Et10CUtlMemoryI19UtlLinkedListElem_tIS1_tEtEED2Ev
__ZN14ConCommandBase10CreateBaseEPKcS1_i
__ZN14ConCommandBase11s_pAccessorE
__ZN14ConCommandBase18s_pConCommandBasesE
__ZN14mstudiomodel_t15CacheVertexDataEPv
__ZN15CMemberFunctor0IP13CStudioRenderMS0_FvvE12CRefCounted1I8CFunctor20CRefCountServiceBaseILb1E6CRefMTEE18CFuncMemPolicyNoneED0Ev
__ZN15CMemberFunctor0IP13CStudioRenderMS0_FvvE12CRefCounted1I8CFunctor20CRefCountServiceBaseILb1E6CRefMTEE18CFuncMemPolicyNoneED1Ev
__ZN15CMemberFunctor0IP13CStudioRenderMS0_FvvE12CRefCounted1I8CFunctor20CRefCountServiceBaseILb1E6CRefMTEE18CFuncMemPolicyNoneEclEv
__ZN15CMemberFunctor1IP13CStudioRenderMS0_FvP21StudioDecalHandle_t__ES3_12CRefCounted1I8CFunctor20CRefCountServiceBaseILb1E6CRefMTEE18CFuncMemPolicyNoneED0Ev
__ZN15CMemberFunctor1IP13CStudioRenderMS0_FvP21StudioDecalHandle_t__ES3_12CRefCounted1I8CFunctor20CRefCountServiceBaseILb1E6CRefMTEE18CFuncMemPolicyNoneED1Ev
__ZN15CMemberFunctor1IP13CStudioRenderMS0_FvP21StudioDecalHandle_t__ES3_12CRefCounted1I8CFunctor20CRefCountServiceBaseILb1E6CRefMTEE18CFuncMemPolicyNoneEclEv
__ZN15CMemberFunctor3IP13CStudioRenderMS0_FvRK15DrawModelInfo_tRK21StudioRenderContext_tRK11matrix3x4_tES2_S5_S8_12CRefCounted1I8CFunctor20CRefCountServiceBaseILb1E6CRefMTEE18CFuncMemPolicyNoneED0Ev
__ZN15CMemberFunctor3IP13CStudioRenderMS0_FvRK15DrawModelInfo_tRK21StudioRenderContext_tRK11matrix3x4_tES2_S5_S8_12CRefCounted1I8CFunctor20CRefCountServiceBaseILb1E6CRefMTEE18CFuncMemPolicyNoneED1Ev
__ZN15CMemberFunctor3IP13CStudioRenderMS0_FvRK15DrawModelInfo_tRK21StudioRenderContext_tRK11matrix3x4_tES2_S5_S8_12CRefCounted1I8CFunctor20CRefCountServiceBaseILb1E6CRefMTEE18CFuncMemPolicyNoneEclEv
__ZN15CMemberFunctor4IP13CStudioRenderMS0_FvRK15DrawModelInfo_tRK21StudioRenderContext_tRK11matrix3x4_tiES2_S5_S8_i12CRefCounted1I8CFunctor20CRefCountServiceBaseILb1E6CRefMTEE18CFuncMemPolicyNoneED0Ev
__ZN15CMemberFunctor4IP13CStudioRenderMS0_FvRK15DrawModelInfo_tRK21StudioRenderContext_tRK11matrix3x4_tiES2_S5_S8_i12CRefCounted1I8CFunctor20CRefCountServiceBaseILb1E6CRefMTEE18CFuncMemPolicyNoneED1Ev
__ZN15CMemberFunctor4IP13CStudioRenderMS0_FvRK15DrawModelInfo_tRK21StudioRenderContext_tRK11matrix3x4_tiES2_S5_S8_i12CRefCounted1I8CFunctor20CRefCountServiceBaseILb1E6CRefMTEE18CFuncMemPolicyNoneEclEv
__ZN15CMemberFunctor5IP13CStudioRenderMS0_FvP9IMaterialPvP17FlashlightState_tP7VMatrixP8ITextureES3_S4_S6_S8_SA_12CRefCounted1I8CFunctor20CRefCountServiceBaseILb1E6CRefMTEE18CFuncMemPolicyNoneED0Ev
__ZN15CMemberFunctor5IP13CStudioRenderMS0_FvP9IMaterialPvP17FlashlightState_tP7VMatrixP8ITextureES3_S4_S6_S8_SA_12CRefCounted1I8CFunctor20CRefCountServiceBaseILb1E6CRefMTEE18CFuncMemPolicyNoneED1Ev
__ZN15CMemberFunctor5IP13CStudioRenderMS0_FvP9IMaterialPvP17FlashlightState_tP7VMatrixP8ITextureES3_S4_S6_S8_SA_12CRefCounted1I8CFunctor20CRefCountServiceBaseILb1E6CRefMTEE18CFuncMemPolicyNoneEclEv
__ZN15CMemberFunctor5IP13CStudioRenderMS0_FvRK15DrawModelInfo_tRK21StudioRenderContext_tP11matrix3x4_tRK13FlexWeights_tiES2_S5_S9_SA_i12CRefCounted1I8CFunctor20CRefCountServiceBaseILb1E6CRefMTEE18CFuncMemPolicyNoneED0Ev
__ZN15CMemberFunctor5IP13CStudioRenderMS0_FvRK15DrawModelInfo_tRK21StudioRenderContext_tP11matrix3x4_tRK13FlexWeights_tiES2_S5_S9_SA_i12CRefCounted1I8CFunctor20CRefCountServiceBaseILb1E6CRefMTEE18CFuncMemPolicyNoneED1Ev
__ZN15CMemberFunctor5IP13CStudioRenderMS0_FvRK15DrawModelInfo_tRK21StudioRenderContext_tP11matrix3x4_tRK13FlexWeights_tiES2_S5_S9_SA_i12CRefCounted1I8CFunctor20CRefCountServiceBaseILb1E6CRefMTEE18CFuncMemPolicyNoneEclEv
__ZN16CDefaultAccessor22RegisterConCommandBaseEP14ConCommandBase
__ZN16CMemberFunctor11IP13CStudioRenderMS0_FvP21StudioDecalHandle_t__RK21StudioRenderContext_tP11matrix3x4_tP11studiohdr_tRK5Ray_tRK6VectorP9IMaterialfibiES3_S4_S8_SA_SB_SE_SI_fibi12CRefCounted1I8CFunctor20CRefCountServiceBaseILb1E6CRefMTEE18CFuncMemPolicyNoneED0Ev
__ZN16CMemberFunctor11IP13CStudioRenderMS0_FvP21StudioDecalHandle_t__RK21StudioRenderContext_tP11matrix3x4_tP11studiohdr_tRK5Ray_tRK6VectorP9IMaterialfibiES3_S4_S8_SA_SB_SE_SI_fibi12CRefCounted1I8CFunctor20CRefCountServiceBaseILb1E6CRefMTEE18CFuncMemPolicyNoneED1Ev
__ZN16CMemberFunctor11IP13CStudioRenderMS0_FvP21StudioDecalHandle_t__RK21StudioRenderContext_tP11matrix3x4_tP11studiohdr_tRK5Ray_tRK6VectorP9IMaterialfibiES3_S4_S8_SA_SB_SE_SI_fibi12CRefCounted1I8CFunctor20CRefCountServiceBaseILb1E6CRefMTEE18CFuncMemPolicyNoneEclEv
__ZN17CCachedRenderData10StartModelEv
__ZN17CCachedRenderData11SetBodyPartEi
__ZN17CCachedRenderData16CreateFlexVertexEi
__ZN17CCachedRenderData16SetupComputationEP13mstudiomesh_tb
__ZN17CCachedRenderData17CreateWorldVertexEi
__ZN17CCachedRenderData20CreateThinFlexVertexEi
__ZN17CCachedRenderData23RenormalizeFlexVerticesEb
__ZN17CCachedRenderData32ComputeFlexedVertex_StreamOffsetI17mstudiovertanim_tEEvP11studiohdr_tP13mstudioflex_tPT_iffff
__ZN17CCachedRenderData32ComputeFlexedVertex_StreamOffsetI25mstudiovertanim_wrinkle_tEEvP11studiohdr_tP13mstudioflex_tPT_iffff
__ZN17CCachedRenderData7SetMeshEi
__ZN17CCachedRenderData8SetModelEi
__ZN17CCachedRenderDataC1Ev
__ZN18CUtlCharConversion14FindConversionEPKcPi
__ZN19CProcessMeshWrapperILi0ELi0ELi0ELi0ELi0EE27R_StudioSoftwareProcessMeshEPK24mstudio_meshvertexdata_tP11matrix3x4_tR17CCachedRenderDataR12CMeshBuilderiPtjP9IMaterial
__ZN19CProcessMeshWrapperILi0ELi0ELi0ELi0ELi1EE27R_StudioSoftwareProcessMeshEPK24mstudio_meshvertexdata_tP11matrix3x4_tR17CCachedRenderDataR12CMeshBuilderiPtjP9IMaterial
__ZN19CProcessMeshWrapperILi0ELi0ELi0ELi1ELi0EE17R_PerformLightingERK6VectorfS3_S3_jPj
__ZN19CProcessMeshWrapperILi0ELi0ELi0ELi1ELi0EE27R_StudioSoftwareProcessMeshEPK24mstudio_meshvertexdata_tP11matrix3x4_tR17CCachedRenderDataR12CMeshBuilderiPtjP9IMaterial
__ZN19CProcessMeshWrapperILi0ELi0ELi0ELi1ELi1EE17R_PerformLightingERK6VectorfS3_S3_jPj
__ZN19CProcessMeshWrapperILi0ELi0ELi0ELi1ELi1EE27R_StudioSoftwareProcessMeshEPK24mstudio_meshvertexdata_tP11matrix3x4_tR17CCachedRenderDataR12CMeshBuilderiPtjP9IMaterial
__ZN19CProcessMeshWrapperILi0ELi0ELi0ELi2ELi0EE17R_PerformLightingERK6VectorfS3_S3_jPj
__ZN19CProcessMeshWrapperILi0ELi0ELi0ELi2ELi0EE27R_StudioSoftwareProcessMeshEPK24mstudio_meshvertexdata_tP11matrix3x4_tR17CCachedRenderDataR12CMeshBuilderiPtjP9IMaterial
__ZN19CProcessMeshWrapperILi0ELi0ELi0ELi2ELi1EE17R_PerformLightingERK6VectorfS3_S3_jPj
__ZN19CProcessMeshWrapperILi0ELi0ELi0ELi2ELi1EE27R_StudioSoftwareProcessMeshEPK24mstudio_meshvertexdata_tP11matrix3x4_tR17CCachedRenderDataR12CMeshBuilderiPtjP9IMaterial
__ZN19CProcessMeshWrapperILi0ELi0ELi1ELi0ELi0EE27R_StudioSoftwareProcessMeshEPK24mstudio_meshvertexdata_tP11matrix3x4_tR17CCachedRenderDataR12CMeshBuilderiPtjP9IMaterial
__ZN19CProcessMeshWrapperILi0ELi0ELi1ELi0ELi1EE27R_StudioSoftwareProcessMeshEPK24mstudio_meshvertexdata_tP11matrix3x4_tR17CCachedRenderDataR12CMeshBuilderiPtjP9IMaterial
__ZN19CProcessMeshWrapperILi0ELi0ELi1ELi1ELi0EE17R_PerformLightingERK6VectorfS3_S3_jPj
__ZN19CProcessMeshWrapperILi0ELi0ELi1ELi1ELi0EE27R_StudioSoftwareProcessMeshEPK24mstudio_meshvertexdata_tP11matrix3x4_tR17CCachedRenderDataR12CMeshBuilderiPtjP9IMaterial
__ZN19CProcessMeshWrapperILi0ELi0ELi1ELi1ELi1EE17R_PerformLightingERK6VectorfS3_S3_jPj
__ZN19CProcessMeshWrapperILi0ELi0ELi1ELi1ELi1EE27R_StudioSoftwareProcessMeshEPK24mstudio_meshvertexdata_tP11matrix3x4_tR17CCachedRenderDataR12CMeshBuilderiPtjP9IMaterial
__ZN19CProcessMeshWrapperILi0ELi0ELi1ELi2ELi0EE17R_PerformLightingERK6VectorfS3_S3_jPj
__ZN19CProcessMeshWrapperILi0ELi0ELi1ELi2ELi0EE27R_StudioSoftwareProcessMeshEPK24mstudio_meshvertexdata_tP11matrix3x4_tR17CCachedRenderDataR12CMeshBuilderiPtjP9IMaterial
__ZN19CProcessMeshWrapperILi0ELi0ELi1ELi2ELi1EE17R_PerformLightingERK6VectorfS3_S3_jPj
__ZN19CProcessMeshWrapperILi0ELi0ELi1ELi2ELi1EE27R_StudioSoftwareProcessMeshEPK24mstudio_meshvertexdata_tP11matrix3x4_tR17CCachedRenderDataR12CMeshBuilderiPtjP9IMaterial
__ZN19CProcessMeshWrapperILi0ELi1ELi0ELi0ELi0EE27R_StudioSoftwareProcessMeshEPK24mstudio_meshvertexdata_tP11matrix3x4_tR17CCachedRenderDataR12CMeshBuilderiPtjP9IMaterial
__ZN19CProcessMeshWrapperILi0ELi1ELi0ELi0ELi1EE27R_StudioSoftwareProcessMeshEPK24mstudio_meshvertexdata_tP11matrix3x4_tR17CCachedRenderDataR12CMeshBuilderiPtjP9IMaterial
__ZN19CProcessMeshWrapperILi0ELi1ELi0ELi1ELi0EE17R_PerformLightingERK6VectorfS3_S3_jPj
__ZN19CProcessMeshWrapperILi0ELi1ELi0ELi1ELi0EE27R_StudioSoftwareProcessMeshEPK24mstudio_meshvertexdata_tP11matrix3x4_tR17CCachedRenderDataR12CMeshBuilderiPtjP9IMaterial
__ZN19CProcessMeshWrapperILi0ELi1ELi0ELi1ELi1EE17R_PerformLightingERK6VectorfS3_S3_jPj
__ZN19CProcessMeshWrapperILi0ELi1ELi0ELi1ELi1EE27R_StudioSoftwareProcessMeshEPK24mstudio_meshvertexdata_tP11matrix3x4_tR17CCachedRenderDataR12CMeshBuilderiPtjP9IMaterial
__ZN19CProcessMeshWrapperILi0ELi1ELi0ELi2ELi0EE17R_PerformLightingERK6VectorfS3_S3_jPj
__ZN19CProcessMeshWrapperILi0ELi1ELi0ELi2ELi0EE27R_StudioSoftwareProcessMeshEPK24mstudio_meshvertexdata_tP11matrix3x4_tR17CCachedRenderDataR12CMeshBuilderiPtjP9IMaterial
__ZN19CProcessMeshWrapperILi0ELi1ELi0ELi2ELi1EE17R_PerformLightingERK6VectorfS3_S3_jPj
__ZN19CProcessMeshWrapperILi0ELi1ELi0ELi2ELi1EE27R_StudioSoftwareProcessMeshEPK24mstudio_meshvertexdata_tP11matrix3x4_tR17CCachedRenderDataR12CMeshBuilderiPtjP9IMaterial
__ZN19CProcessMeshWrapperILi0ELi1ELi1ELi0ELi0EE27R_StudioSoftwareProcessMeshEPK24mstudio_meshvertexdata_tP11matrix3x4_tR17CCachedRenderDataR12CMeshBuilderiPtjP9IMaterial
__ZN19CProcessMeshWrapperILi0ELi1ELi1ELi0ELi1EE27R_StudioSoftwareProcessMeshEPK24mstudio_meshvertexdata_tP11matrix3x4_tR17CCachedRenderDataR12CMeshBuilderiPtjP9IMaterial
__ZN19CProcessMeshWrapperILi0ELi1ELi1ELi1ELi0EE17R_PerformLightingERK6VectorfS3_S3_jPj
__ZN19CProcessMeshWrapperILi0ELi1ELi1ELi1ELi0EE27R_StudioSoftwareProcessMeshEPK24mstudio_meshvertexdata_tP11matrix3x4_tR17CCachedRenderDataR12CMeshBuilderiPtjP9IMaterial
__ZN19CProcessMeshWrapperILi0ELi1ELi1ELi1ELi1EE17R_PerformLightingERK6VectorfS3_S3_jPj
__ZN19CProcessMeshWrapperILi0ELi1ELi1ELi1ELi1EE27R_StudioSoftwareProcessMeshEPK24mstudio_meshvertexdata_tP11matrix3x4_tR17CCachedRenderDataR12CMeshBuilderiPtjP9IMaterial
__ZN19CProcessMeshWrapperILi0ELi1ELi1ELi2ELi0EE17R_PerformLightingERK6VectorfS3_S3_jPj
__ZN19CProcessMeshWrapperILi0ELi1ELi1ELi2ELi0EE27R_StudioSoftwareProcessMeshEPK24mstudio_meshvertexdata_tP11matrix3x4_tR17CCachedRenderDataR12CMeshBuilderiPtjP9IMaterial
__ZN19CProcessMeshWrapperILi0ELi1ELi1ELi2ELi1EE17R_PerformLightingERK6VectorfS3_S3_jPj
__ZN19CProcessMeshWrapperILi0ELi1ELi1ELi2ELi1EE27R_StudioSoftwareProcessMeshEPK24mstudio_meshvertexdata_tP11matrix3x4_tR17CCachedRenderDataR12CMeshBuilderiPtjP9IMaterial
__ZN19CProcessMeshWrapperILi1ELi0ELi0ELi0ELi0EE15R_TransformVertEPK6VectorS3_PK8Vector4DP11matrix3x4_tR13VectorAlignedRS1_R15Vector4DAligned
__ZN19CProcessMeshWrapperILi1ELi0ELi0ELi0ELi0EE27R_StudioSoftwareProcessMeshEPK24mstudio_meshvertexdata_tP11matrix3x4_tR17CCachedRenderDataR12CMeshBuilderiPtjP9IMaterial
__ZN19CProcessMeshWrapperILi1ELi0ELi0ELi0ELi1EE15R_TransformVertEPK6VectorS3_PK8Vector4DP11matrix3x4_tR13VectorAlignedRS1_R15Vector4DAligned
__ZN19CProcessMeshWrapperILi1ELi0ELi0ELi0ELi1EE27R_StudioSoftwareProcessMeshEPK24mstudio_meshvertexdata_tP11matrix3x4_tR17CCachedRenderDataR12CMeshBuilderiPtjP9IMaterial
__ZN19CProcessMeshWrapperILi1ELi0ELi0ELi1ELi0EE15R_TransformVertEPK6VectorS3_PK8Vector4DP11matrix3x4_tR13VectorAlignedRS1_R15Vector4DAligned
__ZN19CProcessMeshWrapperILi1ELi0ELi0ELi1ELi0EE17R_PerformLightingERK6VectorfS3_S3_jPj
__ZN19CProcessMeshWrapperILi1ELi0ELi0ELi1ELi0EE27R_StudioSoftwareProcessMeshEPK24mstudio_meshvertexdata_tP11matrix3x4_tR17CCachedRenderDataR12CMeshBuilderiPtjP9IMaterial
__ZN19CProcessMeshWrapperILi1ELi0ELi0ELi1ELi1EE15R_TransformVertEPK6VectorS3_PK8Vector4DP11matrix3x4_tR13VectorAlignedRS1_R15Vector4DAligned
__ZN19CProcessMeshWrapperILi1ELi0ELi0ELi1ELi1EE17R_PerformLightingERK6VectorfS3_S3_jPj
__ZN19CProcessMeshWrapperILi1ELi0ELi0ELi1ELi1EE27R_StudioSoftwareProcessMeshEPK24mstudio_meshvertexdata_tP11matrix3x4_tR17CCachedRenderDataR12CMeshBuilderiPtjP9IMaterial
__ZN19CProcessMeshWrapperILi1ELi0ELi0ELi2ELi0EE15R_TransformVertEPK6VectorS3_PK8Vector4DP11matrix3x4_tR13VectorAlignedRS1_R15Vector4DAligned
__ZN19CProcessMeshWrapperILi1ELi0ELi0ELi2ELi0EE17R_PerformLightingERK6VectorfS3_S3_jPj
__ZN19CProcessMeshWrapperILi1ELi0ELi0ELi2ELi0EE27R_StudioSoftwareProcessMeshEPK24mstudio_meshvertexdata_tP11matrix3x4_tR17CCachedRenderDataR12CMeshBuilderiPtjP9IMaterial
__ZN19CProcessMeshWrapperILi1ELi0ELi0ELi2ELi1EE15R_TransformVertEPK6VectorS3_PK8Vector4DP11matrix3x4_tR13VectorAlignedRS1_R15Vector4DAligned
__ZN19CProcessMeshWrapperILi1ELi0ELi0ELi2ELi1EE17R_PerformLightingERK6VectorfS3_S3_jPj
__ZN19CProcessMeshWrapperILi1ELi0ELi0ELi2ELi1EE27R_StudioSoftwareProcessMeshEPK24mstudio_meshvertexdata_tP11matrix3x4_tR17CCachedRenderDataR12CMeshBuilderiPtjP9IMaterial
__ZN19CProcessMeshWrapperILi1ELi0ELi1ELi0ELi0EE15R_TransformVertEPK6VectorS3_PK8Vector4DP11matrix3x4_tR13VectorAlignedRS1_R15Vector4DAligned
__ZN19CProcessMeshWrapperILi1ELi0ELi1ELi0ELi0EE27R_StudioSoftwareProcessMeshEPK24mstudio_meshvertexdata_tP11matrix3x4_tR17CCachedRenderDataR12CMeshBuilderiPtjP9IMaterial
__ZN19CProcessMeshWrapperILi1ELi0ELi1ELi0ELi1EE15R_TransformVertEPK6VectorS3_PK8Vector4DP11matrix3x4_tR13VectorAlignedRS1_R15Vector4DAligned
__ZN19CProcessMeshWrapperILi1ELi0ELi1ELi0ELi1EE27R_StudioSoftwareProcessMeshEPK24mstudio_meshvertexdata_tP11matrix3x4_tR17CCachedRenderDataR12CMeshBuilderiPtjP9IMaterial
__ZN19CProcessMeshWrapperILi1ELi0ELi1ELi1ELi0EE15R_TransformVertEPK6VectorS3_PK8Vector4DP11matrix3x4_tR13VectorAlignedRS1_R15Vector4DAligned
__ZN19CProcessMeshWrapperILi1ELi0ELi1ELi1ELi0EE17R_PerformLightingERK6VectorfS3_S3_jPj
__ZN19CProcessMeshWrapperILi1ELi0ELi1ELi1ELi0EE27R_StudioSoftwareProcessMeshEPK24mstudio_meshvertexdata_tP11matrix3x4_tR17CCachedRenderDataR12CMeshBuilderiPtjP9IMaterial
__ZN19CProcessMeshWrapperILi1ELi0ELi1ELi1ELi1EE15R_TransformVertEPK6VectorS3_PK8Vector4DP11matrix3x4_tR13VectorAlignedRS1_R15Vector4DAligned
__ZN19CProcessMeshWrapperILi1ELi0ELi1ELi1ELi1EE17R_PerformLightingERK6VectorfS3_S3_jPj
__ZN19CProcessMeshWrapperILi1ELi0ELi1ELi1ELi1EE27R_StudioSoftwareProcessMeshEPK24mstudio_meshvertexdata_tP11matrix3x4_tR17CCachedRenderDataR12CMeshBuilderiPtjP9IMaterial
__ZN19CProcessMeshWrapperILi1ELi0ELi1ELi2ELi0EE15R_TransformVertEPK6VectorS3_PK8Vector4DP11matrix3x4_tR13VectorAlignedRS1_R15Vector4DAligned
__ZN19CProcessMeshWrapperILi1ELi0ELi1ELi2ELi0EE17R_PerformLightingERK6VectorfS3_S3_jPj
__ZN19CProcessMeshWrapperILi1ELi0ELi1ELi2ELi0EE27R_StudioSoftwareProcessMeshEPK24mstudio_meshvertexdata_tP11matrix3x4_tR17CCachedRenderDataR12CMeshBuilderiPtjP9IMaterial
__ZN19CProcessMeshWrapperILi1ELi0ELi1ELi2ELi1EE15R_TransformVertEPK6VectorS3_PK8Vector4DP11matrix3x4_tR13VectorAlignedRS1_R15Vector4DAligned
__ZN19CProcessMeshWrapperILi1ELi0ELi1ELi2ELi1EE17R_PerformLightingERK6VectorfS3_S3_jPj
__ZN19CProcessMeshWrapperILi1ELi0ELi1ELi2ELi1EE27R_StudioSoftwareProcessMeshEPK24mstudio_meshvertexdata_tP11matrix3x4_tR17CCachedRenderDataR12CMeshBuilderiPtjP9IMaterial
__ZN19CProcessMeshWrapperILi1ELi1ELi0ELi0ELi0EE15R_TransformVertEPK6VectorS3_PK8Vector4DP11matrix3x4_tR13VectorAlignedRS1_R15Vector4DAligned
__ZN19CProcessMeshWrapperILi1ELi1ELi0ELi0ELi0EE27R_StudioSoftwareProcessMeshEPK24mstudio_meshvertexdata_tP11matrix3x4_tR17CCachedRenderDataR12CMeshBuilderiPtjP9IMaterial
__ZN19CProcessMeshWrapperILi1ELi1ELi0ELi0ELi1EE15R_TransformVertEPK6VectorS3_PK8Vector4DP11matrix3x4_tR13VectorAlignedRS1_R15Vector4DAligned
__ZN19CProcessMeshWrapperILi1ELi1ELi0ELi0ELi1EE27R_StudioSoftwareProcessMeshEPK24mstudio_meshvertexdata_tP11matrix3x4_tR17CCachedRenderDataR12CMeshBuilderiPtjP9IMaterial
__ZN19CProcessMeshWrapperILi1ELi1ELi0ELi1ELi0EE15R_TransformVertEPK6VectorS3_PK8Vector4DP11matrix3x4_tR13VectorAlignedRS1_R15Vector4DAligned
__ZN19CProcessMeshWrapperILi1ELi1ELi0ELi1ELi0EE17R_PerformLightingERK6VectorfS3_S3_jPj
__ZN19CProcessMeshWrapperILi1ELi1ELi0ELi1ELi0EE27R_StudioSoftwareProcessMeshEPK24mstudio_meshvertexdata_tP11matrix3x4_tR17CCachedRenderDataR12CMeshBuilderiPtjP9IMaterial
__ZN19CProcessMeshWrapperILi1ELi1ELi0ELi1ELi1EE15R_TransformVertEPK6VectorS3_PK8Vector4DP11matrix3x4_tR13VectorAlignedRS1_R15Vector4DAligned
__ZN19CProcessMeshWrapperILi1ELi1ELi0ELi1ELi1EE17R_PerformLightingERK6VectorfS3_S3_jPj
__ZN19CProcessMeshWrapperILi1ELi1ELi0ELi1ELi1EE27R_StudioSoftwareProcessMeshEPK24mstudio_meshvertexdata_tP11matrix3x4_tR17CCachedRenderDataR12CMeshBuilderiPtjP9IMaterial
__ZN19CProcessMeshWrapperILi1ELi1ELi0ELi2ELi0EE15R_TransformVertEPK6VectorS3_PK8Vector4DP11matrix3x4_tR13VectorAlignedRS1_R15Vector4DAligned
__ZN19CProcessMeshWrapperILi1ELi1ELi0ELi2ELi0EE17R_PerformLightingERK6VectorfS3_S3_jPj
__ZN19CProcessMeshWrapperILi1ELi1ELi0ELi2ELi0EE27R_StudioSoftwareProcessMeshEPK24mstudio_meshvertexdata_tP11matrix3x4_tR17CCachedRenderDataR12CMeshBuilderiPtjP9IMaterial
__ZN19CProcessMeshWrapperILi1ELi1ELi0ELi2ELi1EE15R_TransformVertEPK6VectorS3_PK8Vector4DP11matrix3x4_tR13VectorAlignedRS1_R15Vector4DAligned
__ZN19CProcessMeshWrapperILi1ELi1ELi0ELi2ELi1EE17R_PerformLightingERK6VectorfS3_S3_jPj
__ZN19CProcessMeshWrapperILi1ELi1ELi0ELi2ELi1EE27R_StudioSoftwareProcessMeshEPK24mstudio_meshvertexdata_tP11matrix3x4_tR17CCachedRenderDataR12CMeshBuilderiPtjP9IMaterial
__ZN19CProcessMeshWrapperILi1ELi1ELi1ELi0ELi0EE15R_TransformVertEPK6VectorS3_PK8Vector4DP11matrix3x4_tR13VectorAlignedRS1_R15Vector4DAligned
__ZN19CProcessMeshWrapperILi1ELi1ELi1ELi0ELi0EE27R_StudioSoftwareProcessMeshEPK24mstudio_meshvertexdata_tP11matrix3x4_tR17CCachedRenderDataR12CMeshBuilderiPtjP9IMaterial
__ZN19CProcessMeshWrapperILi1ELi1ELi1ELi0ELi1EE15R_TransformVertEPK6VectorS3_PK8Vector4DP11matrix3x4_tR13VectorAlignedRS1_R15Vector4DAligned
__ZN19CProcessMeshWrapperILi1ELi1ELi1ELi0ELi1EE27R_StudioSoftwareProcessMeshEPK24mstudio_meshvertexdata_tP11matrix3x4_tR17CCachedRenderDataR12CMeshBuilderiPtjP9IMaterial
__ZN19CProcessMeshWrapperILi1ELi1ELi1ELi1ELi0EE15R_TransformVertEPK6VectorS3_PK8Vector4DP11matrix3x4_tR13VectorAlignedRS1_R15Vector4DAligned
__ZN19CProcessMeshWrapperILi1ELi1ELi1ELi1ELi0EE17R_PerformLightingERK6VectorfS3_S3_jPj
__ZN19CProcessMeshWrapperILi1ELi1ELi1ELi1ELi0EE27R_StudioSoftwareProcessMeshEPK24mstudio_meshvertexdata_tP11matrix3x4_tR17CCachedRenderDataR12CMeshBuilderiPtjP9IMaterial
__ZN19CProcessMeshWrapperILi1ELi1ELi1ELi1ELi1EE15R_TransformVertEPK6VectorS3_PK8Vector4DP11matrix3x4_tR13VectorAlignedRS1_R15Vector4DAligned
__ZN19CProcessMeshWrapperILi1ELi1ELi1ELi1ELi1EE17R_PerformLightingERK6VectorfS3_S3_jPj
__ZN19CProcessMeshWrapperILi1ELi1ELi1ELi1ELi1EE27R_StudioSoftwareProcessMeshEPK24mstudio_meshvertexdata_tP11matrix3x4_tR17CCachedRenderDataR12CMeshBuilderiPtjP9IMaterial
__ZN19CProcessMeshWrapperILi1ELi1ELi1ELi2ELi0EE15R_TransformVertEPK6VectorS3_PK8Vector4DP11matrix3x4_tR13VectorAlignedRS1_R15Vector4DAligned
__ZN19CProcessMeshWrapperILi1ELi1ELi1ELi2ELi0EE17R_PerformLightingERK6VectorfS3_S3_jPj
__ZN19CProcessMeshWrapperILi1ELi1ELi1ELi2ELi0EE27R_StudioSoftwareProcessMeshEPK24mstudio_meshvertexdata_tP11matrix3x4_tR17CCachedRenderDataR12CMeshBuilderiPtjP9IMaterial
__ZN19CProcessMeshWrapperILi1ELi1ELi1ELi2ELi1EE15R_TransformVertEPK6VectorS3_PK8Vector4DP11matrix3x4_tR13VectorAlignedRS1_R15Vector4DAligned
__ZN19CProcessMeshWrapperILi1ELi1ELi1ELi2ELi1EE17R_PerformLightingERK6VectorfS3_S3_jPj
__ZN19CProcessMeshWrapperILi1ELi1ELi1ELi2ELi1EE27R_StudioSoftwareProcessMeshEPK24mstudio_meshvertexdata_tP11matrix3x4_tR17CCachedRenderDataR12CMeshBuilderiPtjP9IMaterial
__ZN19CUtlNoEscConversion14FindConversionEPKcPi
__ZN20CRefCountServiceBaseILb1E6CRefMTE14OnFinalReleaseEv
__ZN20CStudioRenderContext10BeginFrameEv
__ZN20CStudioRenderContext10DisconnectEv
__ZN20CStudioRenderContext11UnloadModelEP14studiohwdata_t
__ZN20CStudioRenderContext12GetTrianglesERK15DrawModelInfo_tP11matrix3x4_tR21GetTriangles_Output_t
__ZN20CStudioRenderContext12SetViewStateERK6VectorS2_S2_S2_
__ZN20CStudioRenderContext12UpdateConfigERK20StudioRenderConfig_t
__ZN20CStudioRenderContext13LoadMaterialsEP11studiohdr_tPN14OptimizedModel12FileHeader_tER15studioloddata_ti
__ZN20CStudioRenderContext14DrawModelArrayERK15DrawModelInfo_tiP22model_array_instance_tii
__ZN20CStudioRenderContext14QueryInterfaceEPKc
__ZN20CStudioRenderContext14SetLocalLightsEiPK11LightDesc_t
__ZN20CStudioRenderContext15ClearAllShadowsEv
__ZN20CStudioRenderContext15ComputeLightingEPK6VectoriP11LightDesc_tRS1_S5_RS0_
__ZN20CStudioRenderContext15ComputeModelLodEP14studiohwdata_tfPf
__ZN20CStudioRenderContext15CreateDecalListEP14studiohwdata_t
__ZN20CStudioRenderContext15GetMaterialListEP11studiohdr_tiPP9IMaterial
__ZN20CStudioRenderContext15LockFlexWeightsEiPPfS1_
__ZN20CStudioRenderContext16ComputeRenderLODEP17IMatRenderContextRK15DrawModelInfo_tRK6VectorPf
__ZN20CStudioRenderContext16DestroyDecalListEP21StudioDecalHandle_t__
__ZN20CStudioRenderContext16GetCurrentConfigER20StudioRenderConfig_t
__ZN20CStudioRenderContext16LockBoneMatricesEi
__ZN20CStudioRenderContext16RefreshStudioHdrEP11studiohdr_tP14studiohwdata_t
__ZN20CStudioRenderContext16SetEyeViewTargetEPK11studiohdr_tiRK6Vector
__ZN20CStudioRenderContext17BuildDecalBoneMapEP11studiohdr_tPiS2_S2_P13mstudiomesh_tPN14OptimizedModel18StripGroupHeader_tE
__ZN20CStudioRenderContext17InvokeBindProxiesERK15DrawModelInfo_t
__ZN20CStudioRenderContext17R_AddVertexToMeshIL23VertexCompressionType_t0EEEbPKcbR12CMeshBuilderPN14OptimizedModel8Vertex_tEP13mstudiomesh_tPK24mstudio_meshvertexdata_tb
__ZN20CStudioRenderContext17R_AddVertexToMeshIL23VertexCompressionType_t1EEEbPKcbR12CMeshBuilderPN14OptimizedModel8Vertex_tEP13mstudiomesh_tPK24mstudio_meshvertexdata_tb
__ZN20CStudioRenderContext17SetLODSwitchValueER14studiohwdata_tif
__ZN20CStudioRenderContext17UnlockFlexWeightsEv
__ZN20CStudioRenderContext18R_StudioBuildMorphEP11studiohdr_tP17studiomeshgroup_tP13mstudiomesh_tPN14OptimizedModel18StripGroupHeader_tE
__ZN20CStudioRenderContext18SetAlphaModulationEf
__ZN20CStudioRenderContext18SetColorModulationEPKf
__ZN20CStudioRenderContext18UnlockBoneMatricesEv
__ZN20CStudioRenderContext19CountFlexedVerticesEP13mstudiomesh_tPN14OptimizedModel18StripGroupHeader_tE
__ZN20CStudioRenderContext19DetermineHWMorphingEP14mstudiomodel_tPN14OptimizedModel16ModelLODHeader_tE
__ZN20CStudioRenderContext19DrawModelStaticPropERK15DrawModelInfo_tRK11matrix3x4_ti
__ZN20CStudioRenderContext19GetMaterialOverrideEPP9IMaterialP14OverrideType_t
__ZN20CStudioRenderContext20ComputeMaterialFlagsEP11studiohdr_tR15studioloddata_tP9IMaterial
__ZN20CStudioRenderContext20DrawStaticPropDecalsERK15DrawModelInfo_tRK11matrix3x4_t
__ZN20CStudioRenderContext21CalculateVertexFormatEPK11studiohdr_tPK15studioloddata_tPK13mstudiomesh_tPN14OptimizedModel18StripGroupHeader_tEb
__ZN20CStudioRenderContext21DrawStaticPropShadowsERK15DrawModelInfo_tRK11matrix3x4_ti
__ZN20CStudioRenderContext21SetAmbientLightColorsEPK6Vector
__ZN20CStudioRenderContext21SetAmbientLightColorsEPK8Vector4D
__ZN20CStudioRenderContext22ForcedMaterialOverrideEP9IMaterial14OverrideType_t
__ZN20CStudioRenderContext22R_StudioBuildMeshGroupEPKcbP17studiomeshgroup_tPN14OptimizedModel18StripGroupHeader_tEP13mstudiomesh_tP11studiohdr_ty
__ZN20CStudioRenderContext23R_StudioBuildMeshStripsEP17studiomeshgroup_tPN14OptimizedModel18StripGroupHeader_tE
__ZN20CStudioRenderContext24R_StudioCreateSingleMeshEP11studiohdr_tP15studioloddata_tP13mstudiomesh_tPN14OptimizedModel12MeshHeader_tEiP16studiomeshdata_tPi
__ZN20CStudioRenderContext25GenerateRandomFlexWeightsEiPfS0_
__ZN20CStudioRenderContext25GetAmbientLightDirectionsEv
__ZN20CStudioRenderContext25GetNumAmbientLightSamplesEv
__ZN20CStudioRenderContext26R_StudioCreateStaticMeshesEP11studiohdr_tPN14OptimizedModel12FileHeader_tEP14studiohwdata_tiPi
__ZN20CStudioRenderContext27R_StudioDestroyStaticMeshesEiPP16studiomeshdata_t
__ZN20CStudioRenderContext28ComputeHWMorphDecalBoneRemapEP11studiohdr_tPN14OptimizedModel12FileHeader_tEP14studiohwdata_ti
__ZN20CStudioRenderContext30GetMaterialListFromBodyAndSkinEtiiiPP9IMaterial
__ZN20CStudioRenderContext31ComputeLightingConstDirectionalEPK6VectoriP11LightDesc_tRS1_S5_RS0_f
__ZN20CStudioRenderContext4InitEv
__ZN20CStudioRenderContext7ConnectEPFPvPKcPiE
__ZN20CStudioRenderContext8AddDecalEP21StudioDecalHandle_t__P11studiohdr_tP11matrix3x4_tRK5Ray_tRK6VectorP9IMaterialfibi
__ZN20CStudioRenderContext8EndFrameEv
__ZN20CStudioRenderContext8Mat_StubEP15IMaterialSystem
__ZN20CStudioRenderContext8ShutdownEv
__ZN20CStudioRenderContext9AddShadowEP9IMaterialPvP17FlashlightState_tP7VMatrixP8ITexture
__ZN20CStudioRenderContext9DrawModelEP18DrawModelResults_tRK15DrawModelInfo_tP11matrix3x4_tPfS7_RK6Vectori
__ZN20CStudioRenderContext9LoadModelEP11studiohdr_tPvP14studiohwdata_t
__ZN20CStudioRenderContextD0Ev
__ZN20CStudioRenderContextD1Ev
__ZN21CUtlCStringConversion14FindConversionEPKcPi
__ZN21CUtlCStringConversionC2EcPKciPN18CUtlCharConversion17ConversionArray_tE
__ZN24CGlintTextureRegenerator21RegenerateTextureBitsEP8ITextureP11IVTFTextureP6Rect_t
__ZN24CGlintTextureRegenerator7ReleaseEv
__ZN32R_LightEffectsWorldFunctionTable1mE
__ZN32R_LightEffectsWorldFunctionTable9functionsE
__ZN40R_WorldLightDistanceFalloffFunctionTable1mE
__ZN40R_WorldLightDistanceFalloffFunctionTable9functionsE
__ZN43__Function_R_LightEffectsWorldFunctionTableILi0EE3RunEPK11LightDesc_tPK10lightpos_tRK6VectorRS7_
__ZN43__Function_R_LightEffectsWorldFunctionTableILi100EE3RunEPK11LightDesc_tPK10lightpos_tRK6VectorRS7_
__ZN43__Function_R_LightEffectsWorldFunctionTableILi101EE3RunEPK11LightDesc_tPK10lightpos_tRK6VectorRS7_
__ZN43__Function_R_LightEffectsWorldFunctionTableILi102EE3RunEPK11LightDesc_tPK10lightpos_tRK6VectorRS7_
__ZN43__Function_R_LightEffectsWorldFunctionTableILi103EE3RunEPK11LightDesc_tPK10lightpos_tRK6VectorRS7_
__ZN43__Function_R_LightEffectsWorldFunctionTableILi104EE3RunEPK11LightDesc_tPK10lightpos_tRK6VectorRS7_
__ZN43__Function_R_LightEffectsWorldFunctionTableILi105EE3RunEPK11LightDesc_tPK10lightpos_tRK6VectorRS7_
__ZN43__Function_R_LightEffectsWorldFunctionTableILi106EE3RunEPK11LightDesc_tPK10lightpos_tRK6VectorRS7_
__ZN43__Function_R_LightEffectsWorldFunctionTableILi107EE3RunEPK11LightDesc_tPK10lightpos_tRK6VectorRS7_
__ZN43__Function_R_LightEffectsWorldFunctionTableILi108EE3RunEPK11LightDesc_tPK10lightpos_tRK6VectorRS7_
__ZN43__Function_R_LightEffectsWorldFunctionTableILi109EE3RunEPK11LightDesc_tPK10lightpos_tRK6VectorRS7_
__ZN43__Function_R_LightEffectsWorldFunctionTableILi10EE3RunEPK11LightDesc_tPK10lightpos_tRK6VectorRS7_
__ZN43__Function_R_LightEffectsWorldFunctionTableILi110EE3RunEPK11LightDesc_tPK10lightpos_tRK6VectorRS7_
__ZN43__Function_R_LightEffectsWorldFunctionTableILi111EE3RunEPK11LightDesc_tPK10lightpos_tRK6VectorRS7_
__ZN43__Function_R_LightEffectsWorldFunctionTableILi112EE3RunEPK11LightDesc_tPK10lightpos_tRK6VectorRS7_
__ZN43__Function_R_LightEffectsWorldFunctionTableILi113EE3RunEPK11LightDesc_tPK10lightpos_tRK6VectorRS7_
__ZN43__Function_R_LightEffectsWorldFunctionTableILi114EE3RunEPK11LightDesc_tPK10lightpos_tRK6VectorRS7_
__ZN43__Function_R_LightEffectsWorldFunctionTableILi115EE3RunEPK11LightDesc_tPK10lightpos_tRK6VectorRS7_
__ZN43__Function_R_LightEffectsWorldFunctionTableILi116EE3RunEPK11LightDesc_tPK10lightpos_tRK6VectorRS7_
__ZN43__Function_R_LightEffectsWorldFunctionTableILi117EE3RunEPK11LightDesc_tPK10lightpos_tRK6VectorRS7_
__ZN43__Function_R_LightEffectsWorldFunctionTableILi118EE3RunEPK11LightDesc_tPK10lightpos_tRK6VectorRS7_
__ZN43__Function_R_LightEffectsWorldFunctionTableILi119EE3RunEPK11LightDesc_tPK10lightpos_tRK6VectorRS7_
__ZN43__Function_R_LightEffectsWorldFunctionTableILi11EE3RunEPK11LightDesc_tPK10lightpos_tRK6VectorRS7_
__ZN43__Function_R_LightEffectsWorldFunctionTableILi120EE3RunEPK11LightDesc_tPK10lightpos_tRK6VectorRS7_
__ZN43__Function_R_LightEffectsWorldFunctionTableILi121EE3RunEPK11LightDesc_tPK10lightpos_tRK6VectorRS7_
__ZN43__Function_R_LightEffectsWorldFunctionTableILi122EE3RunEPK11LightDesc_tPK10lightpos_tRK6VectorRS7_
__ZN43__Function_R_LightEffectsWorldFunctionTableILi123EE3RunEPK11LightDesc_tPK10lightpos_tRK6VectorRS7_
__ZN43__Function_R_LightEffectsWorldFunctionTableILi124EE3RunEPK11LightDesc_tPK10lightpos_tRK6VectorRS7_
__ZN43__Function_R_LightEffectsWorldFunctionTableILi125EE3RunEPK11LightDesc_tPK10lightpos_tRK6VectorRS7_
__ZN43__Function_R_LightEffectsWorldFunctionTableILi126EE3RunEPK11LightDesc_tPK10lightpos_tRK6VectorRS7_
__ZN43__Function_R_LightEffectsWorldFunctionTableILi127EE3RunEPK11LightDesc_tPK10lightpos_tRK6VectorRS7_
__ZN43__Function_R_LightEffectsWorldFunctionTableILi128EE3RunEPK11LightDesc_tPK10lightpos_tRK6VectorRS7_
__ZN43__Function_R_LightEffectsWorldFunctionTableILi129EE3RunEPK11LightDesc_tPK10lightpos_tRK6VectorRS7_
__ZN43__Function_R_LightEffectsWorldFunctionTableILi12EE3RunEPK11LightDesc_tPK10lightpos_tRK6VectorRS7_
__ZN43__Function_R_LightEffectsWorldFunctionTableILi130EE3RunEPK11LightDesc_tPK10lightpos_tRK6VectorRS7_
__ZN43__Function_R_LightEffectsWorldFunctionTableILi131EE3RunEPK11LightDesc_tPK10lightpos_tRK6VectorRS7_
__ZN43__Function_R_LightEffectsWorldFunctionTableILi132EE3RunEPK11LightDesc_tPK10lightpos_tRK6VectorRS7_
__ZN43__Function_R_LightEffectsWorldFunctionTableILi133EE3RunEPK11LightDesc_tPK10lightpos_tRK6VectorRS7_
__ZN43__Function_R_LightEffectsWorldFunctionTableILi134EE3RunEPK11LightDesc_tPK10lightpos_tRK6VectorRS7_
__ZN43__Function_R_LightEffectsWorldFunctionTableILi135EE3RunEPK11LightDesc_tPK10lightpos_tRK6VectorRS7_
__ZN43__Function_R_LightEffectsWorldFunctionTableILi136EE3RunEPK11LightDesc_tPK10lightpos_tRK6VectorRS7_
__ZN43__Function_R_LightEffectsWorldFunctionTableILi137EE3RunEPK11LightDesc_tPK10lightpos_tRK6VectorRS7_
__ZN43__Function_R_LightEffectsWorldFunctionTableILi138EE3RunEPK11LightDesc_tPK10lightpos_tRK6VectorRS7_
__ZN43__Function_R_LightEffectsWorldFunctionTableILi139EE3RunEPK11LightDesc_tPK10lightpos_tRK6VectorRS7_
__ZN43__Function_R_LightEffectsWorldFunctionTableILi13EE3RunEPK11LightDesc_tPK10lightpos_tRK6VectorRS7_
__ZN43__Function_R_LightEffectsWorldFunctionTableILi140EE3RunEPK11LightDesc_tPK10lightpos_tRK6VectorRS7_
__ZN43__Function_R_LightEffectsWorldFunctionTableILi141EE3RunEPK11LightDesc_tPK10lightpos_tRK6VectorRS7_
__ZN43__Function_R_LightEffectsWorldFunctionTableILi142EE3RunEPK11LightDesc_tPK10lightpos_tRK6VectorRS7_
__ZN43__Function_R_LightEffectsWorldFunctionTableILi143EE3RunEPK11LightDesc_tPK10lightpos_tRK6VectorRS7_
__ZN43__Function_R_LightEffectsWorldFunctionTableILi144EE3RunEPK11LightDesc_tPK10lightpos_tRK6VectorRS7_
__ZN43__Function_R_LightEffectsWorldFunctionTableILi145EE3RunEPK11LightDesc_tPK10lightpos_tRK6VectorRS7_
__ZN43__Function_R_LightEffectsWorldFunctionTableILi146EE3RunEPK11LightDesc_tPK10lightpos_tRK6VectorRS7_
__ZN43__Function_R_LightEffectsWorldFunctionTableILi147EE3RunEPK11LightDesc_tPK10lightpos_tRK6VectorRS7_
__ZN43__Function_R_LightEffectsWorldFunctionTableILi148EE3RunEPK11LightDesc_tPK10lightpos_tRK6VectorRS7_
__ZN43__Function_R_LightEffectsWorldFunctionTableILi149EE3RunEPK11LightDesc_tPK10lightpos_tRK6VectorRS7_
__ZN43__Function_R_LightEffectsWorldFunctionTableILi14EE3RunEPK11LightDesc_tPK10lightpos_tRK6VectorRS7_
__ZN43__Function_R_LightEffectsWorldFunctionTableILi150EE3RunEPK11LightDesc_tPK10lightpos_tRK6VectorRS7_
__ZN43__Function_R_LightEffectsWorldFunctionTableILi151EE3RunEPK11LightDesc_tPK10lightpos_tRK6VectorRS7_
__ZN43__Function_R_LightEffectsWorldFunctionTableILi152EE3RunEPK11LightDesc_tPK10lightpos_tRK6VectorRS7_
__ZN43__Function_R_LightEffectsWorldFunctionTableILi153EE3RunEPK11LightDesc_tPK10lightpos_tRK6VectorRS7_
__ZN43__Function_R_LightEffectsWorldFunctionTableILi154EE3RunEPK11LightDesc_tPK10lightpos_tRK6VectorRS7_
__ZN43__Function_R_LightEffectsWorldFunctionTableILi155EE3RunEPK11LightDesc_tPK10lightpos_tRK6VectorRS7_
__ZN43__Function_R_LightEffectsWorldFunctionTableILi156EE3RunEPK11LightDesc_tPK10lightpos_tRK6VectorRS7_
__ZN43__Function_R_LightEffectsWorldFunctionTableILi157EE3RunEPK11LightDesc_tPK10lightpos_tRK6VectorRS7_
__ZN43__Function_R_LightEffectsWorldFunctionTableILi158EE3RunEPK11LightDesc_tPK10lightpos_tRK6VectorRS7_
__ZN43__Function_R_LightEffectsWorldFunctionTableILi159EE3RunEPK11LightDesc_tPK10lightpos_tRK6VectorRS7_
__ZN43__Function_R_LightEffectsWorldFunctionTableILi15EE3RunEPK11LightDesc_tPK10lightpos_tRK6VectorRS7_
__ZN43__Function_R_LightEffectsWorldFunctionTableILi160EE3RunEPK11LightDesc_tPK10lightpos_tRK6VectorRS7_
__ZN43__Function_R_LightEffectsWorldFunctionTableILi161EE3RunEPK11LightDesc_tPK10lightpos_tRK6VectorRS7_
__ZN43__Function_R_LightEffectsWorldFunctionTableILi162EE3RunEPK11LightDesc_tPK10lightpos_tRK6VectorRS7_
__ZN43__Function_R_LightEffectsWorldFunctionTableILi163EE3RunEPK11LightDesc_tPK10lightpos_tRK6VectorRS7_
__ZN43__Function_R_LightEffectsWorldFunctionTableILi164EE3RunEPK11LightDesc_tPK10lightpos_tRK6VectorRS7_
__ZN43__Function_R_LightEffectsWorldFunctionTableILi165EE3RunEPK11LightDesc_tPK10lightpos_tRK6VectorRS7_
__ZN43__Function_R_LightEffectsWorldFunctionTableILi166EE3RunEPK11LightDesc_tPK10lightpos_tRK6VectorRS7_
__ZN43__Function_R_LightEffectsWorldFunctionTableILi167EE3RunEPK11LightDesc_tPK10lightpos_tRK6VectorRS7_
__ZN43__Function_R_LightEffectsWorldFunctionTableILi168EE3RunEPK11LightDesc_tPK10lightpos_tRK6VectorRS7_
__ZN43__Function_R_LightEffectsWorldFunctionTableILi169EE3RunEPK11LightDesc_tPK10lightpos_tRK6VectorRS7_
__ZN43__Function_R_LightEffectsWorldFunctionTableILi16EE3RunEPK11LightDesc_tPK10lightpos_tRK6VectorRS7_
__ZN43__Function_R_LightEffectsWorldFunctionTableILi170EE3RunEPK11LightDesc_tPK10lightpos_tRK6VectorRS7_
__ZN43__Function_R_LightEffectsWorldFunctionTableILi171EE3RunEPK11LightDesc_tPK10lightpos_tRK6VectorRS7_
__ZN43__Function_R_LightEffectsWorldFunctionTableILi172EE3RunEPK11LightDesc_tPK10lightpos_tRK6VectorRS7_
__ZN43__Function_R_LightEffectsWorldFunctionTableILi173EE3RunEPK11LightDesc_tPK10lightpos_tRK6VectorRS7_
__ZN43__Function_R_LightEffectsWorldFunctionTableILi174EE3RunEPK11LightDesc_tPK10lightpos_tRK6VectorRS7_
__ZN43__Function_R_LightEffectsWorldFunctionTableILi175EE3RunEPK11LightDesc_tPK10lightpos_tRK6VectorRS7_
__ZN43__Function_R_LightEffectsWorldFunctionTableILi176EE3RunEPK11LightDesc_tPK10lightpos_tRK6VectorRS7_
__ZN43__Function_R_LightEffectsWorldFunctionTableILi177EE3RunEPK11LightDesc_tPK10lightpos_tRK6VectorRS7_
__ZN43__Function_R_LightEffectsWorldFunctionTableILi178EE3RunEPK11LightDesc_tPK10lightpos_tRK6VectorRS7_
__ZN43__Function_R_LightEffectsWorldFunctionTableILi179EE3RunEPK11LightDesc_tPK10lightpos_tRK6VectorRS7_
__ZN43__Function_R_LightEffectsWorldFunctionTableILi17EE3RunEPK11LightDesc_tPK10lightpos_tRK6VectorRS7_
__ZN43__Function_R_LightEffectsWorldFunctionTableILi180EE3RunEPK11LightDesc_tPK10lightpos_tRK6VectorRS7_
__ZN43__Function_R_LightEffectsWorldFunctionTableILi181EE3RunEPK11LightDesc_tPK10lightpos_tRK6VectorRS7_
__ZN43__Function_R_LightEffectsWorldFunctionTableILi182EE3RunEPK11LightDesc_tPK10lightpos_tRK6VectorRS7_
__ZN43__Function_R_LightEffectsWorldFunctionTableILi183EE3RunEPK11LightDesc_tPK10lightpos_tRK6VectorRS7_
__ZN43__Function_R_LightEffectsWorldFunctionTableILi184EE3RunEPK11LightDesc_tPK10lightpos_tRK6VectorRS7_
__ZN43__Function_R_LightEffectsWorldFunctionTableILi185EE3RunEPK11LightDesc_tPK10lightpos_tRK6VectorRS7_
__ZN43__Function_R_LightEffectsWorldFunctionTableILi186EE3RunEPK11LightDesc_tPK10lightpos_tRK6VectorRS7_
__ZN43__Function_R_LightEffectsWorldFunctionTableILi187EE3RunEPK11LightDesc_tPK10lightpos_tRK6VectorRS7_
__ZN43__Function_R_LightEffectsWorldFunctionTableILi188EE3RunEPK11LightDesc_tPK10lightpos_tRK6VectorRS7_
__ZN43__Function_R_LightEffectsWorldFunctionTableILi189EE3RunEPK11LightDesc_tPK10lightpos_tRK6VectorRS7_
__ZN43__Function_R_LightEffectsWorldFunctionTableILi18EE3RunEPK11LightDesc_tPK10lightpos_tRK6VectorRS7_
__ZN43__Function_R_LightEffectsWorldFunctionTableILi190EE3RunEPK11LightDesc_tPK10lightpos_tRK6VectorRS7_
__ZN43__Function_R_LightEffectsWorldFunctionTableILi191EE3RunEPK11LightDesc_tPK10lightpos_tRK6VectorRS7_
__ZN43__Function_R_LightEffectsWorldFunctionTableILi192EE3RunEPK11LightDesc_tPK10lightpos_tRK6VectorRS7_
__ZN43__Function_R_LightEffectsWorldFunctionTableILi193EE3RunEPK11LightDesc_tPK10lightpos_tRK6VectorRS7_
__ZN43__Function_R_LightEffectsWorldFunctionTableILi194EE3RunEPK11LightDesc_tPK10lightpos_tRK6VectorRS7_
__ZN43__Function_R_LightEffectsWorldFunctionTableILi195EE3RunEPK11LightDesc_tPK10lightpos_tRK6VectorRS7_
__ZN43__Function_R_LightEffectsWorldFunctionTableILi196EE3RunEPK11LightDesc_tPK10lightpos_tRK6VectorRS7_
__ZN43__Function_R_LightEffectsWorldFunctionTableILi197EE3RunEPK11LightDesc_tPK10lightpos_tRK6VectorRS7_
__ZN43__Function_R_LightEffectsWorldFunctionTableILi198EE3RunEPK11LightDesc_tPK10lightpos_tRK6VectorRS7_
__ZN43__Function_R_LightEffectsWorldFunctionTableILi199EE3RunEPK11LightDesc_tPK10lightpos_tRK6VectorRS7_
__ZN43__Function_R_LightEffectsWorldFunctionTableILi19EE3RunEPK11LightDesc_tPK10lightpos_tRK6VectorRS7_
__ZN43__Function_R_LightEffectsWorldFunctionTableILi1EE3RunEPK11LightDesc_tPK10lightpos_tRK6VectorRS7_
__ZN43__Function_R_LightEffectsWorldFunctionTableILi200EE3RunEPK11LightDesc_tPK10lightpos_tRK6VectorRS7_
__ZN43__Function_R_LightEffectsWorldFunctionTableILi201EE3RunEPK11LightDesc_tPK10lightpos_tRK6VectorRS7_
__ZN43__Function_R_LightEffectsWorldFunctionTableILi202EE3RunEPK11LightDesc_tPK10lightpos_tRK6VectorRS7_
__ZN43__Function_R_LightEffectsWorldFunctionTableILi203EE3RunEPK11LightDesc_tPK10lightpos_tRK6VectorRS7_
__ZN43__Function_R_LightEffectsWorldFunctionTableILi204EE3RunEPK11LightDesc_tPK10lightpos_tRK6VectorRS7_
__ZN43__Function_R_LightEffectsWorldFunctionTableILi205EE3RunEPK11LightDesc_tPK10lightpos_tRK6VectorRS7_
__ZN43__Function_R_LightEffectsWorldFunctionTableILi206EE3RunEPK11LightDesc_tPK10lightpos_tRK6VectorRS7_
__ZN43__Function_R_LightEffectsWorldFunctionTableILi207EE3RunEPK11LightDesc_tPK10lightpos_tRK6VectorRS7_
__ZN43__Function_R_LightEffectsWorldFunctionTableILi208EE3RunEPK11LightDesc_tPK10lightpos_tRK6VectorRS7_
__ZN43__Function_R_LightEffectsWorldFunctionTableILi209EE3RunEPK11LightDesc_tPK10lightpos_tRK6VectorRS7_
__ZN43__Function_R_LightEffectsWorldFunctionTableILi20EE3RunEPK11LightDesc_tPK10lightpos_tRK6VectorRS7_
__ZN43__Function_R_LightEffectsWorldFunctionTableILi210EE3RunEPK11LightDesc_tPK10lightpos_tRK6VectorRS7_
__ZN43__Function_R_LightEffectsWorldFunctionTableILi211EE3RunEPK11LightDesc_tPK10lightpos_tRK6VectorRS7_
__ZN43__Function_R_LightEffectsWorldFunctionTableILi212EE3RunEPK11LightDesc_tPK10lightpos_tRK6VectorRS7_
__ZN43__Function_R_LightEffectsWorldFunctionTableILi213EE3RunEPK11LightDesc_tPK10lightpos_tRK6VectorRS7_
__ZN43__Function_R_LightEffectsWorldFunctionTableILi214EE3RunEPK11LightDesc_tPK10lightpos_tRK6VectorRS7_
__ZN43__Function_R_LightEffectsWorldFunctionTableILi215EE3RunEPK11LightDesc_tPK10lightpos_tRK6VectorRS7_
__ZN43__Function_R_LightEffectsWorldFunctionTableILi216EE3RunEPK11LightDesc_tPK10lightpos_tRK6VectorRS7_
__ZN43__Function_R_LightEffectsWorldFunctionTableILi217EE3RunEPK11LightDesc_tPK10lightpos_tRK6VectorRS7_
__ZN43__Function_R_LightEffectsWorldFunctionTableILi218EE3RunEPK11LightDesc_tPK10lightpos_tRK6VectorRS7_
__ZN43__Function_R_LightEffectsWorldFunctionTableILi219EE3RunEPK11LightDesc_tPK10lightpos_tRK6VectorRS7_
__ZN43__Function_R_LightEffectsWorldFunctionTableILi21EE3RunEPK11LightDesc_tPK10lightpos_tRK6VectorRS7_
__ZN43__Function_R_LightEffectsWorldFunctionTableILi220EE3RunEPK11LightDesc_tPK10lightpos_tRK6VectorRS7_
__ZN43__Function_R_LightEffectsWorldFunctionTableILi221EE3RunEPK11LightDesc_tPK10lightpos_tRK6VectorRS7_
__ZN43__Function_R_LightEffectsWorldFunctionTableILi222EE3RunEPK11LightDesc_tPK10lightpos_tRK6VectorRS7_
__ZN43__Function_R_LightEffectsWorldFunctionTableILi223EE3RunEPK11LightDesc_tPK10lightpos_tRK6VectorRS7_
__ZN43__Function_R_LightEffectsWorldFunctionTableILi224EE3RunEPK11LightDesc_tPK10lightpos_tRK6VectorRS7_
__ZN43__Function_R_LightEffectsWorldFunctionTableILi225EE3RunEPK11LightDesc_tPK10lightpos_tRK6VectorRS7_
__ZN43__Function_R_LightEffectsWorldFunctionTableILi226EE3RunEPK11LightDesc_tPK10lightpos_tRK6VectorRS7_
__ZN43__Function_R_LightEffectsWorldFunctionTableILi227EE3RunEPK11LightDesc_tPK10lightpos_tRK6VectorRS7_
__ZN43__Function_R_LightEffectsWorldFunctionTableILi228EE3RunEPK11LightDesc_tPK10lightpos_tRK6VectorRS7_
__ZN43__Function_R_LightEffectsWorldFunctionTableILi229EE3RunEPK11LightDesc_tPK10lightpos_tRK6VectorRS7_
__ZN43__Function_R_LightEffectsWorldFunctionTableILi22EE3RunEPK11LightDesc_tPK10lightpos_tRK6VectorRS7_
__ZN43__Function_R_LightEffectsWorldFunctionTableILi230EE3RunEPK11LightDesc_tPK10lightpos_tRK6VectorRS7_
__ZN43__Function_R_LightEffectsWorldFunctionTableILi231EE3RunEPK11LightDesc_tPK10lightpos_tRK6VectorRS7_
__ZN43__Function_R_LightEffectsWorldFunctionTableILi232EE3RunEPK11LightDesc_tPK10lightpos_tRK6VectorRS7_
__ZN43__Function_R_LightEffectsWorldFunctionTableILi233EE3RunEPK11LightDesc_tPK10lightpos_tRK6VectorRS7_
__ZN43__Function_R_LightEffectsWorldFunctionTableILi234EE3RunEPK11LightDesc_tPK10lightpos_tRK6VectorRS7_
__ZN43__Function_R_LightEffectsWorldFunctionTableILi235EE3RunEPK11LightDesc_tPK10lightpos_tRK6VectorRS7_
__ZN43__Function_R_LightEffectsWorldFunctionTableILi236EE3RunEPK11LightDesc_tPK10lightpos_tRK6VectorRS7_
__ZN43__Function_R_LightEffectsWorldFunctionTableILi237EE3RunEPK11LightDesc_tPK10lightpos_tRK6VectorRS7_
__ZN43__Function_R_LightEffectsWorldFunctionTableILi238EE3RunEPK11LightDesc_tPK10lightpos_tRK6VectorRS7_
__ZN43__Function_R_LightEffectsWorldFunctionTableILi239EE3RunEPK11LightDesc_tPK10lightpos_tRK6VectorRS7_
__ZN43__Function_R_LightEffectsWorldFunctionTableILi23EE3RunEPK11LightDesc_tPK10lightpos_tRK6VectorRS7_
__ZN43__Function_R_LightEffectsWorldFunctionTableILi240EE3RunEPK11LightDesc_tPK10lightpos_tRK6VectorRS7_
__ZN43__Function_R_LightEffectsWorldFunctionTableILi241EE3RunEPK11LightDesc_tPK10lightpos_tRK6VectorRS7_
__ZN43__Function_R_LightEffectsWorldFunctionTableILi242EE3RunEPK11LightDesc_tPK10lightpos_tRK6VectorRS7_
__ZN43__Function_R_LightEffectsWorldFunctionTableILi243EE3RunEPK11LightDesc_tPK10lightpos_tRK6VectorRS7_
__ZN43__Function_R_LightEffectsWorldFunctionTableILi244EE3RunEPK11LightDesc_tPK10lightpos_tRK6VectorRS7_
__ZN43__Function_R_LightEffectsWorldFunctionTableILi245EE3RunEPK11LightDesc_tPK10lightpos_tRK6VectorRS7_
__ZN43__Function_R_LightEffectsWorldFunctionTableILi246EE3RunEPK11LightDesc_tPK10lightpos_tRK6VectorRS7_
__ZN43__Function_R_LightEffectsWorldFunctionTableILi247EE3RunEPK11LightDesc_tPK10lightpos_tRK6VectorRS7_
__ZN43__Function_R_LightEffectsWorldFunctionTableILi248EE3RunEPK11LightDesc_tPK10lightpos_tRK6VectorRS7_
__ZN43__Function_R_LightEffectsWorldFunctionTableILi249EE3RunEPK11LightDesc_tPK10lightpos_tRK6VectorRS7_
__ZN43__Function_R_LightEffectsWorldFunctionTableILi24EE3RunEPK11LightDesc_tPK10lightpos_tRK6VectorRS7_
__ZN43__Function_R_LightEffectsWorldFunctionTableILi250EE3RunEPK11LightDesc_tPK10lightpos_tRK6VectorRS7_
__ZN43__Function_R_LightEffectsWorldFunctionTableILi251EE3RunEPK11LightDesc_tPK10lightpos_tRK6VectorRS7_
__ZN43__Function_R_LightEffectsWorldFunctionTableILi252EE3RunEPK11LightDesc_tPK10lightpos_tRK6VectorRS7_
__ZN43__Function_R_LightEffectsWorldFunctionTableILi253EE3RunEPK11LightDesc_tPK10lightpos_tRK6VectorRS7_
__ZN43__Function_R_LightEffectsWorldFunctionTableILi254EE3RunEPK11LightDesc_tPK10lightpos_tRK6VectorRS7_
__ZN43__Function_R_LightEffectsWorldFunctionTableILi255EE3RunEPK11LightDesc_tPK10lightpos_tRK6VectorRS7_
__ZN43__Function_R_LightEffectsWorldFunctionTableILi256EE3RunEPK11LightDesc_tPK10lightpos_tRK6VectorRS7_
__ZN43__Function_R_LightEffectsWorldFunctionTableILi25EE3RunEPK11LightDesc_tPK10lightpos_tRK6VectorRS7_
__ZN43__Function_R_LightEffectsWorldFunctionTableILi26EE3RunEPK11LightDesc_tPK10lightpos_tRK6VectorRS7_
__ZN43__Function_R_LightEffectsWorldFunctionTableILi27EE3RunEPK11LightDesc_tPK10lightpos_tRK6VectorRS7_
__ZN43__Function_R_LightEffectsWorldFunctionTableILi28EE3RunEPK11LightDesc_tPK10lightpos_tRK6VectorRS7_
__ZN43__Function_R_LightEffectsWorldFunctionTableILi29EE3RunEPK11LightDesc_tPK10lightpos_tRK6VectorRS7_
__ZN43__Function_R_LightEffectsWorldFunctionTableILi2EE3RunEPK11LightDesc_tPK10lightpos_tRK6VectorRS7_
__ZN43__Function_R_LightEffectsWorldFunctionTableILi30EE3RunEPK11LightDesc_tPK10lightpos_tRK6VectorRS7_
__ZN43__Function_R_LightEffectsWorldFunctionTableILi31EE3RunEPK11LightDesc_tPK10lightpos_tRK6VectorRS7_
__ZN43__Function_R_LightEffectsWorldFunctionTableILi32EE3RunEPK11LightDesc_tPK10lightpos_tRK6VectorRS7_
__ZN43__Function_R_LightEffectsWorldFunctionTableILi33EE3RunEPK11LightDesc_tPK10lightpos_tRK6VectorRS7_
__ZN43__Function_R_LightEffectsWorldFunctionTableILi34EE3RunEPK11LightDesc_tPK10lightpos_tRK6VectorRS7_
__ZN43__Function_R_LightEffectsWorldFunctionTableILi35EE3RunEPK11LightDesc_tPK10lightpos_tRK6VectorRS7_
__ZN43__Function_R_LightEffectsWorldFunctionTableILi36EE3RunEPK11LightDesc_tPK10lightpos_tRK6VectorRS7_
__ZN43__Function_R_LightEffectsWorldFunctionTableILi37EE3RunEPK11LightDesc_tPK10lightpos_tRK6VectorRS7_
__ZN43__Function_R_LightEffectsWorldFunctionTableILi38EE3RunEPK11LightDesc_tPK10lightpos_tRK6VectorRS7_
__ZN43__Function_R_LightEffectsWorldFunctionTableILi39EE3RunEPK11LightDesc_tPK10lightpos_tRK6VectorRS7_
__ZN43__Function_R_LightEffectsWorldFunctionTableILi3EE3RunEPK11LightDesc_tPK10lightpos_tRK6VectorRS7_
__ZN43__Function_R_LightEffectsWorldFunctionTableILi40EE3RunEPK11LightDesc_tPK10lightpos_tRK6VectorRS7_
__ZN43__Function_R_LightEffectsWorldFunctionTableILi41EE3RunEPK11LightDesc_tPK10lightpos_tRK6VectorRS7_
__ZN43__Function_R_LightEffectsWorldFunctionTableILi42EE3RunEPK11LightDesc_tPK10lightpos_tRK6VectorRS7_
__ZN43__Function_R_LightEffectsWorldFunctionTableILi43EE3RunEPK11LightDesc_tPK10lightpos_tRK6VectorRS7_
__ZN43__Function_R_LightEffectsWorldFunctionTableILi44EE3RunEPK11LightDesc_tPK10lightpos_tRK6VectorRS7_
__ZN43__Function_R_LightEffectsWorldFunctionTableILi45EE3RunEPK11LightDesc_tPK10lightpos_tRK6VectorRS7_
__ZN43__Function_R_LightEffectsWorldFunctionTableILi46EE3RunEPK11LightDesc_tPK10lightpos_tRK6VectorRS7_
__ZN43__Function_R_LightEffectsWorldFunctionTableILi47EE3RunEPK11LightDesc_tPK10lightpos_tRK6VectorRS7_
__ZN43__Function_R_LightEffectsWorldFunctionTableILi48EE3RunEPK11LightDesc_tPK10lightpos_tRK6VectorRS7_
__ZN43__Function_R_LightEffectsWorldFunctionTableILi49EE3RunEPK11LightDesc_tPK10lightpos_tRK6VectorRS7_
__ZN43__Function_R_LightEffectsWorldFunctionTableILi4EE3RunEPK11LightDesc_tPK10lightpos_tRK6VectorRS7_
__ZN43__Function_R_LightEffectsWorldFunctionTableILi50EE3RunEPK11LightDesc_tPK10lightpos_tRK6VectorRS7_
__ZN43__Function_R_LightEffectsWorldFunctionTableILi51EE3RunEPK11LightDesc_tPK10lightpos_tRK6VectorRS7_
__ZN43__Function_R_LightEffectsWorldFunctionTableILi52EE3RunEPK11LightDesc_tPK10lightpos_tRK6VectorRS7_
__ZN43__Function_R_LightEffectsWorldFunctionTableILi53EE3RunEPK11LightDesc_tPK10lightpos_tRK6VectorRS7_
__ZN43__Function_R_LightEffectsWorldFunctionTableILi54EE3RunEPK11LightDesc_tPK10lightpos_tRK6VectorRS7_
__ZN43__Function_R_LightEffectsWorldFunctionTableILi55EE3RunEPK11LightDesc_tPK10lightpos_tRK6VectorRS7_
__ZN43__Function_R_LightEffectsWorldFunctionTableILi56EE3RunEPK11LightDesc_tPK10lightpos_tRK6VectorRS7_
__ZN43__Function_R_LightEffectsWorldFunctionTableILi57EE3RunEPK11LightDesc_tPK10lightpos_tRK6VectorRS7_
__ZN43__Function_R_LightEffectsWorldFunctionTableILi58EE3RunEPK11LightDesc_tPK10lightpos_tRK6VectorRS7_
__ZN43__Function_R_LightEffectsWorldFunctionTableILi59EE3RunEPK11LightDesc_tPK10lightpos_tRK6VectorRS7_
__ZN43__Function_R_LightEffectsWorldFunctionTableILi5EE3RunEPK11LightDesc_tPK10lightpos_tRK6VectorRS7_
__ZN43__Function_R_LightEffectsWorldFunctionTableILi60EE3RunEPK11LightDesc_tPK10lightpos_tRK6VectorRS7_
__ZN43__Function_R_LightEffectsWorldFunctionTableILi61EE3RunEPK11LightDesc_tPK10lightpos_tRK6VectorRS7_
__ZN43__Function_R_LightEffectsWorldFunctionTableILi62EE3RunEPK11LightDesc_tPK10lightpos_tRK6VectorRS7_
__ZN43__Function_R_LightEffectsWorldFunctionTableILi63EE3RunEPK11LightDesc_tPK10lightpos_tRK6VectorRS7_
__ZN43__Function_R_LightEffectsWorldFunctionTableILi64EE3RunEPK11LightDesc_tPK10lightpos_tRK6VectorRS7_
__ZN43__Function_R_LightEffectsWorldFunctionTableILi65EE3RunEPK11LightDesc_tPK10lightpos_tRK6VectorRS7_
__ZN43__Function_R_LightEffectsWorldFunctionTableILi66EE3RunEPK11LightDesc_tPK10lightpos_tRK6VectorRS7_
__ZN43__Function_R_LightEffectsWorldFunctionTableILi67EE3RunEPK11LightDesc_tPK10lightpos_tRK6VectorRS7_
__ZN43__Function_R_LightEffectsWorldFunctionTableILi68EE3RunEPK11LightDesc_tPK10lightpos_tRK6VectorRS7_
__ZN43__Function_R_LightEffectsWorldFunctionTableILi69EE3RunEPK11LightDesc_tPK10lightpos_tRK6VectorRS7_
__ZN43__Function_R_LightEffectsWorldFunctionTableILi6EE3RunEPK11LightDesc_tPK10lightpos_tRK6VectorRS7_
__ZN43__Function_R_LightEffectsWorldFunctionTableILi70EE3RunEPK11LightDesc_tPK10lightpos_tRK6VectorRS7_
__ZN43__Function_R_LightEffectsWorldFunctionTableILi71EE3RunEPK11LightDesc_tPK10lightpos_tRK6VectorRS7_
__ZN43__Function_R_LightEffectsWorldFunctionTableILi72EE3RunEPK11LightDesc_tPK10lightpos_tRK6VectorRS7_
__ZN43__Function_R_LightEffectsWorldFunctionTableILi73EE3RunEPK11LightDesc_tPK10lightpos_tRK6VectorRS7_
__ZN43__Function_R_LightEffectsWorldFunctionTableILi74EE3RunEPK11LightDesc_tPK10lightpos_tRK6VectorRS7_
__ZN43__Function_R_LightEffectsWorldFunctionTableILi75EE3RunEPK11LightDesc_tPK10lightpos_tRK6VectorRS7_
__ZN43__Function_R_LightEffectsWorldFunctionTableILi76EE3RunEPK11LightDesc_tPK10lightpos_tRK6VectorRS7_
__ZN43__Function_R_LightEffectsWorldFunctionTableILi77EE3RunEPK11LightDesc_tPK10lightpos_tRK6VectorRS7_
__ZN43__Function_R_LightEffectsWorldFunctionTableILi78EE3RunEPK11LightDesc_tPK10lightpos_tRK6VectorRS7_
__ZN43__Function_R_LightEffectsWorldFunctionTableILi79EE3RunEPK11LightDesc_tPK10lightpos_tRK6VectorRS7_
__ZN43__Function_R_LightEffectsWorldFunctionTableILi7EE3RunEPK11LightDesc_tPK10lightpos_tRK6VectorRS7_
__ZN43__Function_R_LightEffectsWorldFunctionTableILi80EE3RunEPK11LightDesc_tPK10lightpos_tRK6VectorRS7_
__ZN43__Function_R_LightEffectsWorldFunctionTableILi81EE3RunEPK11LightDesc_tPK10lightpos_tRK6VectorRS7_
__ZN43__Function_R_LightEffectsWorldFunctionTableILi82EE3RunEPK11LightDesc_tPK10lightpos_tRK6VectorRS7_
__ZN43__Function_R_LightEffectsWorldFunctionTableILi83EE3RunEPK11LightDesc_tPK10lightpos_tRK6VectorRS7_
__ZN43__Function_R_LightEffectsWorldFunctionTableILi84EE3RunEPK11LightDesc_tPK10lightpos_tRK6VectorRS7_
__ZN43__Function_R_LightEffectsWorldFunctionTableILi85EE3RunEPK11LightDesc_tPK10lightpos_tRK6VectorRS7_
__ZN43__Function_R_LightEffectsWorldFunctionTableILi86EE3RunEPK11LightDesc_tPK10lightpos_tRK6VectorRS7_
__ZN43__Function_R_LightEffectsWorldFunctionTableILi87EE3RunEPK11LightDesc_tPK10lightpos_tRK6VectorRS7_
__ZN43__Function_R_LightEffectsWorldFunctionTableILi88EE3RunEPK11LightDesc_tPK10lightpos_tRK6VectorRS7_
__ZN43__Function_R_LightEffectsWorldFunctionTableILi89EE3RunEPK11LightDesc_tPK10lightpos_tRK6VectorRS7_
__ZN43__Function_R_LightEffectsWorldFunctionTableILi8EE3RunEPK11LightDesc_tPK10lightpos_tRK6VectorRS7_
__ZN43__Function_R_LightEffectsWorldFunctionTableILi90EE3RunEPK11LightDesc_tPK10lightpos_tRK6VectorRS7_
__ZN43__Function_R_LightEffectsWorldFunctionTableILi91EE3RunEPK11LightDesc_tPK10lightpos_tRK6VectorRS7_
__ZN43__Function_R_LightEffectsWorldFunctionTableILi92EE3RunEPK11LightDesc_tPK10lightpos_tRK6VectorRS7_
__ZN43__Function_R_LightEffectsWorldFunctionTableILi93EE3RunEPK11LightDesc_tPK10lightpos_tRK6VectorRS7_
__ZN43__Function_R_LightEffectsWorldFunctionTableILi94EE3RunEPK11LightDesc_tPK10lightpos_tRK6VectorRS7_
__ZN43__Function_R_LightEffectsWorldFunctionTableILi95EE3RunEPK11LightDesc_tPK10lightpos_tRK6VectorRS7_
__ZN43__Function_R_LightEffectsWorldFunctionTableILi96EE3RunEPK11LightDesc_tPK10lightpos_tRK6VectorRS7_
__ZN43__Function_R_LightEffectsWorldFunctionTableILi97EE3RunEPK11LightDesc_tPK10lightpos_tRK6VectorRS7_
__ZN43__Function_R_LightEffectsWorldFunctionTableILi98EE3RunEPK11LightDesc_tPK10lightpos_tRK6VectorRS7_
__ZN43__Function_R_LightEffectsWorldFunctionTableILi99EE3RunEPK11LightDesc_tPK10lightpos_tRK6VectorRS7_
__ZN43__Function_R_LightEffectsWorldFunctionTableILi9EE3RunEPK11LightDesc_tPK10lightpos_tRK6VectorRS7_
__ZN48R_LightEffectsWorldFunctionTableConstDirectional1mE
__ZN48R_LightEffectsWorldFunctionTableConstDirectional9functionsE
__ZN51__Function_R_WorldLightDistanceFalloffFunctionTableILi0EE3RunEPK11LightDesc_tRK6Vector
__ZN51__Function_R_WorldLightDistanceFalloffFunctionTableILi1EE3RunEPK11LightDesc_tRK6Vector
__ZN51__Function_R_WorldLightDistanceFalloffFunctionTableILi2EE3RunEPK11LightDesc_tRK6Vector
__ZN51__Function_R_WorldLightDistanceFalloffFunctionTableILi3EE3RunEPK11LightDesc_tRK6Vector
__ZN51__Function_R_WorldLightDistanceFalloffFunctionTableILi4EE3RunEPK11LightDesc_tRK6Vector
__ZN51__Function_R_WorldLightDistanceFalloffFunctionTableILi5EE3RunEPK11LightDesc_tRK6Vector
__ZN51__Function_R_WorldLightDistanceFalloffFunctionTableILi6EE3RunEPK11LightDesc_tRK6Vector
__ZN51__Function_R_WorldLightDistanceFalloffFunctionTableILi7EE3RunEPK11LightDesc_tRK6Vector
__ZN51__Function_R_WorldLightDistanceFalloffFunctionTableILi8EE3RunEPK11LightDesc_tRK6Vector
__ZN59__Function_R_LightEffectsWorldFunctionTableConstDirectionalILi0EE3RunEPK11LightDesc_tPK10lightpos_tRK6VectorRS7_f
__ZN59__Function_R_LightEffectsWorldFunctionTableConstDirectionalILi100EE3RunEPK11LightDesc_tPK10lightpos_tRK6VectorRS7_f
__ZN59__Function_R_LightEffectsWorldFunctionTableConstDirectionalILi101EE3RunEPK11LightDesc_tPK10lightpos_tRK6VectorRS7_f
__ZN59__Function_R_LightEffectsWorldFunctionTableConstDirectionalILi102EE3RunEPK11LightDesc_tPK10lightpos_tRK6VectorRS7_f
__ZN59__Function_R_LightEffectsWorldFunctionTableConstDirectionalILi103EE3RunEPK11LightDesc_tPK10lightpos_tRK6VectorRS7_f
__ZN59__Function_R_LightEffectsWorldFunctionTableConstDirectionalILi104EE3RunEPK11LightDesc_tPK10lightpos_tRK6VectorRS7_f
__ZN59__Function_R_LightEffectsWorldFunctionTableConstDirectionalILi105EE3RunEPK11LightDesc_tPK10lightpos_tRK6VectorRS7_f
__ZN59__Function_R_LightEffectsWorldFunctionTableConstDirectionalILi106EE3RunEPK11LightDesc_tPK10lightpos_tRK6VectorRS7_f
__ZN59__Function_R_LightEffectsWorldFunctionTableConstDirectionalILi107EE3RunEPK11LightDesc_tPK10lightpos_tRK6VectorRS7_f
__ZN59__Function_R_LightEffectsWorldFunctionTableConstDirectionalILi108EE3RunEPK11LightDesc_tPK10lightpos_tRK6VectorRS7_f
__ZN59__Function_R_LightEffectsWorldFunctionTableConstDirectionalILi109EE3RunEPK11LightDesc_tPK10lightpos_tRK6VectorRS7_f
__ZN59__Function_R_LightEffectsWorldFunctionTableConstDirectionalILi10EE3RunEPK11LightDesc_tPK10lightpos_tRK6VectorRS7_f
__ZN59__Function_R_LightEffectsWorldFunctionTableConstDirectionalILi110EE3RunEPK11LightDesc_tPK10lightpos_tRK6VectorRS7_f
__ZN59__Function_R_LightEffectsWorldFunctionTableConstDirectionalILi111EE3RunEPK11LightDesc_tPK10lightpos_tRK6VectorRS7_f
__ZN59__Function_R_LightEffectsWorldFunctionTableConstDirectionalILi112EE3RunEPK11LightDesc_tPK10lightpos_tRK6VectorRS7_f
__ZN59__Function_R_LightEffectsWorldFunctionTableConstDirectionalILi113EE3RunEPK11LightDesc_tPK10lightpos_tRK6VectorRS7_f
__ZN59__Function_R_LightEffectsWorldFunctionTableConstDirectionalILi114EE3RunEPK11LightDesc_tPK10lightpos_tRK6VectorRS7_f
__ZN59__Function_R_LightEffectsWorldFunctionTableConstDirectionalILi115EE3RunEPK11LightDesc_tPK10lightpos_tRK6VectorRS7_f
__ZN59__Function_R_LightEffectsWorldFunctionTableConstDirectionalILi116EE3RunEPK11LightDesc_tPK10lightpos_tRK6VectorRS7_f
__ZN59__Function_R_LightEffectsWorldFunctionTableConstDirectionalILi117EE3RunEPK11LightDesc_tPK10lightpos_tRK6VectorRS7_f
__ZN59__Function_R_LightEffectsWorldFunctionTableConstDirectionalILi118EE3RunEPK11LightDesc_tPK10lightpos_tRK6VectorRS7_f
__ZN59__Function_R_LightEffectsWorldFunctionTableConstDirectionalILi119EE3RunEPK11LightDesc_tPK10lightpos_tRK6VectorRS7_f
__ZN59__Function_R_LightEffectsWorldFunctionTableConstDirectionalILi11EE3RunEPK11LightDesc_tPK10lightpos_tRK6VectorRS7_f
__ZN59__Function_R_LightEffectsWorldFunctionTableConstDirectionalILi120EE3RunEPK11LightDesc_tPK10lightpos_tRK6VectorRS7_f
__ZN59__Function_R_LightEffectsWorldFunctionTableConstDirectionalILi121EE3RunEPK11LightDesc_tPK10lightpos_tRK6VectorRS7_f
__ZN59__Function_R_LightEffectsWorldFunctionTableConstDirectionalILi122EE3RunEPK11LightDesc_tPK10lightpos_tRK6VectorRS7_f
__ZN59__Function_R_LightEffectsWorldFunctionTableConstDirectionalILi123EE3RunEPK11LightDesc_tPK10lightpos_tRK6VectorRS7_f
__ZN59__Function_R_LightEffectsWorldFunctionTableConstDirectionalILi124EE3RunEPK11LightDesc_tPK10lightpos_tRK6VectorRS7_f
__ZN59__Function_R_LightEffectsWorldFunctionTableConstDirectionalILi125EE3RunEPK11LightDesc_tPK10lightpos_tRK6VectorRS7_f
__ZN59__Function_R_LightEffectsWorldFunctionTableConstDirectionalILi126EE3RunEPK11LightDesc_tPK10lightpos_tRK6VectorRS7_f
__ZN59__Function_R_LightEffectsWorldFunctionTableConstDirectionalILi127EE3RunEPK11LightDesc_tPK10lightpos_tRK6VectorRS7_f
__ZN59__Function_R_LightEffectsWorldFunctionTableConstDirectionalILi128EE3RunEPK11LightDesc_tPK10lightpos_tRK6VectorRS7_f
__ZN59__Function_R_LightEffectsWorldFunctionTableConstDirectionalILi129EE3RunEPK11LightDesc_tPK10lightpos_tRK6VectorRS7_f
__ZN59__Function_R_LightEffectsWorldFunctionTableConstDirectionalILi12EE3RunEPK11LightDesc_tPK10lightpos_tRK6VectorRS7_f
__ZN59__Function_R_LightEffectsWorldFunctionTableConstDirectionalILi130EE3RunEPK11LightDesc_tPK10lightpos_tRK6VectorRS7_f
__ZN59__Function_R_LightEffectsWorldFunctionTableConstDirectionalILi131EE3RunEPK11LightDesc_tPK10lightpos_tRK6VectorRS7_f
__ZN59__Function_R_LightEffectsWorldFunctionTableConstDirectionalILi132EE3RunEPK11LightDesc_tPK10lightpos_tRK6VectorRS7_f
__ZN59__Function_R_LightEffectsWorldFunctionTableConstDirectionalILi133EE3RunEPK11LightDesc_tPK10lightpos_tRK6VectorRS7_f
__ZN59__Function_R_LightEffectsWorldFunctionTableConstDirectionalILi134EE3RunEPK11LightDesc_tPK10lightpos_tRK6VectorRS7_f
__ZN59__Function_R_LightEffectsWorldFunctionTableConstDirectionalILi135EE3RunEPK11LightDesc_tPK10lightpos_tRK6VectorRS7_f
__ZN59__Function_R_LightEffectsWorldFunctionTableConstDirectionalILi136EE3RunEPK11LightDesc_tPK10lightpos_tRK6VectorRS7_f
__ZN59__Function_R_LightEffectsWorldFunctionTableConstDirectionalILi137EE3RunEPK11LightDesc_tPK10lightpos_tRK6VectorRS7_f
__ZN59__Function_R_LightEffectsWorldFunctionTableConstDirectionalILi138EE3RunEPK11LightDesc_tPK10lightpos_tRK6VectorRS7_f
__ZN59__Function_R_LightEffectsWorldFunctionTableConstDirectionalILi139EE3RunEPK11LightDesc_tPK10lightpos_tRK6VectorRS7_f
__ZN59__Function_R_LightEffectsWorldFunctionTableConstDirectionalILi13EE3RunEPK11LightDesc_tPK10lightpos_tRK6VectorRS7_f
__ZN59__Function_R_LightEffectsWorldFunctionTableConstDirectionalILi140EE3RunEPK11LightDesc_tPK10lightpos_tRK6VectorRS7_f
__ZN59__Function_R_LightEffectsWorldFunctionTableConstDirectionalILi141EE3RunEPK11LightDesc_tPK10lightpos_tRK6VectorRS7_f
__ZN59__Function_R_LightEffectsWorldFunctionTableConstDirectionalILi142EE3RunEPK11LightDesc_tPK10lightpos_tRK6VectorRS7_f
__ZN59__Function_R_LightEffectsWorldFunctionTableConstDirectionalILi143EE3RunEPK11LightDesc_tPK10lightpos_tRK6VectorRS7_f
__ZN59__Function_R_LightEffectsWorldFunctionTableConstDirectionalILi144EE3RunEPK11LightDesc_tPK10lightpos_tRK6VectorRS7_f
__ZN59__Function_R_LightEffectsWorldFunctionTableConstDirectionalILi145EE3RunEPK11LightDesc_tPK10lightpos_tRK6VectorRS7_f
__ZN59__Function_R_LightEffectsWorldFunctionTableConstDirectionalILi146EE3RunEPK11LightDesc_tPK10lightpos_tRK6VectorRS7_f
__ZN59__Function_R_LightEffectsWorldFunctionTableConstDirectionalILi147EE3RunEPK11LightDesc_tPK10lightpos_tRK6VectorRS7_f
__ZN59__Function_R_LightEffectsWorldFunctionTableConstDirectionalILi148EE3RunEPK11LightDesc_tPK10lightpos_tRK6VectorRS7_f
__ZN59__Function_R_LightEffectsWorldFunctionTableConstDirectionalILi149EE3RunEPK11LightDesc_tPK10lightpos_tRK6VectorRS7_f
__ZN59__Function_R_LightEffectsWorldFunctionTableConstDirectionalILi14EE3RunEPK11LightDesc_tPK10lightpos_tRK6VectorRS7_f
__ZN59__Function_R_LightEffectsWorldFunctionTableConstDirectionalILi150EE3RunEPK11LightDesc_tPK10lightpos_tRK6VectorRS7_f
__ZN59__Function_R_LightEffectsWorldFunctionTableConstDirectionalILi151EE3RunEPK11LightDesc_tPK10lightpos_tRK6VectorRS7_f
__ZN59__Function_R_LightEffectsWorldFunctionTableConstDirectionalILi152EE3RunEPK11LightDesc_tPK10lightpos_tRK6VectorRS7_f
__ZN59__Function_R_LightEffectsWorldFunctionTableConstDirectionalILi153EE3RunEPK11LightDesc_tPK10lightpos_tRK6VectorRS7_f
__ZN59__Function_R_LightEffectsWorldFunctionTableConstDirectionalILi154EE3RunEPK11LightDesc_tPK10lightpos_tRK6VectorRS7_f
__ZN59__Function_R_LightEffectsWorldFunctionTableConstDirectionalILi155EE3RunEPK11LightDesc_tPK10lightpos_tRK6VectorRS7_f
__ZN59__Function_R_LightEffectsWorldFunctionTableConstDirectionalILi156EE3RunEPK11LightDesc_tPK10lightpos_tRK6VectorRS7_f
__ZN59__Function_R_LightEffectsWorldFunctionTableConstDirectionalILi157EE3RunEPK11LightDesc_tPK10lightpos_tRK6VectorRS7_f
__ZN59__Function_R_LightEffectsWorldFunctionTableConstDirectionalILi158EE3RunEPK11LightDesc_tPK10lightpos_tRK6VectorRS7_f
__ZN59__Function_R_LightEffectsWorldFunctionTableConstDirectionalILi159EE3RunEPK11LightDesc_tPK10lightpos_tRK6VectorRS7_f
__ZN59__Function_R_LightEffectsWorldFunctionTableConstDirectionalILi15EE3RunEPK11LightDesc_tPK10lightpos_tRK6VectorRS7_f
__ZN59__Function_R_LightEffectsWorldFunctionTableConstDirectionalILi160EE3RunEPK11LightDesc_tPK10lightpos_tRK6VectorRS7_f
__ZN59__Function_R_LightEffectsWorldFunctionTableConstDirectionalILi161EE3RunEPK11LightDesc_tPK10lightpos_tRK6VectorRS7_f
__ZN59__Function_R_LightEffectsWorldFunctionTableConstDirectionalILi162EE3RunEPK11LightDesc_tPK10lightpos_tRK6VectorRS7_f
__ZN59__Function_R_LightEffectsWorldFunctionTableConstDirectionalILi163EE3RunEPK11LightDesc_tPK10lightpos_tRK6VectorRS7_f
__ZN59__Function_R_LightEffectsWorldFunctionTableConstDirectionalILi164EE3RunEPK11LightDesc_tPK10lightpos_tRK6VectorRS7_f
__ZN59__Function_R_LightEffectsWorldFunctionTableConstDirectionalILi165EE3RunEPK11LightDesc_tPK10lightpos_tRK6VectorRS7_f
__ZN59__Function_R_LightEffectsWorldFunctionTableConstDirectionalILi166EE3RunEPK11LightDesc_tPK10lightpos_tRK6VectorRS7_f
__ZN59__Function_R_LightEffectsWorldFunctionTableConstDirectionalILi167EE3RunEPK11LightDesc_tPK10lightpos_tRK6VectorRS7_f
__ZN59__Function_R_LightEffectsWorldFunctionTableConstDirectionalILi168EE3RunEPK11LightDesc_tPK10lightpos_tRK6VectorRS7_f
__ZN59__Function_R_LightEffectsWorldFunctionTableConstDirectionalILi169EE3RunEPK11LightDesc_tPK10lightpos_tRK6VectorRS7_f
__ZN59__Function_R_LightEffectsWorldFunctionTableConstDirectionalILi16EE3RunEPK11LightDesc_tPK10lightpos_tRK6VectorRS7_f
__ZN59__Function_R_LightEffectsWorldFunctionTableConstDirectionalILi170EE3RunEPK11LightDesc_tPK10lightpos_tRK6VectorRS7_f
__ZN59__Function_R_LightEffectsWorldFunctionTableConstDirectionalILi171EE3RunEPK11LightDesc_tPK10lightpos_tRK6VectorRS7_f
__ZN59__Function_R_LightEffectsWorldFunctionTableConstDirectionalILi172EE3RunEPK11LightDesc_tPK10lightpos_tRK6VectorRS7_f
__ZN59__Function_R_LightEffectsWorldFunctionTableConstDirectionalILi173EE3RunEPK11LightDesc_tPK10lightpos_tRK6VectorRS7_f
__ZN59__Function_R_LightEffectsWorldFunctionTableConstDirectionalILi174EE3RunEPK11LightDesc_tPK10lightpos_tRK6VectorRS7_f
__ZN59__Function_R_LightEffectsWorldFunctionTableConstDirectionalILi175EE3RunEPK11LightDesc_tPK10lightpos_tRK6VectorRS7_f
__ZN59__Function_R_LightEffectsWorldFunctionTableConstDirectionalILi176EE3RunEPK11LightDesc_tPK10lightpos_tRK6VectorRS7_f
__ZN59__Function_R_LightEffectsWorldFunctionTableConstDirectionalILi177EE3RunEPK11LightDesc_tPK10lightpos_tRK6VectorRS7_f
__ZN59__Function_R_LightEffectsWorldFunctionTableConstDirectionalILi178EE3RunEPK11LightDesc_tPK10lightpos_tRK6VectorRS7_f
__ZN59__Function_R_LightEffectsWorldFunctionTableConstDirectionalILi179EE3RunEPK11LightDesc_tPK10lightpos_tRK6VectorRS7_f
__ZN59__Function_R_LightEffectsWorldFunctionTableConstDirectionalILi17EE3RunEPK11LightDesc_tPK10lightpos_tRK6VectorRS7_f
__ZN59__Function_R_LightEffectsWorldFunctionTableConstDirectionalILi180EE3RunEPK11LightDesc_tPK10lightpos_tRK6VectorRS7_f
__ZN59__Function_R_LightEffectsWorldFunctionTableConstDirectionalILi181EE3RunEPK11LightDesc_tPK10lightpos_tRK6VectorRS7_f
__ZN59__Function_R_LightEffectsWorldFunctionTableConstDirectionalILi182EE3RunEPK11LightDesc_tPK10lightpos_tRK6VectorRS7_f
__ZN59__Function_R_LightEffectsWorldFunctionTableConstDirectionalILi183EE3RunEPK11LightDesc_tPK10lightpos_tRK6VectorRS7_f
__ZN59__Function_R_LightEffectsWorldFunctionTableConstDirectionalILi184EE3RunEPK11LightDesc_tPK10lightpos_tRK6VectorRS7_f
__ZN59__Function_R_LightEffectsWorldFunctionTableConstDirectionalILi185EE3RunEPK11LightDesc_tPK10lightpos_tRK6VectorRS7_f
__ZN59__Function_R_LightEffectsWorldFunctionTableConstDirectionalILi186EE3RunEPK11LightDesc_tPK10lightpos_tRK6VectorRS7_f
__ZN59__Function_R_LightEffectsWorldFunctionTableConstDirectionalILi187EE3RunEPK11LightDesc_tPK10lightpos_tRK6VectorRS7_f
__ZN59__Function_R_LightEffectsWorldFunctionTableConstDirectionalILi188EE3RunEPK11LightDesc_tPK10lightpos_tRK6VectorRS7_f
__ZN59__Function_R_LightEffectsWorldFunctionTableConstDirectionalILi189EE3RunEPK11LightDesc_tPK10lightpos_tRK6VectorRS7_f
__ZN59__Function_R_LightEffectsWorldFunctionTableConstDirectionalILi18EE3RunEPK11LightDesc_tPK10lightpos_tRK6VectorRS7_f
__ZN59__Function_R_LightEffectsWorldFunctionTableConstDirectionalILi190EE3RunEPK11LightDesc_tPK10lightpos_tRK6VectorRS7_f
__ZN59__Function_R_LightEffectsWorldFunctionTableConstDirectionalILi191EE3RunEPK11LightDesc_tPK10lightpos_tRK6VectorRS7_f
__ZN59__Function_R_LightEffectsWorldFunctionTableConstDirectionalILi192EE3RunEPK11LightDesc_tPK10lightpos_tRK6VectorRS7_f
__ZN59__Function_R_LightEffectsWorldFunctionTableConstDirectionalILi193EE3RunEPK11LightDesc_tPK10lightpos_tRK6VectorRS7_f
__ZN59__Function_R_LightEffectsWorldFunctionTableConstDirectionalILi194EE3RunEPK11LightDesc_tPK10lightpos_tRK6VectorRS7_f
__ZN59__Function_R_LightEffectsWorldFunctionTableConstDirectionalILi195EE3RunEPK11LightDesc_tPK10lightpos_tRK6VectorRS7_f
__ZN59__Function_R_LightEffectsWorldFunctionTableConstDirectionalILi196EE3RunEPK11LightDesc_tPK10lightpos_tRK6VectorRS7_f
__ZN59__Function_R_LightEffectsWorldFunctionTableConstDirectionalILi197EE3RunEPK11LightDesc_tPK10lightpos_tRK6VectorRS7_f
__ZN59__Function_R_LightEffectsWorldFunctionTableConstDirectionalILi198EE3RunEPK11LightDesc_tPK10lightpos_tRK6VectorRS7_f
__ZN59__Function_R_LightEffectsWorldFunctionTableConstDirectionalILi199EE3RunEPK11LightDesc_tPK10lightpos_tRK6VectorRS7_f
__ZN59__Function_R_LightEffectsWorldFunctionTableConstDirectionalILi19EE3RunEPK11LightDesc_tPK10lightpos_tRK6VectorRS7_f
__ZN59__Function_R_LightEffectsWorldFunctionTableConstDirectionalILi1EE3RunEPK11LightDesc_tPK10lightpos_tRK6VectorRS7_f
__ZN59__Function_R_LightEffectsWorldFunctionTableConstDirectionalILi200EE3RunEPK11LightDesc_tPK10lightpos_tRK6VectorRS7_f
__ZN59__Function_R_LightEffectsWorldFunctionTableConstDirectionalILi201EE3RunEPK11LightDesc_tPK10lightpos_tRK6VectorRS7_f
__ZN59__Function_R_LightEffectsWorldFunctionTableConstDirectionalILi202EE3RunEPK11LightDesc_tPK10lightpos_tRK6VectorRS7_f
__ZN59__Function_R_LightEffectsWorldFunctionTableConstDirectionalILi203EE3RunEPK11LightDesc_tPK10lightpos_tRK6VectorRS7_f
__ZN59__Function_R_LightEffectsWorldFunctionTableConstDirectionalILi204EE3RunEPK11LightDesc_tPK10lightpos_tRK6VectorRS7_f
__ZN59__Function_R_LightEffectsWorldFunctionTableConstDirectionalILi205EE3RunEPK11LightDesc_tPK10lightpos_tRK6VectorRS7_f
__ZN59__Function_R_LightEffectsWorldFunctionTableConstDirectionalILi206EE3RunEPK11LightDesc_tPK10lightpos_tRK6VectorRS7_f
__ZN59__Function_R_LightEffectsWorldFunctionTableConstDirectionalILi207EE3RunEPK11LightDesc_tPK10lightpos_tRK6VectorRS7_f
__ZN59__Function_R_LightEffectsWorldFunctionTableConstDirectionalILi208EE3RunEPK11LightDesc_tPK10lightpos_tRK6VectorRS7_f
__ZN59__Function_R_LightEffectsWorldFunctionTableConstDirectionalILi209EE3RunEPK11LightDesc_tPK10lightpos_tRK6VectorRS7_f
__ZN59__Function_R_LightEffectsWorldFunctionTableConstDirectionalILi20EE3RunEPK11LightDesc_tPK10lightpos_tRK6VectorRS7_f
__ZN59__Function_R_LightEffectsWorldFunctionTableConstDirectionalILi210EE3RunEPK11LightDesc_tPK10lightpos_tRK6VectorRS7_f
__ZN59__Function_R_LightEffectsWorldFunctionTableConstDirectionalILi211EE3RunEPK11LightDesc_tPK10lightpos_tRK6VectorRS7_f
__ZN59__Function_R_LightEffectsWorldFunctionTableConstDirectionalILi212EE3RunEPK11LightDesc_tPK10lightpos_tRK6VectorRS7_f
__ZN59__Function_R_LightEffectsWorldFunctionTableConstDirectionalILi213EE3RunEPK11LightDesc_tPK10lightpos_tRK6VectorRS7_f
__ZN59__Function_R_LightEffectsWorldFunctionTableConstDirectionalILi214EE3RunEPK11LightDesc_tPK10lightpos_tRK6VectorRS7_f
__ZN59__Function_R_LightEffectsWorldFunctionTableConstDirectionalILi215EE3RunEPK11LightDesc_tPK10lightpos_tRK6VectorRS7_f
__ZN59__Function_R_LightEffectsWorldFunctionTableConstDirectionalILi216EE3RunEPK11LightDesc_tPK10lightpos_tRK6VectorRS7_f
__ZN59__Function_R_LightEffectsWorldFunctionTableConstDirectionalILi217EE3RunEPK11LightDesc_tPK10lightpos_tRK6VectorRS7_f
__ZN59__Function_R_LightEffectsWorldFunctionTableConstDirectionalILi218EE3RunEPK11LightDesc_tPK10lightpos_tRK6VectorRS7_f
__ZN59__Function_R_LightEffectsWorldFunctionTableConstDirectionalILi219EE3RunEPK11LightDesc_tPK10lightpos_tRK6VectorRS7_f
__ZN59__Function_R_LightEffectsWorldFunctionTableConstDirectionalILi21EE3RunEPK11LightDesc_tPK10lightpos_tRK6VectorRS7_f
__ZN59__Function_R_LightEffectsWorldFunctionTableConstDirectionalILi220EE3RunEPK11LightDesc_tPK10lightpos_tRK6VectorRS7_f
__ZN59__Function_R_LightEffectsWorldFunctionTableConstDirectionalILi221EE3RunEPK11LightDesc_tPK10lightpos_tRK6VectorRS7_f
__ZN59__Function_R_LightEffectsWorldFunctionTableConstDirectionalILi222EE3RunEPK11LightDesc_tPK10lightpos_tRK6VectorRS7_f
__ZN59__Function_R_LightEffectsWorldFunctionTableConstDirectionalILi223EE3RunEPK11LightDesc_tPK10lightpos_tRK6VectorRS7_f
__ZN59__Function_R_LightEffectsWorldFunctionTableConstDirectionalILi224EE3RunEPK11LightDesc_tPK10lightpos_tRK6VectorRS7_f
__ZN59__Function_R_LightEffectsWorldFunctionTableConstDirectionalILi225EE3RunEPK11LightDesc_tPK10lightpos_tRK6VectorRS7_f
__ZN59__Function_R_LightEffectsWorldFunctionTableConstDirectionalILi226EE3RunEPK11LightDesc_tPK10lightpos_tRK6VectorRS7_f
__ZN59__Function_R_LightEffectsWorldFunctionTableConstDirectionalILi227EE3RunEPK11LightDesc_tPK10lightpos_tRK6VectorRS7_f
__ZN59__Function_R_LightEffectsWorldFunctionTableConstDirectionalILi228EE3RunEPK11LightDesc_tPK10lightpos_tRK6VectorRS7_f
__ZN59__Function_R_LightEffectsWorldFunctionTableConstDirectionalILi229EE3RunEPK11LightDesc_tPK10lightpos_tRK6VectorRS7_f
__ZN59__Function_R_LightEffectsWorldFunctionTableConstDirectionalILi22EE3RunEPK11LightDesc_tPK10lightpos_tRK6VectorRS7_f
__ZN59__Function_R_LightEffectsWorldFunctionTableConstDirectionalILi230EE3RunEPK11LightDesc_tPK10lightpos_tRK6VectorRS7_f
__ZN59__Function_R_LightEffectsWorldFunctionTableConstDirectionalILi231EE3RunEPK11LightDesc_tPK10lightpos_tRK6VectorRS7_f
__ZN59__Function_R_LightEffectsWorldFunctionTableConstDirectionalILi232EE3RunEPK11LightDesc_tPK10lightpos_tRK6VectorRS7_f
__ZN59__Function_R_LightEffectsWorldFunctionTableConstDirectionalILi233EE3RunEPK11LightDesc_tPK10lightpos_tRK6VectorRS7_f
__ZN59__Function_R_LightEffectsWorldFunctionTableConstDirectionalILi234EE3RunEPK11LightDesc_tPK10lightpos_tRK6VectorRS7_f
__ZN59__Function_R_LightEffectsWorldFunctionTableConstDirectionalILi235EE3RunEPK11LightDesc_tPK10lightpos_tRK6VectorRS7_f
__ZN59__Function_R_LightEffectsWorldFunctionTableConstDirectionalILi236EE3RunEPK11LightDesc_tPK10lightpos_tRK6VectorRS7_f
__ZN59__Function_R_LightEffectsWorldFunctionTableConstDirectionalILi237EE3RunEPK11LightDesc_tPK10lightpos_tRK6VectorRS7_f
__ZN59__Function_R_LightEffectsWorldFunctionTableConstDirectionalILi238EE3RunEPK11LightDesc_tPK10lightpos_tRK6VectorRS7_f
__ZN59__Function_R_LightEffectsWorldFunctionTableConstDirectionalILi239EE3RunEPK11LightDesc_tPK10lightpos_tRK6VectorRS7_f
__ZN59__Function_R_LightEffectsWorldFunctionTableConstDirectionalILi23EE3RunEPK11LightDesc_tPK10lightpos_tRK6VectorRS7_f
__ZN59__Function_R_LightEffectsWorldFunctionTableConstDirectionalILi240EE3RunEPK11LightDesc_tPK10lightpos_tRK6VectorRS7_f
__ZN59__Function_R_LightEffectsWorldFunctionTableConstDirectionalILi241EE3RunEPK11LightDesc_tPK10lightpos_tRK6VectorRS7_f
__ZN59__Function_R_LightEffectsWorldFunctionTableConstDirectionalILi242EE3RunEPK11LightDesc_tPK10lightpos_tRK6VectorRS7_f
__ZN59__Function_R_LightEffectsWorldFunctionTableConstDirectionalILi243EE3RunEPK11LightDesc_tPK10lightpos_tRK6VectorRS7_f
__ZN59__Function_R_LightEffectsWorldFunctionTableConstDirectionalILi244EE3RunEPK11LightDesc_tPK10lightpos_tRK6VectorRS7_f
__ZN59__Function_R_LightEffectsWorldFunctionTableConstDirectionalILi245EE3RunEPK11LightDesc_tPK10lightpos_tRK6VectorRS7_f
__ZN59__Function_R_LightEffectsWorldFunctionTableConstDirectionalILi246EE3RunEPK11LightDesc_tPK10lightpos_tRK6VectorRS7_f
__ZN59__Function_R_LightEffectsWorldFunctionTableConstDirectionalILi247EE3RunEPK11LightDesc_tPK10lightpos_tRK6VectorRS7_f
__ZN59__Function_R_LightEffectsWorldFunctionTableConstDirectionalILi248EE3RunEPK11LightDesc_tPK10lightpos_tRK6VectorRS7_f
__ZN59__Function_R_LightEffectsWorldFunctionTableConstDirectionalILi249EE3RunEPK11LightDesc_tPK10lightpos_tRK6VectorRS7_f
__ZN59__Function_R_LightEffectsWorldFunctionTableConstDirectionalILi24EE3RunEPK11LightDesc_tPK10lightpos_tRK6VectorRS7_f
__ZN59__Function_R_LightEffectsWorldFunctionTableConstDirectionalILi250EE3RunEPK11LightDesc_tPK10lightpos_tRK6VectorRS7_f
__ZN59__Function_R_LightEffectsWorldFunctionTableConstDirectionalILi251EE3RunEPK11LightDesc_tPK10lightpos_tRK6VectorRS7_f
__ZN59__Function_R_LightEffectsWorldFunctionTableConstDirectionalILi252EE3RunEPK11LightDesc_tPK10lightpos_tRK6VectorRS7_f
__ZN59__Function_R_LightEffectsWorldFunctionTableConstDirectionalILi253EE3RunEPK11LightDesc_tPK10lightpos_tRK6VectorRS7_f
__ZN59__Function_R_LightEffectsWorldFunctionTableConstDirectionalILi254EE3RunEPK11LightDesc_tPK10lightpos_tRK6VectorRS7_f
__ZN59__Function_R_LightEffectsWorldFunctionTableConstDirectionalILi255EE3RunEPK11LightDesc_tPK10lightpos_tRK6VectorRS7_f
__ZN59__Function_R_LightEffectsWorldFunctionTableConstDirectionalILi256EE3RunEPK11LightDesc_tPK10lightpos_tRK6VectorRS7_f
__ZN59__Function_R_LightEffectsWorldFunctionTableConstDirectionalILi25EE3RunEPK11LightDesc_tPK10lightpos_tRK6VectorRS7_f
__ZN59__Function_R_LightEffectsWorldFunctionTableConstDirectionalILi26EE3RunEPK11LightDesc_tPK10lightpos_tRK6VectorRS7_f
__ZN59__Function_R_LightEffectsWorldFunctionTableConstDirectionalILi27EE3RunEPK11LightDesc_tPK10lightpos_tRK6VectorRS7_f
__ZN59__Function_R_LightEffectsWorldFunctionTableConstDirectionalILi28EE3RunEPK11LightDesc_tPK10lightpos_tRK6VectorRS7_f
__ZN59__Function_R_LightEffectsWorldFunctionTableConstDirectionalILi29EE3RunEPK11LightDesc_tPK10lightpos_tRK6VectorRS7_f
__ZN59__Function_R_LightEffectsWorldFunctionTableConstDirectionalILi2EE3RunEPK11LightDesc_tPK10lightpos_tRK6VectorRS7_f
__ZN59__Function_R_LightEffectsWorldFunctionTableConstDirectionalILi30EE3RunEPK11LightDesc_tPK10lightpos_tRK6VectorRS7_f
__ZN59__Function_R_LightEffectsWorldFunctionTableConstDirectionalILi31EE3RunEPK11LightDesc_tPK10lightpos_tRK6VectorRS7_f
__ZN59__Function_R_LightEffectsWorldFunctionTableConstDirectionalILi32EE3RunEPK11LightDesc_tPK10lightpos_tRK6VectorRS7_f
__ZN59__Function_R_LightEffectsWorldFunctionTableConstDirectionalILi33EE3RunEPK11LightDesc_tPK10lightpos_tRK6VectorRS7_f
__ZN59__Function_R_LightEffectsWorldFunctionTableConstDirectionalILi34EE3RunEPK11LightDesc_tPK10lightpos_tRK6VectorRS7_f
__ZN59__Function_R_LightEffectsWorldFunctionTableConstDirectionalILi35EE3RunEPK11LightDesc_tPK10lightpos_tRK6VectorRS7_f
__ZN59__Function_R_LightEffectsWorldFunctionTableConstDirectionalILi36EE3RunEPK11LightDesc_tPK10lightpos_tRK6VectorRS7_f
__ZN59__Function_R_LightEffectsWorldFunctionTableConstDirectionalILi37EE3RunEPK11LightDesc_tPK10lightpos_tRK6VectorRS7_f
__ZN59__Function_R_LightEffectsWorldFunctionTableConstDirectionalILi38EE3RunEPK11LightDesc_tPK10lightpos_tRK6VectorRS7_f
__ZN59__Function_R_LightEffectsWorldFunctionTableConstDirectionalILi39EE3RunEPK11LightDesc_tPK10lightpos_tRK6VectorRS7_f
__ZN59__Function_R_LightEffectsWorldFunctionTableConstDirectionalILi3EE3RunEPK11LightDesc_tPK10lightpos_tRK6VectorRS7_f
__ZN59__Function_R_LightEffectsWorldFunctionTableConstDirectionalILi40EE3RunEPK11LightDesc_tPK10lightpos_tRK6VectorRS7_f
__ZN59__Function_R_LightEffectsWorldFunctionTableConstDirectionalILi41EE3RunEPK11LightDesc_tPK10lightpos_tRK6VectorRS7_f
__ZN59__Function_R_LightEffectsWorldFunctionTableConstDirectionalILi42EE3RunEPK11LightDesc_tPK10lightpos_tRK6VectorRS7_f
__ZN59__Function_R_LightEffectsWorldFunctionTableConstDirectionalILi43EE3RunEPK11LightDesc_tPK10lightpos_tRK6VectorRS7_f
__ZN59__Function_R_LightEffectsWorldFunctionTableConstDirectionalILi44EE3RunEPK11LightDesc_tPK10lightpos_tRK6VectorRS7_f
__ZN59__Function_R_LightEffectsWorldFunctionTableConstDirectionalILi45EE3RunEPK11LightDesc_tPK10lightpos_tRK6VectorRS7_f
__ZN59__Function_R_LightEffectsWorldFunctionTableConstDirectionalILi46EE3RunEPK11LightDesc_tPK10lightpos_tRK6VectorRS7_f
__ZN59__Function_R_LightEffectsWorldFunctionTableConstDirectionalILi47EE3RunEPK11LightDesc_tPK10lightpos_tRK6VectorRS7_f
__ZN59__Function_R_LightEffectsWorldFunctionTableConstDirectionalILi48EE3RunEPK11LightDesc_tPK10lightpos_tRK6VectorRS7_f
__ZN59__Function_R_LightEffectsWorldFunctionTableConstDirectionalILi49EE3RunEPK11LightDesc_tPK10lightpos_tRK6VectorRS7_f
__ZN59__Function_R_LightEffectsWorldFunctionTableConstDirectionalILi4EE3RunEPK11LightDesc_tPK10lightpos_tRK6VectorRS7_f
__ZN59__Function_R_LightEffectsWorldFunctionTableConstDirectionalILi50EE3RunEPK11LightDesc_tPK10lightpos_tRK6VectorRS7_f
__ZN59__Function_R_LightEffectsWorldFunctionTableConstDirectionalILi51EE3RunEPK11LightDesc_tPK10lightpos_tRK6VectorRS7_f
__ZN59__Function_R_LightEffectsWorldFunctionTableConstDirectionalILi52EE3RunEPK11LightDesc_tPK10lightpos_tRK6VectorRS7_f
__ZN59__Function_R_LightEffectsWorldFunctionTableConstDirectionalILi53EE3RunEPK11LightDesc_tPK10lightpos_tRK6VectorRS7_f
__ZN59__Function_R_LightEffectsWorldFunctionTableConstDirectionalILi54EE3RunEPK11LightDesc_tPK10lightpos_tRK6VectorRS7_f
__ZN59__Function_R_LightEffectsWorldFunctionTableConstDirectionalILi55EE3RunEPK11LightDesc_tPK10lightpos_tRK6VectorRS7_f
__ZN59__Function_R_LightEffectsWorldFunctionTableConstDirectionalILi56EE3RunEPK11LightDesc_tPK10lightpos_tRK6VectorRS7_f
__ZN59__Function_R_LightEffectsWorldFunctionTableConstDirectionalILi57EE3RunEPK11LightDesc_tPK10lightpos_tRK6VectorRS7_f
__ZN59__Function_R_LightEffectsWorldFunctionTableConstDirectionalILi58EE3RunEPK11LightDesc_tPK10lightpos_tRK6VectorRS7_f
__ZN59__Function_R_LightEffectsWorldFunctionTableConstDirectionalILi59EE3RunEPK11LightDesc_tPK10lightpos_tRK6VectorRS7_f
__ZN59__Function_R_LightEffectsWorldFunctionTableConstDirectionalILi5EE3RunEPK11LightDesc_tPK10lightpos_tRK6VectorRS7_f
__ZN59__Function_R_LightEffectsWorldFunctionTableConstDirectionalILi60EE3RunEPK11LightDesc_tPK10lightpos_tRK6VectorRS7_f
__ZN59__Function_R_LightEffectsWorldFunctionTableConstDirectionalILi61EE3RunEPK11LightDesc_tPK10lightpos_tRK6VectorRS7_f
__ZN59__Function_R_LightEffectsWorldFunctionTableConstDirectionalILi62EE3RunEPK11LightDesc_tPK10lightpos_tRK6VectorRS7_f
__ZN59__Function_R_LightEffectsWorldFunctionTableConstDirectionalILi63EE3RunEPK11LightDesc_tPK10lightpos_tRK6VectorRS7_f
__ZN59__Function_R_LightEffectsWorldFunctionTableConstDirectionalILi64EE3RunEPK11LightDesc_tPK10lightpos_tRK6VectorRS7_f
__ZN59__Function_R_LightEffectsWorldFunctionTableConstDirectionalILi65EE3RunEPK11LightDesc_tPK10lightpos_tRK6VectorRS7_f
__ZN59__Function_R_LightEffectsWorldFunctionTableConstDirectionalILi66EE3RunEPK11LightDesc_tPK10lightpos_tRK6VectorRS7_f
__ZN59__Function_R_LightEffectsWorldFunctionTableConstDirectionalILi67EE3RunEPK11LightDesc_tPK10lightpos_tRK6VectorRS7_f
__ZN59__Function_R_LightEffectsWorldFunctionTableConstDirectionalILi68EE3RunEPK11LightDesc_tPK10lightpos_tRK6VectorRS7_f
__ZN59__Function_R_LightEffectsWorldFunctionTableConstDirectionalILi69EE3RunEPK11LightDesc_tPK10lightpos_tRK6VectorRS7_f
__ZN59__Function_R_LightEffectsWorldFunctionTableConstDirectionalILi6EE3RunEPK11LightDesc_tPK10lightpos_tRK6VectorRS7_f
__ZN59__Function_R_LightEffectsWorldFunctionTableConstDirectionalILi70EE3RunEPK11LightDesc_tPK10lightpos_tRK6VectorRS7_f
__ZN59__Function_R_LightEffectsWorldFunctionTableConstDirectionalILi71EE3RunEPK11LightDesc_tPK10lightpos_tRK6VectorRS7_f
__ZN59__Function_R_LightEffectsWorldFunctionTableConstDirectionalILi72EE3RunEPK11LightDesc_tPK10lightpos_tRK6VectorRS7_f
__ZN59__Function_R_LightEffectsWorldFunctionTableConstDirectionalILi73EE3RunEPK11LightDesc_tPK10lightpos_tRK6VectorRS7_f
__ZN59__Function_R_LightEffectsWorldFunctionTableConstDirectionalILi74EE3RunEPK11LightDesc_tPK10lightpos_tRK6VectorRS7_f
__ZN59__Function_R_LightEffectsWorldFunctionTableConstDirectionalILi75EE3RunEPK11LightDesc_tPK10lightpos_tRK6VectorRS7_f
__ZN59__Function_R_LightEffectsWorldFunctionTableConstDirectionalILi76EE3RunEPK11LightDesc_tPK10lightpos_tRK6VectorRS7_f
__ZN59__Function_R_LightEffectsWorldFunctionTableConstDirectionalILi77EE3RunEPK11LightDesc_tPK10lightpos_tRK6VectorRS7_f
__ZN59__Function_R_LightEffectsWorldFunctionTableConstDirectionalILi78EE3RunEPK11LightDesc_tPK10lightpos_tRK6VectorRS7_f
__ZN59__Function_R_LightEffectsWorldFunctionTableConstDirectionalILi79EE3RunEPK11LightDesc_tPK10lightpos_tRK6VectorRS7_f
__ZN59__Function_R_LightEffectsWorldFunctionTableConstDirectionalILi7EE3RunEPK11LightDesc_tPK10lightpos_tRK6VectorRS7_f
__ZN59__Function_R_LightEffectsWorldFunctionTableConstDirectionalILi80EE3RunEPK11LightDesc_tPK10lightpos_tRK6VectorRS7_f
__ZN59__Function_R_LightEffectsWorldFunctionTableConstDirectionalILi81EE3RunEPK11LightDesc_tPK10lightpos_tRK6VectorRS7_f
__ZN59__Function_R_LightEffectsWorldFunctionTableConstDirectionalILi82EE3RunEPK11LightDesc_tPK10lightpos_tRK6VectorRS7_f
__ZN59__Function_R_LightEffectsWorldFunctionTableConstDirectionalILi83EE3RunEPK11LightDesc_tPK10lightpos_tRK6VectorRS7_f
__ZN59__Function_R_LightEffectsWorldFunctionTableConstDirectionalILi84EE3RunEPK11LightDesc_tPK10lightpos_tRK6VectorRS7_f
__ZN59__Function_R_LightEffectsWorldFunctionTableConstDirectionalILi85EE3RunEPK11LightDesc_tPK10lightpos_tRK6VectorRS7_f
__ZN59__Function_R_LightEffectsWorldFunctionTableConstDirectionalILi86EE3RunEPK11LightDesc_tPK10lightpos_tRK6VectorRS7_f
__ZN59__Function_R_LightEffectsWorldFunctionTableConstDirectionalILi87EE3RunEPK11LightDesc_tPK10lightpos_tRK6VectorRS7_f
__ZN59__Function_R_LightEffectsWorldFunctionTableConstDirectionalILi88EE3RunEPK11LightDesc_tPK10lightpos_tRK6VectorRS7_f
__ZN59__Function_R_LightEffectsWorldFunctionTableConstDirectionalILi89EE3RunEPK11LightDesc_tPK10lightpos_tRK6VectorRS7_f
__ZN59__Function_R_LightEffectsWorldFunctionTableConstDirectionalILi8EE3RunEPK11LightDesc_tPK10lightpos_tRK6VectorRS7_f
__ZN59__Function_R_LightEffectsWorldFunctionTableConstDirectionalILi90EE3RunEPK11LightDesc_tPK10lightpos_tRK6VectorRS7_f
__ZN59__Function_R_LightEffectsWorldFunctionTableConstDirectionalILi91EE3RunEPK11LightDesc_tPK10lightpos_tRK6VectorRS7_f
__ZN59__Function_R_LightEffectsWorldFunctionTableConstDirectionalILi92EE3RunEPK11LightDesc_tPK10lightpos_tRK6VectorRS7_f
__ZN59__Function_R_LightEffectsWorldFunctionTableConstDirectionalILi93EE3RunEPK11LightDesc_tPK10lightpos_tRK6VectorRS7_f
__ZN59__Function_R_LightEffectsWorldFunctionTableConstDirectionalILi94EE3RunEPK11LightDesc_tPK10lightpos_tRK6VectorRS7_f
__ZN59__Function_R_LightEffectsWorldFunctionTableConstDirectionalILi95EE3RunEPK11LightDesc_tPK10lightpos_tRK6VectorRS7_f
__ZN59__Function_R_LightEffectsWorldFunctionTableConstDirectionalILi96EE3RunEPK11LightDesc_tPK10lightpos_tRK6VectorRS7_f
__ZN59__Function_R_LightEffectsWorldFunctionTableConstDirectionalILi97EE3RunEPK11LightDesc_tPK10lightpos_tRK6VectorRS7_f
__ZN59__Function_R_LightEffectsWorldFunctionTableConstDirectionalILi98EE3RunEPK11LightDesc_tPK10lightpos_tRK6VectorRS7_f
__ZN59__Function_R_LightEffectsWorldFunctionTableConstDirectionalILi99EE3RunEPK11LightDesc_tPK10lightpos_tRK6VectorRS7_f
__ZN59__Function_R_LightEffectsWorldFunctionTableConstDirectionalILi9EE3RunEPK11LightDesc_tPK10lightpos_tRK6VectorRS7_f
__ZN6ConVar10ClampValueERf
__ZN6ConVar16InternalSetValueEPKc
__ZN6ConVar17ChangeStringValueEPKcf
__ZN6ConVar19InternalSetIntValueEi
__ZN6ConVar21InternalSetFloatValueEfb
__ZN6ConVar4InitEv
__ZN6ConVar6CreateEPKcS1_iS1_bfbfbfbfPFvP7IConVarS1_fE
__ZN6ConVar8AddFlagsEi
__ZN6ConVar8SetValueEPKc
__ZN6ConVar8SetValueEf
__ZN6ConVar8SetValueEi
__ZN6ConVarC1EPKcS1_i
__ZN6ConVarC1EPKcS1_iS1_PFvP7IConVarS1_fE
__ZN6ConVarD0Ev
__ZN6ConVarD1Ev
__ZN9KeyValues22s_pfGetSymbolForStringE
__ZN9KeyValues25GetSymbolForStringClassicEPKcb
__ZN9KeyValues6SetIntEPKci
__ZN9KeyValues7FindKeyEPKcb
__ZN9KeyValuesC1EPKc
__ZN9KeyValuesdlEPv
__ZN9KeyValuesnwEm
__ZNK12CEmptyConVar7GetNameEv
__ZNK12CEmptyConVar9IsFlagSetEi
__ZNK14ConCommandBase16GetDLLIdentifierEv
__ZNK17CCachedRenderData21IsFlexComputationDoneEv
__ZNK19thinModelVertices_t14GetBoneWeightsEiP19mstudioboneweight_t
__ZNK20CStudioRenderContext10GetNumLODsERK14studiohwdata_t
__ZNK20CStudioRenderContext12GetPerfStatsEP18DrawModelResults_tRK15DrawModelInfo_tP10CUtlBuffer
__ZNK20CStudioRenderContext17GetLODSwitchValueERK14studiohwdata_ti
__ZNK6ConVar11GetHelpTextEv
__ZNK6ConVar12IsRegisteredEv
__ZNK6ConVar7GetNameEv
__ZNK6ConVar9IsCommandEv
__ZNK6ConVar9IsFlagSetEi
__ZNV16CThreadFastMutex4LockEjj
__ZSt9terminatev
__ZTI10IAppSystem
__ZTI11IRefCounted
__ZTI12CEmptyConVar
__ZTI12CRefCounted1I8CFunctor20CRefCountServiceBaseILb1E6CRefMTEE
__ZTI13IStudioRender
__ZTI14CBaseAppSystemI13IStudioRenderE
__ZTI14ConCommandBase
__ZTI15CMemberFunctor0IP13CStudioRenderMS0_FvvE12CRefCounted1I8CFunctor20CRefCountServiceBaseILb1E6CRefMTEE18CFuncMemPolicyNoneE
__ZTI15CMemberFunctor1IP13CStudioRenderMS0_FvP21StudioDecalHandle_t__ES3_12CRefCounted1I8CFunctor20CRefCountServiceBaseILb1E6CRefMTEE18CFuncMemPolicyNoneE
__ZTI15CMemberFunctor3IP13CStudioRenderMS0_FvRK15DrawModelInfo_tRK21StudioRenderContext_tRK11matrix3x4_tES2_S5_S8_12CRefCounted1I8CFunctor20CRefCountServiceBaseILb1E6CRefMTEE18CFuncMemPolicyNoneE
__ZTI15CMemberFunctor4IP13CStudioRenderMS0_FvRK15DrawModelInfo_tRK21StudioRenderContext_tRK11matrix3x4_tiES2_S5_S8_i12CRefCounted1I8CFunctor20CRefCountServiceBaseILb1E6CRefMTEE18CFuncMemPolicyNoneE
__ZTI15CMemberFunctor5IP13CStudioRenderMS0_FvP9IMaterialPvP17FlashlightState_tP7VMatrixP8ITextureES3_S4_S6_S8_SA_12CRefCounted1I8CFunctor20CRefCountServiceBaseILb1E6CRefMTEE18CFuncMemPolicyNoneE
__ZTI15CMemberFunctor5IP13CStudioRenderMS0_FvRK15DrawModelInfo_tRK21StudioRenderContext_tP11matrix3x4_tRK13FlexWeights_tiES2_S5_S9_SA_i12CRefCounted1I8CFunctor20CRefCountServiceBaseILb1E6CRefMTEE18CFuncMemPolicyNoneE
__ZTI15CTier0AppSystemI13IStudioRenderE
__ZTI15CTier1AppSystemI13IStudioRenderLi0EE
__ZTI15CTier2AppSystemI13IStudioRenderLi0EE
__ZTI15CTier3AppSystemI13IStudioRenderLi0EE
__ZTI16CDefaultAccessor
__ZTI16CMemberFunctor11IP13CStudioRenderMS0_FvP21StudioDecalHandle_t__RK21StudioRenderContext_tP11matrix3x4_tP11studiohdr_tRK5Ray_tRK6VectorP9IMaterialfibiES3_S4_S8_SA_SB_SE_SI_fibi12CRefCounted1I8CFunctor20CRefCountServiceBaseILb1E6CRefMTEE18CFuncMemPolicyNoneE
__ZTI18CUtlCharConversion
__ZTI19CUtlNoEscConversion
__ZTI19ITextureRegenerator
__ZTI20CRefCountServiceBaseILb1E6CRefMTE
__ZTI20CStudioRenderContext
__ZTI21CUtlCStringConversion
__ZTI23IConCommandBaseAccessor
__ZTI24CGlintTextureRegenerator
__ZTI6ConVar
__ZTI7IConVar
__ZTI8CFunctor
__ZTISt9bad_alloc
__ZTS10IAppSystem
__ZTS11IRefCounted
__ZTS12CEmptyConVar
__ZTS12CRefCounted1I8CFunctor20CRefCountServiceBaseILb1E6CRefMTEE
__ZTS13IStudioRender
__ZTS14CBaseAppSystemI13IStudioRenderE
__ZTS14ConCommandBase
__ZTS15CMemberFunctor0IP13CStudioRenderMS0_FvvE12CRefCounted1I8CFunctor20CRefCountServiceBaseILb1E6CRefMTEE18CFuncMemPolicyNoneE
__ZTS15CMemberFunctor1IP13CStudioRenderMS0_FvP21StudioDecalHandle_t__ES3_12CRefCounted1I8CFunctor20CRefCountServiceBaseILb1E6CRefMTEE18CFuncMemPolicyNoneE
__ZTS15CMemberFunctor3IP13CStudioRenderMS0_FvRK15DrawModelInfo_tRK21StudioRenderContext_tRK11matrix3x4_tES2_S5_S8_12CRefCounted1I8CFunctor20CRefCountServiceBaseILb1E6CRefMTEE18CFuncMemPolicyNoneE
__ZTS15CMemberFunctor4IP13CStudioRenderMS0_FvRK15DrawModelInfo_tRK21StudioRenderContext_tRK11matrix3x4_tiES2_S5_S8_i12CRefCounted1I8CFunctor20CRefCountServiceBaseILb1E6CRefMTEE18CFuncMemPolicyNoneE
__ZTS15CMemberFunctor5IP13CStudioRenderMS0_FvP9IMaterialPvP17FlashlightState_tP7VMatrixP8ITextureES3_S4_S6_S8_SA_12CRefCounted1I8CFunctor20CRefCountServiceBaseILb1E6CRefMTEE18CFuncMemPolicyNoneE
__ZTS15CMemberFunctor5IP13CStudioRenderMS0_FvRK15DrawModelInfo_tRK21StudioRenderContext_tP11matrix3x4_tRK13FlexWeights_tiES2_S5_S9_SA_i12CRefCounted1I8CFunctor20CRefCountServiceBaseILb1E6CRefMTEE18CFuncMemPolicyNoneE
__ZTS15CTier0AppSystemI13IStudioRenderE
__ZTS15CTier1AppSystemI13IStudioRenderLi0EE
__ZTS15CTier2AppSystemI13IStudioRenderLi0EE
__ZTS15CTier3AppSystemI13IStudioRenderLi0EE
__ZTS16CDefaultAccessor
__ZTS16CMemberFunctor11IP13CStudioRenderMS0_FvP21StudioDecalHandle_t__RK21StudioRenderContext_tP11matrix3x4_tP11studiohdr_tRK5Ray_tRK6VectorP9IMaterialfibiES3_S4_S8_SA_SB_SE_SI_fibi12CRefCounted1I8CFunctor20CRefCountServiceBaseILb1E6CRefMTEE18CFuncMemPolicyNoneE
__ZTS18CUtlCharConversion
__ZTS19CUtlNoEscConversion
__ZTS19ITextureRegenerator
__ZTS20CRefCountServiceBaseILb1E6CRefMTE
__ZTS20CStudioRenderContext
__ZTS21CUtlCStringConversion
__ZTS23IConCommandBaseAccessor
__ZTS24CGlintTextureRegenerator
__ZTS6ConVar
__ZTS7IConVar
__ZTS8CFunctor
__ZTV12CEmptyConVar
__ZTV15CMemberFunctor0IP13CStudioRenderMS0_FvvE12CRefCounted1I8CFunctor20CRefCountServiceBaseILb1E6CRefMTEE18CFuncMemPolicyNoneE
__ZTV15CMemberFunctor1IP13CStudioRenderMS0_FvP21StudioDecalHandle_t__ES3_12CRefCounted1I8CFunctor20CRefCountServiceBaseILb1E6CRefMTEE18CFuncMemPolicyNoneE
__ZTV15CMemberFunctor3IP13CStudioRenderMS0_FvRK15DrawModelInfo_tRK21StudioRenderContext_tRK11matrix3x4_tES2_S5_S8_12CRefCounted1I8CFunctor20CRefCountServiceBaseILb1E6CRefMTEE18CFuncMemPolicyNoneE
__ZTV15CMemberFunctor4IP13CStudioRenderMS0_FvRK15DrawModelInfo_tRK21StudioRenderContext_tRK11matrix3x4_tiES2_S5_S8_i12CRefCounted1I8CFunctor20CRefCountServiceBaseILb1E6CRefMTEE18CFuncMemPolicyNoneE
__ZTV15CMemberFunctor5IP13CStudioRenderMS0_FvP9IMaterialPvP17FlashlightState_tP7VMatrixP8ITextureES3_S4_S6_S8_SA_12CRefCounted1I8CFunctor20CRefCountServiceBaseILb1E6CRefMTEE18CFuncMemPolicyNoneE
__ZTV15CMemberFunctor5IP13CStudioRenderMS0_FvRK15DrawModelInfo_tRK21StudioRenderContext_tP11matrix3x4_tRK13FlexWeights_tiES2_S5_S9_SA_i12CRefCounted1I8CFunctor20CRefCountServiceBaseILb1E6CRefMTEE18CFuncMemPolicyNoneE
__ZTV16CDefaultAccessor
__ZTV16CMemberFunctor11IP13CStudioRenderMS0_FvP21StudioDecalHandle_t__RK21StudioRenderContext_tP11matrix3x4_tP11studiohdr_tRK5Ray_tRK6VectorP9IMaterialfibiES3_S4_S8_SA_SB_SE_SI_fibi12CRefCounted1I8CFunctor20CRefCountServiceBaseILb1E6CRefMTEE18CFuncMemPolicyNoneE
__ZTV18CUtlCharConversion
__ZTV19CUtlNoEscConversion
__ZTV20CStudioRenderContext
__ZTV21CUtlCStringConversion
__ZTV24CGlintTextureRegenerator
__ZTV6ConVar
__ZTVN10__cxxabiv117__class_type_infoE
__ZTVN10__cxxabiv120__si_class_type_infoE
__ZTVN10__cxxabiv121__vmi_class_type_infoE
__ZThn24_N12CEmptyConVar8SetValueEPKc
__ZThn24_N12CEmptyConVar8SetValueEf
__ZThn24_N12CEmptyConVar8SetValueEi
__ZThn24_N6ConVar8SetValueEPKc
__ZThn24_N6ConVar8SetValueEf
__ZThn24_N6ConVar8SetValueEi
__ZThn24_NK12CEmptyConVar7GetNameEv
__ZThn24_NK12CEmptyConVar9IsFlagSetEi
__ZThn24_NK6ConVar7GetNameEv
__ZThn24_NK6ConVar9IsFlagSetEi
__ZThn8_N15CMemberFunctor0IP13CStudioRenderMS0_FvvE12CRefCounted1I8CFunctor20CRefCountServiceBaseILb1E6CRefMTEE18CFuncMemPolicyNoneED0Ev
__ZThn8_N15CMemberFunctor0IP13CStudioRenderMS0_FvvE12CRefCounted1I8CFunctor20CRefCountServiceBaseILb1E6CRefMTEE18CFuncMemPolicyNoneED1Ev
__ZThn8_N15CMemberFunctor1IP13CStudioRenderMS0_FvP21StudioDecalHandle_t__ES3_12CRefCounted1I8CFunctor20CRefCountServiceBaseILb1E6CRefMTEE18CFuncMemPolicyNoneED0Ev
__ZThn8_N15CMemberFunctor1IP13CStudioRenderMS0_FvP21StudioDecalHandle_t__ES3_12CRefCounted1I8CFunctor20CRefCountServiceBaseILb1E6CRefMTEE18CFuncMemPolicyNoneED1Ev
__ZThn8_N15CMemberFunctor3IP13CStudioRenderMS0_FvRK15DrawModelInfo_tRK21StudioRenderContext_tRK11matrix3x4_tES2_S5_S8_12CRefCounted1I8CFunctor20CRefCountServiceBaseILb1E6CRefMTEE18CFuncMemPolicyNoneED0Ev
__ZThn8_N15CMemberFunctor3IP13CStudioRenderMS0_FvRK15DrawModelInfo_tRK21StudioRenderContext_tRK11matrix3x4_tES2_S5_S8_12CRefCounted1I8CFunctor20CRefCountServiceBaseILb1E6CRefMTEE18CFuncMemPolicyNoneED1Ev
__ZThn8_N15CMemberFunctor4IP13CStudioRenderMS0_FvRK15DrawModelInfo_tRK21StudioRenderContext_tRK11matrix3x4_tiES2_S5_S8_i12CRefCounted1I8CFunctor20CRefCountServiceBaseILb1E6CRefMTEE18CFuncMemPolicyNoneED0Ev
__ZThn8_N15CMemberFunctor4IP13CStudioRenderMS0_FvRK15DrawModelInfo_tRK21StudioRenderContext_tRK11matrix3x4_tiES2_S5_S8_i12CRefCounted1I8CFunctor20CRefCountServiceBaseILb1E6CRefMTEE18CFuncMemPolicyNoneED1Ev
__ZThn8_N15CMemberFunctor5IP13CStudioRenderMS0_FvP9IMaterialPvP17FlashlightState_tP7VMatrixP8ITextureES3_S4_S6_S8_SA_12CRefCounted1I8CFunctor20CRefCountServiceBaseILb1E6CRefMTEE18CFuncMemPolicyNoneED0Ev
__ZThn8_N15CMemberFunctor5IP13CStudioRenderMS0_FvP9IMaterialPvP17FlashlightState_tP7VMatrixP8ITextureES3_S4_S6_S8_SA_12CRefCounted1I8CFunctor20CRefCountServiceBaseILb1E6CRefMTEE18CFuncMemPolicyNoneED1Ev
__ZThn8_N15CMemberFunctor5IP13CStudioRenderMS0_FvRK15DrawModelInfo_tRK21StudioRenderContext_tP11matrix3x4_tRK13FlexWeights_tiES2_S5_S9_SA_i12CRefCounted1I8CFunctor20CRefCountServiceBaseILb1E6CRefMTEE18CFuncMemPolicyNoneED0Ev
__ZThn8_N15CMemberFunctor5IP13CStudioRenderMS0_FvRK15DrawModelInfo_tRK21StudioRenderContext_tP11matrix3x4_tRK13FlexWeights_tiES2_S5_S9_SA_i12CRefCounted1I8CFunctor20CRefCountServiceBaseILb1E6CRefMTEE18CFuncMemPolicyNoneED1Ev
__ZThn8_N16CMemberFunctor11IP13CStudioRenderMS0_FvP21StudioDecalHandle_t__RK21StudioRenderContext_tP11matrix3x4_tP11studiohdr_tRK5Ray_tRK6VectorP9IMaterialfibiES3_S4_S8_SA_SB_SE_SI_fibi12CRefCounted1I8CFunctor20CRefCountServiceBaseILb1E6CRefMTEE18CFuncMemPolicyNoneED0Ev
__ZThn8_N16CMemberFunctor11IP13CStudioRenderMS0_FvP21StudioDecalHandle_t__RK21StudioRenderContext_tP11matrix3x4_tP11studiohdr_tRK5Ray_tRK6VectorP9IMaterialfibiES3_S4_S8_SA_SB_SE_SI_fibi12CRefCounted1I8CFunctor20CRefCountServiceBaseILb1E6CRefMTEE18CFuncMemPolicyNoneED1Ev
__ZZ16GetFatVertexDataP13mstudiomesh_tP11studiohdr_tE9warnCount
__ZZL15UsesMouthShaderP9IMaterialE17clientShaderCache
__ZZN12CPixelWriter14SetPixelMemoryE11ImageFormatPviE20format_error_printed
__ZZN13CStudioRender17R_StudioFlexVertsEP13mstudiomesh_tiE25flexConversionTimesWarned
__ZZN13CStudioRender17R_StudioFlexVertsEP13mstudiomesh_tiE9warnCount
__ZZN13CStudioRender23SetupTreeSwayDepthWriteEP9IMaterialS1_E10paramNames
__ZZN13CStudioRender23SetupTreeSwayDepthWriteEP9IMaterialS1_E16originalVarCache
__ZZN13CStudioRender23SetupTreeSwayDepthWriteEP9IMaterialS1_E8varCache
__ZZN13CStudioRender28R_StudioSetupSkinAndLightingEP17IMatRenderContextiPP9IMaterialiPvP15ColorMeshInfo_tR21StudioModelLighting_tE13alphaRefCache
__ZZN13CStudioRender28R_StudioSetupSkinAndLightingEP17IMatRenderContextiPP9IMaterialiPvP15ColorMeshInfo_tR21StudioModelLighting_tE15textureVarCache
__ZZN13CStudioRender28R_StudioSetupSkinAndLightingEP17IMatRenderContextiPP9IMaterialiPvP15ColorMeshInfo_tR21StudioModelLighting_tE16lightmapVarCache
__ZZN13CStudioRender28R_StudioSetupSkinAndLightingEP17IMatRenderContextiPP9IMaterialiPvP15ColorMeshInfo_tR21StudioModelLighting_tE16translucentCache
__ZZN13CStudioRender28R_StudioSetupSkinAndLightingEP17IMatRenderContextiPP9IMaterialiPvP15ColorMeshInfo_tR21StudioModelLighting_tE20textureFrameVarCache
__ZZN13CStudioRender28R_StudioSetupSkinAndLightingEP17IMatRenderContextiPP9IMaterialiPvP15ColorMeshInfo_tR21StudioModelLighting_tE21originalAlphaRefCache
__ZZN13CStudioRender28R_StudioSetupSkinAndLightingEP17IMatRenderContextiPP9IMaterialiPvP15ColorMeshInfo_tR21StudioModelLighting_tE23originalTextureVarCache
__ZZN13CStudioRender28R_StudioSetupSkinAndLightingEP17IMatRenderContextiPP9IMaterialiPvP15ColorMeshInfo_tR21StudioModelLighting_tE25nOriginalTreeSwayVarCache
__ZZN13CStudioRender28R_StudioSetupSkinAndLightingEP17IMatRenderContextiPP9IMaterialiPvP15ColorMeshInfo_tR21StudioModelLighting_tE28originalTextureFrameVarCache
__ZZN20CStudioRenderContext20ComputeMaterialFlagsEP11studiohdr_tR15studioloddata_tP9IMaterialE12bumpvarCache
__ZZN20CStudioRenderContext20ComputeMaterialFlagsEP11studiohdr_tR15studioloddata_tP9IMaterialE13phongVarCache
__ZdaPv
__ZdlPv
__Znam
__Znwm
___bzero
___clang_call_terminate
___cxa_atexit
___cxa_begin_catch
___cxa_call_unexpected
___gxx_personality_v0
___stack_chk_fail
___stack_chk_guard
_asin
_atof
_atoi
_colorcorrection
_cosf
_cvar
_exp
_floorf
_g_KeyValuesErrorStack
_g_SIMD_ComponentMask
_g_StudioRender
_g_VBAllocTracker
_g_VProfCurrentProfile
_g_pCVar
_g_pDataCache
_g_pDmeMakefileUtils
_g_pFullFileSystem
_g_pInputSystem
_g_pMDLCache
_g_pMatSystemSurface
_g_pMaterialSystem
_g_pMaterialSystemDebugTextureInfo
_g_pMaterialSystemHardwareConfig
_g_pMemAlloc
_g_pNetworkSystem
_g_pPhysicsCollision
_g_pProcessUtils
_g_pQueuedLoader
_g_pSoundEmitterSystem
_g_pStudioDataCache
_g_pStudioRender
_g_pStudioRenderImp
_g_pVGui
_g_pVGuiInput
_g_pVGuiLocalize
_g_pVGuiPanel
_g_pVGuiSchemeManager
_g_pVGuiSurface
_g_pVGuiSystem
_g_pVTex
_g_pVideo
_lineartolightmap
_lineartovertex
_materials
_mdlcache
_mdllib
_memcpy
_memmove
_memset
_p4
_pfFastCos
_pfFastSinCos
_pfInvRSquared
_pfRSqrt
_pfRSqrtFast
_pfSqrt
_pfVectorNormalize
_pfVectorNormalizeFast
_pow
_qsort
_s_NoEscConversion
_s_StringCharConversion
_s_bMathlibInitialized
_sin
_strcasecmp
_strchr
_strcmp
_strlen
_strncat
_strncpy
_studiorender
_vsnprintf
dyld_stub_binder
