GCC_except_table0
GCC_except_table0
GCC_except_table1
GCC_except_table104
GCC_except_table106
GCC_except_table107
GCC_except_table111
GCC_except_table112
GCC_except_table112
GCC_except_table12
GCC_except_table12
GCC_except_table15
GCC_except_table16
GCC_except_table16
GCC_except_table18
GCC_except_table2
GCC_except_table2
GCC_except_table2
GCC_except_table20
GCC_except_table21
GCC_except_table23
GCC_except_table24
GCC_except_table26
GCC_except_table27
GCC_except_table28
GCC_except_table29
GCC_except_table31
GCC_except_table31
GCC_except_table32
GCC_except_table33
GCC_except_table33
GCC_except_table36
GCC_except_table37
GCC_except_table37
GCC_except_table38
GCC_except_table39
GCC_except_table4
GCC_except_table4
GCC_except_table4
GCC_except_table4
GCC_except_table43
GCC_except_table43
GCC_except_table43
GCC_except_table44
GCC_except_table47
GCC_except_table49
GCC_except_table5
GCC_except_table5
GCC_except_table5
GCC_except_table5
GCC_except_table5
GCC_except_table5
GCC_except_table50
GCC_except_table51
GCC_except_table51
GCC_except_table52
GCC_except_table52
GCC_except_table53
GCC_except_table53
GCC_except_table54
GCC_except_table54
GCC_except_table55
GCC_except_table57
GCC_except_table58
GCC_except_table59
GCC_except_table6
GCC_except_table6
GCC_except_table6
GCC_except_table60
GCC_except_table61
GCC_except_table61
GCC_except_table62
GCC_except_table62
GCC_except_table63
GCC_except_table63
GCC_except_table65
GCC_except_table7
GCC_except_table76
GCC_except_table79
GCC_except_table8
GCC_except_table8
GCC_except_table8
GCC_except_table81
GCC_except_table83
GCC_except_table83
GCC_except_table87
GCC_except_table88
_.memset_pattern
_CFDataCreate
_CFDataGetBytePtr
_CFDataGetLength
_CFRelease
_COM_TimestampedLog
_CommandLine_Tier0
_CreateInterface
_DevMsg
_Error
_KeyValuesSystem
_Msg
_PasteboardClear
_PasteboardCopyItemFlavorData
_PasteboardCreate
_PasteboardGetItemCount
_PasteboardGetItemIdentifier
_PasteboardPutItemFlavor
_PasteboardSynchronize
_PinDeltas
_Plat_FloatTime
_Plat_GetCommandLine
_Plat_MSTime
_ThreadGetCurrentId
_ThreadInterlockedAssignIf
_ThreadInterlockedExchange
_Warning
__DefaultRuneLocale
__GLOBAL__sub_I_InputWin32.stdout.rel_tf_osx_builder.58932.7mT9X3.ii
__GLOBAL__sub_I_KeyValues.stdout.rel_tf_osx_builder.55432.qZWQhg.ii
__GLOBAL__sub_I_LocalizedS.stdout.rel_tf_osx_builder.58933.QCtyel.ii
__GLOBAL__sub_I_Scheme.stdout.rel_tf_osx_builder.58982.PrVFbq.ii
__GLOBAL__sub_I_VPanelWrap.stdout.rel_tf_osx_builder.59018.0nCMDF.ii
__GLOBAL__sub_I_convar.stdout.rel_tf_osx_builder.55430.mXKsKU.ii
__GLOBAL__sub_I_system_pos.stdout.rel_tf_osx_builder.58985.SdUipM.ii
__GLOBAL__sub_I_utlbuffer.stdout.rel_tf_osx_builder.8986.vt30zT.ii
__GLOBAL__sub_I_utlsymbol.stdout.rel_tf_osx_builder.55484.zcRfnN.ii
__GLOBAL__sub_I_vgui.stdout.rel_tf_osx_builder.58984.pxBHiM.ii
__Unwind_Resume
__Z10V_snprintfPciPKcz
__Z10V_strlowerPc
__Z11V_vsnprintfPciPKcS_
__Z12V_FixSlashesPcc
__Z13Q_UTF32ToUTF8PKwPci25EStringConvertErrorPolicy
__Z13Q_UTF8ToUTF32PKcPwi25EStringConvertErrorPolicy
__Z13V_AppendSlashPci
__Z13_V_UCS2ToUTF8PKtPci
__Z15ConVar_RegisteriP23IConCommandBaseAccessor
__Z15Q_UTF8ToUChar32PKcRwRb
__Z15ReadToEndOfLinePt
__Z16ReadUnicodeTokenPtS_iRb
__Z16V_IsAbsolutePathPKc
__Z17ConVar_Unregisterv
__Z17PriorityQueueCompRK13MessageItem_tS1_
__Z18Sys_GetFactoryThisv
__Z19EvaluateConditionalPKc
__Z21ConnectTier1LibrariesPPFPvPKcPiEi
__Z21ConnectTier2LibrariesPPFPvPKcPiEi
__Z21ConnectTier3LibrariesPPFPvPKcPiEi
__Z21DefaultCompletionFuncPKcPA64_c
__Z22CaselessStringLessThanRKPKcS2_
__Z22GetNoEscCharConversionv
__Z23CreateInterfaceInternalPKcPi
__Z24DisconnectTier1Librariesv
__Z24DisconnectTier2Librariesv
__Z24DisconnectTier3Librariesv
__Z24GetCStringCharConversionv
__Z24KeyCode_VGUIToVirtualKey12ButtonCode_t
__Z24KeyCode_VirtualKeyToVGUIi
__Z25IsDispatchingMessageQueuev
__Z37ConstructStringKeyValuesInternal_ImplIwEvPT_iPKS0_P9KeyValues
__Z6DevMsgPKcz
__Z6V_atofPKc
__Z9V_stricmpPKcS0_
__Z9V_stristrPKcS0_
__Z9V_stristrPcPKc
__Z9V_strncatPcPKcmi
__Z9V_strncmpPKcS0_i
__Z9V_strncpyPcPKci
__ZGVZN21CLocalizedStringTable7AddFileEPKcS1_bE11cl_language
__ZL11s_nCVarFlag
__ZL11s_pTokenBuf
__ZL11vec2_origin
__ZL11vec2_origin
__ZL11vec2_origin
__ZL11vec2_origin
__ZL11vec2_origin
__ZL11vec2_origin
__ZL11vec2_origin
__ZL11vec2_origin
__ZL11vec2_origin
__ZL11vec2_origin
__ZL12s_bConnected
__ZL12vec2_invalid
__ZL12vec2_invalid
__ZL12vec2_invalid
__ZL12vec2_invalid
__ZL12vec2_invalid
__ZL12vec2_invalid
__ZL12vec2_invalid
__ZL12vec2_invalid
__ZL12vec2_invalid
__ZL12vec2_invalid
__ZL13s_EmptyConVar
__ZL13s_bRegistered
__ZL15vgui_spew_fontsRK8CCommand
__ZL16s_nDLLIdentifier
__ZL17s_DefaultAccessor
__ZL20g_CleanupSymbolTable
__ZL21s_LastFileLoadingFrom
__ZL23vgui_spew_fonts_command
__ZL24__g_CreateCVGuiIVGui_reg
__ZL27__g_VPanelWrapper_singleton
__ZL28__CreateCVGuiIVGui_interfacev
__ZL28__g_CreateCSystemISystem_reg
__ZL32__CreateCSystemISystem_interfacev
__ZL32__g_CreateCInputSystemIInput_reg
__ZL33__g_CreateVPanelWrapperIPanel_reg
__ZL35s_pConversionArrays_NoEscConversion
__ZL36__CreateCInputSystemIInput_interfacev
__ZL37__CreateVPanelWrapperIPanel_interfacev
__ZL40__g_CreateCInputSystemIInputInternal_reg
__ZL40s_pConversionArrays_StringCharConversion
__ZL42__g_CreateCSchemeManagerISchemeManager_reg
__ZL44__CreateCInputSystemIInputInternal_interfacev
__ZL44__g_CreateCLocalizedStringTableILocalize_reg
__ZL46__CreateCSchemeManagerISchemeManager_interfacev
__ZL48__CreateCLocalizedStringTableILocalize_interfacev
__ZL9g_KVMutex
__ZN10CUtlBuffer11GetOverflowEi
__ZN10CUtlBuffer11PutOverflowEi
__ZN10CUtlBuffer12AssumeMemoryEPviii
__ZN10CUtlBuffer13EatCPPCommentEv
__ZN10CUtlBuffer13EatWhiteSpaceEv
__ZN10CUtlBuffer14PeekWhiteSpaceEi
__ZN10CUtlBuffer15PeekStringMatchEiPKci
__ZN10CUtlBuffer16PeekStringLengthEv
__ZN10CUtlBuffer17GetStringInternalEPcm
__ZN10CUtlBuffer18AddNullTerminationEv
__ZN10CUtlBuffer18GetDelimitedStringEP18CUtlCharConversionPci
__ZN10CUtlBuffer21CheckArbitraryPeekGetEiRi
__ZN10CUtlBuffer24GetDelimitedCharInternalEP18CUtlCharConversion
__ZN10CUtlBuffer3PutEPKvi
__ZN10CUtlBuffer5ScanfEPKcz
__ZN10CUtlBuffer7PeekGetEii
__ZN10CUtlBuffer7SeekGetENS_10SeekType_tEi
__ZN10CUtlBuffer7VaScanfEPKcPc
__ZN10CUtlBufferC1EPKvii
__ZN10CUtlBufferC2EPKvii
__ZN10CUtlMemoryI15UtlRBTreeNode_tIN15CUtlSymbolTable16CStringPoolIndexEtEtE4GrowEi
__ZN10CUtlMemoryI19UtlLinkedListElem_tI13MessageItem_ttEtE4GrowEi
__ZN10CUtlMemoryI19UtlLinkedListElem_tIN5CVGui9Context_tEtEtE4GrowEi
__ZN10CUtlRBTreeIN14CSchemeManager20CachedBitmapHandle_tEiPFbRKS1_S3_E10CUtlMemoryI15UtlRBTreeNode_tIS1_iEiEE15InsertRebalanceEi
__ZN10CUtlRBTreeIN14CSchemeManager20CachedBitmapHandle_tEiPFbRKS1_S3_E10CUtlMemoryI15UtlRBTreeNode_tIS1_iEiEE15RemoveRebalanceEi
__ZN10CUtlRBTreeIN14CSchemeManager20CachedBitmapHandle_tEiPFbRKS1_S3_E10CUtlMemoryI15UtlRBTreeNode_tIS1_iEiEE6InsertES3_
__ZN10CUtlRBTreeIN14CSchemeManager20CachedBitmapHandle_tEiPFbRKS1_S3_E10CUtlMemoryI15UtlRBTreeNode_tIS1_iEiEE6UnlinkEi
__ZN10CUtlRBTreeIN14CSchemeManager20CachedBitmapHandle_tEiPFbRKS1_S3_E10CUtlMemoryI15UtlRBTreeNode_tIS1_iEiEE7NewNodeEv
__ZN10CUtlRBTreeIN14CSchemeManager20CachedBitmapHandle_tEiPFbRKS1_S3_E10CUtlMemoryI15UtlRBTreeNode_tIS1_iEiEED2Ev
__ZN10CUtlRBTreeIN15CUtlSymbolTable16CStringPoolIndexEtNS0_5CLessE10CUtlMemoryI15UtlRBTreeNode_tIS1_tEtEE10RotateLeftEt
__ZN10CUtlRBTreeIN15CUtlSymbolTable16CStringPoolIndexEtNS0_5CLessE10CUtlMemoryI15UtlRBTreeNode_tIS1_tEtEE11RotateRightEt
__ZN10CUtlRBTreeIN15CUtlSymbolTable16CStringPoolIndexEtNS0_5CLessE10CUtlMemoryI15UtlRBTreeNode_tIS1_tEtEE15InsertRebalanceEt
__ZN10CUtlRBTreeIN15CUtlSymbolTable16CStringPoolIndexEtNS0_5CLessE10CUtlMemoryI15UtlRBTreeNode_tIS1_tEtEE5PurgeEv
__ZN10CUtlRBTreeIN15CUtlSymbolTable16CStringPoolIndexEtNS0_5CLessE10CUtlMemoryI15UtlRBTreeNode_tIS1_tEtEE6InsertERKS1_
__ZN10CUtlRBTreeIN15CUtlSymbolTable16CStringPoolIndexEtNS0_5CLessE10CUtlMemoryI15UtlRBTreeNode_tIS1_tEtEE7NewNodeEv
__ZN10CUtlRBTreeIN15CUtlSymbolTable16CStringPoolIndexEtNS0_5CLessE10CUtlMemoryI15UtlRBTreeNode_tIS1_tEtEED2Ev
__ZN10CUtlRBTreeIN21CLocalizedStringTable11fastvalue_tEiPFbRKS1_S3_E10CUtlMemoryI15UtlRBTreeNode_tIS1_iEiEE15InsertRebalanceEi
__ZN10CUtlRBTreeIN21CLocalizedStringTable11fastvalue_tEiPFbRKS1_S3_E10CUtlMemoryI15UtlRBTreeNode_tIS1_iEiEE6InsertES3_
__ZN10CUtlRBTreeIN21CLocalizedStringTable11fastvalue_tEiPFbRKS1_S3_E10CUtlMemoryI15UtlRBTreeNode_tIS1_iEiEE7NewNodeEv
__ZN10CUtlRBTreeIN21CLocalizedStringTable11fastvalue_tEiPFbRKS1_S3_E10CUtlMemoryI15UtlRBTreeNode_tIS1_iEiEED2Ev
__ZN10CUtlRBTreeIN21CLocalizedStringTable17localizedstring_tEmPFbRKS1_S3_E10CUtlMemoryI15UtlRBTreeNode_tIS1_mEmEE15InsertRebalanceEm
__ZN10CUtlRBTreeIN21CLocalizedStringTable17localizedstring_tEmPFbRKS1_S3_E10CUtlMemoryI15UtlRBTreeNode_tIS1_mEmEE5PurgeEv
__ZN10CUtlRBTreeIN21CLocalizedStringTable17localizedstring_tEmPFbRKS1_S3_E10CUtlMemoryI15UtlRBTreeNode_tIS1_mEmEE6InsertES3_
__ZN10CUtlRBTreeIN21CLocalizedStringTable17localizedstring_tEmPFbRKS1_S3_E10CUtlMemoryI15UtlRBTreeNode_tIS1_mEmEE7NewNodeEv
__ZN10CUtlRBTreeIN21CLocalizedStringTable17localizedstring_tEmPFbRKS1_S3_E10CUtlMemoryI15UtlRBTreeNode_tIS1_mEmEED2Ev
__ZN10CUtlRBTreeIN7CUtlMapIPKcN7CScheme11fontalias_tEiPFbRKS2_S6_EE6Node_tEiNS9_8CKeyLessE10CUtlMemoryI15UtlRBTreeNode_tISA_iEiEE15InsertRebalanceEi
__ZN10CUtlRBTreeIN7CUtlMapIPKcN7CScheme11fontalias_tEiPFbRKS2_S6_EE6Node_tEiNS9_8CKeyLessE10CUtlMemoryI15UtlRBTreeNode_tISA_iEiEE6InsertERKSA_
__ZN10CUtlRBTreeIN7CUtlMapIPKcN7CScheme11fontalias_tEiPFbRKS2_S6_EE6Node_tEiNS9_8CKeyLessE10CUtlMemoryI15UtlRBTreeNode_tISA_iEiEE7NewNodeEv
__ZN10CUtlRBTreeIN7CUtlMapIPKcN7CScheme11fontalias_tEiPFbRKS2_S6_EE6Node_tEiNS9_8CKeyLessE10CUtlMemoryI15UtlRBTreeNode_tISA_iEiEED2Ev
__ZN10CUtlRBTreeIN7CUtlMapIPKcN7CScheme11fontrange_tEiPFbRKS2_S6_EE6Node_tEiNS9_8CKeyLessE10CUtlMemoryI15UtlRBTreeNode_tISA_iEiEE15InsertRebalanceEi
__ZN10CUtlRBTreeIN7CUtlMapIPKcN7CScheme11fontrange_tEiPFbRKS2_S6_EE6Node_tEiNS9_8CKeyLessE10CUtlMemoryI15UtlRBTreeNode_tISA_iEiEE6InsertERKSA_
__ZN10CUtlRBTreeIN7CUtlMapIPKcN7CScheme11fontrange_tEiPFbRKS2_S6_EE6Node_tEiNS9_8CKeyLessE10CUtlMemoryI15UtlRBTreeNode_tISA_iEiEE7NewNodeEv
__ZN10CUtlRBTreeIN7CUtlMapIPKcN7CScheme11fontrange_tEiPFbRKS2_S6_EE6Node_tEiNS9_8CKeyLessE10CUtlMemoryI15UtlRBTreeNode_tISA_iEiEED2Ev
__ZN10CUtlString3SetEPKc
__ZN10CUtlString5PurgeEv
__ZN10CUtlSymbol10InitializeEv
__ZN10CUtlSymbol14s_pSymbolTableE
__ZN10CUtlSymbolC1EPKc
__ZN10CUtlVectorI10CUtlString10CUtlMemoryIS0_iEE12InsertBeforeEiRKS0_
__ZN10CUtlVectorI10CUtlSymbol10CUtlMemoryIS0_iEE12InsertBeforeEiRKS0_
__ZN10CUtlVectorI10CUtlSymbol10CUtlMemoryIS0_iEED2Ev
__ZN10CUtlVectorI13MessageItem_t10CUtlMemoryIS0_iEED2Ev
__ZN10CUtlVectorIN15CUtlHandleTableIN4vgui6VPanelELi20EE11EntryType_tE10CUtlMemoryIS4_iEED2Ev
__ZN10CUtlVectorIN21CLocalizedStringTable22LocalizationFileInfo_tE10CUtlMemoryIS1_iEED2Ev
__ZN10CUtlVectorIN7CScheme14SchemeBorder_tE10CUtlMemoryIS1_iEE9AddToTailEv
__ZN10CUtlVectorIN7CScheme14SchemeBorder_tE10CUtlMemoryIS1_iEED2Ev
__ZN10CUtlVectorIP7CScheme10CUtlMemoryIS1_iEE9AddToTailERKS1_
__ZN10CUtlVectorIP7CScheme10CUtlMemoryIS1_iEED2Ev
__ZN10CUtlVectorIP9KeyValues10CUtlMemoryIS1_iEE10GrowVectorEi
__ZN10CUtlVectorIP9KeyValues10CUtlMemoryIS1_iEED2Ev
__ZN10CUtlVectorIPN15CUtlSymbolTable12StringPool_tE10CUtlMemoryIS2_iEED2Ev
__ZN10CUtlVectorIPN4vgui6VPanelE10CUtlMemoryIS2_iEE10GrowVectorEi
__ZN10CUtlVectorIPN4vgui6VPanelE10CUtlMemoryIS2_iEED2Ev
__ZN10CUtlVectorIPN5CVGui6Tick_tE10CUtlMemoryIS2_iEE12InsertBeforeEiRKS2_
__ZN10CUtlVectorIPN5CVGui6Tick_tE10CUtlMemoryIS2_iEED2Ev
__ZN10CUtlVectorIc10CUtlMemoryIciEE20InsertMultipleBeforeEii
__ZN10CUtlVectorIc10CUtlMemoryIciEED2Ev
__ZN10CUtlVectorIw10CUtlMemoryIwiEE20InsertMultipleBeforeEii
__ZN10CUtlVectorIw10CUtlMemoryIwiEED2Ev
__ZN10CVProfNode10EnterScopeEv
__ZN10CVProfNode10GetSubNodeEPKciS1_i
__ZN10CVProfNode9ExitScopeEv
__ZN10ConCommand15CanAutoCompleteEv
__ZN10ConCommand19AutoCompleteSuggestEPKcR10CUtlVectorI10CUtlString10CUtlMemoryIS3_iEE
__ZN10ConCommand8DispatchERK8CCommand
__ZN10ConCommandC1EPKcPFvRK8CCommandES1_iPFiS1_PA64_cE
__ZN10ConCommandD0Ev
__ZN10ConCommandD1Ev
__ZN11ImageBorder10PaintFirstEv
__ZN11ImageBorder17GetBackgroundTypeEv
__ZN11ImageBorder19ApplySchemeSettingsEPN4vgui7ISchemeEP9KeyValues
__ZN11ImageBorder5PaintEiiii
__ZN11ImageBorder5PaintEiiiiiii
__ZN11ImageBorder5PaintEj
__ZN11ImageBorder7GetNameEv
__ZN11ImageBorder7SetNameEPKc
__ZN11ImageBorder8GetInsetERiS0_S0_S0_
__ZN11ImageBorder8SetImageEPKc
__ZN11ImageBorder8SetInsetEiiii
__ZN11ImageBorderC1Ev
__ZN11ImageBorderD0Ev
__ZN11ImageBorderD1Ev
__ZN12CEmptyConVar8SetValueEPKc
__ZN12CEmptyConVar8SetValueEf
__ZN12CEmptyConVar8SetValueEi
__ZN12CEmptyConVarD0Ev
__ZN12CEmptyConVarD1Ev
__ZN12CInputSystem11IsMouseDownE12ButtonCode_t
__ZN12CInputSystem11OnChangeIMEEb
__ZN12CInputSystem11WasKeyTypedE12ButtonCode_t
__ZN12CInputSystem12GetCandidateEiPwi
__ZN12CInputSystem12GetCursorPosERiS0_
__ZN12CInputSystem12GetIMEWindowEv
__ZN12CInputSystem12GetMouseOverEv
__ZN12CInputSystem12PanelDeletedEj
__ZN12CInputSystem12PanelDeletedEjRNS_14InputContext_tE
__ZN12CInputSystem12SetCursorPosEii
__ZN12CInputSystem12SetIMEWindowEPv
__ZN12CInputSystem13GetMouseFocusEv
__ZN12CInputSystem13SetMouseFocusEj
__ZN12CInputSystem13WasKeyPressedE12ButtonCode_t
__ZN12CInputSystem14GetKeyCodeTextE12ButtonCode_tPci
__ZN12CInputSystem14WasKeyReleasedE12ButtonCode_t
__ZN12CInputSystem15GetModalSubTreeEv
__ZN12CInputSystem15GetMouseCaptureEv
__ZN12CInputSystem15SetKeyCodeStateE12ButtonCode_tb
__ZN12CInputSystem15SetModalSubTreeEjjb
__ZN12CInputSystem15SetMouseCaptureEj
__ZN12CInputSystem15WasMousePressedE12ButtonCode_t
__ZN12CInputSystem16GetCursorOverideEv
__ZN12CInputSystem16InternalKeyTypedEw
__ZN12CInputSystem16OnIMECompositionEi
__ZN12CInputSystem16SetCursorOverideEm
__ZN12CInputSystem16UpdateMouseFocusEii
__ZN12CInputSystem16WasMouseReleasedE12ButtonCode_t
__ZN12CInputSystem17GetCursorPositionERiS0_
__ZN12CInputSystem17PostCursorMessageEv
__ZN12CInputSystem17ResetInputContextEi
__ZN12CInputSystem17SetMouseCaptureExEj12ButtonCode_t
__ZN12CInputSystem17SetMouseCodeStateE12ButtonCode_tN4vgui16MouseCodeState_tE
__ZN12CInputSystem17UpdateButtonStateERK12InputEvent_t
__ZN12CInputSystem18CreateInputContextEv
__ZN12CInputSystem18GetAppModalSurfaceEv
__ZN12CInputSystem18GetCalculatedFocusEv
__ZN12CInputSystem18GetIMELanguageListEPN4vgui6IInput12LanguageItemEi
__ZN12CInputSystem18GetIMELanguageNameEPwi
__ZN12CInputSystem18OnKeyCodeUnhandledEi
__ZN12CInputSystem18SetAppModalSurfaceEj
__ZN12CInputSystem19DestroyInputContextEi
__ZN12CInputSystem19GetCurrentIMEHandleEv
__ZN12CInputSystem19GetEnglishIMEHandleEv
__ZN12CInputSystem19GetIMESentenceModesEPN4vgui6IInput16SentenceModeItemEi
__ZN12CInputSystem19InternalCursorMovedEii
__ZN12CInputSystem19IsChildOfModalPanelEjb
__ZN12CInputSystem19OnChangeIMEByHandleEi
__ZN12CInputSystem19OnIMEEndCompositionEv
__ZN12CInputSystem19OnIMERecomputeModesEv
__ZN12CInputSystem19OnIMEShowCandidatesEv
__ZN12CInputSystem19ReleaseModalSubTreeEv
__ZN12CInputSystem20ActivateInputContextEi
__ZN12CInputSystem20CalculateNewKeyFocusEv
__ZN12CInputSystem20InternalKeyCodeTypedE12ButtonCode_t
__ZN12CInputSystem20InternalMousePressedE12ButtonCode_t
__ZN12CInputSystem20InternalMouseWheeledEi
__ZN12CInputSystem20OnIMECloseCandidatesEv
__ZN12CInputSystem21GetCandidateListCountEv
__ZN12CInputSystem21GetIMEConversionModesEPN4vgui6IInput18ConversionModeItemEi
__ZN12CInputSystem21InternalMouseReleasedE12ButtonCode_t
__ZN12CInputSystem21OnIMEChangeCandidatesEv
__ZN12CInputSystem21OnIMEStartCompositionEv
__ZN12CInputSystem21SetCandidateWindowPosEii
__ZN12CInputSystem21WasMouseDoublePressedE12ButtonCode_t
__ZN12CInputSystem22InternalKeyCodePressedE12ButtonCode_t
__ZN12CInputSystem22OnInputLanguageChangedEv
__ZN12CInputSystem22ReleaseAppModalSurfaceEv
__ZN12CInputSystem23GetIMELanguageShortCodeEPwi
__ZN12CInputSystem23HandleExplicitSetCursorEv
__ZN12CInputSystem23InternalKeyCodeReleasedE12ButtonCode_t
__ZN12CInputSystem23UpdateCursorPosInternalEii
__ZN12CInputSystem24CandidateListStartsAtOneEv
__ZN12CInputSystem24GetCandidateListPageSizeEv
__ZN12CInputSystem25GetCandidateListPageStartEv
__ZN12CInputSystem25SetCandidateListPageStartEi
__ZN12CInputSystem26InternalMouseDoublePressedE12ButtonCode_t
__ZN12CInputSystem28GetCandidateListSelectedItemEv
__ZN12CInputSystem30AssociatePanelWithInputContextEij
__ZN12CInputSystem30SetModalSubTreeReceiveMessagesEb
__ZN12CInputSystem31OnChangeIMESentenceModeByHandleEi
__ZN12CInputSystem32GetShouldInvertCompositionStringEv
__ZN12CInputSystem32RegisterKeyCodeUnhandledListenerEj
__ZN12CInputSystem33GetMouseFocusIgnoringModalSubtreeEv
__ZN12CInputSystem33OnChangeIMEConversionModeByHandleEi
__ZN12CInputSystem34UnregisterKeyCodeUnhandledListenerEj
__ZN12CInputSystem8GetFocusEv
__ZN12CInputSystem8RunFrameEv
__ZN12CInputSystem9IsKeyDownE12ButtonCode_t
__ZN12CInputSystemC2Ev
__ZN12CInputSystemD0Ev
__ZN12CInputSystemD1Ev
__ZN12CThreadEvent3SetEv
__ZN12CThreadEventC1Eb
__ZN12InterfaceReg16s_pInterfaceRegsE
__ZN12InterfaceRegC1EPFPvvEPKc
__ZN13CThreadRWLock11UnlockWriteEv
__ZN13CThreadRWLock11WaitForReadEv
__ZN13CThreadRWLock12LockForWriteEv
__ZN13VPanelWrapper10MoveToBackEj
__ZN13VPanelWrapper10SetEnabledEjb
__ZN13VPanelWrapper10SetVisibleEjb
__ZN13VPanelWrapper11DeletePanelEj
__ZN13VPanelWrapper11GetChildrenEj
__ZN13VPanelWrapper11GetClipRectEjRiS0_S0_S0_
__ZN13VPanelWrapper11MoveToFrontEj
__ZN13VPanelWrapper11RequestInfoEjP9KeyValues
__ZN13VPanelWrapper11SendMessageEjP9KeyValuesj
__ZN13VPanelWrapper12GetClassNameEj
__ZN13VPanelWrapper12OnChildAddedEjj
__ZN13VPanelWrapper12RequestFocusEji
__ZN13VPanelWrapper13GetChildCountEj
__ZN13VPanelWrapper13GetModuleNameEj
__ZN13VPanelWrapper13OnSizeChangedEjii
__ZN13VPanelWrapper13PaintTraverseEjbb
__ZN13VPanelWrapper13SetSiblingPinEjjhh
__ZN13VPanelWrapper14GetMinimumSizeEjRiS0_
__ZN13VPanelWrapper14GetTabPositionEj
__ZN13VPanelWrapper14IsFullyVisibleEj
__ZN13VPanelWrapper14IsProportionalEj
__ZN13VPanelWrapper14IsTopmostPopupEj
__ZN13VPanelWrapper14SetMinimumSizeEjii
__ZN13VPanelWrapper15IsAutoDeleteSetEj
__ZN13VPanelWrapper15SetTopmostPopupEjb
__ZN13VPanelWrapper16IsWithinTraverseEjiib
__ZN13VPanelWrapper16RequestFocusNextEjj
__ZN13VPanelWrapper16RequestFocusPrevEjj
__ZN13VPanelWrapper18GetCurrentKeyFocusEj
__ZN13VPanelWrapper19IsMouseInputEnabledEj
__ZN13VPanelWrapper20InternalFocusChangedEjb
__ZN13VPanelWrapper20SetMouseInputEnabledEjb
__ZN13VPanelWrapper22IsKeyBoardInputEnabledEj
__ZN13VPanelWrapper23SetKeyBoardInputEnabledEjb
__ZN13VPanelWrapper26PerformApplySchemeSettingsEj
__ZN13VPanelWrapper4InitEjPN4vgui12IClientPanelE
__ZN13VPanelWrapper4PlatEj
__ZN13VPanelWrapper5SolveEj
__ZN13VPanelWrapper5ThinkEj
__ZN13VPanelWrapper6ClientEj
__ZN13VPanelWrapper6GetPosEjRiS0_
__ZN13VPanelWrapper6SetPosEjii
__ZN13VPanelWrapper7GetNameEj
__ZN13VPanelWrapper7GetSizeEjRiS0_
__ZN13VPanelWrapper7GetZPosEj
__ZN13VPanelWrapper7IsPopupEj
__ZN13VPanelWrapper7RepaintEj
__ZN13VPanelWrapper7SetPlatEjPN4vgui11SurfacePlatE
__ZN13VPanelWrapper7SetSizeEjii
__ZN13VPanelWrapper7SetZPosEji
__ZN13VPanelWrapper8GetChildEji
__ZN13VPanelWrapper8GetInsetEjRiS0_S0_S0_
__ZN13VPanelWrapper8GetPanelEjPKc
__ZN13VPanelWrapper8SetInsetEjiiii
__ZN13VPanelWrapper8SetPopupEjb
__ZN13VPanelWrapper9GetAbsPosEjRiS0_
__ZN13VPanelWrapper9GetParentEj
__ZN13VPanelWrapper9GetSchemeEj
__ZN13VPanelWrapper9HasParentEjj
__ZN13VPanelWrapper9IsEnabledEj
__ZN13VPanelWrapper9IsVisibleEj
__ZN13VPanelWrapper9SetParentEjj
__ZN13VPanelWrapperD0Ev
__ZN13VPanelWrapperD1Ev
__ZN14CSchemeManager10GetISchemeEm
__ZN14CSchemeManager10GetImageIDEPKcb
__ZN14CSchemeManager11DeleteImageEPKc
__ZN14CSchemeManager11ReloadFontsEv
__ZN14CSchemeManager13ReloadSchemesEv
__ZN14CSchemeManager16GetDefaultSchemeEv
__ZN14CSchemeManager17s_pszSearchStringE
__ZN14CSchemeManager18LoadSchemeFromFileEPKcS1_
__ZN14CSchemeManager20LoadSchemeFromFileExEjPKcS1_
__ZN14CSchemeManager22BitmapHandleSearchFuncERKNS_20CachedBitmapHandle_tES2_
__ZN14CSchemeManager26GetProportionalScaledValueEi
__ZN14CSchemeManager28GetProportionalScaledValueExEmi
__ZN14CSchemeManager30GetProportionalNormalizedValueEi
__ZN14CSchemeManager32GetProportionalNormalizedValueExEmi
__ZN14CSchemeManager8GetImageEPKcb
__ZN14CSchemeManager8ShutdownEb
__ZN14CSchemeManager9GetSchemeEPKc
__ZN14CSchemeManagerC2Ev
__ZN14CSchemeManagerD0Ev
__ZN14CSchemeManagerD1Ev
__ZN14CSchemeManagerD2Ev
__ZN14CUtlLinkedListI13MessageItem_ttLb0Et10CUtlMemoryI19UtlLinkedListElem_tIS0_tEtEE10LinkBeforeEtt
__ZN14CUtlLinkedListI13MessageItem_ttLb0Et10CUtlMemoryI19UtlLinkedListElem_tIS0_tEtEE13AllocInternalEb
__ZN14CUtlLinkedListI13MessageItem_ttLb0Et10CUtlMemoryI19UtlLinkedListElem_tIS0_tEtEED2Ev
__ZN14CUtlLinkedListIN12CInputSystem14InputContext_tEiLb0Ei10CUtlMemoryI19UtlLinkedListElem_tIS1_iEiEE13AllocInternalEb
__ZN14CUtlLinkedListIN12CInputSystem14InputContext_tEiLb0Ei10CUtlMemoryI19UtlLinkedListElem_tIS1_iEiEED2Ev
__ZN14CUtlLinkedListIN5CVGui9Context_tEtLb0Et10CUtlMemoryI19UtlLinkedListElem_tIS1_tEtEE10LinkBeforeEtt
__ZN14CUtlLinkedListIN5CVGui9Context_tEtLb0Et10CUtlMemoryI19UtlLinkedListElem_tIS1_tEtEE13AllocInternalEb
__ZN14CUtlLinkedListIN5CVGui9Context_tEtLb0Et10CUtlMemoryI19UtlLinkedListElem_tIS1_tEtEED2Ev
__ZN14CUtlSortVectorIP9KeyValues29CUtlSortVectorKeyValuesByName10CUtlVectorIS1_10CUtlMemoryIS1_iEEE13CompareHelperEPKS1_S9_
__ZN14ConCommandBase10CreateBaseEPKcS1_i
__ZN14ConCommandBase11s_pAccessorE
__ZN14ConCommandBase18s_pConCommandBasesE
__ZN14ConCommandBase4InitEv
__ZN14ConCommandBase8AddFlagsEi
__ZN15CUtlHandleTableIN4vgui6VPanelELi20EE9AddHandleEv
__ZN15CUtlSymbolTable9AddStringEPKc
__ZN15CUtlSymbolTableC1Eiib
__ZN15CUtlSymbolTableD1Ev
__ZN15CUtlSymbolTableD2Ev
__ZN16CDefaultAccessor22RegisterConCommandBaseEP14ConCommandBase
__ZN17CThreadSyncObjectD2Ev
__ZN17CUtlPriorityQueueI13MessageItem_tE12RemoveAtHeadEv
__ZN17CUtlPriorityQueueI13MessageItem_tE6InsertERKS0_
__ZN18CUtlCharConversion14FindConversionEPKcPi
__ZN19CUtlNoEscConversion14FindConversionEPKcPi
__ZN19ScalableImageBorder10PaintFirstEv
__ZN19ScalableImageBorder17GetBackgroundTypeEv
__ZN19ScalableImageBorder19ApplySchemeSettingsEPN4vgui7ISchemeEP9KeyValues
__ZN19ScalableImageBorder5PaintEiiii
__ZN19ScalableImageBorder5PaintEiiiiiii
__ZN19ScalableImageBorder5PaintEj
__ZN19ScalableImageBorder7GetNameEv
__ZN19ScalableImageBorder7SetNameEPKc
__ZN19ScalableImageBorder8GetInsetERiS0_S0_S0_
__ZN19ScalableImageBorder8SetImageEPKc
__ZN19ScalableImageBorder8SetInsetEiiii
__ZN19ScalableImageBorderC1Ev
__ZN19ScalableImageBorderD0Ev
__ZN19ScalableImageBorderD1Ev
__ZN20CKeyValuesErrorStack11ReportErrorEPKc
__ZN21CLocalizedStringTable10FindAsUTF8EPKc
__ZN21CLocalizedStringTable10SaveToFileEPKc
__ZN21CLocalizedStringTable14GetNameByIndexEm
__ZN21CLocalizedStringTable15ConstructStringEPwiPKcP9KeyValues
__ZN21CLocalizedStringTable15ConstructStringEPwimP9KeyValues
__ZN21CLocalizedStringTable15GetValueByIndexEm
__ZN21CLocalizedStringTable15SetValueByIndexEmPw
__ZN21CLocalizedStringTable17FastValueLessFuncERKNS_11fastvalue_tES2_
__ZN21CLocalizedStringTable18GetFileNameByIndexEm
__ZN21CLocalizedStringTable18GetNextStringIndexEm
__ZN21CLocalizedStringTable19AddAllLanguageFilesEPKc
__ZN21CLocalizedStringTable19GetFirstStringIndexEv
__ZN21CLocalizedStringTable20BuildFastValueLookupEv
__ZN21CLocalizedStringTable23GetLocalizationFileNameEi
__ZN21CLocalizedStringTable23ReloadLocalizationFilesEv
__ZN21CLocalizedStringTable24GetLocalizationFileCountEv
__ZN21CLocalizedStringTable4FindEPKc
__ZN21CLocalizedStringTable7AddFileEPKcS1_b
__ZN21CLocalizedStringTable7SymLessERKNS_17localizedstring_tES2_
__ZN21CLocalizedStringTable8s_pTableE
__ZN21CLocalizedStringTable9AddStringEPKcPwS1_
__ZN21CLocalizedStringTable9FindIndexEPKc
__ZN21CLocalizedStringTable9RemoveAllEv
__ZN21CLocalizedStringTableD1Ev
__ZN21CLocalizedStringTableD2Ev
__ZN21CUtlCStringConversion14FindConversionEPKcPi
__ZN21CUtlCStringConversionC2EcPKciPN18CUtlCharConversion17ConversionArray_tE
__ZN22CCleanupUtlSymbolTableD1Ev
__ZN4vgui10g_pSurfaceE
__ZN4vgui17CKeyRepeatHandler11KeyRepeatedEv
__ZN4vgui17CKeyRepeatHandler5KeyUpE12ButtonCode_t
__ZN4vgui17CKeyRepeatHandler7KeyDownE12ButtonCode_t
__ZN4vgui17CKeyRepeatHandlerC1Ev
__ZN4vgui27VGui_InternalLoadInterfacesEPPFPvPKcPiEi
__ZN4vgui3DarIPNS_6VPanelEE16MoveElementToEndES2_
__ZN4vgui6Bitmap11SetRotationEi
__ZN4vgui6Bitmap12GetNumFramesEv
__ZN4vgui6Bitmap14GetContentSizeERiS1_
__ZN4vgui6Bitmap5EvictEv
__ZN4vgui6Bitmap5GetIDEv
__ZN4vgui6Bitmap5PaintEv
__ZN4vgui6Bitmap6SetPosEii
__ZN4vgui6Bitmap7GetNameEv
__ZN4vgui6Bitmap7GetSizeERiS1_
__ZN4vgui6Bitmap7SetSizeEii
__ZN4vgui6Bitmap8SetColorE5Color
__ZN4vgui6Bitmap8SetFrameEi
__ZN4vgui6BitmapC1EPKcb
__ZN4vgui6BitmapC2EPKcb
__ZN4vgui6BitmapD0Ev
__ZN4vgui6BitmapD1Ev
__ZN4vgui6Border10PaintFirstEv
__ZN4vgui6Border17GetBackgroundTypeEv
__ZN4vgui6Border17ParseSideSettingsEiP9KeyValuesPNS_7ISchemeE
__ZN4vgui6Border19ApplySchemeSettingsEPNS_7ISchemeEP9KeyValues
__ZN4vgui6Border5PaintEiiii
__ZN4vgui6Border5PaintEiiiiiii
__ZN4vgui6Border5PaintEj
__ZN4vgui6Border7GetNameEv
__ZN4vgui6Border7SetNameEPKc
__ZN4vgui6Border8GetInsetERiS1_S1_S1_
__ZN4vgui6Border8SetInsetEiiii
__ZN4vgui6BorderC1Ev
__ZN4vgui6BorderD0Ev
__ZN4vgui6BorderD1Ev
__ZN4vgui6BorderD2Ev
__ZN4vgui6VPanel10MoveToBackEv
__ZN4vgui6VPanel10SetEnabledEb
__ZN4vgui6VPanel10SetVisibleEb
__ZN4vgui6VPanel11GetChildrenEv
__ZN4vgui6VPanel11GetClipRectERiS1_S1_S1_
__ZN4vgui6VPanel11MoveToFrontEv
__ZN4vgui6VPanel11SendMessageEP9KeyValuesj
__ZN4vgui6VPanel12GetClassNameEv
__ZN4vgui6VPanel13GetChildCountEv
__ZN4vgui6VPanel13SetSiblingPinEPS0_hh
__ZN4vgui6VPanel13TraverseLevelEi
__ZN4vgui6VPanel14GetMinimumSizeERiS1_
__ZN4vgui6VPanel14IsFullyVisibleEv
__ZN4vgui6VPanel14SetMinimumSizeEii
__ZN4vgui6VPanel15SetTopmostPopupEb
__ZN4vgui6VPanel17GetInternalAbsPosERiS1_
__ZN4vgui6VPanel19IsMouseInputEnabledEv
__ZN4vgui6VPanel20SetMouseInputEnabledEb
__ZN4vgui6VPanel22IsKeyBoardInputEnabledEv
__ZN4vgui6VPanel23SetKeyBoardInputEnabledEb
__ZN4vgui6VPanel4InitEPNS_12IClientPanelE
__ZN4vgui6VPanel4PlatEv
__ZN4vgui6VPanel5SolveEv
__ZN4vgui6VPanel6ClientEv
__ZN4vgui6VPanel6GetPosERiS1_
__ZN4vgui6VPanel6SetPosEii
__ZN4vgui6VPanel7GetNameEv
__ZN4vgui6VPanel7GetSizeERiS1_
__ZN4vgui6VPanel7GetZPosEv
__ZN4vgui6VPanel7IsPopupEv
__ZN4vgui6VPanel7SetPlatEPNS_11SurfacePlatE
__ZN4vgui6VPanel7SetSizeEii
__ZN4vgui6VPanel7SetZPosEi
__ZN4vgui6VPanel8GetChildEi
__ZN4vgui6VPanel8GetInsetERiS1_S1_S1_
__ZN4vgui6VPanel8SetInsetEiiii
__ZN4vgui6VPanel8SetPopupEb
__ZN4vgui6VPanel9GetAbsPosERiS1_
__ZN4vgui6VPanel9GetHPanelEv
__ZN4vgui6VPanel9GetParentEv
__ZN4vgui6VPanel9GetSchemeEv
__ZN4vgui6VPanel9HasParentEPS0_
__ZN4vgui6VPanel9IsEnabledEv
__ZN4vgui6VPanel9IsVisibleEv
__ZN4vgui6VPanel9SetHPanelEm
__ZN4vgui6VPanel9SetParentEPS0_
__ZN4vgui6VPanelC1Ev
__ZN4vgui6VPanelD0Ev
__ZN4vgui6VPanelD1Ev
__ZN4vgui6VPanelD2Ev
__ZN4vgui8g_pIVguiE
__ZN4vgui8g_pInputE
__ZN4vgui9g_pIPanelE
__ZN4vgui9g_pSchemeE
__ZN4vgui9g_pSystemE
__ZN5CVGui10AllocPanelEv
__ZN5CVGui10DisconnectEv
__ZN5CVGui11PostMessageEjP9KeyValuesjf
__ZN5CVGui12PanelDeletedEPN4vgui6VPanelE
__ZN5CVGui13AddTickSignalEji
__ZN5CVGui13CreateContextEv
__ZN5CVGui13CreateNewTickEji
__ZN5CVGui13GetVGUIEngineEv
__ZN5CVGui13HandleToPanelEm
__ZN5CVGui13PanelToHandleEj
__ZN5CVGui14DestroyContextEi
__ZN5CVGui14QueryInterfaceEPKc
__ZN5CVGui15ActivateContextEi
__ZN5CVGui15ShutdownMessageEj
__ZN5CVGui16DispatchMessagesEv
__ZN5CVGui16RemoveTickSignalEj
__ZN5CVGui18ClearMessageQueuesEv
__ZN5CVGui19AddTickSignalToHeadEji
__ZN5CVGui20MarkPanelForDeletionEj
__ZN5CVGui23SpewAllActivePanelNamesEv
__ZN5CVGui25AssociatePanelWithContextEij
__ZN5CVGui25GetShouldVGuiControlSleepEv
__ZN5CVGui4InitEv
__ZN5CVGui4StopEv
__ZN5CVGui5StartEv
__ZN5CVGui7ConnectEPFPvPKcPiE
__ZN5CVGui7DPrintfEPKcz
__ZN5CVGui8DPrintf2EPKcz
__ZN5CVGui8RunFrameEv
__ZN5CVGui8SetSleepEb
__ZN5CVGui8ShutdownEv
__ZN5CVGui9FreePanelEj
__ZN5CVGui9GetVRModeEv
__ZN5CVGui9IsRunningEv
__ZN5CVGui9SetVRModeEb
__ZN5CVGuiC2Ev
__ZN5CVGuiD1Ev
__ZN5CVGuiD2Ev
__ZN6ConVar10ClampValueERf
__ZN6ConVar16InternalSetValueEPKc
__ZN6ConVar17ChangeStringValueEPKcf
__ZN6ConVar19InternalSetIntValueEi
__ZN6ConVar21InternalSetFloatValueEfb
__ZN6ConVar4InitEv
__ZN6ConVar6CreateEPKcS1_iS1_bfbfbfbfPFvP7IConVarS1_fE
__ZN6ConVar8AddFlagsEi
__ZN6ConVar8SetValueEPKc
__ZN6ConVar8SetValueEf
__ZN6ConVar8SetValueEi
__ZN6ConVarD0Ev
__ZN6ConVarD1Ev
__ZN7CScheme11GetFontNameERKm
__ZN7CScheme11LoadBordersEv
__ZN7CScheme12LoadFromFileEjPKcS1_P9KeyValues
__ZN7CScheme12SetFontRangeEPKcii
__ZN7CScheme14GetFontAtIndexEi
__ZN7CScheme16GetBorderAtIndexEi
__ZN7CScheme16ReloadFontGlyphsEv
__ZN7CScheme17GetResourceStringEPKc
__ZN7CScheme19LookupSchemeSettingEPKc
__ZN7CScheme38GetMinimumFontHeightForCurrentLanguageEv
__ZN7CScheme7GetFontEPKcb
__ZN7CScheme8GetColorEPKc5Color
__ZN7CScheme9GetBorderEPKc
__ZN7CScheme9LoadFontsEv
__ZN7CScheme9SpewFontsEv
__ZN7CSchemeD0Ev
__ZN7CSchemeD1Ev
__ZN7CSystem12GetFrameTimeEv
__ZN7CSystem12ShellExecuteEPKcS1_
__ZN7CSystem13GetTimeMillisEv
__ZN7CSystem14CreateShortcutEPKcS1_S1_S1_S1_
__ZN7CSystem14GetCurrentTimeEv
__ZN7CSystem14ShellExecuteExEPKcS1_S1_
__ZN7CSystem16GetClipboardTextEiPci
__ZN7CSystem16GetClipboardTextEiPwi
__ZN7CSystem16GetFreeDiskSpaceEPKc
__ZN7CSystem16SetClipboardTextEPKci
__ZN7CSystem16SetClipboardTextEPKwi
__ZN7CSystem17DeleteRegistryKeyEPKc
__ZN7CSystem17GetRegistryStringEPKcPci
__ZN7CSystem17GetShortcutTargetEPKcPcS2_i
__ZN7CSystem17SetClipboardImageEPviiii
__ZN7CSystem17SetRegistryStringEPKcS1_
__ZN7CSystem17SetUserConfigFileEPKcS1_
__ZN7CSystem18GetAvailableDrivesEPci
__ZN7CSystem18GetFullCommandLineEv
__ZN7CSystem18GetRegistryIntegerEPKcRi
__ZN7CSystem18SaveUserConfigFileEv
__ZN7CSystem18SetRegistryIntegerEPKci
__ZN7CSystem19GetTimeSinceLastUseEv
__ZN7CSystem20GetDesktopFolderPathEv
__ZN7CSystem20ModifyShortcutTargetEPKcS1_S1_S1_
__ZN7CSystem21GetClipboardTextCountEv
__ZN7CSystem21GetCurrentTimeAndDateEPiS0_S0_S0_S0_S0_S0_
__ZN7CSystem21GetUserConfigFileDataEPKci
__ZN7CSystem22CommandLineParamExistsEPKc
__ZN7CSystem22GetStartMenuFolderPathEv
__ZN7CSystem22SetWatchForComputerUseEb
__ZN7CSystem24GetCommandLineParamValueEPKcPci
__ZN7CSystem24KeyCode_VGUIToVirtualKeyE12ButtonCode_t
__ZN7CSystem24KeyCode_VirtualKeyToVGUIEi
__ZN7CSystem27GetAllUserDesktopFolderPathEv
__ZN7CSystem29GetAllUserStartMenuFolderPathEv
__ZN7CSystem8RunFrameEv
__ZN7CSystem8ShutdownEv
__ZN7CSystemC2Ev
__ZN7CSystemD0Ev
__ZN7CSystemD1Ev
__ZN8CUtlDictIN7CScheme11fontalias_tEiE9RemoveAllEv
__ZN8CUtlDictIN7CScheme11fontrange_tEiE9RemoveAllEv
__ZN9CUtlQueueIi10CUtlMemoryIiiEE6InsertERKi
__ZN9ConVarRefC1EPKc
__ZN9ConVarRefC1EPKcb
__ZN9ILocalize20ConvertANSIToUnicodeEPKcPwi
__ZN9ILocalize32ConstructStringKeyValuesInternalEPwiPKwP9KeyValues
__ZN9KeyValues10GetWStringEPKcPKw
__ZN9KeyValues10SaveToFileEP15IBaseFileSystemPKcS3_bbb
__ZN9KeyValues10SetWStringEPKcPKw
__ZN9KeyValues10deleteThisEv
__ZN9KeyValues11GetDataTypeEPKc
__ZN9KeyValues12LoadFromFileEP15IBaseFileSystemPKcS3_b
__ZN9KeyValues13SaveKeyToFileEPS_P15IBaseFileSystemPvP10CUtlBufferibb
__ZN9KeyValues14LoadFromBufferEPKcR10CUtlBufferP15IBaseFileSystemS1_
__ZN9KeyValues14LoadFromBufferEPKcS1_P15IBaseFileSystemS1_
__ZN9KeyValues16RemoveEverythingEv
__ZN9KeyValues17ParseIncludedKeysEPKcS1_P15IBaseFileSystemS1_R10CUtlVectorIPS_10CUtlMemoryIS5_iEE
__ZN9KeyValues19RecursiveSaveToFileEP15IBaseFileSystemPvP10CUtlBufferibb
__ZN9KeyValues19UsesEscapeSequencesEb
__ZN9KeyValues20WriteConvertedStringEP15IBaseFileSystemPvP10CUtlBufferPKc
__ZN9KeyValues21ProcessResolutionKeysEPKc
__ZN9KeyValues22s_pfGetStringForSymbolE
__ZN9KeyValues22s_pfGetSymbolForStringE
__ZN9KeyValues23RecursiveLoadFromBufferEPKcR10CUtlBuffer
__ZN9KeyValues23RecursiveMergeKeyValuesEPS_
__ZN9KeyValues25GetStringForSymbolClassicEi
__ZN9KeyValues25GetSymbolForStringClassicEPKcb
__ZN9KeyValues28CreateKeyUsingKnownLastChildEPKcPS_
__ZN9KeyValues5ClearEv
__ZN9KeyValues6GetIntEPKci
__ZN9KeyValues6SetIntEPKci
__ZN9KeyValues6SetPtrEPKcPv
__ZN9KeyValues7FindKeyEPKcb
__ZN9KeyValues8GetFloatEPKcf
__ZN9KeyValues9GetStringEPKcS1_
__ZN9KeyValues9ReadTokenER10CUtlBufferRbS2_
__ZN9KeyValues9SetStringEPKcS1_
__ZN9KeyValuesC1EPKc
__ZN9KeyValuesC1EPKcS1_PKw
__ZN9KeyValuesC1EPKcS1_i
__ZN9KeyValuesC1EPKcS1_iS1_i
__ZN9KeyValuesdlEPv
__ZN9KeyValuesnwEm
__ZNK10CUtlString3GetEv
__ZNK10CUtlSymbol6StringEv
__ZNK10ConCommand9IsCommandEv
__ZNK12CEmptyConVar7GetNameEv
__ZNK12CEmptyConVar9IsFlagSetEi
__ZNK12CInputSystem33ShouldModalSubTreeReceiveMessagesEv
__ZNK14ConCommandBase11GetHelpTextEv
__ZNK14ConCommandBase12IsRegisteredEv
__ZNK14ConCommandBase16GetDLLIdentifierEv
__ZNK14ConCommandBase7GetNameEv
__ZNK14ConCommandBase9IsFlagSetEi
__ZNK15CUtlSymbolTable5CLessclERKNS_16CStringPoolIndexES3_
__ZNK15CUtlSymbolTable6StringE10CUtlSymbol
__ZNK17CUtlSymbolTableMT6StringE10CUtlSymbol
__ZNK4vgui6VPanel14IsTopmostPopupEv
__ZNK6ConVar11GetHelpTextEv
__ZNK6ConVar12IsRegisteredEv
__ZNK6ConVar7GetNameEv
__ZNK6ConVar9IsCommandEv
__ZNK6ConVar9IsFlagSetEi
__ZNK7CScheme12GetColorDataEv
__ZNK7CScheme12GetFontCountEv
__ZNK7CScheme14GetBorderCountEv
__ZNK9ConVarRef7IsValidEv
__ZNK9KeyValues7GetNameEv
__ZNK9KeyValues8MakeCopyEv
__ZNV16CThreadFastMutex4LockEjj
__ZSt9terminatev
__ZTI10ConCommand
__ZTI10IAppSystem
__ZTI11ImageBorder
__ZTI12CEmptyConVar
__ZTI12CInputSystem
__ZTI13VPanelWrapper
__ZTI14CBaseAppSystemIN4vgui5IVGuiEE
__ZTI14CSchemeManager
__ZTI14ConCommandBase
__ZTI14IBaseInterface
__ZTI15CTier0AppSystemIN4vgui5IVGuiEE
__ZTI15CTier1AppSystemIN4vgui5IVGuiELi0EE
__ZTI15CTier2AppSystemIN4vgui5IVGuiELi0EE
__ZTI15CTier3AppSystemIN4vgui5IVGuiELi0EE
__ZTI16CDefaultAccessor
__ZTI18CUtlCharConversion
__ZTI19CUtlNoEscConversion
__ZTI19ScalableImageBorder
__ZTI21CLocalizedStringTable
__ZTI21CUtlCStringConversion
__ZTI23IConCommandBaseAccessor
__ZTI5CVGui
__ZTI6ConVar
__ZTI7CScheme
__ZTI7CSystem
__ZTI7IConVar
__ZTI9ILocalize
__ZTIN4vgui14IInputInternalE
__ZTIN4vgui14ISchemeManagerE
__ZTIN4vgui5IVGuiE
__ZTIN4vgui6BitmapE
__ZTIN4vgui6BorderE
__ZTIN4vgui6IImageE
__ZTIN4vgui6IInputE
__ZTIN4vgui6IPanelE
__ZTIN4vgui6VPanelE
__ZTIN4vgui7IBorderE
__ZTIN4vgui7ISchemeE
__ZTIN4vgui7ISystemE
__ZTIN4vgui9ILocalizeE
__ZTISt9bad_alloc
__ZTS10ConCommand
__ZTS10IAppSystem
__ZTS11ImageBorder
__ZTS12CEmptyConVar
__ZTS12CInputSystem
__ZTS13VPanelWrapper
__ZTS14CBaseAppSystemIN4vgui5IVGuiEE
__ZTS14CSchemeManager
__ZTS14ConCommandBase
__ZTS14IBaseInterface
__ZTS15CTier0AppSystemIN4vgui5IVGuiEE
__ZTS15CTier1AppSystemIN4vgui5IVGuiELi0EE
__ZTS15CTier2AppSystemIN4vgui5IVGuiELi0EE
__ZTS15CTier3AppSystemIN4vgui5IVGuiELi0EE
__ZTS16CDefaultAccessor
__ZTS18CUtlCharConversion
__ZTS19CUtlNoEscConversion
__ZTS19ScalableImageBorder
__ZTS21CLocalizedStringTable
__ZTS21CUtlCStringConversion
__ZTS23IConCommandBaseAccessor
__ZTS5CVGui
__ZTS6ConVar
__ZTS7CScheme
__ZTS7CSystem
__ZTS7IConVar
__ZTS9ILocalize
__ZTSN4vgui14IInputInternalE
__ZTSN4vgui14ISchemeManagerE
__ZTSN4vgui5IVGuiE
__ZTSN4vgui6BitmapE
__ZTSN4vgui6BorderE
__ZTSN4vgui6IImageE
__ZTSN4vgui6IInputE
__ZTSN4vgui6IPanelE
__ZTSN4vgui6VPanelE
__ZTSN4vgui7IBorderE
__ZTSN4vgui7ISchemeE
__ZTSN4vgui7ISystemE
__ZTSN4vgui9ILocalizeE
__ZTV10ConCommand
__ZTV11ImageBorder
__ZTV12CEmptyConVar
__ZTV12CInputSystem
__ZTV13VPanelWrapper
__ZTV14CSchemeManager
__ZTV16CDefaultAccessor
__ZTV18CUtlCharConversion
__ZTV19CUtlNoEscConversion
__ZTV19ScalableImageBorder
__ZTV21CLocalizedStringTable
__ZTV21CUtlCStringConversion
__ZTV5CVGui
__ZTV6ConVar
__ZTV7CScheme
__ZTV7CSystem
__ZTVN10__cxxabiv117__class_type_infoE
__ZTVN10__cxxabiv120__si_class_type_infoE
__ZTVN10__cxxabiv121__vmi_class_type_infoE
__ZTVN4vgui6BitmapE
__ZTVN4vgui6BorderE
__ZTVN4vgui6VPanelE
__ZThn24_N12CEmptyConVar8SetValueEPKc
__ZThn24_N12CEmptyConVar8SetValueEf
__ZThn24_N12CEmptyConVar8SetValueEi
__ZThn24_N6ConVar8SetValueEPKc
__ZThn24_N6ConVar8SetValueEf
__ZThn24_N6ConVar8SetValueEi
__ZThn24_NK12CEmptyConVar7GetNameEv
__ZThn24_NK12CEmptyConVar9IsFlagSetEi
__ZThn24_NK6ConVar7GetNameEv
__ZThn24_NK6ConVar9IsFlagSetEi
__ZZN10CUtlSymbol10InitializeEvE18symbolsInitialized
__ZZN21CLocalizedStringTable10FindAsUTF8EPKcE5rgchT
__ZZN21CLocalizedStringTable10SaveToFileEPKcE13unicodeString
__ZZN21CLocalizedStringTable7AddFileEPKcS1_bE11cl_language
__ZZN5CVGui8DPrintf2EPKczE3ctr
__ZZN7CScheme17GetMungedFontNameEPKcS1_bE11mungeBuffer
__ZZN9ConVarRef4InitEPKcbE6bFirst
__ZZN9KeyValues13SaveKeyToFileEPS_P15IBaseFileSystemPvP10CUtlBufferibbE3buf
__ZdaPv
__ZdlPv
__Znam
__Znwm
___CFConstantStringClassReference
___bzero
___clang_call_terminate
___cxa_atexit
___cxa_begin_catch
___cxa_call_unexpected
___cxa_guard_abort
___cxa_guard_acquire
___cxa_guard_release
___error
___gxx_personality_v0
___maskrune
___stack_chk_fail
___stack_chk_guard
___tolower
_atof
_atoi
_colorcorrection
_cvar
_execlp
_fork
_g_Input
_g_KeyValuesErrorStack
_g_Scheme
_g_SchemeTranslation
_g_StringTable
_g_System
_g_VBAllocTracker
_g_VGui
_g_VProfCurrentProfile
_g_pCVar
_g_pDataCache
_g_pDmeMakefileUtils
_g_pFullFileSystem
_g_pInputSystem
_g_pMDLCache
_g_pMatSystemSurface
_g_pMaterialSystem
_g_pMaterialSystemDebugTextureInfo
_g_pMaterialSystemHardwareConfig
_g_pMemAlloc
_g_pNetworkSystem
_g_pPhysicsCollision
_g_pProcessUtils
_g_pQueuedLoader
_g_pSoundEmitterSystem
_g_pStudioRender
_g_pUtlSortVectorQSortContext
_g_pVCR
_g_pVGUIEngine
_g_pVGui
_g_pVGuiInput
_g_pVGuiLocalize
_g_pVGuiPanel
_g_pVGuiSchemeManager
_g_pVGuiSurface
_g_pVGuiSystem
_g_pVTex
_g_pVideo
_iconv
_iconv_close
_iconv_open
_kCFAllocatorDefault
_localtime
_materials
_mdlcache
_mdllib
_memcpy
_memmove
_memset_pattern16
_p4
_pow
_pthread_mutex_destroy
_pthread_mutex_init
_pthread_mutex_lock
_pthread_mutex_unlock
_pthread_mutexattr_init
_pthread_mutexattr_settype
_qsort
_s_NoEscConversion
_s_StringCharConversion
_sscanf
_statfs64
_strcasecmp
_strchr
_strcmp
_strcpy
_strlen
_strncasecmp
_strncat
_strncpy
_strrchr
_strstr
_strtod$UNIX2003
_strtok
_strtol
_strtoul
_studiorender
_swprintf
_time
_vsnprintf
_wcschr
_wcscmp
_wcscpy
_wcslen
_wcsncpy
_wcstol
dyld_stub_binder
