GCC_except_table0
GCC_except_table10
GCC_except_table12
GCC_except_table13
GCC_except_table18
GCC_except_table2
GCC_except_table27
GCC_except_table27
GCC_except_table29
GCC_except_table30
GCC_except_table36
GCC_except_table37
GCC_except_table4
GCC_except_table41
GCC_except_table44
GCC_except_table5
GCC_except_table6
GCC_except_table7
GCC_except_table7
GCC_except_table9
_AddMediaSample
_AddMediaSample2
_AddMovieToStorage
_BeginMediaEdits
_CFRelease
_CFStringCreateWithCString
_CloseMovieStorage
_CommandLine_Tier0
_CompressImage
_CreateInterface
_CreateMovieStorage
_DisposeGWorld
_DisposeHandle
_DisposeMovie
_EndMediaEdits
_EnterMovies
_ExitMovies
_Fix2X
_FixRatio
_GetCodecInfo
_GetGWorldPixMap
_GetMaxCompressionSize
_GetMediaDisplayDuration
_GetMediaDuration
_GetMediaHandler
_GetMediaNextInterestingDisplayTime
_GetMediaSampleCount
_GetMediaTimeScale
_GetMovieDuration
_GetMovieIndTrackType
_GetMovieNaturalBoundsRect
_GetMovieNextInterestingTime
_GetMoviePreferredRate
_GetMovieTime
_GetMovieTimeScale
_GetMoviesError
_GetPixBaseAddr
_GetPixRowBytes
_GetSystemUIMode
_GetTrackMedia
_GetWindowPort
_GoToBeginningOfMovie
_ICMImageDescriptionSetProperty
_InsertMediaIntoTrack
_KeyValuesSystem
_LockPixels
_MediaGetPublicInfo
_MediaHasCharacteristic
_MoviesTask
_Msg
_NewHandle
_NewMovieFromDataRef
_NewMovieTrack
_NewTrackMedia
_PrerollMovie
_QTAudioContextCreateForAudioDevice
_QTAudioContextRelease
_QTGetPixMapHandleRowBytes
_QTNewDataReferenceFromFullPathCFString
_QTNewGWorld
_QTSetPixMapHandleGammaLevel
_QTSetPixMapHandleRequestedGammaLevel
_QTSoundDescriptionCreate
_QuickTime_EncodeGamma
_QuickTime_PlaybackGamma
_SetGWorld
_SetMovieAudioContext
_SetMovieAudioMute
_SetMovieBox
_SetMovieGWorld
_SetMovieTime
_SetMovieTimeValue
_SetMovieVolume
_SetSystemUIMode
_StartMovie
_StopMovie
_ThreadSleep
_UnlockPixels
_UpdateMovie
_Warning
__GLOBAL__sub_I_KeyValues.stdout.rel_tf_osx_builder.55432.qZWQhg.ii
__GLOBAL__sub_I_convar.stdout.rel_tf_osx_builder.55430.mXKsKU.ii
__GLOBAL__sub_I_quicktime_.stdout.rel_tf_osx_builder.71894.wtTvGF.ii
__GLOBAL__sub_I_utlbuffer.stdout.rel_tf_osx_builder.8986.vt30zT.ii
__Unwind_Resume
__Z10V_snprintfPciPKcz
__Z11COPY_STRINGPKc
__Z15ConVar_RegisteriP23IConCommandBaseAccessor
__Z16CopyBitMapPixelsiimPhimS_i
__Z17ConVar_Unregisterv
__Z20SetGWorldDecodeGammaP13OpaqueGrafPtrN18VideoPlaybackGamma21EVideoPlaybackGamma_tE
__Z21ConnectTier1LibrariesPPFPvPKcPiEi
__Z21ConnectTier2LibrariesPPFPvPKcPiEi
__Z23CreateMovieAudioContextbPP9MovieTypePP21QTAudioContextRefTypebPf
__Z23MediaGetStaticFrameRatePP9MediaTypeR16VideoFrameRate_tb
__Z23MovieGetStaticFrameRatePP9MovieTypeR16VideoFrameRate_t
__Z24DisconnectTier1Librariesv
__Z24DisconnectTier2Librariesv
__Z6V_atofPKc
__Z9V_strncmpPKcS0_i
__Z9V_strncpyPcPKci
__ZL11s_nCVarFlag
__ZL11vec2_origin
__ZL11vec2_origin
__ZL11vec2_origin
__ZL11vec2_origin
__ZL11vec4_origin
__ZL12s_bConnected
__ZL12vec2_invalid
__ZL12vec2_invalid
__ZL12vec2_invalid
__ZL12vec2_invalid
__ZL12vec4_invalid
__ZL13s_EmptyConVar
__ZL13s_bRegistered
__ZL16s_nDLLIdentifier
__ZL17g_QuickTimeSystem
__ZL17s_DefaultAccessor
__ZL17s_H264EncodeRates
__ZL35s_pConversionArrays_NoEscConversion
__ZL40s_pConversionArrays_StringCharConversion
__ZL53__g_CreateCQuickTimeVideoSubSystemIVideoSubSystem_reg
__ZL57__CreateCQuickTimeVideoSubSystemIVideoSubSystem_interfacev
__ZL9g_KVMutex
__ZN10CUtlVectorIP14IVideoMaterial10CUtlMemoryIS1_iEED2Ev
__ZN10CUtlVectorIP14IVideoRecorder10CUtlMemoryIS1_iEED2Ev
__ZN12CEmptyConVar8SetValueEPKc
__ZN12CEmptyConVar8SetValueEf
__ZN12CEmptyConVar8SetValueEi
__ZN12CEmptyConVarD0Ev
__ZN12CEmptyConVarD1Ev
__ZN12InterfaceReg16s_pInterfaceRegsE
__ZN12InterfaceRegC1EPFPvvEPKc
__ZN14ConCommandBase10CreateBaseEPKcS1_i
__ZN14ConCommandBase11s_pAccessorE
__ZN14ConCommandBase18s_pConCommandBasesE
__ZN16CDefaultAccessor22RegisterConCommandBaseEP14ConCommandBase
__ZN17CTextureReference21InitProceduralTextureEPKcS1_ii11ImageFormati
__ZN17CTextureReference8ShutdownEb
__ZN17CTextureReferenceC1Ev
__ZN17CTextureReferenceD1Ev
__ZN18CMaterialReference4InitEPKcP9KeyValues
__ZN18CMaterialReference8ShutdownEv
__ZN18CMaterialReferenceC1EPKcS1_b
__ZN18CMaterialReferenceD1Ev
__ZN18CQuickTimeMaterial10SetLoopingEb
__ZN18CQuickTimeMaterial10StartVideoEv
__ZN18CQuickTimeMaterial11CloseQTFileEv
__ZN18CQuickTimeMaterial11GetMaterialEv
__ZN18CQuickTimeMaterial11OpenQTMovieEPKc
__ZN18CQuickTimeMaterial13GetFrameCountEv
__ZN18CQuickTimeMaterial13GetLastResultEv
__ZN18CQuickTimeMaterial14IsVideoPlayingEv
__ZN18CQuickTimeMaterial15GetCurrentFrameEv
__ZN18CQuickTimeMaterial15IsNewFrameReadyEv
__ZN18CQuickTimeMaterial16GetVideoDurationEv
__ZN18CQuickTimeMaterial16GetVideoFileNameEv
__ZN18CQuickTimeMaterial17GetVideoFrameRateEv
__ZN18CQuickTimeMaterial17GetVideoImageSizeEPiS0_
__ZN18CQuickTimeMaterial17IsFinishedPlayingEv
__ZN18CQuickTimeMaterial18IsVideoReadyToPlayEv
__ZN18CQuickTimeMaterial18SoundDeviceCommandEN25VideoSoundDeviceOperation28EVideoSoundDeviceOperation_tEPvS2_
__ZN18CQuickTimeMaterial19GetCurrentVideoTimeEv
__ZN18CQuickTimeMaterial21GetVideoTexCoordRangeEPfS0_
__ZN18CQuickTimeMaterial23CreateProceduralTextureEPKc
__ZN18CQuickTimeMaterial24CreateProceduralMaterialEPKc
__ZN18CQuickTimeMaterial4InitEPKcS1_N18VideoPlaybackFlags21EVideoPlaybackFlags_tE
__ZN18CQuickTimeMaterial5ResetEv
__ZN18CQuickTimeMaterial6UpdateEv
__ZN18CQuickTimeMaterial7IsMutedEv
__ZN18CQuickTimeMaterial7SetTimeEf
__ZN18CQuickTimeMaterial8HasAudioEv
__ZN18CQuickTimeMaterial8IsPausedEv
__ZN18CQuickTimeMaterial8SetFrameEi
__ZN18CQuickTimeMaterial8SetMutedEb
__ZN18CQuickTimeMaterial8ShutdownEv
__ZN18CQuickTimeMaterial9GetVolumeEv
__ZN18CQuickTimeMaterial9IsLoopingEv
__ZN18CQuickTimeMaterial9SetPausedEb
__ZN18CQuickTimeMaterial9SetVolumeEf
__ZN18CQuickTimeMaterial9StopVideoEv
__ZN18CQuickTimeMaterialC1Ev
__ZN18CQuickTimeMaterialC2Ev
__ZN18CQuickTimeMaterialD0Ev
__ZN18CQuickTimeMaterialD1Ev
__ZN18CUtlCharConversion14FindConversionEPKcPi
__ZN19CUtlNoEscConversion14FindConversionEPKcPi
__ZN20CQTVideoFileComposer10AbortMovieEv
__ZN20CQTVideoFileComposer11FinishMovieEb
__ZN20CQTVideoFileComposer14CreateNewMovieEPKcb
__ZN20CQTVideoFileComposer16EndMovieCreationEb
__ZN20CQTVideoFileComposer17SyncAndFlushAudioEv
__ZN20CQTVideoFileComposer18BeginMovieCreationEv
__ZN20CQTVideoFileComposer23AppendVideoFrameToMediaEPvi
__ZN20CQTVideoFileComposer23SetMovieVideoParametersEii16VideoFrameRate_tN16VideoEncodeCodec19EVideoEncodeCodec_tEiN16VideoEncodeGamma19EVideoEncodeGamma_tE
__ZN20CQTVideoFileComposer25AppendAudioSamplesToMediaEPvm
__ZN20CQTVideoFileComposer29SetMovieSourceAudioParametersEN23AudioEncodeSourceFormat26EAudioEncodeSourceFormat_tEiN18AudioEncodeOptions21EAudioEncodeOptions_tEi
__ZN20CQTVideoFileComposer29SetMovieSourceImageParametersEiiN23VideoEncodeSourceFormat26EVideoEncodeSourceFormat_tE
__ZN20CQTVideoFileComposerD2Ev
__ZN21CUtlCStringConversion14FindConversionEPKcPi
__ZN21CUtlCStringConversionC2EcPKciPN18CUtlCharConversion17ConversionArray_tE
__ZN23CQuickTimeVideoRecorder10AbortMovieEv
__ZN23CQuickTimeVideoRecorder11FinishMovieEb
__ZN23CQuickTimeVideoRecorder13GetFrameCountEv
__ZN23CQuickTimeVideoRecorder13GetLastResultEv
__ZN23CQuickTimeVideoRecorder13GetSampleRateEv
__ZN23CQuickTimeVideoRecorder14GetSampleCountEv
__ZN23CQuickTimeVideoRecorder15IsReadyToRecordEv
__ZN23CQuickTimeVideoRecorder16AppendVideoFrameEPvi
__ZN23CQuickTimeVideoRecorder18AppendAudioSamplesEPvm
__ZN23CQuickTimeVideoRecorder18CreateNewMovieFileEPKcb
__ZN23CQuickTimeVideoRecorder21EstimateMovieFileSizeEPmii16VideoFrameRate_tfN16VideoEncodeCodec19EVideoEncodeCodec_tEiN23AudioEncodeSourceFormat26EAudioEncodeSourceFormat_tEi
__ZN23CQuickTimeVideoRecorder23SetMovieVideoParametersEN16VideoEncodeCodec19EVideoEncodeCodec_tEiii16VideoFrameRate_tN16VideoEncodeGamma19EVideoEncodeGamma_tE
__ZN23CQuickTimeVideoRecorder29SetMovieSourceAudioParametersEN23AudioEncodeSourceFormat26EAudioEncodeSourceFormat_tEiN18AudioEncodeOptions21EAudioEncodeOptions_tEi
__ZN23CQuickTimeVideoRecorder29SetMovieSourceImageParametersEN23VideoEncodeSourceFormat26EVideoEncodeSourceFormat_tEii
__ZN23CQuickTimeVideoRecorder6GetFPSEv
__ZN23CQuickTimeVideoRecorderC1Ev
__ZN23CQuickTimeVideoRecorderD0Ev
__ZN23CQuickTimeVideoRecorderD1Ev
__ZN24CQuickTimeVideoSubSystem10DisconnectEv
__ZN24CQuickTimeVideoSubSystem11GetSystemIDEv
__ZN24CQuickTimeVideoSubSystem13GetLastResultEv
__ZN24CQuickTimeVideoSubSystem14QueryInterfaceEPKc
__ZN24CQuickTimeVideoSubSystem15GetSystemStatusEv
__ZN24CQuickTimeVideoSubSystem18GetVideoSystemNameEv
__ZN24CQuickTimeVideoSubSystem19CreateVideoMaterialEPKcS1_N18VideoPlaybackFlags21EVideoPlaybackFlags_tE
__ZN24CQuickTimeVideoSubSystem19CreateVideoRecorderEv
__ZN24CQuickTimeVideoSubSystem19DEFAULT_FEATURE_SETE
__ZN24CQuickTimeVideoSubSystem19ShutdownVideoSystemEv
__ZN24CQuickTimeVideoSubSystem19VideoSoundDeviceCMDEN25VideoSoundDeviceOperation28EVideoSoundDeviceOperation_tEPvS2_
__ZN24CQuickTimeVideoSubSystem20DestroyVideoMaterialEP14IVideoMaterial
__ZN24CQuickTimeVideoSubSystem20DestroyVideoRecorderEP14IVideoRecorder
__ZN24CQuickTimeVideoSubSystem20GetSupportedFeaturesEv
__ZN24CQuickTimeVideoSubSystem21InitializeVideoSystemEP20IVideoCommonServices
__ZN24CQuickTimeVideoSubSystem22CheckCodecAvailabilityEN16VideoEncodeCodec19EVideoEncodeCodec_tE
__ZN24CQuickTimeVideoSubSystem23PlayVideoFileFullScreenEPKcPviiiibfN18VideoPlaybackFlags21EVideoPlaybackFlags_tE
__ZN24CQuickTimeVideoSubSystem25GetSupportedFileExtensionEi
__ZN24CQuickTimeVideoSubSystem30GetSupportedFileExtensionCountEv
__ZN24CQuickTimeVideoSubSystem33GetSupportedFileExtensionFeaturesEi
__ZN24CQuickTimeVideoSubSystem4InitEv
__ZN24CQuickTimeVideoSubSystem7ConnectEPFPvPKcPiE
__ZN24CQuickTimeVideoSubSystem8ShutdownEv
__ZN24CQuickTimeVideoSubSystemD1Ev
__ZN24CQuickTimeVideoSubSystemD2Ev
__ZN39CQuicktimeMaterialRGBTextureRegenerator21RegenerateTextureBitsEP8ITextureP11IVTFTextureP6Rect_t
__ZN39CQuicktimeMaterialRGBTextureRegenerator7ReleaseEv
__ZN6ConVar10ClampValueERf
__ZN6ConVar16InternalSetValueEPKc
__ZN6ConVar17ChangeStringValueEPKcf
__ZN6ConVar19InternalSetIntValueEi
__ZN6ConVar21InternalSetFloatValueEfb
__ZN6ConVar4InitEv
__ZN6ConVar6CreateEPKcS1_iS1_bfbfbfbfPFvP7IConVarS1_fE
__ZN6ConVar8AddFlagsEi
__ZN6ConVar8SetValueEPKc
__ZN6ConVar8SetValueEf
__ZN6ConVar8SetValueEi
__ZN6ConVarC1EPKcS1_iS1_bfbf
__ZN6ConVarD0Ev
__ZN6ConVarD1Ev
__ZN9ConVarRefC1EPKc
__ZN9KeyValues22s_pfGetSymbolForStringE
__ZN9KeyValues25GetSymbolForStringClassicEPKcb
__ZN9KeyValues6SetIntEPKci
__ZN9KeyValues7FindKeyEPKcb
__ZN9KeyValues9SetStringEPKcS1_
__ZN9KeyValuesC1EPKc
__ZN9KeyValuesdlEPv
__ZN9KeyValuesnwEm
__ZNK12CEmptyConVar7GetNameEv
__ZNK12CEmptyConVar9IsFlagSetEi
__ZNK14ConCommandBase16GetDLLIdentifierEv
__ZNK6ConVar11GetHelpTextEv
__ZNK6ConVar12IsRegisteredEv
__ZNK6ConVar7GetNameEv
__ZNK6ConVar9IsCommandEv
__ZNK6ConVar9IsFlagSetEi
__ZNK9ConVarRef7IsValidEv
__ZSt9terminatev
__ZTI10IAppSystem
__ZTI12CEmptyConVar
__ZTI14CBaseAppSystemI15IVideoSubSystemE
__ZTI14ConCommandBase
__ZTI14IBaseInterface
__ZTI14IVideoMaterial
__ZTI14IVideoRecorder
__ZTI15CTier0AppSystemI15IVideoSubSystemE
__ZTI15CTier1AppSystemI15IVideoSubSystemLi0EE
__ZTI15CTier2AppSystemI15IVideoSubSystemLi0EE
__ZTI15IVideoSubSystem
__ZTI16CDefaultAccessor
__ZTI18CQuickTimeMaterial
__ZTI18CUtlCharConversion
__ZTI19CUtlNoEscConversion
__ZTI19ITextureRegenerator
__ZTI21CUtlCStringConversion
__ZTI23CQuickTimeVideoRecorder
__ZTI23IConCommandBaseAccessor
__ZTI24CQuickTimeVideoSubSystem
__ZTI39CQuicktimeMaterialRGBTextureRegenerator
__ZTI6ConVar
__ZTI7IConVar
__ZTISt9bad_alloc
__ZTS10IAppSystem
__ZTS12CEmptyConVar
__ZTS14CBaseAppSystemI15IVideoSubSystemE
__ZTS14ConCommandBase
__ZTS14IBaseInterface
__ZTS14IVideoMaterial
__ZTS14IVideoRecorder
__ZTS15CTier0AppSystemI15IVideoSubSystemE
__ZTS15CTier1AppSystemI15IVideoSubSystemLi0EE
__ZTS15CTier2AppSystemI15IVideoSubSystemLi0EE
__ZTS15IVideoSubSystem
__ZTS16CDefaultAccessor
__ZTS18CQuickTimeMaterial
__ZTS18CUtlCharConversion
__ZTS19CUtlNoEscConversion
__ZTS19ITextureRegenerator
__ZTS21CUtlCStringConversion
__ZTS23CQuickTimeVideoRecorder
__ZTS23IConCommandBaseAccessor
__ZTS24CQuickTimeVideoSubSystem
__ZTS39CQuicktimeMaterialRGBTextureRegenerator
__ZTS6ConVar
__ZTS7IConVar
__ZTV12CEmptyConVar
__ZTV16CDefaultAccessor
__ZTV18CQuickTimeMaterial
__ZTV18CUtlCharConversion
__ZTV19CUtlNoEscConversion
__ZTV21CUtlCStringConversion
__ZTV23CQuickTimeVideoRecorder
__ZTV24CQuickTimeVideoSubSystem
__ZTV39CQuicktimeMaterialRGBTextureRegenerator
__ZTV6ConVar
__ZTVN10__cxxabiv117__class_type_infoE
__ZTVN10__cxxabiv120__si_class_type_infoE
__ZTVN10__cxxabiv121__vmi_class_type_infoE
__ZThn24_N12CEmptyConVar8SetValueEPKc
__ZThn24_N12CEmptyConVar8SetValueEf
__ZThn24_N12CEmptyConVar8SetValueEi
__ZThn24_N6ConVar8SetValueEPKc
__ZThn24_N6ConVar8SetValueEf
__ZThn24_N6ConVar8SetValueEi
__ZThn24_NK12CEmptyConVar7GetNameEv
__ZThn24_NK12CEmptyConVar9IsFlagSetEi
__ZThn24_NK6ConVar7GetNameEv
__ZThn24_NK6ConVar9IsFlagSetEi
__ZZN9ConVarRef4InitEPKcbE6bFirst
__ZdaPv
__ZdlPv
__Znam
__Znwm
___bzero
___clang_call_terminate
___cxa_atexit
___cxa_begin_catch
___cxa_call_unexpected
___gxx_personality_v0
___stack_chk_fail
___stack_chk_guard
_atof
_atoi
_colorcorrection
_cvar
_dlsym
_floor
_g_KeyValuesErrorStack
_g_VBAllocTracker
_g_pCVar
_g_pFullFileSystem
_g_pInputSystem
_g_pMaterialSystem
_g_pMaterialSystemDebugTextureInfo
_g_pMaterialSystemHardwareConfig
_g_pMemAlloc
_g_pNetworkSystem
_g_pProcessUtils
_g_pQueuedLoader
_materials
_mdllib
_memcpy
_memmove
_memset
_p4
_pow
_printf
_s_NoEscConversion
_s_QuickTimeExtensions
_s_StringCharConversion
_strchr
_strcmp
_strlen
_strncpy
_vsnprintf
dyld_stub_binder
