GCC_except_table0
GCC_except_table0
GCC_except_table0
GCC_except_table0
GCC_except_table0
GCC_except_table0
GCC_except_table0
GCC_except_table0
GCC_except_table0
GCC_except_table0
GCC_except_table0
GCC_except_table1
GCC_except_table1
GCC_except_table1
GCC_except_table1
GCC_except_table1
GCC_except_table1
GCC_except_table1
GCC_except_table1
GCC_except_table1
GCC_except_table10
GCC_except_table10
GCC_except_table10
GCC_except_table10
GCC_except_table10
GCC_except_table10
GCC_except_table101
GCC_except_table102
GCC_except_table103
GCC_except_table103
GCC_except_table107
GCC_except_table108
GCC_except_table109
GCC_except_table11
GCC_except_table11
GCC_except_table11
GCC_except_table11
GCC_except_table11
GCC_except_table110
GCC_except_table110
GCC_except_table111
GCC_except_table12
GCC_except_table12
GCC_except_table12
GCC_except_table12
GCC_except_table12
GCC_except_table12
GCC_except_table125
GCC_except_table13
GCC_except_table136
GCC_except_table14
GCC_except_table14
GCC_except_table14
GCC_except_table14
GCC_except_table145
GCC_except_table15
GCC_except_table15
GCC_except_table15
GCC_except_table15
GCC_except_table154
GCC_except_table16
GCC_except_table16
GCC_except_table16
GCC_except_table16
GCC_except_table169
GCC_except_table17
GCC_except_table17
GCC_except_table17
GCC_except_table17
GCC_except_table17
GCC_except_table179
GCC_except_table18
GCC_except_table18
GCC_except_table18
GCC_except_table18
GCC_except_table18
GCC_except_table19
GCC_except_table19
GCC_except_table19
GCC_except_table19
GCC_except_table19
GCC_except_table19
GCC_except_table19
GCC_except_table191
GCC_except_table192
GCC_except_table2
GCC_except_table2
GCC_except_table2
GCC_except_table2
GCC_except_table2
GCC_except_table2
GCC_except_table2
GCC_except_table2
GCC_except_table2
GCC_except_table20
GCC_except_table20
GCC_except_table20
GCC_except_table20
GCC_except_table20
GCC_except_table20
GCC_except_table20
GCC_except_table205
GCC_except_table21
GCC_except_table21
GCC_except_table21
GCC_except_table21
GCC_except_table21
GCC_except_table210
GCC_except_table211
GCC_except_table212
GCC_except_table22
GCC_except_table22
GCC_except_table22
GCC_except_table22
GCC_except_table23
GCC_except_table23
GCC_except_table23
GCC_except_table24
GCC_except_table24
GCC_except_table24
GCC_except_table25
GCC_except_table25
GCC_except_table25
GCC_except_table25
GCC_except_table26
GCC_except_table26
GCC_except_table26
GCC_except_table26
GCC_except_table26
GCC_except_table26
GCC_except_table26
GCC_except_table26
GCC_except_table26
GCC_except_table27
GCC_except_table27
GCC_except_table27
GCC_except_table27
GCC_except_table28
GCC_except_table28
GCC_except_table28
GCC_except_table29
GCC_except_table29
GCC_except_table29
GCC_except_table3
GCC_except_table3
GCC_except_table3
GCC_except_table3
GCC_except_table3
GCC_except_table3
GCC_except_table3
GCC_except_table3
GCC_except_table30
GCC_except_table30
GCC_except_table30
GCC_except_table31
GCC_except_table31
GCC_except_table31
GCC_except_table31
GCC_except_table31
GCC_except_table31
GCC_except_table31
GCC_except_table31
GCC_except_table32
GCC_except_table32
GCC_except_table32
GCC_except_table32
GCC_except_table33
GCC_except_table33
GCC_except_table33
GCC_except_table33
GCC_except_table34
GCC_except_table34
GCC_except_table34
GCC_except_table34
GCC_except_table34
GCC_except_table34
GCC_except_table35
GCC_except_table35
GCC_except_table35
GCC_except_table35
GCC_except_table36
GCC_except_table36
GCC_except_table36
GCC_except_table36
GCC_except_table37
GCC_except_table37
GCC_except_table37
GCC_except_table38
GCC_except_table39
GCC_except_table39
GCC_except_table4
GCC_except_table4
GCC_except_table4
GCC_except_table4
GCC_except_table4
GCC_except_table4
GCC_except_table4
GCC_except_table4
GCC_except_table4
GCC_except_table4
GCC_except_table4
GCC_except_table40
GCC_except_table40
GCC_except_table41
GCC_except_table42
GCC_except_table42
GCC_except_table43
GCC_except_table44
GCC_except_table44
GCC_except_table44
GCC_except_table45
GCC_except_table45
GCC_except_table45
GCC_except_table46
GCC_except_table46
GCC_except_table46
GCC_except_table46
GCC_except_table46
GCC_except_table47
GCC_except_table48
GCC_except_table49
GCC_except_table49
GCC_except_table49
GCC_except_table5
GCC_except_table5
GCC_except_table5
GCC_except_table5
GCC_except_table5
GCC_except_table5
GCC_except_table50
GCC_except_table50
GCC_except_table50
GCC_except_table50
GCC_except_table51
GCC_except_table51
GCC_except_table52
GCC_except_table53
GCC_except_table54
GCC_except_table54
GCC_except_table54
GCC_except_table55
GCC_except_table56
GCC_except_table56
GCC_except_table56
GCC_except_table56
GCC_except_table56
GCC_except_table58
GCC_except_table58
GCC_except_table59
GCC_except_table59
GCC_except_table6
GCC_except_table6
GCC_except_table6
GCC_except_table6
GCC_except_table6
GCC_except_table6
GCC_except_table6
GCC_except_table6
GCC_except_table6
GCC_except_table6
GCC_except_table6
GCC_except_table6
GCC_except_table6
GCC_except_table6
GCC_except_table60
GCC_except_table60
GCC_except_table61
GCC_except_table61
GCC_except_table62
GCC_except_table65
GCC_except_table66
GCC_except_table68
GCC_except_table69
GCC_except_table7
GCC_except_table7
GCC_except_table7
GCC_except_table7
GCC_except_table7
GCC_except_table7
GCC_except_table7
GCC_except_table7
GCC_except_table7
GCC_except_table7
GCC_except_table7
GCC_except_table7
GCC_except_table73
GCC_except_table74
GCC_except_table75
GCC_except_table75
GCC_except_table76
GCC_except_table78
GCC_except_table79
GCC_except_table8
GCC_except_table8
GCC_except_table8
GCC_except_table8
GCC_except_table8
GCC_except_table8
GCC_except_table8
GCC_except_table8
GCC_except_table8
GCC_except_table8
GCC_except_table8
GCC_except_table81
GCC_except_table82
GCC_except_table83
GCC_except_table84
GCC_except_table85
GCC_except_table85
GCC_except_table86
GCC_except_table87
GCC_except_table87
GCC_except_table88
GCC_except_table88
GCC_except_table88
GCC_except_table89
GCC_except_table9
GCC_except_table9
GCC_except_table9
GCC_except_table9
GCC_except_table9
GCC_except_table9
GCC_except_table9
GCC_except_table9
GCC_except_table9
GCC_except_table9
GCC_except_table9
GCC_except_table9
GCC_except_table9
GCC_except_table9
GCC_except_table9
GCC_except_table90
GCC_except_table90
GCC_except_table92
GCC_except_table92
GCC_except_table97
GCC_except_table99
GCC_except_table99
_.memset_pattern
_.memset_pattern
_CreateInterface
_DevMsg
_Error
_Four_Fours
_GetCPUInformation
_IVP_Hash_crctab
_Msg
_Plat_ExitProcess
_SinCosTable
_ThreadGetCurrentId
_ThreadInterlockedAssignIf
_ThreadInterlockedAssignIf64
_ThreadInterlockedExchange
_Warning
__DefaultRuneLocale
__GLOBAL__sub_I_convar.stdout.rel_tf_osx_builder.55430.mXKsKU.ii
__GLOBAL__sub_I_ivp_ball.stdout.rel_tf_osx_builder.10307.It2xwh.ii
__GLOBAL__sub_I_ivp_better.stdout.rel_tf_osx_builder.81829.TC1avr.ii
__GLOBAL__sub_I_ivp_enviro.stdout.rel_tf_osx_builder.10325.Z6qK07.ii
__GLOBAL__sub_I_ivp_mindis.stdout.rel_tf_osx_builder.81671.TDyHEf.ii
__GLOBAL__sub_I_ivp_sim_un.stdout.rel_tf_osx_builder.10420.hFCi1s.ii
__GLOBAL__sub_I_main.stdout.rel_tf_osx_builder.56174.ZYlseN.ii
__GLOBAL__sub_I_physics_co.stdout.rel_tf_osx_builder.82129.gMxQYd.ii
__GLOBAL__sub_I_physics_co.stdout.rel_tf_osx_builder.82130.ClzXHt.ii
__GLOBAL__sub_I_physics_ma.stdout.rel_tf_osx_builder.10957.9WEFpC.ii
__GLOBAL__sub_I_physics_mo.stdout.rel_tf_osx_builder.10962.ylLdmq.ii
__GLOBAL__sub_I_physics_ob.stdout.rel_tf_osx_builder.10969.2WBolP.ii
__GLOBAL__sub_I_physics_sh.stdout.rel_tf_osx_builder.10977.niwKtK.ii
__GLOBAL__sub_I_physics_sp.stdout.rel_tf_osx_builder.82185.gmdyF3.ii
__GLOBAL__sub_I_physics_ve.stdout.rel_tf_osx_builder.82186.1K54Y0.ii
__GLOBAL__sub_I_physics_vi.stdout.rel_tf_osx_builder.10989.ZSVGR6.ii
__GLOBAL__sub_I_polyhedron.stdout.rel_tf_osx_builder.80955.n5Bdem.ii
__GLOBAL__sub_I_sse.stdout.rel_tf_osx_builder.9376.gxVesc.ii
__GLOBAL__sub_I_trace.stdout.rel_tf_osx_builder.11002.P2XAwF.ii
__GLOBAL__sub_I_utlbuffer.stdout.rel_tf_osx_builder.8986.vt30zT.ii
__GLOBAL__sub_I_utlsymbol.stdout.rel_tf_osx_builder.55484.zcRfnN.ii
__GLOBAL__sub_I_vphysics_s.stdout.rel_tf_osx_builder.11003.b0fFJp.ii
__Unwind_Resume
__Z10V_snprintfPciPKcz
__Z10V_strlowerPc
__Z10qh_addhashPvP4setTij
__Z10qh_divzerodddPj
__Z10qh_errexitiP6facetTP6ridgeT
__Z10qh_getareaP6facetT
__Z10qh_gethashiP4setTiiPv
__Z10qh_memfreePvi
__Z10qh_meminitP7__sFILE
__Z10qh_memsizei
__Z10qh_pointidPd
__Z10qh_setcopyP4setTi
__Z10qh_setfreePP4setT
__Z10qh_setlastP4setT
__Z10qh_setsizeP4setT
__Z10qh_settempi
__Z10qh_setzeroP4setTii
__Z11AngleMatrixRK6QAngleRK6VectorR11matrix3x4_t
__Z11ClearBoundsR6VectorS0_
__Z11DataMapInitI21vehicle_wheelparams_tEP9datamap_tPT_
__Z11DataMapInitI25vehicle_operatingparams_tEP9datamap_tPT_
__Z11DataMapInitI33vphysics_save_cshadowcontroller_tEP9datamap_tPT_
__Z11InitLeafmapP17IVP_Compact_LedgeP9leafmap_t
__Z11ivp_messagePKcz
__Z11qh_addpointPdP6facetTj
__Z11qh_allstatAv
__Z11qh_allstatBv
__Z11qh_allstatCv
__Z11qh_allstatDv
__Z11qh_allstatEv
__Z11qh_allstatFv
__Z11qh_allstatGv
__Z11qh_allstatHv
__Z11qh_allstatIv
__Z11qh_delfacetP6facetT
__Z11qh_delridgeP6ridgeT
__Z11qh_detvnormP7vertexTS0_P4setTPd
__Z11qh_distnormiPdS_S_
__Z11qh_errexit2iP6facetTS0_
__Z11qh_errprintPKcP6facetTS2_P6ridgeTP7vertexT
__Z11qh_findbestPdP6facetTjjjS_PjPi
__Z11qh_findgoodP6facetTi
__Z11qh_getanglePdS_
__Z11qh_markkeepP6facetT
__Z11qh_memalloci
__Z11qh_memsetupv
__Z11qh_newfacetv
__Z11qh_newridgev
__Z11qh_premergeP7vertexTdd
__Z11qh_printendP7__sFILEiP6facetTP4setTj
__Z11qh_setcheckP4setTPKci
__Z11qh_setequalP4setTS0_
__Z11qh_setindexP4setTPv
__Z11qh_setprintP7__sFILEPKcP4setT
__Z12AngleVectorsRK6QAngleP6VectorS3_S3_
__Z12CreateSpringP15IVP_EnvironmentP14CPhysicsObjectS2_P14springparams_t
__Z12MathLib_Initfffibbbb
__Z12MatrixAnglesRK11matrix3x4_tPf
__Z12VectorRotatePKfRK11matrix3x4_tPf
__Z12_InvRSquaredPKf
__Z12qh_buildhullv
__Z12qh_checkzeroj
__Z12qh_delvertexP7vertexT
__Z12qh_detjogglePdii
__Z12qh_detvridgeP7vertexT
__Z12qh_distplanePdP6facetTS_
__Z12qh_facetareaP6facetT
__Z12qh_freebuildj
__Z12qh_freeqhullj
__Z12qh_gausselimPPdiiPjS1_
__Z12qh_getcenterP4setT
__Z12qh_initbuildv
__Z12qh_initflagsPc
__Z12qh_maxabsvalPdi
__Z12qh_new_qhulliiPdjPcP7__sFILES2_
__Z12qh_newvertexPd
__Z12qh_normalizePdij
__Z12qh_point_addP4setTPdPv
__Z12qh_pointdistPdS_i
__Z12qh_postmergePKcddj
__Z12qh_precisionPKc
__Z12qh_scalelastPdiiddd
__Z12qh_setaddnthPP4setTiPv
__Z12qh_setappendPP4setTPv
__Z12qh_setdelnthP4setTi
__Z12qh_setlargerPP4setT
__Z12qh_setuniquePP4setTPv
__Z13FreeVisitHashP10CVisitHash
__Z13ParseKeyvaluePKcRA1024_cS2_
__Z13VectorIRotatePKfRK11matrix3x4_tPf
__Z13qh_all_mergesjj
__Z13qh_backnormalPPdiijS_Pj
__Z13qh_checkfacetP6facetTjPj
__Z13qh_detsimplexPdP4setTiPj
__Z13qh_detvridge3P7vertexTS0_
__Z13qh_getcentrumP6facetT
__Z13qh_makeridgesP6facetT
__Z13qh_maxsimplexiP4setTPdiPS0_
__Z13qh_mergecycleP6facetTS0_
__Z13qh_mergefacetP6facetTS0_PdS1_j
__Z13qh_nearvertexP6facetTPdS1_
__Z13qh_normalize2PdijS_Pj
__Z13qh_outerinnerP6facetTPdS1_
__Z13qh_pointfacetv
__Z13qh_printbeginP7__sFILEiP6facetTP4setTj
__Z13qh_printfacetP7__sFILEP6facetT
__Z13qh_printlistsv
__Z13qh_printridgeP7__sFILEP6ridgeT
__Z13qh_printstatsP7__sFILEiPi
__Z13qh_printvnormP7__sFILEP7vertexTS2_P4setTj
__Z13qh_resetlistsj
__Z13qh_scaleinputv
__Z13qh_setcompactP4setT
__Z13qh_setdellastP4setT
__Z13qh_setreplaceP4setTPvS1_
__Z13qh_settemppopv
__Z13qh_tracemergeP6facetTS0_
__Z13vphysics_initv
__Z14TraceGetAABB_rP6VectorS0_PK26IVP_Compact_Ledgetree_NodeR9CTraceIVP
__Z14V_vsnprintfRetPciPKcS_Pb
__Z14VirtualMeshPSIv
__Z14_SSE_RSqrtFastf
__Z14qh_appendfacetP6facetT
__Z14qh_checkconvexP6facetTi
__Z14qh_checkvertexP7vertexT
__Z14qh_countfacetsP6facetTP4setTjPiS3_S3_S3_S3_
__Z14qh_determinantPPdiPj
__Z14qh_detroundoffv
__Z14qh_eachvoronoiP7__sFILEPFvS0_P7vertexTS2_P4setTjES2_j8qh_RIDGEj
__Z14qh_facet2pointP6facetTPPdS2_S1_
__Z14qh_facetcenterP4setT
__Z14qh_findbestnewPdP6facetTS_PjPi
__Z14qh_findhorizonPdP6facetTPiS2_
__Z14qh_freebuffersv
__Z14qh_furthestoutP6facetT
__Z14qh_getdistanceP6facetTS0_PdS1_
__Z14qh_getmergesetP6facetT
__Z14qh_initialhullP4setT
__Z14qh_joggleinputv
__Z14qh_markvoronoiP6facetTP4setTjPjPi
__Z14qh_mergeridgesP6facetTS0_
__Z14qh_nextridge3dP6ridgeTP6facetTPP7vertexT
__Z14qh_outcoplanarv
__Z14qh_pointvertexv
__Z14qh_printafacetP7__sFILEiP6facetTj
__Z14qh_printcenterP7__sFILEiPKcP6facetT
__Z14qh_printfacetsP7__sFILEiP6facetTP4setTj
__Z14qh_printmatrixP7__sFILEPKcPPdii
__Z14qh_printpoint3P7__sFILEPd
__Z14qh_printpointsP7__sFILEPKcP4setT
__Z14qh_printvertexP7__sFILEP7vertexT
__Z14qh_printvridgeP7__sFILEP7vertexTS2_P4setTj
__Z14qh_removefacetP6facetT
__Z14qh_rotateinputPPd
__Z14qh_scalepointsPdiiS_S_
__Z14qh_setdelaunayiiPd
__Z14qh_setfeasiblei
__Z14qh_setfreelongPP4setT
__Z14qh_settempfreePP4setT
__Z14qh_settemppushP4setT
__Z14qh_settruncateP4setTi
__Z15BuildGammaTablefffi
__Z15ConVar_RegisteriP23IConCommandBaseAccessor
__Z15MatrixGetColumnRK11matrix3x4_tiR6Vector
__Z15VectorTransformPKfRK11matrix3x4_tPf
__Z15qh_appendvertexP7vertexT
__Z15qh_baseverticesP6facetT
__Z15qh_buildtracingPdP6facetT
__Z15qh_check_maxoutv
__Z15qh_checkflippedP6facetTPdj
__Z15qh_checkpolygonP6facetT
__Z15qh_clearcenters9qh_CENTER
__Z15qh_crossproductiPdS_S_
__Z15qh_facet3vertexP6facetT
__Z15qh_findgood_allP6facetT
__Z15qh_findgooddistPdP6facetTS_PS1_
__Z15qh_forcedmergesPj
__Z15qh_furthestnextv
__Z15qh_gram_schmidtiPPd
__Z15qh_infiniteloopP6facetT
__Z15qh_inthresholdsPdS_
__Z15qh_makenewfacetP4setTjP6facetT
__Z15qh_memfreeshortPiS_
__Z15qh_mergefacet2dP6facetTS0_
__Z15qh_mergesimplexP6facetTS0_j
__Z15qh_nearcoplanarv
__Z15qh_newhashtablei
__Z15qh_nextfurthestPP6facetT
__Z15qh_partitionallP4setTPdi
__Z15qh_prependfacetP6facetTPS0_
__Z15qh_printcentrumP7__sFILEP6facetTd
__Z15qh_printspheresP7__sFILEP4setTd
__Z15qh_printsummaryP7__sFILE
__Z15qh_printvoronoiP7__sFILEiP6facetTP4setTj
__Z15qh_projectinputv
__Z15qh_projectpointPdP6facetTd
__Z15qh_randomfactorv
__Z15qh_randommatrixPdiPS_
__Z15qh_removevertexP7vertexT
__Z15qh_renamevertexP7vertexTS0_P4setTP6facetTS4_
__Z15qh_rotatepointsPdiiPS_
__Z15qh_setdelsortedP4setTPv
__Z15qh_sethalfspaceiPdPS_S_S_S_
__Z15qh_updatetestedP6facetTS0_
__Z15qh_vertexridgesP7vertexT
__Z16AddPointToBoundsRK6VectorRS_S2_
__Z16ConcatTransformsRK11matrix3x4_tS1_RS_
__Z16TraceGetExtent_rPK26IVP_Compact_Ledgetree_NodeR9CTraceIVPRK6VectorRfRS4_
__Z16VectorITransformPKfRK11matrix3x4_tPf
__Z16_SSE_InvRSquaredPKf
__Z16_VectorNormalizeR6Vector
__Z16ivp_free_alignedPv
__Z16qh_allstatisticsv
__Z16qh_createsimplexP4setT
__Z16qh_deletevisiblev
__Z16qh_facetverticesP6facetTP4setTj
__Z16qh_findbestsharpPdPP6facetTS_Pi
__Z16qh_flippedmergesP6facetTPj
__Z16qh_initqhull_memv
__Z16qh_makenewfacetsPd
__Z16qh_makenewplanesv
__Z16qh_matchneighborP6facetTiiPi
__Z16qh_matchverticesiP4setTiS0_PiPj
__Z16qh_memstatisticsP7__sFILE
__Z16qh_mergeverticesP4setTPS0_
__Z16qh_orientoutsideP6facetT
__Z16qh_printend4geomP7__sFILEP6facetTPij
__Z16qh_printextremesP7__sFILEP6facetTP4setTi
__Z16qh_printvdiagramP7__sFILEiP6facetTP4setTj
__Z16qh_printverticesP7__sFILEPKcP4setT
__Z16qh_projectpointsPaiPdiiS0_i
__Z16qh_setappend_setPP4setTS0_
__Z16qh_setequal_skipP4setTiS0_i
__Z16qh_setfacetplaneP6facetT
__Z16qh_user_memsizesv
__Z17CharacterSetBuildP14characterset_tPKc
__Z17ComputeControllerR17IVP_U_Float_PointRKS_S2_ffPS_
__Z17ComputeControllerR17IVP_U_Float_PointRKS_ffffPS_
__Z17ConVar_Unregisterv
__Z17ConvertMatrixToHLRK12IVP_U_MatrixR11matrix3x4_t
__Z17CreateVirtualMeshRK19virtualmeshparams_t
__Z17GetTempPolyhedrontttt
__Z17ParseFileInternalPKcPcPbP14characterset_tm
__Z17SavePhysicsObjectRK16physsaveparams_tP14CPhysicsObject
__Z17SavePhysicsSpringRK16physsaveparams_tP14CPhysicsSpring
__Z17SetIdentityMatrixR11matrix3x4_t
__Z17qh_appendmergesetP6facetTS0_9mergeTypePd
__Z17qh_facetintersectP6facetTS0_PiS1_i
__Z17qh_find_newvertexP7vertexTP4setTS2_
__Z17qh_freestatisticsv
__Z17qh_hashridge_findP4setTiP6ridgeTP7vertexTS4_Pi
__Z17qh_initstatisticsv
__Z17qh_initthresholdsPc
__Z17qh_mark_dupridgesP6facetT
__Z17qh_matchnewfacetsv
__Z17qh_meminitbuffersiiiii
__Z17qh_mergecycle_allP6facetTPj
__Z17qh_mergeneighborsP6facetTS0_
__Z17qh_partitionpointPdP6facetT
__Z17qh_printfacetlistP6facetTP4setTj
__Z17qh_printhashtableP7__sFILE
__Z17qh_printline3geomP7__sFILEPdS1_S1_
__Z17qh_printpointvectP7__sFILEPdS1_S1_dS1_
__Z17qh_printstatlevelP7__sFILEii
__Z17qh_produce_outputv
__Z17qh_reduceverticesv
__Z17qh_updateverticesv
__Z17qh_voronoi_centeriP4setT
__Z18ConvertMatrixToIVPRK11matrix3x4_tR12IVP_U_Matrix
__Z18Sys_GetFactoryThisv
__Z18_SSE_RSqrtAccuratef
__Z18ivp_malloc_alignedii
__Z18qh_attachnewfacetsv
__Z18qh_initialverticesiP4setTPdi
__Z18qh_initqhull_startP7__sFILES0_S0_
__Z18qh_matchduplicatesP6facetTiiPi
__Z18qh_maydropneighborP6facetT
__Z18qh_merge_nonconvexP6facetTS0_9mergeType
__Z18qh_printextremes_dP7__sFILEP6facetTP4setTi
__Z18qh_printfacet2geomP7__sFILEP6facetTPd
__Z18qh_printfacet2mathP7__sFILEP6facetTi
__Z18qh_printfacet3mathP7__sFILEP6facetTi
__Z18qh_printpoints_outP7__sFILEP6facetTP4setTi
__Z18qh_printstatisticsP7__sFILEPKc
__Z18qh_printvneighborsP7__sFILEP6facetTP4setTj
__Z18qh_setdelnthsortedP4setTi
__Z18qh_setequal_exceptP4setTPvS0_S1_
__Z18qh_settempfree_allv
__Z18qh_test_vneighborsv
__Z18qh_vertexintersectPP4setTS0_
__Z18qh_vertexneighborsv
__Z19ConvertRotationToHLRK10IVP_U_QuatR6QAngle
__Z19ConvertRotationToHLRK13IVP_U_Matrix3R6QAngle
__Z19CreatePhysicsObjectP19CPhysicsEnvironmentPK12CPhysCollideiRK6VectorRK6QAngleP14objectparams_tb
__Z19CreatePhysicsSphereP19CPhysicsEnvironmentfiRK6VectorRK6QAngleP14objectparams_tb
__Z19PackLedgeIntoBufferP12packedhull_tR10CUtlBufferPK17IVP_Compact_LedgeRK17virtualmeshlist_t
__Z19QuaternionAxisAngleRK10QuaternionR6VectorRf
__Z19TransformIVPToLocalRK11IVP_U_PointRS_P15IVP_Real_Objectb
__Z19TransformLocalToIVPRK17IVP_U_Float_PointR11IVP_U_PointP15IVP_Real_Objectb
__Z19TransformLocalToIVPRK17IVP_U_Float_PointRS_P15IVP_Real_Objectb
__Z19qh_checkflipped_allP6facetT
__Z19qh_findbestneighborP6facetTPdS1_S1_
__Z19qh_partitionvisiblejPi
__Z19qh_printextremes_2dP7__sFILEP6facetTP4setTi
__Z19qh_printfacetheaderP7__sFILEP6facetT
__Z19qh_printfacetridgesP7__sFILEP6facetT
__Z19qh_redundant_vertexP7vertexT
__Z19qh_setappend2ndlastPP4setTPv
__Z19qh_sethalfspace_alliiPdS_
__Z19qh_test_appendmergeP6facetTS0_
__Z20ConvertRotationToIVPRK6QAngleR10IVP_U_Quat
__Z20ConvertRotationToIVPRK6QAngleR13IVP_U_Matrix3
__Z20CreateObjectPairHashv
__Z20CreateSurfaceManagerPK12CPhysCollideRs
__Z20IsExternalConstraintP14IVP_ControllerPv
__Z20MaterialIndexDataOpsv
__Z20RestorePhysicsObjectRK19physrestoreparams_tPP14CPhysicsObject
__Z20RestorePhysicsSpringRK19physrestoreparams_tPP14CPhysicsSpring
__Z20SeedRandomGeneratorsv
__Z20_VectorNormalizeFastR6Vector
__Z20p_link_triangle_selfP12IVP_Triangle
__Z20qh_build_withrestartv
__Z20qh_collectstatisticsv
__Z20qh_facetarea_simplexiPdP4setTP7vertexTjS_S_
__Z20qh_initqhull_buffersv
__Z20qh_initqhull_globalsPdiij
__Z20qh_mergecycle_facetsP6facetTS0_
__Z20qh_mergecycle_ridgesP6facetTS0_
__Z20qh_partitioncoplanarPdP6facetTS_
__Z20qh_printfacet3vertexP7__sFILEP6facetTi
__Z20qh_printneighborhoodP7__sFILEiP6facetTS2_j
__Z20qh_renameridgevertexP6ridgeTP7vertexTS2_
__Z20qh_sethyperplane_detiPPdS_jS_S_Pj
__Z21ConnectTier1LibrariesPPFPvPKcPiEi
__Z21CreateFixedConstraintP15IVP_EnvironmentP14CPhysicsObjectS2_P23IPhysicsConstraintGroupRK24constraint_fixedparams_t
__Z21CreateFluidControllerP15IVP_EnvironmentP14CPhysicsObjectP13fluidparams_t
__Z21CreateHingeConstraintP15IVP_EnvironmentP14CPhysicsObjectS2_P23IPhysicsConstraintGroupRK31constraint_limitedhingeparams_t
__Z21SavePhysicsConstraintRK16physsaveparams_tP18CPhysicsConstraint
__Z21qh_makenew_simplicialP6facetTP7vertexTPi
__Z21qh_printallstatisticsP7__sFILEPKc
__Z21qh_printhelp_singularP7__sFILE
__Z22CreateFrictionSnapshotP15IVP_Real_Object
__Z22CreateLengthConstraintP15IVP_EnvironmentP14CPhysicsObjectS2_P23IPhysicsConstraintGroupRK25constraint_lengthparams_t
__Z22CreateMotionControllerP19CPhysicsEnvironmentP12IMotionEvent
__Z22CreateObjectFromBufferP19CPhysicsEnvironmentPvPhjb
__Z22CreatePlayerControllerP14CPhysicsObject
__Z22CreatePulleyConstraintP15IVP_EnvironmentP14CPhysicsObjectS2_P23IPhysicsConstraintGroupRK25constraint_pulleyparams_t
__Z22CreateShadowControllerP14CPhysicsObjectbb
__Z22OutputCollideDebugInfoPK12CPhysCollide
__Z22qh_getmergeset_initialP6facetT
__Z22qh_rename_sharedvertexP7vertexTP6facetT
__Z22qh_sethyperplane_gaussiPPdS_jS_S_Pj
__Z22qh_setnew_delnthsortedP4setTiii
__Z22qh_vertexintersect_newP4setTS0_
__Z23CreateInterfaceInternalPKcPi
__Z23CreateRagdollConstraintP15IVP_EnvironmentP14CPhysicsObjectS2_P23IPhysicsConstraintGroupRK26constraint_ragdollparams_t
__Z23CreateSlidingConstraintP15IVP_EnvironmentP14CPhysicsObjectS2_P23IPhysicsConstraintGroupRK26constraint_slidingparams_t
__Z23CreateVPhysicsKeyParserPKc
__Z23CreateVehicleControllerP19CPhysicsEnvironmentP14CPhysicsObjectRK15vehicleparams_tjP17IPhysicsGameTrace
__Z23DestroyFrictionSnapshotP24IPhysicsFrictionSnapshot
__Z23DestroyPlayerControllerP24IPhysicsPlayerController
__Z23qh_merge_degenredundantv
__Z23qh_mergecycle_neighborsP6facetTS0_
__Z23qh_printhelp_degenerateP7__sFILE
__Z23qh_remove_extraverticesP6facetT
__Z24CreatePhysicsEnvironmentv
__Z24DestroyVPhysicsKeyParserP18IVPhysicsKeyParser
__Z24DisconnectTier1Librariesv
__Z24GetOppositeSynapseObjectP20IVP_Synapse_Friction
__Z24PostRestorePhysicsObjectv
__Z24RestorePhysicsConstraintRK19physrestoreparams_tPP18CPhysicsConstraint
__Z24_SSE_VectorNormalizeFastR6Vector
__Z24qh_degen_redundant_facetP6facetT
__Z24qh_makenew_nonsimplicialP6facetTP7vertexTPi
__Z24qh_mergecycle_vneighborsP6facetTS0_
__Z24qh_mergevertex_neighborsP6facetTS0_
__Z24qh_order_vertexneighborsP7vertexT
__Z25ComputeShadowControllerHLP14CPhysicsObjectRK24hlshadowcontrol_params_tff
__Z25qh_neighbor_intersectionsP7vertexT
__Z25qh_printfacet2geom_pointsP7__sFILEPdS1_P6facetTdS1_
__Z25qh_printfacet3geom_pointsP7__sFILEP4setTP6facetTdPd
__Z26ComputeShadowControllerIVPP15IVP_Real_ObjectR22shadowcontrol_params_tff
__Z26ConvertCoordinateAxisToIVPi
__Z26CreateBallsocketConstraintP15IVP_EnvironmentP14CPhysicsObjectS2_P23IPhysicsConstraintGroupRK29constraint_ballsocketparams_t
__Z26SavePhysicsConstraintGroupRK16physsaveparams_tP23CPhysicsConstraintGroup
__Z26SavePhysicsFluidControllerRK16physsaveparams_tP23CPhysicsFluidController
__Z27SavePhysicsMotionControllerRK16physsaveparams_tP24IPhysicsMotionController
__Z27SavePhysicsPlayerControllerRK16physsaveparams_tP17CPlayerController
__Z27SavePhysicsShadowControllerRK16physsaveparams_tP24IPhysicsShadowController
__Z28CreatePhysicsConstraintGroupP15IVP_EnvironmentRK24constraint_groupparams_t
__Z28GetClientDataForHkConstraintP23hk_Breakable_Constraint
__Z28SavePhysicsVehicleControllerRK16physsaveparams_tP18CVehicleController
__Z28qh_degen_redundant_neighborsP6facetTS0_
__Z29RestorePhysicsConstraintGroupRK19physrestoreparams_tPP23CPhysicsConstraintGroup
__Z29RestorePhysicsFluidControllerRK19physrestoreparams_tPP23CPhysicsFluidController
__Z29ivp_core_get_surface_speed_osP8IVP_CoreP15IVP_Real_ObjectPK17IVP_U_Float_PointPS3_
__Z29qh_printfacet3geom_simplicialP7__sFILEP6facetTPd
__Z29qh_printfacet4geom_simplicialP7__sFILEP6facetTPd
__Z30RestorePhysicsMotionControllerRK19physrestoreparams_tPP24IPhysicsMotionController
__Z30RestorePhysicsPlayerControllerRK19physrestoreparams_tPP17CPlayerController
__Z30RestorePhysicsShadowControllerRK19physrestoreparams_tPP24IPhysicsShadowController
__Z30ivp_set_message_print_functionPFvPKcE
__Z30qh_printhyperplaneintersectionP7__sFILEP6facetTS2_P4setTPd
__Z31RestorePhysicsVehicleControllerRK19physrestoreparams_tPP18CVehicleController
__Z31qh_printfacetNvertex_simplicialP7__sFILEP6facetTi
__Z32qh_printfacet3geom_nonsimplicialP7__sFILEP6facetTPd
__Z32qh_printfacet4geom_nonsimplicialP7__sFILEP6facetTPd
__Z33PostRestorePhysicsConstraintGroupv
__Z34ShouldOverrideWheelContactFrictionPfP15IVP_Real_ObjectS1_P17IVP_U_Float_Point
__Z34qh_printfacetNvertex_nonsimplicialP7__sFILEP6facetTii
__Z38RestorePhysicsShadowControllerInternalRK19physrestoreparams_tPP24IPhysicsShadowControllerP14CPhysicsObject
__Z40CreateObjectFromBuffer_UseExistingMemoryP19CPhysicsEnvironmentPvPhjP14CPhysicsObject
__Z47ControlPhysicsPlayerControllerAttachment_SilentP24IPhysicsPlayerControllerP15IVP_Real_Objectb
__Z47ControlPhysicsShadowControllerAttachment_SilentP24IPhysicsShadowControllerP15IVP_Real_Objectb
__Z6DevMsgPKcz
__Z6SinCosfPfS_
__Z6V_atofPKc
__Z6_sqrtff
__Z6p_freePv
__Z7_rsqrtff
__Z7qh_randv
__Z8ivp_randv
__Z8p_callocii
__Z8p_mallocj
__Z8p_strcmpPKcS0_
__Z8p_strdupPKc
__Z8p_strlenPKc
__Z8qh_qhullv
__Z8qh_setinP4setTPv
__Z8qh_srandi
__Z9V_stricmpPKcS0_
__Z9V_strncpyPcPKci
__Z9_SSE_Sqrtf
__Z9ivp_srandi
__Z9qh_init_BPdiij
__Z9qh_maxminPdii
__Z9qh_optionPKcPiPd
__Z9qh_setdelP4setTPv
__Z9qh_setnewi
__Z9qh_strtodPKcPPc
__ZGVZ11DataMapInitI15vehicleparams_tEP9datamap_tPT_E10nameHolder
__ZGVZ11DataMapInitI19physcollideheader_tEP9datamap_tPT_E10nameHolder
__ZGVZ11DataMapInitI20vehicle_axleparams_tEP9datamap_tPT_E10nameHolder
__ZGVZ11DataMapInitI20vehicle_bodyparams_tEP9datamap_tPT_E10nameHolder
__ZGVZ11DataMapInitI21vehicle_wheelparams_tEP9datamap_tPT_E10nameHolder
__ZGVZ11DataMapInitI21vehicle_wheelparams_tEP9datamap_tPT_E8dataDesc
__ZGVZ11DataMapInitI22compactsurfaceheader_tEP9datamap_tPT_E10nameHolder
__ZGVZ11DataMapInitI22vehicle_engineparams_tEP9datamap_tPT_E10nameHolder
__ZGVZ11DataMapInitI24vehicle_steeringparams_tEP9datamap_tPT_E10nameHolder
__ZGVZ11DataMapInitI25vehicle_operatingparams_tEP9datamap_tPT_E10nameHolder
__ZGVZ11DataMapInitI25vehicle_operatingparams_tEP9datamap_tPT_E8dataDesc
__ZGVZ11DataMapInitI26vehicle_suspensionparams_tEP9datamap_tPT_E10nameHolder
__ZGVZ11DataMapInitI30vphysics_save_cphysicsobject_tEP9datamap_tPT_E10nameHolder
__ZGVZ11DataMapInitI30vphysics_save_cphysicsspring_tEP9datamap_tPT_E10nameHolder
__ZGVZ11DataMapInitI31vphysics_save_constraintfixed_tEP9datamap_tPT_E10nameHolder
__ZGVZ11DataMapInitI31vphysics_save_constrainthinge_tEP9datamap_tPT_E10nameHolder
__ZGVZ11DataMapInitI32vphysics_save_constraintlength_tEP9datamap_tPT_E10nameHolder
__ZGVZ11DataMapInitI32vphysics_save_constraintpulley_tEP9datamap_tPT_E10nameHolder
__ZGVZ11DataMapInitI32vphysics_save_motioncontroller_tEP9datamap_tPT_E10nameHolder
__ZGVZ11DataMapInitI33vphysics_save_constraintragdoll_tEP9datamap_tPT_E10nameHolder
__ZGVZ11DataMapInitI33vphysics_save_constraintsliding_tEP9datamap_tPT_E10nameHolder
__ZGVZ11DataMapInitI33vphysics_save_cshadowcontroller_tEP9datamap_tPT_E10nameHolder
__ZGVZ11DataMapInitI33vphysics_save_cshadowcontroller_tEP9datamap_tPT_E8dataDesc
__ZGVZ11DataMapInitI34vphysics_save_cphysicsconstraint_tEP9datamap_tPT_E10nameHolder
__ZGVZ11DataMapInitI34vphysics_save_cvehiclecontroller_tEP9datamap_tPT_E10nameHolder
__ZGVZ11DataMapInitI35vphysics_save_constraintaxislimit_tEP9datamap_tPT_E10nameHolder
__ZGVZ11DataMapInitI35vphysics_save_constraintbreakable_tEP9datamap_tPT_E10nameHolder
__ZGVZ11DataMapInitI35vphysics_save_shadowcontrolparams_tEP9datamap_tPT_E10nameHolder
__ZGVZ11DataMapInitI36vphysics_save_constraintballsocket_tEP9datamap_tPT_E10nameHolder
__ZGVZ11DataMapInitI39vphysics_save_cphysicsconstraintgroup_tEP9datamap_tPT_E10nameHolder
__ZGVZL18GetTmpObjectMatrixP15IVP_Real_ObjectE15coreShiftMatrix
__ZGVZN19CPhysicsEnvironment8SimulateEfE11autoMutex__
__ZGVZN20IVP_Material_Manager21get_material_by_indexEP15IVP_Real_ObjectPK11IVP_U_PointiE6simple
__ZGVZN9hk_Memory12get_instanceEvE17s_memory_instance
__ZL10g_BreakSet
__ZL11nullsurface
__ZL11s_nCVarFlag
__ZL11vec2_origin
__ZL11vec2_origin
__ZL11vec2_origin
__ZL11vec2_origin
__ZL11vec2_origin
__ZL11vec2_origin
__ZL11vec2_origin
__ZL11vec2_origin
__ZL11vec2_origin
__ZL11vec2_origin
__ZL11vec2_origin
__ZL11vec2_origin
__ZL11vec2_origin
__ZL11vec2_origin
__ZL11vec2_origin
__ZL11vec2_origin
__ZL11vec2_origin
__ZL11vec4_origin
__ZL11vec4_origin
__ZL11vec4_origin
__ZL11vec4_origin
__ZL11vec4_origin
__ZL11vec4_origin
__ZL11vec4_origin
__ZL11vec4_origin
__ZL11vec4_origin
__ZL11vec4_origin
__ZL11vec4_origin
__ZL11vec4_origin
__ZL11vec4_origin
__ZL12BuildVertMapR9vertmap_tPK6VectoriPK17IVP_Compact_Ledge
__ZL12s_bConnected
__ZL12vec2_invalid
__ZL12vec2_invalid
__ZL12vec2_invalid
__ZL12vec2_invalid
__ZL12vec2_invalid
__ZL12vec2_invalid
__ZL12vec2_invalid
__ZL12vec2_invalid
__ZL12vec2_invalid
__ZL12vec2_invalid
__ZL12vec2_invalid
__ZL12vec2_invalid
__ZL12vec2_invalid
__ZL12vec2_invalid
__ZL12vec2_invalid
__ZL12vec2_invalid
__ZL12vec2_invalid
__ZL12vec4_invalid
__ZL12vec4_invalid
__ZL12vec4_invalid
__ZL12vec4_invalid
__ZL12vec4_invalid
__ZL12vec4_invalid
__ZL12vec4_invalid
__ZL12vec4_invalid
__ZL12vec4_invalid
__ZL12vec4_invalid
__ZL12vec4_invalid
__ZL12vec4_invalid
__ZL12vec4_invalid
__ZL13IVP_RAND_SEED
__ZL13g_MeshManager
__ZL13qh_intcomparePKvS0_
__ZL13s_EmptyConVar
__ZL13s_VPhysPtrMap
__ZL13s_bMMXEnabled
__ZL13s_bRegistered
__ZL13s_bSSEEnabled
__ZL14NoPhysSaveFuncRK16physsaveparams_tPv
__ZL14lineartoscreen
__ZL14s_bSSE2Enabled
__ZL15FlushFrameLocksv
__ZL15lineartotexture
__ZL15qh_compareanglePKvS0_
__ZL15qh_comparemergePKvS0_
__ZL15qh_comparevisitPKvS0_
__ZL15texturetolinear
__ZL16g_print_function
__ZL16s_nDLLIdentifier
__ZL17NoPhysRestoreFuncRK19physrestoreparams_tPPv
__ZL17ivp_uqr_mod_table
__ZL17s_DefaultAccessor
__ZL18InitObjectTemplateR24IVP_Template_Real_ObjectiP14objectparams_tb
__ZL18g_MainDLLInterface
__ZL20g_CleanupSymbolTable
__ZL20qh_compare_facetareaPKvS0_
__ZL21qh_compare_facetmergePKvS0_
__ZL21qh_compare_facetvisitPKvS0_
__ZL21s_DefaultDebugOverlay
__ZL22g_MaterialIndexDataOps
__ZL22s_TempMemoryPolyhedron
__ZL23g_Mathlib_GammaToLinear
__ZL23g_Mathlib_LinearToGamma
__ZL23g_PostRestoreObjectList
__ZL23s_BuildVirtualMeshMutex
__ZL25g_BreakSetIncludingColons
__ZL25ivu_string_print_functionPKc
__ZL26ivu_default_print_functionPKc
__ZL29g_ConstraintGroupActivateList
__ZL29s_TempMemoryPolyhedron_Buffer
__ZL2f3
__ZL31ivp_surface_manager_ball_global
__ZL35s_pConversionArrays_NoEscConversion
__ZL39__g_CreateCPhysicsInterfaceIPhysics_reg
__ZL3f05
__ZL40s_pConversionArrays_StringCharConversion
__ZL43__CreateCPhysicsInterfaceIPhysics_interfacev
__ZL48__g_CreateCPhysicsCollisionIPhysicsCollision_reg
__ZL52__CreateCPhysicsCollisionIPhysicsCollision_interfacev
__ZL54__g_CreateCPhysicsSurfacePropsIPhysicsSurfaceProps_reg
__ZL58__CreateCPhysicsSurfacePropsIPhysicsSurfaceProps_interfacev
__ZL6g_xneg
__ZL6g_xpos
__ZL6g_yneg
__ZL6g_ypos
__ZL6g_zneg
__ZL6g_zpos
__ZL7axisMap
__ZN10CUtlBuffer11GetOverflowEi
__ZN10CUtlBuffer11PutOverflowEi
__ZN10CUtlBuffer17SetExternalBufferEPviii
__ZN10CUtlBuffer18AddNullTerminationEv
__ZN10CUtlBuffer3PutEPKvi
__ZN10CUtlBufferC1Eiii
__ZN10CUtlBufferC2Eiii
__ZN10CUtlMemoryI15UtlRBTreeNode_tIN15CUtlSymbolTable16CStringPoolIndexEtEtE4GrowEi
__ZN10CUtlMemoryI15UtlRBTreeNode_tIN25CPhysicsListenerCollision10corepair_tEtEtE4GrowEi
__ZN10CUtlMemoryI15UtlRBTreeNode_tIN7CUtlMapIPvS2_tPFbRKS2_S4_EE6Node_tEtEtE4GrowEi
__ZN10CUtlMemoryI19UtlLinkedListElem_tIN13CUtlMultiListIN16CDataManagerBase22resource_lru_element_tEtE6List_tEtEtE4GrowEi
__ZN10CUtlMemoryI19UtlLinkedListElem_tIN13CUtlMultiListIPvtE6List_tEtEtE4GrowEi
__ZN10CUtlRBTreeIN15CUtlSymbolTable16CStringPoolIndexEtNS0_5CLessE10CUtlMemoryI15UtlRBTreeNode_tIS1_tEtEE10RotateLeftEt
__ZN10CUtlRBTreeIN15CUtlSymbolTable16CStringPoolIndexEtNS0_5CLessE10CUtlMemoryI15UtlRBTreeNode_tIS1_tEtEE11RotateRightEt
__ZN10CUtlRBTreeIN15CUtlSymbolTable16CStringPoolIndexEtNS0_5CLessE10CUtlMemoryI15UtlRBTreeNode_tIS1_tEtEE15InsertRebalanceEt
__ZN10CUtlRBTreeIN15CUtlSymbolTable16CStringPoolIndexEtNS0_5CLessE10CUtlMemoryI15UtlRBTreeNode_tIS1_tEtEE5PurgeEv
__ZN10CUtlRBTreeIN15CUtlSymbolTable16CStringPoolIndexEtNS0_5CLessE10CUtlMemoryI15UtlRBTreeNode_tIS1_tEtEE6InsertERKS1_
__ZN10CUtlRBTreeIN15CUtlSymbolTable16CStringPoolIndexEtNS0_5CLessE10CUtlMemoryI15UtlRBTreeNode_tIS1_tEtEE7NewNodeEv
__ZN10CUtlRBTreeIN15CUtlSymbolTable16CStringPoolIndexEtNS0_5CLessE10CUtlMemoryI15UtlRBTreeNode_tIS1_tEtEED2Ev
__ZN10CUtlRBTreeIN25CPhysicsListenerCollision10corepair_tEtPFbRKS1_S3_E10CUtlMemoryI15UtlRBTreeNode_tIS1_tEtEE10RotateLeftEt
__ZN10CUtlRBTreeIN25CPhysicsListenerCollision10corepair_tEtPFbRKS1_S3_E10CUtlMemoryI15UtlRBTreeNode_tIS1_tEtEE11RotateRightEt
__ZN10CUtlRBTreeIN25CPhysicsListenerCollision10corepair_tEtPFbRKS1_S3_E10CUtlMemoryI15UtlRBTreeNode_tIS1_tEtEE15InsertRebalanceEt
__ZN10CUtlRBTreeIN25CPhysicsListenerCollision10corepair_tEtPFbRKS1_S3_E10CUtlMemoryI15UtlRBTreeNode_tIS1_tEtEE15RemoveRebalanceEt
__ZN10CUtlRBTreeIN25CPhysicsListenerCollision10corepair_tEtPFbRKS1_S3_E10CUtlMemoryI15UtlRBTreeNode_tIS1_tEtEE5PurgeEv
__ZN10CUtlRBTreeIN25CPhysicsListenerCollision10corepair_tEtPFbRKS1_S3_E10CUtlMemoryI15UtlRBTreeNode_tIS1_tEtEE6InsertES3_
__ZN10CUtlRBTreeIN25CPhysicsListenerCollision10corepair_tEtPFbRKS1_S3_E10CUtlMemoryI15UtlRBTreeNode_tIS1_tEtEE6UnlinkEt
__ZN10CUtlRBTreeIN25CPhysicsListenerCollision10corepair_tEtPFbRKS1_S3_E10CUtlMemoryI15UtlRBTreeNode_tIS1_tEtEE7NewNodeEv
__ZN10CUtlRBTreeIN25CPhysicsListenerCollision10corepair_tEtPFbRKS1_S3_E10CUtlMemoryI15UtlRBTreeNode_tIS1_tEtEED2Ev
__ZN10CUtlRBTreeIN7CUtlMapIPvS1_tPFbRKS1_S3_EE6Node_tEtNS6_8CKeyLessE10CUtlMemoryI15UtlRBTreeNode_tIS7_tEtEE10RotateLeftEt
__ZN10CUtlRBTreeIN7CUtlMapIPvS1_tPFbRKS1_S3_EE6Node_tEtNS6_8CKeyLessE10CUtlMemoryI15UtlRBTreeNode_tIS7_tEtEE11RotateRightEt
__ZN10CUtlRBTreeIN7CUtlMapIPvS1_tPFbRKS1_S3_EE6Node_tEtNS6_8CKeyLessE10CUtlMemoryI15UtlRBTreeNode_tIS7_tEtEE15InsertRebalanceEt
__ZN10CUtlRBTreeIN7CUtlMapIPvS1_tPFbRKS1_S3_EE6Node_tEtNS6_8CKeyLessE10CUtlMemoryI15UtlRBTreeNode_tIS7_tEtEE5PurgeEv
__ZN10CUtlRBTreeIN7CUtlMapIPvS1_tPFbRKS1_S3_EE6Node_tEtNS6_8CKeyLessE10CUtlMemoryI15UtlRBTreeNode_tIS7_tEtEE6InsertERKS7_
__ZN10CUtlRBTreeIN7CUtlMapIPvS1_tPFbRKS1_S3_EE6Node_tEtNS6_8CKeyLessE10CUtlMemoryI15UtlRBTreeNode_tIS7_tEtEE7NewNodeEv
__ZN10CUtlRBTreeIN7CUtlMapIPvS1_tPFbRKS1_S3_EE6Node_tEtNS6_8CKeyLessE10CUtlMemoryI15UtlRBTreeNode_tIS7_tEtEED2Ev
__ZN10CUtlSymbol14s_pSymbolTableE
__ZN10CUtlVectorI10CUtlSymbol10CUtlMemoryIS0_iEED2Ev
__ZN10CUtlVectorI11bboxcache_t10CUtlMemoryIS0_iEED2Ev
__ZN10CUtlVectorI20CPhysicsCollisionSet10CUtlMemoryIS0_iEED2Ev
__ZN10CUtlVectorI24postrestore_objectlist_t10CUtlMemoryIS0_iEED1Ev
__ZN10CUtlVectorI24postrestore_objectlist_t10CUtlMemoryIS0_iEED2Ev
__ZN10CUtlVectorI8CSurface10CUtlMemoryIS0_iEE9AddToTailERKS0_
__ZN10CUtlVectorI8CSurface10CUtlMemoryIS0_iEED2Ev
__ZN10CUtlVectorIN16CCollisionSolver16realobjectpair_tE10CUtlMemoryIS1_iEED2Ev
__ZN10CUtlVectorIP14CPhysicsObject10CUtlMemoryIS1_iEE9AddToTailERKS1_
__ZN10CUtlVectorIP14CPhysicsObject10CUtlMemoryIS1_iEED2Ev
__ZN10CUtlVectorIP14IPhysicsObject10CUtlMemoryIS1_iEE20InsertMultipleBeforeEii
__ZN10CUtlVectorIP14IPhysicsObject10CUtlMemoryIS1_iEE9AddToTailERKS1_
__ZN10CUtlVectorIP14IPhysicsObject10CUtlMemoryIS1_iEED2Ev
__ZN10CUtlVectorIP15IVP_Real_Object10CUtlMemoryIS1_iEED2Ev
__ZN10CUtlVectorIP16IDeleteQueueItem10CUtlMemoryIS1_iEED2Ev
__ZN10CUtlVectorIP19IPhysicsEnvironment10CUtlMemoryIS1_iEED2Ev
__ZN10CUtlVectorIP23CPhysCollideVirtualMesh10CUtlMemoryIS1_iEED2Ev
__ZN10CUtlVectorIP23CPhysicsConstraintGroup10CUtlMemoryIS1_iEED1Ev
__ZN10CUtlVectorIP23CPhysicsConstraintGroup10CUtlMemoryIS1_iEED2Ev
__ZN10CUtlVectorIP23CPhysicsFluidController10CUtlMemoryIS1_iEED2Ev
__ZN10CUtlVectorIP24IPhysicsPlayerController10CUtlMemoryIS1_iEED2Ev
__ZN10CUtlVectorIP8IVP_Core10CUtlMemoryIS1_iEED2Ev
__ZN10CUtlVectorIPK26IVP_Compact_Ledgetree_Node23CUtlMemoryFixedGrowableIS2_Lm64EiEE12InsertBeforeEi
__ZN10CUtlVectorIPK26IVP_Compact_Ledgetree_Node23CUtlMemoryFixedGrowableIS2_Lm64EiEED2Ev
__ZN10CUtlVectorIPN15CUtlSymbolTable12StringPool_tE10CUtlMemoryIS2_iEED2Ev
__ZN10CUtlVectorIPc10CUtlMemoryIS0_iEED2Ev
__ZN10CUtlVectorIPv10CUtlMemoryIS0_iEE9AddToTailERKS0_
__ZN10CUtlVectorIPv10CUtlMemoryIS0_iEED2Ev
__ZN10CUtlVectorIh10CUtlMemoryIhiEE20InsertMultipleBeforeEii
__ZN10CUtlVectorIh10CUtlMemoryIhiEED1Ev
__ZN10CUtlVectorIh10CUtlMemoryIhiEED2Ev
__ZN10CUtlVectorIi10CUtlMemoryIiiEE10GrowVectorEi
__ZN10CUtlVectorIi10CUtlMemoryIiiEE20InsertMultipleBeforeEii
__ZN10CUtlVectorIi10CUtlMemoryIiiEED2Ev
__ZN10CVProfNode10EnterScopeEv
__ZN10CVProfNode10GetSubNodeEPKciS1_i
__ZN10CVProfNode9ExitScopeEv
__ZN10IVP_Anchor11init_anchorEP12IVP_ActuatorP19IVP_Template_Anchor
__ZN10IVP_Anchor35object_is_going_to_be_deleted_eventEP15IVP_Real_Object
__ZN10IVP_ObjectD0Ev
__ZN10IVP_ObjectD1Ev
__ZN10IVP_U_Quat12normize_quatEv
__ZN10IVP_U_Quat13set_mult_quatEPKS_S1_
__ZN10IVP_U_Quat14set_quaternionEPK13IVP_U_Matrix3
__ZN10IVP_U_Quat15set_invert_multEPKS_S1_
__ZN10IVP_U_Quat17fast_normize_quatEv
__ZN10IVP_U_Quat17set_div_unit_quatEPKS_S1_
__ZN10IVP_U_Quat20set_invert_unit_quatEPKS_
__ZN10IVP_U_Quat22set_very_fast_multipleEPK17IVP_U_Float_Pointd
__ZN10IVP_U_Quat24set_interpolate_smoothlyEPKS_S1_d
__ZN10IVP_U_Quat27set_fast_multiple_with_clipEPK17IVP_U_Float_Pointd
__ZN10hk_Link_EF19get_controller_nameEv
__ZN10hk_Link_EF23get_controller_priorityEv
__ZN10hk_Link_EF24do_simulation_controllerEP13IVP_Event_SimP12IVP_U_VectorI8IVP_CoreE
__ZN10hk_Link_EF28anchor_will_be_deleted_eventEP10IVP_Anchor
__ZN10hk_Link_EF31get_associated_controlled_coresEv
__ZN10hk_Link_EF33core_is_going_to_be_deleted_eventEP8IVP_Core
__ZN10hk_Link_EFD0Ev
__ZN10hk_Link_EFD1Ev
__ZN10hk_Matrix312set_mul3_invERK11hk_RotationRKS_
__ZN10hk_Matrix36rotateEif
__ZN10hk_Matrix38set_mul3ERKS_S1_
__ZN10hk_Vector315set_rotated_dirERK11hk_RotationRKS_
__ZN10hk_Vector319set_rotated_inv_dirERK11hk_RotationRKS_
__ZN10hk_Vector319set_transformed_posERK12hk_TransformRKS_
__ZN11CNormalList11ClampVectorERK6Vectorf
__ZN11FourVectors12RotateManyByEPS_jRK11matrix3x4_t
__ZN11IVP_ClusterC1EP15IVP_Environment
__ZN11IVP_ClusterD0Ev
__ZN11IVP_ClusterD1Ev
__ZN11IVP_ClusterD2Ev
__ZN11IVP_Mindist12init_mindistEP15IVP_Real_ObjectS1_PK16IVP_Compact_EdgeS4_
__ZN11IVP_Mindist12is_recursiveEv
__ZN11IVP_Mindist14recalc_mindistEv
__ZN11IVP_Mindist19mindist_rescue_pushEv
__ZN11IVP_Mindist19simulate_time_eventEP15IVP_Environment
__ZN11IVP_Mindist22recalc_invalid_mindistEv
__ZN11IVP_Mindist26exact_mindist_went_invalidEP19IVP_Mindist_Manager
__ZN11IVP_Mindist27update_exact_mindist_eventsE8IVP_BOOL22IVP_MINDIST_EVENT_HINT
__ZN11IVP_Mindist31create_cp_in_advance_pretensionEP15IVP_Real_Objectf
__ZN11IVP_Mindist32try_to_generate_managed_frictionEPP19IVP_Friction_SystemP8IVP_BOOLP19IVP_Simulation_UnitS3_
__ZN11IVP_Mindist33mindist_hull_limit_exceeded_eventEf
__ZN11IVP_Mindist9do_impactEv
__ZN11IVP_MindistC1EP15IVP_EnvironmentP23IVP_Collision_Delegator
__ZN11IVP_MindistC2EP15IVP_EnvironmentP23IVP_Collision_Delegator
__ZN11IVP_MindistD0Ev
__ZN11IVP_MindistD1Ev
__ZN11IVP_MindistD2Ev
__ZN11IVP_OV_NodeD2Ev
__ZN11IVP_PolygonC1EP11IVP_ClusterP18IVP_SurfaceManagerPK24IVP_Template_Real_ObjectPK10IVP_U_QuatPK11IVP_U_Point
__ZN11IVP_PolygonD0Ev
__ZN11IVP_PolygonD1Ev
__ZN11IVP_Synapse21hull_manager_is_resetEff
__ZN11IVP_Synapse25hull_limit_exceeded_eventEP16IVP_Hull_Managerf
__ZN11IVP_Synapse41hull_manager_is_going_to_be_deleted_eventEP16IVP_Hull_Manager
__ZN11IVP_Synapse8get_typeEv
__ZN11IVP_SynapseD0Ev
__ZN11IVP_SynapseD1Ev
__ZN11IVP_U_Hesse10calc_hesseEPK11IVP_U_PointS2_S2_
__ZN11IVP_U_Hesse10calc_hesseEPK17IVP_U_Float_PointS2_S2_
__ZN11IVP_U_Hesse7normizeEv
__ZN11IVP_U_PlainC1EPK11IVP_U_Hesse
__ZN11IVP_U_Point12fast_normizeEv
__ZN11IVP_U_Point12set_crossingEP11IVP_U_HesseS1_S1_
__ZN11IVP_U_Point15set_interpolateEPK17IVP_U_Float_PointS2_d
__ZN11IVP_U_Point15set_interpolateEPKS_S1_d
__ZN11IVP_U_Point18calc_an_orthogonalEPKS_
__ZN11IVP_U_Point18calc_cross_productEPKS_S1_
__ZN11IVP_U_Point24real_length_plus_normizeEv
__ZN11IVP_U_Point33solve_quadratic_equation_accurateEPKS_
__ZN11IVP_U_Point6rotateE20IVP_COORDINATE_INDEXf
__ZN11IVP_U_Point7normizeEv
__ZN11IVP_U_Point8line_maxEPKS_
__ZN11IVP_U_Point8line_minEPKS_
__ZN11hk_Rotation3setERK13hk_Quaternion
__ZN12CDataManagerI13CMeshInstance17virtualmeshlist_tPS0_16CThreadFastMutexE11GetRealSizeEPv
__ZN12CDataManagerI13CMeshInstance17virtualmeshlist_tPS0_16CThreadFastMutexE14CreateResourceERKS1_b
__ZN12CDataManagerI13CMeshInstance17virtualmeshlist_tPS0_16CThreadFastMutexE22DestroyResourceStorageEPv
__ZN12CDataManagerI13CMeshInstance17virtualmeshlist_tPS0_16CThreadFastMutexE4LockEv
__ZN12CDataManagerI13CMeshInstance17virtualmeshlist_tPS0_16CThreadFastMutexE6UnlockEv
__ZN12CDataManagerI13CMeshInstance17virtualmeshlist_tPS0_16CThreadFastMutexE7TryLockEv
__ZN12CDataManagerI13CMeshInstance17virtualmeshlist_tPS0_16CThreadFastMutexED0Ev
__ZN12CDataManagerI13CMeshInstance17virtualmeshlist_tPS0_16CThreadFastMutexED1Ev
__ZN12CDeleteProxyI18IPhysicsConstraintE6DeleteEv
__ZN12CDeleteProxyI18IPhysicsConstraintED0Ev
__ZN12CDeleteProxyI18IPhysicsConstraintED1Ev
__ZN12CEmptyConVar8SetValueEPKc
__ZN12CEmptyConVar8SetValueEf
__ZN12CEmptyConVar8SetValueEi
__ZN12CEmptyConVarD0Ev
__ZN12CEmptyConVarD1Ev
__ZN12CPhysCollide20SetOrthographicAreasERK6Vector
__ZN12CPhysCollide21UnserializeFromBufferEPKcjib
__ZN12CPhysCollide24ComputeOrthographicAreasEf
__ZN12CThreadEvent3SetEv
__ZN12CThreadEventC1Eb
__ZN12CTraceSolver17SweepSingleConvexEv
__ZN12CTraceSolver21SolveMeshIntersectionER9simplex_t
__ZN12CTraceSolver7DoSweepEv
__ZN12IVP_Actuator19get_controller_nameEv
__ZN12IVP_Actuator23get_controller_priorityEv
__ZN12IVP_Actuator28anchor_will_be_deleted_eventEP10IVP_Anchor
__ZN12IVP_Actuator31get_associated_controlled_coresEv
__ZN12IVP_Actuator33core_is_going_to_be_deleted_eventEP8IVP_Core
__ZN12IVP_ActuatorD0Ev
__ZN12IVP_ActuatorD1Ev
__ZN12IVP_KK_Input28calc_quad_distance_edge_edgeEv
__ZN12IVP_KK_InputC1EPK16IVP_Compact_EdgeS2_P21IVP_Cache_Ledge_PointS4_
__ZN12IVP_KK_InputC2EPK16IVP_Compact_EdgeS2_P21IVP_Cache_Ledge_PointS4_
__ZN12IVP_MaterialD0Ev
__ZN12IVP_MaterialD1Ev
__ZN12IVP_MaterialD2Ev
__ZN12IVP_Triangle10calc_hesseEv
__ZN12IVP_TriangleD0Ev
__ZN12IVP_TriangleD1Ev
__ZN12IVP_U_Matrix11real_invertEd
__ZN12IVP_U_Matrix13set_transposeEPKS_
__ZN12IVP_U_Matrix17init_rot_multipleEPK11IVP_U_Pointd
__ZN12IVP_U_Matrix4initEv
__ZN12IVP_U_Matrix8shift_osEPK11IVP_U_Point
__ZN12IVP_U_Memory14neuer_sp_blockEj
__ZN12IVP_U_Memory20free_mem_transactionEv
__ZN12IVP_U_Memory26init_mem_transaction_usageEPci
__ZN12IVP_U_MemoryC1Ev
__ZN12IVP_U_MemoryD1Ev
__ZN12IVP_U_VectorI8IVP_CoreED1Ev
__ZN12InterfaceReg16s_pInterfaceRegsE
__ZN12InterfaceRegC1EPFPvvEPKc
__ZN12hk_Transform22set_identity_transformEv
__ZN13CMeshInstance4InitERK17virtualmeshlist_t
__ZN13CPhysPolysoupC2Ev
__ZN13CPhysicsTrace11SweepBoxIVPERK5Ray_tjP11IConvexInfoPK12CPhysCollideRK6VectorRK6QAngleP10CGameTrace
__ZN13CPhysicsTrace11SweepBoxIVPERK6VectorS2_S2_S2_PK12CPhysCollideS2_RK6QAngleP10CGameTrace
__ZN13CPhysicsTrace21IsBoxIntersectingConeERK6VectorS2_RK15truncatedcone_t
__ZN13CPhysicsTrace7GetAABBEP6VectorS1_PK12CPhysCollideRKS0_RK6QAngle
__ZN13CPhysicsTrace8SweepIVPERK6VectorS2_PK12CPhysCollideRK6QAngleS5_S2_S8_P10CGameTrace
__ZN13CPhysicsTrace9GetExtentEPK12CPhysCollideRK6VectorRK6QAngleS5_
__ZN13CPhysicsTraceC1Ev
__ZN13CPhysicsTraceD1Ev
__ZN13CSleepObjects18UpdateSleepObjectsEv
__ZN13CSleepObjects19event_object_frozenEP16IVP_Event_Object
__ZN13CSleepObjects20ProcessActiveObjectsEP15IVP_EnvironmentP22IPhysicsCollisionEvent
__ZN13CSleepObjects20event_object_createdEP16IVP_Event_Object
__ZN13CSleepObjects20event_object_deletedEP16IVP_Event_Object
__ZN13CSleepObjects20event_object_revivedEP16IVP_Event_Object
__ZN13CSleepObjectsD0Ev
__ZN13CSleepObjectsD1Ev
__ZN13CThreadRWLock11UnlockWriteEv
__ZN13CThreadRWLock11WaitForReadEv
__ZN13CThreadRWLock12LockForWriteEv
__ZN13CUtlMultiListIN16CDataManagerBase22resource_lru_element_tEtE10LinkBeforeEttt
__ZN13CUtlMultiListIN16CDataManagerBase22resource_lru_element_tEtE5AllocEv
__ZN13CUtlMultiListIN16CDataManagerBase22resource_lru_element_tEtED2Ev
__ZN13CUtlMultiListIPvtE10LinkBeforeEttt
__ZN13CUtlMultiListIPvtE5AllocEv
__ZN13CUtlMultiListIPvtE6RemoveEtt
__ZN13CUtlMultiListIPvtED2Ev
__ZN13CVoidPairHashD0Ev
__ZN13CVoidPairHashD1Ev
__ZN13IVP_3D_Solver15calc_nullstelleE8IVP_TimeS0_dddP15IVP_Real_ObjectS2_
__ZN13IVP_3D_Solver27find_first_t_for_value_collEdd8IVP_TimeS0_P18IVP_U_Matrix_CacheS2_PdPS0_
__ZN13IVP_3D_Solver30find_first_t_for_value_max_devEd8IVP_TimeS0_iP18IVP_U_Matrix_CacheS2_PdPS0_
__ZN13IVP_CFEP_HashD0Ev
__ZN13IVP_CFEP_HashD1Ev
__ZN13IVP_Collision38delegator_is_going_to_be_deleted_eventEP23IVP_Collision_Delegator
__ZN13IVP_CollisionD0Ev
__ZN13IVP_CollisionD1Ev
__ZN13IVP_Diff_HashI10IVP_MM_CMP13IVP_U_FVectorI13IVP_CollisionES2_14IVP_MM_CMP_KeyE13check_elementEPS4_S6_
__ZN13IVP_Diff_HashI10IVP_MM_CMP13IVP_U_FVectorI13IVP_CollisionES2_14IVP_MM_CMP_KeyEC2EPS3_PsiPS4_
__ZN13IVP_Diff_HashI10IVP_OO_CMP13IVP_U_FVectorI13IVP_CollisionES2_15IVP_Real_ObjectE13check_elementEPS4_S6_
__ZN13IVP_Diff_HashI10IVP_OO_CMP13IVP_U_FVectorI13IVP_CollisionES2_15IVP_Real_ObjectEC2EPS3_PsiPS4_
__ZN13IVP_U_Matrix310transpose3Ev
__ZN13IVP_U_Matrix314set_transpose3EPKS_
__ZN13IVP_U_Matrix318init_normized3_colEPK11IVP_U_Point20IVP_COORDINATE_INDEX
__ZN13IVP_U_Matrix318init_normized3_colEPK11IVP_U_Point20IVP_COORDINATE_INDEXS2_
__ZN13IVP_U_Matrix35init3Ev
__ZN13P_Sur_2D_Line16is_crossing_lineEPS_
__ZN13P_Sur_2D_Line18overlaps_with_lineEPS_
__ZN13hk_Array_Base8grow_memEi
__ZN13hk_Constraint18get_constraint_dofEv
__ZN13hk_Constraint19get_constraint_typeEv
__ZN13hk_ConstraintC2EP26hk_Local_Constraint_SystemP13hk_Rigid_BodyS3_23IVP_CONTROLLER_PRIORITYi
__ZN13hk_ConstraintD0Ev
__ZN13hk_ConstraintD1Ev
__ZN13hk_ConstraintD2Ev
__ZN13hk_Quaternion3setERK11hk_Rotation
__ZN13hk_Rigid_Body22get_transform_next_PSIEf
__ZN14CDefConvexInfo11GetContentsEi
__ZN14CPhysicsObject10EnableDragEb
__ZN14CPhysicsObject10NotifyWakeEv
__ZN14CPhysicsObject10SetDampingEPKfS1_
__ZN14CPhysicsObject10SetInertiaERK6Vector
__ZN14CPhysicsObject11AddVelocityEPK6VectorS2_
__ZN14CPhysicsObject11NotifySleepEv
__ZN14CPhysicsObject11SetContentsEj
__ZN14CPhysicsObject11SetGameDataEPv
__ZN14CPhysicsObject11SetPositionERK6VectorRK6QAngleb
__ZN14CPhysicsObject11SetVelocityEPK6VectorS2_
__ZN14CPhysicsObject12BecomeHingedEi
__ZN14CPhysicsObject12EnableMotionEb
__ZN14CPhysicsObject12RemoveHingedEv
__ZN14CPhysicsObject12SetGameFlagsEt
__ZN14CPhysicsObject12SetGameIndexEt
__ZN14CPhysicsObject12UpdateShadowERK6VectorRK6QAnglebf
__ZN14CPhysicsObject13BecomeTriggerEv
__ZN14CPhysicsObject13EnableGravityEb
__ZN14CPhysicsObject13RemoveTriggerEv
__ZN14CPhysicsObject15WriteToTemplateER30vphysics_save_cphysicsobject_t
__ZN14CPhysicsObject16ApplyForceCenterERK6Vector
__ZN14CPhysicsObject16ApplyForceOffsetERK6VectorS2_
__ZN14CPhysicsObject16EnableCollisionsEb
__ZN14CPhysicsObject16InitFromTemplateEP19CPhysicsEnvironmentPvRK30vphysics_save_cphysicsobject_t
__ZN14CPhysicsObject16SetBuoyancyRatioEf
__ZN14CPhysicsObject16SetCallbackFlagsEt
__ZN14CPhysicsObject16SetMaterialIndexEi
__ZN14CPhysicsObject17ApplyTorqueCenterERK6Vector
__ZN14CPhysicsObject17SetPositionMatrixERK11matrix3x4_tb
__ZN14CPhysicsObject18RecomputeDragBasesEv
__ZN14CPhysicsObject18SetDragCoefficientEPfS0_
__ZN14CPhysicsObject20ComputeShadowControlERK24hlshadowcontrol_params_tff
__ZN14CPhysicsObject20RecheckContactPointsEv
__ZN14CPhysicsObject22CreateFrictionSnapshotEv
__ZN14CPhysicsObject22GetVPhysicsEnvironmentEv
__ZN14CPhysicsObject22RecheckCollisionFilterEv
__ZN14CPhysicsObject22RemoveShadowControllerEv
__ZN14CPhysicsObject23DestroyFrictionSnapshotEP24IPhysicsFrictionSnapshot
__ZN14CPhysicsObject24SetVelocityInstantaneousEPK6VectorS2_
__ZN14CPhysicsObject4InitEPK12CPhysCollideP15IVP_Real_Objectifff
__ZN14CPhysicsObject4WakeEv
__ZN14CPhysicsObject5SleepEv
__ZN14CPhysicsObject7SetMassEf
__ZN14CPhysicsObject9SetShadowEffbb
__ZN14CPhysicsObjectD0Ev
__ZN14CPhysicsObjectD1Ev
__ZN14CPhysicsObjectD2Ev
__ZN14CPhysicsSpring12GetEndObjectEv
__ZN14CPhysicsSpring12GetEndpointsEP6VectorS1_
__ZN14CPhysicsSpring14GetStartObjectEv
__ZN14CPhysicsSpring15SetSpringLengthEf
__ZN14CPhysicsSpring16SetSpringDampingEf
__ZN14CPhysicsSpring17SetSpringConstantEf
__ZN14CPhysicsSpring19event_object_frozenEP16IVP_Event_Object
__ZN14CPhysicsSpring20event_object_createdEP16IVP_Event_Object
__ZN14CPhysicsSpring20event_object_deletedEP16IVP_Event_Object
__ZN14CPhysicsSpring20event_object_revivedEP16IVP_Event_Object
__ZN14CPhysicsSpringD0Ev
__ZN14CPhysicsSpringD1Ev
__ZN14CPhysicsSpringD2Ev
__ZN14CUtlLinkedListIN13CUtlMultiListIN16CDataManagerBase22resource_lru_element_tEtE6List_tEtLb0Et10CUtlMemoryI19UtlLinkedListElem_tIS4_tEtEE10LinkBeforeEtt
__ZN14CUtlLinkedListIN13CUtlMultiListIN16CDataManagerBase22resource_lru_element_tEtE6List_tEtLb0Et10CUtlMemoryI19UtlLinkedListElem_tIS4_tEtEE13AllocInternalEb
__ZN14CUtlLinkedListIN13CUtlMultiListIN16CDataManagerBase22resource_lru_element_tEtE6List_tEtLb0Et10CUtlMemoryI19UtlLinkedListElem_tIS4_tEtEED2Ev
__ZN14CUtlLinkedListIN13CUtlMultiListIPvtE6List_tEtLb0Et10CUtlMemoryI19UtlLinkedListElem_tIS3_tEtEE10LinkBeforeEtt
__ZN14CUtlLinkedListIN13CUtlMultiListIPvtE6List_tEtLb0Et10CUtlMemoryI19UtlLinkedListElem_tIS3_tEtEE13AllocInternalEb
__ZN14CUtlLinkedListIN13CUtlMultiListIPvtE6List_tEtLb0Et10CUtlMemoryI19UtlLinkedListElem_tIS3_tEtEED2Ev
__ZN14CVPhysicsParse10ParseFluidEP7fluid_tP19IVPhysicsKeyHandler
__ZN14CVPhysicsParse10ParseSolidEP7solid_tP19IVPhysicsKeyHandler
__ZN14CVPhysicsParse11ParseCustomEPvP19IVPhysicsKeyHandler
__ZN14CVPhysicsParse12ParseVehicleEP15vehicleparams_tP19IVPhysicsKeyHandler
__ZN14CVPhysicsParse16ParseVehicleAxleER20vehicle_axleparams_t
__ZN14CVPhysicsParse16ParseVehicleBodyER20vehicle_bodyparams_t
__ZN14CVPhysicsParse17ParseSurfaceTableEPiP19IVPhysicsKeyHandler
__ZN14CVPhysicsParse17ParseVehicleWheelER21vehicle_wheelparams_t
__ZN14CVPhysicsParse18ParseVehicleEngineER22vehicle_engineparams_t
__ZN14CVPhysicsParse19GetCurrentBlockNameEv
__ZN14CVPhysicsParse20ParseVehicleSteeringER24vehicle_steeringparams_t
__ZN14CVPhysicsParse22ParseRagdollConstraintEP26constraint_ragdollparams_tP19IVPhysicsKeyHandler
__ZN14CVPhysicsParse22ParseVehicleSuspensionER26vehicle_suspensionparams_t
__ZN14CVPhysicsParse23ParseVehicleEngineBoostER22vehicle_engineparams_t
__ZN14CVPhysicsParse8FinishedEv
__ZN14CVPhysicsParse9NextBlockEv
__ZN14CVPhysicsParse9SkipBlockEv
__ZN14CVPhysicsParseD0Ev
__ZN14CVPhysicsParseD1Ev
__ZN14ConCommandBase10CreateBaseEPKcS1_i
__ZN14ConCommandBase11s_pAccessorE
__ZN14ConCommandBase18s_pConCommandBasesE
__ZN14IVP_Car_SystemC2Ev
__ZN14IVP_Car_SystemD0Ev
__ZN14IVP_Car_SystemD1Ev
__ZN14IVP_Car_SystemD2Ev
__ZN14IVP_Constraint10deactivateEv
__ZN14IVP_Constraint15get_environmentEv
__ZN14IVP_Constraint17fix_rotation_axisE20IVP_COORDINATE_INDEX
__ZN14IVP_Constraint18free_rotation_axisE20IVP_COORDINATE_INDEX
__ZN14IVP_Constraint19limit_rotation_axisE20IVP_COORDINATE_INDEXff
__ZN14IVP_Constraint20fix_translation_axisE20IVP_COORDINATE_INDEX
__ZN14IVP_Constraint21free_translation_axisE20IVP_COORDINATE_INDEX
__ZN14IVP_Constraint22limit_translation_axisE20IVP_COORDINATE_INDEXff
__ZN14IVP_Constraint23change_fixing_point_RosEPK11IVP_U_Point
__ZN14IVP_Constraint23get_controller_priorityEv
__ZN14IVP_Constraint24change_rotation_axes_RosEPK13IVP_U_Matrix3
__ZN14IVP_Constraint27change_max_rotation_impulseE27IVP_CONSTRAINT_FORCE_EXCEEDf
__ZN14IVP_Constraint27change_translation_axes_RosEPK13IVP_U_Matrix3
__ZN14IVP_Constraint30change_max_translation_impulseE27IVP_CONSTRAINT_FORCE_EXCEEDf
__ZN14IVP_Constraint30change_target_fixing_point_RosEPK11IVP_U_Point
__ZN14IVP_Constraint31change_Aos_to_relaxe_constraintEv
__ZN14IVP_Constraint31change_Ros_to_relaxe_constraintEv
__ZN14IVP_Constraint31change_target_rotation_axes_RosEPK13IVP_U_Matrix3
__ZN14IVP_Constraint31get_associated_controlled_coresEv
__ZN14IVP_Constraint32get_minimum_simulation_frequencyEv
__ZN14IVP_Constraint33core_is_going_to_be_deleted_eventEP8IVP_Core
__ZN14IVP_Constraint34change_target_translation_axes_RosEPK13IVP_U_Matrix3
__ZN14IVP_Constraint8activateEv
__ZN14IVP_ConstraintC2Ev
__ZN14IVP_ConstraintD0Ev
__ZN14IVP_ConstraintD1Ev
__ZN14IVP_ConstraintD2Ev
__ZN14IVP_Controller10reset_timeE8IVP_Time
__ZN14IVP_Controller19get_controller_nameEv
__ZN14IVP_Controller32get_minimum_simulation_frequencyEv
__ZN14IVP_Controller33core_is_going_to_be_deleted_eventEP8IVP_Core
__ZN14IVP_ControllerD0Ev
__ZN14IVP_ControllerD1Ev
__ZN14IVP_OO_Watcher10get_ledgesEPPK17IVP_Compact_Ledge
__ZN14IVP_OO_Watcher11get_objectsEPP15IVP_Real_Object
__ZN14IVP_OO_Watcher25hull_limit_exceeded_eventEv
__ZN14IVP_OO_Watcher38collision_is_going_to_be_deleted_eventEP13IVP_Collision
__ZN14IVP_OO_WatcherC1EP23IVP_Collision_DelegatorP15IVP_Real_ObjectS3_
__ZN14IVP_OO_WatcherC2EP23IVP_Collision_DelegatorP15IVP_Real_ObjectS3_
__ZN14IVP_OO_WatcherD0Ev
__ZN14IVP_OO_WatcherD1Ev
__ZN14IVP_OO_WatcherD2Ev
__ZN14IVP_OV_Element16add_oo_collisionEP13IVP_Collision
__ZN14IVP_OV_Element19add_to_hull_managerEP16IVP_Hull_Managerd
__ZN14IVP_OV_Element19remove_oo_collisionEP13IVP_Collision
__ZN14IVP_OV_Element25hull_limit_exceeded_eventEP16IVP_Hull_Managerf
__ZN14IVP_OV_Element41hull_manager_is_going_to_be_deleted_eventEP16IVP_Hull_Manager
__ZN14IVP_OV_Element8get_typeEv
__ZN14IVP_OV_ElementC1EP15IVP_Real_Object
__ZN14IVP_OV_ElementD0Ev
__ZN14IVP_OV_ElementD1Ev
__ZN14IVP_OV_ElementD2Ev
__ZN14IVP_Ray_Solver22check_ray_against_ballEP8IVP_Ball
__ZN14IVP_Ray_SolverC2EPK23IVP_Ray_Solver_Template
__ZN14IVP_Ray_SolverD0Ev
__ZN14IVP_Ray_SolverD1Ev
__ZN14IVP_Synapse_OO25hull_limit_exceeded_eventEP16IVP_Hull_Managerf
__ZN14IVP_Synapse_OO41hull_manager_is_going_to_be_deleted_eventEP16IVP_Hull_Manager
__ZN14IVP_Synapse_OO8get_typeEv
__ZN14IVP_Synapse_OOD0Ev
__ZN14IVP_Synapse_OOD1Ev
__ZN14IVP_Time_Event19simulate_time_eventEP15IVP_Environment
__ZN14IVP_U_Min_Hash10remove_minEv
__ZN14IVP_U_Min_Hash20min_removed_at_indexEP19IVP_U_Min_Hash_Elemi
__ZN14IVP_U_Min_Hash3addEPvd
__ZN14IVP_U_Min_Hash6removeEPv
__ZN14IVP_U_Min_HashC1Ei
__ZN14IVP_U_Min_HashD1Ev
__ZN14IVP_U_Min_HashD2Ev
__ZN14IVP_U_Min_List19remove_minlist_elemEj
__ZN14IVP_U_Min_List3addEPvf
__ZN14IVP_U_Min_ListC1Ei
__ZN14IVP_U_Min_ListD1Ev
__ZN14IVP_point_hash14point_to_indexEP14IVP_Poly_Point
__ZN14IVP_point_hashD0Ev
__ZN14IVP_point_hashD1Ev
__ZN15CCollisionQuery11ConvexCountEv
__ZN15CCollisionQuery11GetGameDataEi
__ZN15CCollisionQuery13TriangleCountEi
__ZN15CCollisionQuery16GetTriangleVertsEiiP6Vector
__ZN15CCollisionQuery16SetTriangleVertsEiiPK6Vector
__ZN15CCollisionQuery24GetTriangleMaterialIndexEii
__ZN15CCollisionQuery24SetTriangleMaterialIndexEiii
__ZN15CCollisionQueryD0Ev
__ZN15CCollisionQueryD1Ev
__ZN15CDragController19get_controller_nameEv
__ZN15CDragController23get_controller_priorityEv
__ZN15CDragController24do_simulation_controllerEP13IVP_Event_SimP12IVP_U_VectorI8IVP_CoreE
__ZN15CDragControllerD0Ev
__ZN15CDragControllerD1Ev
__ZN15CObjectPairHash13AddObjectPairEPvS0_
__ZN15CObjectPairHash14IsObjectInHashEPv
__ZN15CObjectPairHash15AddToObjectListEPvS0_
__ZN15CObjectPairHash16RemoveObjectPairEPvS0_
__ZN15CObjectPairHash18IsObjectPairInHashEPvS0_
__ZN15CObjectPairHash20DestroyListForObjectEPvt
__ZN15CObjectPairHash20GetPairListForObjectEPviPS0_
__ZN15CObjectPairHash20RemoveFromObjectListEPvS0_
__ZN15CObjectPairHash21GetPairCountForObjectEPv
__ZN15CObjectPairHash23RemoveAllPairsForObjectEPv
__ZN15CObjectPairHashC2Ev
__ZN15CObjectPairHashD0Ev
__ZN15CObjectPairHashD1Ev
__ZN15CThreadLocalPtrI10CUtlVectorIP23CPhysCollideVirtualMesh10CUtlMemoryIS2_iEEED1Ev
__ZN15CTier1AppSystemI8IPhysicsLi0EE10DisconnectEv
__ZN15CTier1AppSystemI8IPhysicsLi0EE4InitEv
__ZN15CTier1AppSystemI8IPhysicsLi0EE7ConnectEPFPvPKcPiE
__ZN15CTier1AppSystemI8IPhysicsLi0EE8ShutdownEv
__ZN15CUtlSymbolTable9AddStringEPKc
__ZN15CUtlSymbolTableC2Eiib
__ZN15CUtlSymbolTableD2Ev
__ZN15IVP_Environment10reset_timeEv
__ZN15IVP_Environment11create_ballEPK17IVP_Template_BallPK24IVP_Template_Real_ObjectPK10IVP_U_QuatPK11IVP_U_Point
__ZN15IVP_Environment11set_gravityEP11IVP_U_Point
__ZN15IVP_Environment12create_forceEP18IVP_Template_Force
__ZN15IVP_Environment12simulate_psiE8IVP_Time
__ZN15IVP_Environment13create_springEP19IVP_Template_Spring
__ZN15IVP_Environment13create_torqueEP19IVP_Template_Torque
__ZN15IVP_Environment14create_polygonEP18IVP_SurfaceManagerPK24IVP_Template_Real_ObjectPK10IVP_U_QuatPK11IVP_U_Point
__ZN15IVP_Environment14simulate_dtimeEd
__ZN15IVP_Environment15add_revive_coreEP8IVP_Core
__ZN15IVP_Environment16revive_cores_PSIEv
__ZN15IVP_Environment16set_current_timeE8IVP_Time
__ZN15IVP_Environment17create_constraintEPK23IVP_Template_Constraint
__ZN15IVP_Environment17create_stabilizerEP23IVP_Template_Stabilizer
__ZN15IVP_Environment17create_suspensionEP23IVP_Template_Suspension
__ZN15IVP_Environment18remove_revive_coreEP8IVP_Core
__ZN15IVP_Environment18set_delta_PSI_timeEd
__ZN15IVP_Environment18simulate_time_stepEf
__ZN15IVP_Environment24fire_event_object_frozenEP16IVP_Event_Object
__ZN15IVP_Environment24fire_event_pre_collisionEP19IVP_Event_Collision
__ZN15IVP_Environment25fire_event_object_createdEP16IVP_Event_Object
__ZN15IVP_Environment25fire_event_object_deletedEP16IVP_Event_Object
__ZN15IVP_Environment25fire_event_object_revivedEP16IVP_Event_Object
__ZN15IVP_Environment25fire_event_post_collisionEP19IVP_Event_Collision
__ZN15IVP_Environment26add_listener_object_globalEP19IVP_Listener_Object
__ZN15IVP_Environment27fire_event_friction_createdEP18IVP_Event_Friction
__ZN15IVP_Environment27fire_event_friction_deletedEP18IVP_Event_Friction
__ZN15IVP_Environment28fire_event_constraint_brokenEP14IVP_Constraint
__ZN15IVP_Environment28fire_event_constraint_brokenEP23hk_Breakable_Constraint
__ZN15IVP_Environment28force_psi_on_next_simulationEv
__ZN15IVP_Environment29add_listener_collision_globalEP22IVP_Listener_Collision
__ZN15IVP_Environment29remove_listener_object_globalEP19IVP_Listener_Object
__ZN15IVP_Environment30add_listener_constraint_globalEP23IVP_Listener_Constraint
__ZN15IVP_Environment30get_global_collision_toleranceEv
__ZN15IVP_Environment30set_global_collision_toleranceEdd
__ZN15IVP_Environment32fire_event_friction_pair_createdEP22IVP_Friction_Core_Pair
__ZN15IVP_Environment32fire_event_friction_pair_deletedEP22IVP_Friction_Core_Pair
__ZN15IVP_Environment32remove_listener_collision_globalEP22IVP_Listener_Collision
__ZN15IVP_Environment33remove_listener_constraint_globalEP23IVP_Listener_Constraint
__ZN15IVP_Environment47fire_object_is_removed_from_collision_detectionEP15IVP_Real_Object
__ZN15IVP_EnvironmentC2EP23IVP_Environment_ManagerP27IVP_Application_EnvironmentPKcj
__ZN15IVP_EnvironmentD1Ev
__ZN15IVP_EnvironmentD2Ev
__ZN15IVP_Real_Object10reset_timeE8IVP_Time
__ZN15IVP_Real_Object10set_pinnedE8IVP_BOOL
__ZN15IVP_Real_Object11change_massEf
__ZN15IVP_Real_Object13insert_anchorEP10IVP_Anchor
__ZN15IVP_Real_Object13remove_anchorEP10IVP_Anchor
__ZN15IVP_Real_Object15delete_silentlyEv
__ZN15IVP_Real_Object16init_object_coreEP15IVP_EnvironmentPK24IVP_Template_Real_Object
__ZN15IVP_Real_Object18convert_to_phantomEPK20IVP_Template_Phantom
__ZN15IVP_Real_Object18disable_simulationEv
__ZN15IVP_Real_Object19add_listener_objectEP19IVP_Listener_Object
__ZN15IVP_Real_Object20async_push_object_wsEPK11IVP_U_PointPK17IVP_U_Float_Point
__ZN15IVP_Real_Object20calc_m_core_f_objectEP12IVP_U_Matrix
__ZN15IVP_Real_Object20ensure_in_simulationEv
__ZN15IVP_Real_Object21get_all_near_mindistsEv
__ZN15IVP_Real_Object22remove_listener_objectEP19IVP_Listener_Object
__ZN15IVP_Real_Object23set_new_m_object_f_coreEPK12IVP_U_Matrix
__ZN15IVP_Real_Object24ensure_in_simulation_nowEv
__ZN15IVP_Real_Object24recheck_collision_filterEv
__ZN15IVP_Real_Object25async_add_speed_object_wsEPK17IVP_U_Float_Point
__ZN15IVP_Real_Object25clear_internal_referencesEv
__ZN15IVP_Real_Object25delete_and_check_vicinityEv
__ZN15IVP_Real_Object26enable_collision_detectionE8IVP_BOOL
__ZN15IVP_Real_Object26force_grow_friction_systemEv
__ZN15IVP_Real_Object26recompile_material_changedEv
__ZN15IVP_Real_Object26set_new_quat_object_f_coreEPK10IVP_U_QuatPK11IVP_U_Point
__ZN15IVP_Real_Object27beam_object_to_new_positionEPK10IVP_U_QuatPK11IVP_U_Point8IVP_BOOL
__ZN15IVP_Real_Object28revive_object_for_simulationEv
__ZN15IVP_Real_Object29async_add_rot_speed_object_csEPK17IVP_U_Float_Point
__ZN15IVP_Real_Object30revive_nearest_objects_grow_fsEv
__ZN15IVP_Real_Object31recalc_exact_mindists_of_objectEv
__ZN15IVP_Real_Object32unlink_contact_points_for_objectEPS_
__ZN15IVP_Real_Object33recalc_invalid_mindists_of_objectEv
__ZN15IVP_Real_Object35get_collision_check_reference_countEv
__ZN15IVP_Real_Object37update_exact_mindist_events_of_objectEv
__ZN15IVP_Real_ObjectC2EP11IVP_ClusterP18IVP_SurfaceManagerPK24IVP_Template_Real_ObjectPK10IVP_U_QuatPK11IVP_U_Point
__ZN15IVP_Real_ObjectD0Ev
__ZN15IVP_Real_ObjectD1Ev
__ZN15IVP_Real_ObjectD2Ev
__ZN15IVP_VHash_Store11change_elemEPvS0_
__ZN15IVP_VHash_Store11remove_elemEPv
__ZN15IVP_VHash_Store11remove_elemEPvj
__ZN15IVP_VHash_Store6rehashEi
__ZN15IVP_VHash_Store8add_elemEPvS0_
__ZN15IVP_VHash_Store9find_elemEPv
__ZN15IVP_VHash_StoreC1Ei
__ZN15IVP_VHash_StoreC2Ei
__ZN15IVP_VHash_StoreD1Ev
__ZN15IVP_VHash_StoreD2Ev
__ZN15hk_Vector3_Util8perp_vecERK10hk_Vector3
__ZN15vehicleparams_t9m_DataMapE
__ZN16CCollisionSolver12CheckObjPairEP15IVP_Real_ObjectS1_
__ZN16CCollisionSolver17inter_penetrationEP11IVP_MindistP15IVP_Real_ObjectS3_d
__ZN16CCollisionSolver21max_velocity_exceededEP18IVP_Anomaly_LimitsP8IVP_CoreP17IVP_U_Float_Point
__ZN16CCollisionSolver27environment_will_be_deletedEP15IVP_Environment
__ZN16CCollisionSolver29max_collision_checks_exceededEi
__ZN16CCollisionSolver36max_contacts_exceeded_check_freezingEPP8IVP_Corei
__ZN16CCollisionSolver37check_objects_for_collision_detectionEP15IVP_Real_ObjectS1_
__ZN16CCollisionSolver38max_collisions_exceeded_check_freezingEP18IVP_Anomaly_LimitsP8IVP_Core
__ZN16CCollisionSolverD0Ev
__ZN16CCollisionSolverD1Ev
__ZN16CDataManagerBase12CreateHandleEb
__ZN16CDataManagerBase12LockResourceEP13memhandle_t__
__ZN16CDataManagerBase14EnsureCapacityEj
__ZN16CDataManagerBase14UnlockResourceEP13memhandle_t__
__ZN16CDataManagerBase15DestroyResourceEP13memhandle_t__
__ZN16CDataManagerBase17GetForFreeByIndexEt
__ZN16CDataManagerBase21StoreResourceInHandleEtPvj
__ZN16CDataManagerBase4LockEv
__ZN16CDataManagerBase6UnlockEv
__ZN16CDataManagerBase7TryLockEv
__ZN16CDataManagerBase8FlushAllEv
__ZN16CDataManagerBase9BreakLockEP13memhandle_t__
__ZN16CDataManagerBaseC2Ej
__ZN16CDataManagerBaseD0Ev
__ZN16CDataManagerBaseD1Ev
__ZN16CDataManagerBaseD2Ev
__ZN16CDefaultAccessor22RegisterConCommandBaseEP14ConCommandBase
__ZN16CPhysics_Airboat10IsBoostingEv
__ZN16CPhysics_Airboat11do_steeringEfb
__ZN16CPhysics_Airboat12PostRaycastsEP23IVP_Ray_Solver_TemplatePK12IVP_U_MatrixP26IVP_Raycast_Airboat_Impact
__ZN16CPhysics_Airboat13get_skid_infoEP19IVP_Wheel_Skid_Info
__ZN16CPhysics_Airboat14get_body_speedE20IVP_COORDINATE_INDEX
__ZN16CPhysics_Airboat14set_powerslideEff
__ZN16CPhysics_Airboat14update_boosterEf
__ZN16CPhysics_Airboat15update_throttleEf
__ZN16CPhysics_Airboat16DoSimulationDragEP26IVP_Raycast_Airboat_ImpactP13IVP_Event_Sim
__ZN16CPhysics_Airboat16SetWheelFrictionEif
__ZN16CPhysics_Airboat16activate_boosterEfff
__ZN16CPhysics_Airboat16get_wheel_torqueE13IVP_POS_WHEEL
__ZN16CPhysics_Airboat17do_steering_wheelE13IVP_POS_WHEELf
__ZN16CPhysics_Airboat17get_booster_delayEv
__ZN16CPhysics_Airboat19DoSimulationTurbineEP13IVP_Event_Sim
__ZN16CPhysics_Airboat19change_wheel_torqueE13IVP_POS_WHEELf
__ZN16CPhysics_Airboat19get_controller_nameEv
__ZN16CPhysics_Airboat20DoSimulationPontoonsEP26IVP_Raycast_Airboat_ImpactP13IVP_Event_Sim
__ZN16CPhysics_Airboat20DoSimulationSteeringEP13IVP_Event_Sim
__ZN16CPhysics_Airboat20InitRaycastCarWheelsEPK23IVP_Template_Car_System
__ZN16CPhysics_Airboat20change_spring_lengthE13IVP_POS_WHEELf
__ZN16CPhysics_Airboat20do_raycasts_gamesideEiP23IVP_Ray_Solver_TemplateP26IVP_Raycast_Airboat_Impact
__ZN16CPhysics_Airboat21GetCarSystemDebugDataER24IVP_CarSystemDebugData_t
__ZN16CPhysics_Airboat21SetCarSystemDebugDataERK24IVP_CarSystemDebugData_t
__ZN16CPhysics_Airboat21change_body_downforceEf
__ZN16CPhysics_Airboat21change_max_body_forceE13IVP_POS_WHEELf
__ZN16CPhysics_Airboat21pre_raycasts_gamesideEiP23IVP_Ray_Solver_TemplateP5Ray_tP26IVP_Raycast_Airboat_Impact
__ZN16CPhysics_Airboat22change_spring_constantE13IVP_POS_WHEELf
__ZN16CPhysics_Airboat22get_booster_time_to_goEv
__ZN16CPhysics_Airboat22update_wheel_positionsEv
__ZN16CPhysics_Airboat23change_fast_turn_factorEf
__ZN16CPhysics_Airboat23change_spring_dampeningE13IVP_POS_WHEELf
__ZN16CPhysics_Airboat23get_controller_priorityEv
__ZN16CPhysics_Airboat23get_orig_axles_distanceEv
__ZN16CPhysics_Airboat24do_simulation_controllerEP13IVP_Event_SimP12IVP_U_VectorI8IVP_CoreE
__ZN16CPhysics_Airboat24set_booster_accelerationEf
__ZN16CPhysics_Airboat25InitRaycastCarEnvironmentEP15IVP_EnvironmentPK23IVP_Template_Car_System
__ZN16CPhysics_Airboat25change_spring_pre_tensionE13IVP_POS_WHEELf
__ZN16CPhysics_Airboat25update_body_countertorqueEv
__ZN16CPhysics_Airboat26DoSimulationPontoonsGroundEP25IVP_Raycast_Airboat_WheelP26IVP_Raycast_Airboat_ImpactP13IVP_Event_Sim
__ZN16CPhysics_Airboat26change_stabilizer_constantE12IVP_POS_AXISf
__ZN16CPhysics_Airboat26get_wheel_angular_velocityE13IVP_POS_WHEEL
__ZN16CPhysics_Airboat27DoSimulationKeepUprightRollEP26IVP_Raycast_Airboat_ImpactP13IVP_Event_Sim
__ZN16CPhysics_Airboat28DoSimulationKeepUprightPitchEP26IVP_Raycast_Airboat_ImpactP13IVP_Event_Sim
__ZN16CPhysics_Airboat29get_orig_front_wheel_distanceEv
__ZN16CPhysics_Airboat31get_associated_controlled_coresEv
__ZN16CPhysics_Airboat33core_is_going_to_be_deleted_eventEP8IVP_Core
__ZN16CPhysics_Airboat35change_spring_dampening_compressionE13IVP_POS_WHEELf
__ZN16CPhysics_Airboat8GetWheelEi
__ZN16CPhysics_Airboat9fix_wheelE13IVP_POS_WHEEL8IVP_BOOL
__ZN16CPhysics_AirboatC1EP15IVP_EnvironmentPK23IVP_Template_Car_SystemP17IPhysicsGameTrace
__ZN16CPhysics_AirboatC2EP15IVP_EnvironmentPK23IVP_Template_Car_SystemP17IPhysicsGameTrace
__ZN16CPhysics_AirboatD0Ev
__ZN16CPhysics_AirboatD1Ev
__ZN16CPhysics_AirboatD2Ev
__ZN16CThreadLocalBase3SetEPv
__ZN16CThreadLocalBaseC2Ev
__ZN16CThreadLocalBaseD2Ev
__ZN16IVP_Cache_Object19update_cache_objectEv
__ZN16IVP_Compact_Edge10next_tableE
__ZN16IVP_Compact_Edge10prev_tableE
__ZN16IVP_Hull_Manager10reset_timeE8IVP_Time
__ZN16IVP_Hull_Manager11reset_timesEv
__ZN16IVP_Hull_Manager19delete_hull_managerEv
__ZN16IVP_Hull_Manager23get_synapse_check_countEP15IVP_Environment
__ZN16IVP_Hull_Manager46too_many_synapses_checked_error_get_additionalEP15IVP_Environmenti
__ZN16IVP_Mindist_Base10get_ledgesEPPK17IVP_Compact_Ledge
__ZN16IVP_Mindist_Base11get_objectsEPP15IVP_Real_Object
__ZN16IVP_Time_Manager10event_loopEP15IVP_Environment8IVP_Time
__ZN16IVP_Time_Manager10reset_timeE8IVP_Time
__ZN16IVP_Time_Manager12remove_eventEP14IVP_Time_Event
__ZN16IVP_Time_Manager12update_eventEP14IVP_Time_Event8IVP_Time
__ZN16IVP_Time_Manager20env_set_current_timeEP15IVP_Environment8IVP_Time
__ZN16IVP_Time_ManagerC1Ev
__ZN16IVP_Time_ManagerC2Ev
__ZN16IVP_Time_ManagerD1Ev
__ZN16IVP_Time_ManagerD2Ev
__ZN16IVP_U_Active_IntD0Ev
__ZN16IVP_U_Active_IntD1Ev
__ZN16IVP_U_Active_IntD2Ev
__ZN16IVP_U_Set_ActiveI15IVP_Real_ObjectED0Ev
__ZN16IVP_U_Set_ActiveI15IVP_Real_ObjectED1Ev
__ZN16IVP_U_Set_ActiveI15IVP_Real_ObjectED2Ev
__ZN16IVP_U_Set_ActiveI16IVP_Mindist_BaseED0Ev
__ZN16IVP_U_Set_ActiveI16IVP_Mindist_BaseED1Ev
__ZN16IVP_U_Set_ActiveI16IVP_Mindist_BaseED2Ev
__ZN16IVP_U_Set_ActiveI8IVP_CoreED0Ev
__ZN16IVP_U_Set_ActiveI8IVP_CoreED1Ev
__ZN16IVP_U_Set_ActiveI8IVP_CoreED2Ev
__ZN16IVP_ov_tree_hash13node_to_indexEP11IVP_OV_Node
__ZN16IVP_ov_tree_hashD0Ev
__ZN16IVP_ov_tree_hashD1Ev
__ZN17CBuoyancyAttacher23get_parameters_per_coreEP8IVP_Core
__ZN17CBuoyancyAttacherD0Ev
__ZN17CBuoyancyAttacherD1Ev
__ZN17CFrictionSnapshot11GetMaterialEi
__ZN17CFrictionSnapshot14GetNormalForceEv
__ZN17CFrictionSnapshot15GetContactPointER6Vector
__ZN17CFrictionSnapshot16GetSurfaceNormalER6Vector
__ZN17CFrictionSnapshot16NextFrictionDataEv
__ZN17CFrictionSnapshot17GetEnergyAbsorbedEv
__ZN17CFrictionSnapshot17RecomputeFrictionEv
__ZN17CFrictionSnapshot18ClearFrictionForceEv
__ZN17CFrictionSnapshot20MarkContactForDeleteEv
__ZN17CFrictionSnapshot22GetFrictionCoefficientEv
__ZN17CFrictionSnapshot23DeleteAllMarkedContactsEb
__ZN17CFrictionSnapshot7IsValidEv
__ZN17CFrictionSnapshot9GetObjectEi
__ZN17CFrictionSnapshotD0Ev
__ZN17CFrictionSnapshotD1Ev
__ZN17CMaterialIndexOps4SaveERK22SaveRestoreFieldInfo_tP5ISave
__ZN17CMaterialIndexOps7IsEmptyERK22SaveRestoreFieldInfo_t
__ZN17CMaterialIndexOps7RestoreERK22SaveRestoreFieldInfo_tP8IRestore
__ZN17CMaterialIndexOps9MakeEmptyERK22SaveRestoreFieldInfo_t
__ZN17CPhysicsCollision10ConvexFreeEP11CPhysConvex
__ZN17CPhysicsCollision11CollideSizeEP12CPhysCollide
__ZN17CPhysicsCollision12AddBBoxCacheEP26CPhysCollideCompactSurfaceRK6VectorS4_
__ZN17CPhysicsCollision12BBoxToConvexERK6VectorS2_
__ZN17CPhysicsCollision12CollideIndexEPK12CPhysCollide
__ZN17CPhysicsCollision12CollideWriteEPcP12CPhysCollideb
__ZN17CPhysicsCollision12ConvexVolumeEP11CPhysConvex
__ZN17CPhysicsCollision12TraceCollideERK6VectorS2_PK12CPhysCollideRK6QAngleS5_S2_S8_P10CGameTrace
__ZN17CPhysicsCollision12VCollideLoadEP10vcollide_tiPKcib
__ZN17CPhysicsCollision13BBoxToCollideERK6VectorS2_
__ZN17CPhysicsCollision13CollideVolumeEP12CPhysCollide
__ZN17CPhysicsCollision13InitBBoxCacheEv
__ZN17CPhysicsCollision14CollideGetAABBEP6VectorS1_PK12CPhysCollideRKS0_RK6QAngle
__ZN17CPhysicsCollision14DestroyCollideEP12CPhysCollide
__ZN17CPhysicsCollision14PolysoupCreateEv
__ZN17CPhysicsCollision14VCollideUnloadEP10vcollide_t
__ZN17CPhysicsCollision15ConvexFromVertsEPP6Vectori
__ZN17CPhysicsCollision15CreateDebugMeshEPK12CPhysCollidePP6Vector
__ZN17CPhysicsCollision15FastBboxCollideEPK26CPhysCollideCompactSurfaceRK6VectorS5_
__ZN17CPhysicsCollision15OutputDebugInfoEPK12CPhysCollide
__ZN17CPhysicsCollision15PolysoupDestroyEP13CPhysPolysoup
__ZN17CPhysicsCollision16CollideGetExtentEPK12CPhysCollideRK6VectorRK6QAngleS5_
__ZN17CPhysicsCollision16ConvexFromPlanesEPfif
__ZN17CPhysicsCollision16CreateQueryModelEP12CPhysCollide
__ZN17CPhysicsCollision16DestroyDebugMeshEiP6Vector
__ZN17CPhysicsCollision16GetBBoxCacheSizeEPiS0_
__ZN17CPhysicsCollision17ConvexSurfaceAreaEP11CPhysConvex
__ZN17CPhysicsCollision17CreateVirtualMeshERK19virtualmeshparams_t
__ZN17CPhysicsCollision17DestroyQueryModelEP15ICollisionQuery
__ZN17CPhysicsCollision17SetConvexGameDataEP11CPhysConvexj
__ZN17CPhysicsCollision18CollideSurfaceAreaEP12CPhysCollide
__ZN17CPhysicsCollision18UnserializeCollideEPcii
__ZN17CPhysicsCollision19ConvexFromVertsFastEPP6Vectori
__ZN17CPhysicsCollision19PolysoupAddTriangleEP13CPhysPolysoupRK6VectorS4_S4_i
__ZN17CPhysicsCollision19SupportsVirtualMeshEv
__ZN17CPhysicsCollision19ThreadContextCreateEv
__ZN17CPhysicsCollision20CollideGetMassCenterEP12CPhysCollideP6Vector
__ZN17CPhysicsCollision20CollideSetMassCenterEP12CPhysCollideRK6Vector
__ZN17CPhysicsCollision20PolyhedronFromConvexEP11CPhysConvexb
__ZN17CPhysicsCollision20ThreadContextDestroyEP17IPhysicsCollision
__ZN17CPhysicsCollision21IsBoxIntersectingConeERK6VectorS2_RK15truncatedcone_t
__ZN17CPhysicsCollision22ConvertConvexToCollideEPP11CPhysConvexi
__ZN17CPhysicsCollision23RebuildConvexFromPlanesEP11CPhysConvexf
__ZN17CPhysicsCollision23VPhysicsKeyParserCreateEPKc
__ZN17CPhysicsCollision24ConvertPolysoupToCollideEP13CPhysPolysoupb
__ZN17CPhysicsCollision24VPhysicsKeyParserDestroyEP18IVPhysicsKeyParser
__ZN17CPhysicsCollision25ConvexesFromConvexPolygonERK6VectorPS1_iPP11CPhysConvex
__ZN17CPhysicsCollision26ConvexFromConvexPolyhedronERK11CPolyhedron
__ZN17CPhysicsCollision27CollideGetOrthographicAreasEPK12CPhysCollide
__ZN17CPhysicsCollision27CollideSetOrthographicAreasEP12CPhysCollideRK6Vector
__ZN17CPhysicsCollision28ConvertConvexToCollideParamsEPP11CPhysConvexiRK21convertconvexparams_t
__ZN17CPhysicsCollision28GetConvexesUsedInCollideableEPK12CPhysCollidePP11CPhysConvexi
__ZN17CPhysicsCollision8ReadStatEi
__ZN17CPhysicsCollision8TraceBoxERK5Ray_tPK12CPhysCollideRK6VectorRK6QAngleP10CGameTrace
__ZN17CPhysicsCollision8TraceBoxERK5Ray_tjP11IConvexInfoPK12CPhysCollideRK6VectorRK6QAngleP10CGameTrace
__ZN17CPhysicsCollision8TraceBoxERK6VectorS2_S2_S2_PK12CPhysCollideS2_RK6QAngleP10CGameTrace
__ZN17CPhysicsCollisionD0Ev
__ZN17CPhysicsCollisionD1Ev
__ZN17CPhysicsInterface14QueryInterfaceEPKc
__ZN17CPhysicsInterface16FindCollisionSetEj
__ZN17CPhysicsInterface17CreateEnvironmentEv
__ZN17CPhysicsInterface18DestroyEnvironmentEP19IPhysicsEnvironment
__ZN17CPhysicsInterface20CreateObjectPairHashEv
__ZN17CPhysicsInterface21DestroyObjectPairHashEP22IPhysicsObjectPairHash
__ZN17CPhysicsInterface23DestroyAllCollisionSetsEv
__ZN17CPhysicsInterface24FindOrCreateCollisionSetEji
__ZN17CPhysicsInterface27GetActiveEnvironmentByIndexEi
__ZN17CPhysicsInterfaceD1Ev
__ZN17CPlayerController11IsInContactEv
__ZN17CPlayerController14GetLastImpulseEP6Vector
__ZN17CPlayerController15SetEventHandlerEP29IPhysicsPlayerControllerEvent
__ZN17CPlayerController16GetPushMassLimitEv
__ZN17CPlayerController16SetPushMassLimitEf
__ZN17CPlayerController17GetPushSpeedLimitEv
__ZN17CPlayerController17GetShadowPositionEP6VectorP6QAngle
__ZN17CPlayerController17GetShadowVelocityEP6Vector
__ZN17CPlayerController17SetPushSpeedLimitEf
__ZN17CPlayerController17TryTeleportObjectEv
__ZN17CPlayerController19event_object_frozenEP16IVP_Event_Object
__ZN17CPlayerController19get_controller_nameEv
__ZN17CPlayerController20event_object_createdEP16IVP_Event_Object
__ZN17CPlayerController20event_object_deletedEP16IVP_Event_Object
__ZN17CPlayerController20event_object_revivedEP16IVP_Event_Object
__ZN17CPlayerController23get_controller_priorityEv
__ZN17CPlayerController24do_simulation_controllerEP13IVP_Event_SimP12IVP_U_VectorI8IVP_CoreE
__ZN17CPlayerController4JumpEv
__ZN17CPlayerController6StepUpEf
__ZN17CPlayerController6UpdateERK6VectorS2_fbP14IPhysicsObject
__ZN17CPlayerController8MaxSpeedERK6Vector
__ZN17CPlayerController9GetObjectEv
__ZN17CPlayerController9SetObjectEP14IPhysicsObject
__ZN17CPlayerController9WasFrozenEv
__ZN17CPlayerControllerC2EP14CPhysicsObject
__ZN17CPlayerControllerD0Ev
__ZN17CPlayerControllerD1Ev
__ZN17CPlayerControllerD2Ev
__ZN17CShadowController11GetMaxSpeedEPfS0_
__ZN17CShadowController12AttachObjectEv
__ZN17CShadowController12DetachObjectEv
__ZN17CShadowController14AllowsRotationEv
__ZN17CShadowController14GetLastImpulseEP6Vector
__ZN17CShadowController15WriteToTemplateER33vphysics_save_cshadowcontroller_t
__ZN17CShadowController16InitFromTemplateERK33vphysics_save_cshadowcontroller_t
__ZN17CShadowController17AllowsTranslationEv
__ZN17CShadowController17GetTargetPositionEP6VectorP6QAngle
__ZN17CShadowController17UseShadowMaterialEb
__ZN17CShadowController19GetTeleportDistanceEv
__ZN17CShadowController19SetTeleportDistanceEf
__ZN17CShadowController19get_controller_nameEv
__ZN17CShadowController21ObjectMaterialChangedEi
__ZN17CShadowController22IsPhysicallyControlledEv
__ZN17CShadowController23SetPhysicallyControlledEb
__ZN17CShadowController23get_controller_priorityEv
__ZN17CShadowController24do_simulation_controllerEP13IVP_Event_SimP12IVP_U_VectorI8IVP_CoreE
__ZN17CShadowController6StepUpEf
__ZN17CShadowController6UpdateERK6VectorRK6QAnglef
__ZN17CShadowController8MaxSpeedEff
__ZN17CShadowControllerD0Ev
__ZN17CShadowControllerD1Ev
__ZN17CThreadSyncObjectD2Ev
__ZN17IVP_Compact_Ledge12c_ledge_initEv
__ZN17IVP_Contact_Point10reset_timeE8IVP_Time
__ZN17IVP_Contact_Point17get_material_infoEPP12IVP_Material
__ZN17IVP_Contact_Point18calc_coll_distanceEv
__ZN17IVP_Contact_Point18get_contact_normalEP17IVP_U_Float_Point
__ZN17IVP_Contact_Point18recompute_frictionEv
__ZN17IVP_Contact_Point19two_values_frictionEP17IVP_U_Float_Point
__ZN17IVP_Contact_Point20p_calc_friction_s_PKEPK11IVP_U_PointPK16IVP_Compact_EdgeP21IVP_Cache_Ledge_PointP27IVP_Impact_Solver_Long_TermP17IVP_U_Float_Point
__ZN17IVP_Contact_Point21p_calc_friction_qr_PFEPK11IVP_U_PointPK16IVP_Compact_EdgeP21IVP_Cache_Ledge_PointP27IVP_Impact_Solver_Long_TermP17IVP_U_Float_Point
__ZN17IVP_Contact_Point21p_calc_friction_ss_KKEPK16IVP_Compact_EdgeS2_P21IVP_Cache_Ledge_PointS4_P27IVP_Impact_Solver_Long_TermP17IVP_U_Float_Point
__ZN17IVP_Contact_Point22recalc_friction_s_valsEv
__ZN17IVP_Contact_Point22static_friction_singleEPK13IVP_Event_Simff
__ZN17IVP_Contact_Point23set_friction_to_neutralEv
__ZN17IVP_Contact_Point25get_rot_speed_uncertaintyEv
__ZN17IVP_Contact_Point28calc_virtual_mass_of_mindistEv
__ZN17IVP_Contact_Point29get_and_set_real_friction_lenEP17IVP_U_Float_Point
__ZN17IVP_Contact_Point34friction_force_local_constraint_1dEPK13IVP_Event_Sim
__ZN17IVP_Contact_Point34friction_force_local_constraint_2dEPK13IVP_Event_Sim
__ZN17IVP_Contact_Point36read_materials_for_contact_situationEP27IVP_Impact_Solver_Long_Term
__ZN17IVP_Contact_Point40friction_force_local_constraint_2d_wheelEP8IVP_CoreP27IVP_Impact_Solver_Long_TermPK13IVP_Event_SimRf
__ZN17IVP_Contact_PointC1EP11IVP_Mindist
__ZN17IVP_Contact_PointC2EP11IVP_Mindist
__ZN17IVP_Contact_PointD1Ev
__ZN17IVP_Contact_PointD2Ev
__ZN17IVP_Event_Manager27simulate_variable_time_stepEP16IVP_Time_ManagerP15IVP_EnvironmentP18IVP_Time_Event_PSIf
__ZN17IVP_Friction_HashD1Ev
__ZN17IVP_Halfspacesoup13add_halfspaceEPK11IVP_U_Hesse
__ZN17IVP_HalfspacesoupC1Ev
__ZN17IVP_HalfspacesoupD1Ev
__ZN17IVP_HalfspacesoupD2Ev
__ZN17IVP_I_Point_VHash14point_to_indexEP11IVP_U_Point
__ZN17IVP_I_Point_VHashD0Ev
__ZN17IVP_I_Point_VHashD1Ev
__ZN17IVP_Impact_Solver14delay_decisionEPP8IVP_Core
__ZN17IVP_Impact_Solver14do_rescue_pushEP17IVP_U_Float_Point8IVP_BOOL
__ZN17IVP_Impact_Solver24get_world_push_directionEv
__ZN17IVP_Impact_Solver30calc_virt_masses_impact_solverEPK17IVP_U_Float_Point
__ZN17IVP_Impact_Solver35get_world_direction_second_frictionEP17IVP_Contact_Point
__ZN17IVP_Impact_Solver37get_world_push_direction_two_frictionEd
__ZN17IVP_Impact_Solver7do_pushEd
__ZN17IVP_Impact_Solver9do_impactEPP8IVP_Core8IVP_BOOLif
__ZN17IVP_Impact_Solver9undo_pushEv
__ZN17IVP_Impact_System19test_loop_all_pairsEv
__ZN17IVP_Impact_System25recalc_all_affected_coresEv
__ZN17IVP_Impact_System28init_and_solve_impact_systemEP11IVP_MindistP19IVP_Friction_SystemP22IVP_Friction_Core_PairP17IVP_Contact_Point
__ZN17IVP_Impact_System33add_pushed_core_with_pairs_exceptEP8IVP_CoreP22IVP_Friction_Core_Pair
__ZN17IVP_Listener_Hull21hull_manager_is_resetEff
__ZN17IVP_Range_Manager23get_coll_range_in_worldEPK15IVP_Real_Object
__ZN17IVP_Range_Manager27environment_will_be_deletedEP15IVP_Environment
__ZN17IVP_Range_Manager28get_coll_range_intra_objectsEPK15IVP_Real_ObjectS2_PdS3_
__ZN17IVP_Range_ManagerC1EP15IVP_Environment8IVP_BOOL
__ZN17IVP_Ray_Solver_Os34check_ray_against_compact_ledge_osEPK17IVP_Compact_Ledge
__ZN17IVP_Ray_Solver_Os36check_ray_against_compact_surface_osEPK19IVP_Compact_Surface
__ZN17IVP_Ray_Solver_Os36check_ray_against_ledge_tree_node_osEPK26IVP_Compact_Ledgetree_Node
__ZN17IVP_Ray_Solver_OsC1EP14IVP_Ray_SolverP15IVP_Real_Object
__ZN17IVP_Ray_Solver_OsC2EP14IVP_Ray_SolverP15IVP_Real_Object
__ZN17IVP_U_Float_Hesse14calc_hesse_valEPK17IVP_U_Float_Point
__ZN17IVP_U_Float_Hesse7normizeEv
__ZN17IVP_U_Float_Point12fast_normizeEv
__ZN17IVP_U_Float_Point18calc_cross_productEPKS_S1_
__ZN17IVP_U_Float_Point19set_orthogonal_partEPKS_S1_
__ZN17IVP_U_Float_Point24real_length_plus_normizeEv
__ZN17IVP_U_Float_Point6rotateE20IVP_COORDINATE_INDEXf
__ZN17IVP_U_Float_Point7normizeEv
__ZN17IVP_U_Vector_Base13increment_memEv
__ZN18CDefSaveRestoreOps5ParseERK22SaveRestoreFieldInfo_tPKc
__ZN18CDefSaveRestoreOps7IsEmptyERK22SaveRestoreFieldInfo_t
__ZN18CDefSaveRestoreOps9MakeEmptyERK22SaveRestoreFieldInfo_t
__ZN18CPhysicsConstraint10DeactivateEv
__ZN18CPhysicsConstraint10InitLengthEP15IVP_EnvironmentP23CPhysicsConstraintGroupRK25constraint_lengthparams_t
__ZN18CPhysicsConstraint10InitPulleyEP15IVP_EnvironmentP23CPhysicsConstraintGroupRK25constraint_pulleyparams_t
__ZN18CPhysicsConstraint11InitRagdollEP15IVP_EnvironmentP23CPhysicsConstraintGroupRK26constraint_ragdollparams_t
__ZN18CPhysicsConstraint11InitSlidingEP15IVP_EnvironmentP23CPhysicsConstraintGroupRK26constraint_slidingparams_t
__ZN18CPhysicsConstraint11SetGameDataEPv
__ZN18CPhysicsConstraint14InitBallsocketEP15IVP_EnvironmentP23CPhysicsConstraintGroupRK29constraint_ballsocketparams_t
__ZN18CPhysicsConstraint14SetLinearMotorEff
__ZN18CPhysicsConstraint15OutputDebugInfoEv
__ZN18CPhysicsConstraint15SetAngularMotorEff
__ZN18CPhysicsConstraint19event_object_frozenEP16IVP_Event_Object
__ZN18CPhysicsConstraint20event_object_createdEP16IVP_Event_Object
__ZN18CPhysicsConstraint20event_object_deletedEP16IVP_Event_Object
__ZN18CPhysicsConstraint20event_object_revivedEP16IVP_Event_Object
__ZN18CPhysicsConstraint23UpdateRagdollTransformsERK11matrix3x4_tS2_
__ZN18CPhysicsConstraint25CreateBreakableConstraintEP13hk_ConstraintP26hk_Local_Constraint_SystemRK28constraint_breakableparams_t
__ZN18CPhysicsConstraint8ActivateEv
__ZN18CPhysicsConstraint9InitFixedEP15IVP_EnvironmentP23CPhysicsConstraintGroupRK24constraint_fixedparams_t
__ZN18CPhysicsConstraint9InitHingeEP15IVP_EnvironmentP23CPhysicsConstraintGroupRK31constraint_limitedhingeparams_t
__ZN18CPhysicsConstraintD0Ev
__ZN18CPhysicsConstraintD1Ev
__ZN18CPhysicsConstraintD2Ev
__ZN18CUtlCharConversion14FindConversionEPKcPi
__ZN18CVehicleController10CalcEngineEffbfb
__ZN18CVehicleController10IsBoostingEv
__ZN18CVehicleController11CreateWheelEiR20vehicle_axleparams_t
__ZN18CVehicleController12UpdateEngineERK23vehicle_controlparams_tfffbb
__ZN18CVehicleController13GetWheelCountEv
__ZN18CVehicleController13InitCarSystemEP14CPhysicsObject
__ZN18CVehicleController13OnVehicleExitEv
__ZN18CVehicleController13UpdateBoosterEf
__ZN18CVehicleController14OnVehicleEnterEv
__ZN18CVehicleController14UpdateSkiddingEb
__ZN18CVehicleController14UpdateSteeringERK23vehicle_controlparams_tff
__ZN18CVehicleController15CreateTraceDataEiR20vehicle_axleparams_t
__ZN18CVehicleController15InitVehicleDataERK15vehicleparams_t
__ZN18CVehicleController15SetSpringLengthEif
__ZN18CVehicleController15UpdateHandbrakeERK23vehicle_controlparams_tfbb
__ZN18CVehicleController15WriteToTemplateER34vphysics_save_cvehiclecontroller_t
__ZN18CVehicleController16CreateIVPObjectsEv
__ZN18CVehicleController16GetVehicleParamsEv
__ZN18CVehicleController16InitFromTemplateEP19CPhysicsEnvironmentPvP17IPhysicsGameTraceRK34vphysics_save_cvehiclecontroller_t
__ZN18CVehicleController16IsEngineDisabledEv
__ZN18CVehicleController16SetWheelFrictionEif
__ZN18CVehicleController16UpdatePowerslideERK23vehicle_controlparams_tbf
__ZN18CVehicleController17SetEngineDisabledEb
__ZN18CVehicleController17UpdateExtraForcesEv
__ZN18CVehicleController17VehicleDataReloadEv
__ZN18CVehicleController18GetOperatingParamsEv
__ZN18CVehicleController19InitCarSystemWheelsER23IVP_Template_Car_System
__ZN18CVehicleController19event_object_frozenEP16IVP_Event_Object
__ZN18CVehicleController20GetWheelContactPointEiP6VectorPi
__ZN18CVehicleController20event_object_createdEP16IVP_Event_Object
__ZN18CVehicleController20event_object_deletedEP16IVP_Event_Object
__ZN18CVehicleController20event_object_revivedEP16IVP_Event_Object
__ZN18CVehicleController21GetCarSystemDebugDataER24vehicle_debugcarsystem_t
__ZN18CVehicleController22CalcEngineTransmissionEf
__ZN18CVehicleController25GetVehicleParamsForChangeEv
__ZN18CVehicleController6UpdateEfR23vehicle_controlparams_t
__ZN18CVehicleController8GetWheelEi
__ZN18CVehicleControllerD0Ev
__ZN18CVehicleControllerD1Ev
__ZN18IVP_Actuator_Force19get_controller_nameEv
__ZN18IVP_Actuator_Force24do_simulation_controllerEP13IVP_Event_SimP12IVP_U_VectorI8IVP_CoreE
__ZN18IVP_Actuator_Force9set_forceEd
__ZN18IVP_Actuator_ForceC1EP15IVP_EnvironmentP18IVP_Template_Force
__ZN18IVP_Actuator_ForceD0Ev
__ZN18IVP_Actuator_ForceD1Ev
__ZN18IVP_Anomaly_Limits27environment_will_be_deletedEP15IVP_Environment
__ZN18IVP_Anomaly_LimitsC1E8IVP_BOOL
__ZN18IVP_Anomaly_LimitsD0Ev
__ZN18IVP_Anomaly_LimitsD1Ev
__ZN18IVP_I_FPoint_VHash14point_to_indexEP17IVP_U_Float_Point
__ZN18IVP_I_FPoint_VHashD0Ev
__ZN18IVP_I_FPoint_VHashD1Ev
__ZN18IVP_Ray_Solver_Min14add_hit_objectEP15IVP_Real_ObjectPK17IVP_Compact_LedgePK20IVP_Compact_TriangledP11IVP_U_Point
__ZN18IVP_Ray_Solver_MinD0Ev
__ZN18IVP_Ray_Solver_MinD1Ev
__ZN18IVP_SurfaceManager22add_reference_to_ledgeEPK17IVP_Compact_Ledge
__ZN18IVP_SurfaceManager25remove_reference_to_ledgeEPK17IVP_Compact_Ledge
__ZN18IVP_SurfaceManagerD2Ev
__ZN18IVP_Template_ForceC1Ev
__ZN18IVP_Time_Event_PSI19simulate_time_eventEP15IVP_Environment
__ZN18IVP_U_Active_Float12change_meterE
__ZN18IVP_U_Active_Float14add_dependencyEP27IVP_U_Active_Float_Listener
__ZN18IVP_U_Active_Float17remove_dependencyEP27IVP_U_Active_Float_Listener
__ZN18IVP_U_Active_FloatD0Ev
__ZN18IVP_U_Active_FloatD1Ev
__ZN18IVP_U_Active_FloatD2Ev
__ZN18IVP_U_Active_ValueD0Ev
__ZN18IVP_U_Active_ValueD1Ev
__ZN18hk_Rigid_Body_Core14apply_impulsesER17hk_Core_VMQ_InputPKf
__ZN18hk_Rigid_Body_Core22add_to_mass_matrix_invER17hk_Core_VMQ_InputR15hk_Dense_MatrixPf
__ZN19CIVPMaterialManager14get_elasticityEP21IVP_Contact_Situation
__ZN19CIVPMaterialManager19get_friction_factorEP21IVP_Contact_Situation
__ZN19CIVPMaterialManager21get_material_by_indexEP15IVP_Real_ObjectPK11IVP_U_Pointi
__ZN19CIVPMaterialManagerD0Ev
__ZN19CIVPMaterialManagerD1Ev
__ZN19CPhysicsEnvironment10ClearStatsEv
__ZN19CPhysicsEnvironment10PhantomAddEP14CPhysicsObject
__ZN19CPhysicsEnvironment10PreRestoreERK22physprerestoreparams_t
__ZN19CPhysicsEnvironment10SetGravityERK6Vector
__ZN19CPhysicsEnvironment11PostRestoreEv
__ZN19CPhysicsEnvironment12CreateSpringEP14IPhysicsObjectS1_P14springparams_t
__ZN19CPhysicsEnvironment13DestroyObjectEP14IPhysicsObject
__ZN19CPhysicsEnvironment13DestroySpringEP14IPhysicsSpring
__ZN19CPhysicsEnvironment13SetAirDensityEf
__ZN19CPhysicsEnvironment14SetQuickDeleteEb
__ZN19CPhysicsEnvironment14TransferObjectEP14IPhysicsObjectP19IPhysicsEnvironment
__ZN19CPhysicsEnvironment15GetDebugOverlayEv
__ZN19CPhysicsEnvironment15SetDebugOverlayEPFPvPKcPiE
__ZN19CPhysicsEnvironment16ClearDeadObjectsEv
__ZN19CPhysicsEnvironment16CreatePolyObjectEPK12CPhysCollideiRK6VectorRK6QAngleP14objectparams_t
__ZN19CPhysicsEnvironment16SweepCollideableEPK12CPhysCollideRK6VectorS5_RK6QAnglejP19IPhysicsTraceFilterP10CGameTrace
__ZN19CPhysicsEnvironment17CleanupDeleteListEv
__ZN19CPhysicsEnvironment17DestroyConstraintEP18IPhysicsConstraint
__ZN19CPhysicsEnvironment17EnableDeleteQueueEb
__ZN19CPhysicsEnvironment18CreateSphereObjectEfiRK6VectorRK6QAngleP14objectparams_tb
__ZN19CPhysicsEnvironment18DebugCheckContactsEv
__ZN19CPhysicsEnvironment18SetCollisionSolverEP23IPhysicsCollisionSolver
__ZN19CPhysicsEnvironment19AddPlayerControllerEP24IPhysicsPlayerController
__ZN19CPhysicsEnvironment20ResetSimulationClockEv
__ZN19CPhysicsEnvironment21CreateConstraintGroupERK24constraint_groupparams_t
__ZN19CPhysicsEnvironment21CreateFixedConstraintEP14IPhysicsObjectS1_P23IPhysicsConstraintGroupRK24constraint_fixedparams_t
__ZN19CPhysicsEnvironment21CreateFluidControllerEP14IPhysicsObjectP13fluidparams_t
__ZN19CPhysicsEnvironment21CreateHingeConstraintEP14IPhysicsObjectS1_P23IPhysicsConstraintGroupRK24constraint_hingeparams_t
__ZN19CPhysicsEnvironment21SetObjectEventHandlerEP19IPhysicsObjectEvent
__ZN19CPhysicsEnvironment21SetSimulationTimestepEf
__ZN19CPhysicsEnvironment22CreateLengthConstraintEP14IPhysicsObjectS1_P23IPhysicsConstraintGroupRK25constraint_lengthparams_t
__ZN19CPhysicsEnvironment22CreateMotionControllerEP12IMotionEvent
__ZN19CPhysicsEnvironment22CreatePlayerControllerEP14IPhysicsObject
__ZN19CPhysicsEnvironment22CreatePolyObjectStaticEPK12CPhysCollideiRK6VectorRK6QAngleP14objectparams_t
__ZN19CPhysicsEnvironment22CreatePulleyConstraintEP14IPhysicsObjectS1_P23IPhysicsConstraintGroupRK25constraint_pulleyparams_t
__ZN19CPhysicsEnvironment22CreateShadowControllerEP14IPhysicsObjectbb
__ZN19CPhysicsEnvironment22DestroyConstraintGroupEP23IPhysicsConstraintGroup
__ZN19CPhysicsEnvironment22DestroyFluidControllerEP23IPhysicsFluidController
__ZN19CPhysicsEnvironment22EnableConstraintNotifyEb
__ZN19CPhysicsEnvironment22SetPerformanceSettingsEPK27physics_performanceparams_t
__ZN19CPhysicsEnvironment23CreateRagdollConstraintEP14IPhysicsObjectS1_P23IPhysicsConstraintGroupRK26constraint_ragdollparams_t
__ZN19CPhysicsEnvironment23CreateSlidingConstraintEP14IPhysicsObjectS1_P23IPhysicsConstraintGroupRK26constraint_slidingparams_t
__ZN19CPhysicsEnvironment23CreateVehicleControllerEP14IPhysicsObjectRK15vehicleparams_tjP17IPhysicsGameTrace
__ZN19CPhysicsEnvironment23DestroyMotionControllerEP24IPhysicsMotionController
__ZN19CPhysicsEnvironment23DestroyPlayerControllerEP24IPhysicsPlayerController
__ZN19CPhysicsEnvironment23DestroyShadowControllerEP24IPhysicsShadowController
__ZN19CPhysicsEnvironment23SerializeObjectToBufferEP14IPhysicsObjectPhj
__ZN19CPhysicsEnvironment24DestroyVehicleControllerEP25IPhysicsVehicleController
__ZN19CPhysicsEnvironment24GetCollisionEventHandlerEv
__ZN19CPhysicsEnvironment24NotifyConstraintDisabledEP18IPhysicsConstraint
__ZN19CPhysicsEnvironment24SetCollisionEventHandlerEP22IPhysicsCollisionEvent
__ZN19CPhysicsEnvironment25SetConstraintEventHandlerEP23IPhysicsConstraintEvent
__ZN19CPhysicsEnvironment26CreateBallsocketConstraintEP14IPhysicsObjectS1_P23IPhysicsConstraintGroupRK29constraint_ballsocketparams_t
__ZN19CPhysicsEnvironment27UnserializeObjectFromBufferEPvPhjb
__ZN19CPhysicsEnvironment28CreateLimitedHingeConstraintEP14IPhysicsObjectS1_P23IPhysicsConstraintGroupRK31constraint_limitedhingeparams_t
__ZN19CPhysicsEnvironment4SaveERK16physsaveparams_t
__ZN19CPhysicsEnvironment7RestoreERK19physrestoreparams_t
__ZN19CPhysicsEnvironment8SimulateEf
__ZN19CPhysicsEnvironment8TraceBoxEP10CGameTraceRK6VectorS4_S4_S4_
__ZN19CPhysicsEnvironment8TraceRayERK5Ray_tjP19IPhysicsTraceFilterP10CGameTrace
__ZN19CPhysicsEnvironment9ReadStatsEP15physics_stats_t
__ZN19CPhysicsEnvironmentC2Ev
__ZN19CPhysicsEnvironmentD0Ev
__ZN19CPhysicsEnvironmentD1Ev
__ZN19CPhysicsEnvironmentD2Ev
__ZN19CUtlNoEscConversion14FindConversionEPKcPi
__ZN19IVP_3D_Solver_PK_KK9get_valueEP12IVP_U_MatrixS1_
__ZN19IVP_Actuator_Spring12set_constantEd
__ZN19IVP_Actuator_Spring19get_controller_nameEv
__ZN19IVP_Actuator_Spring24do_simulation_controllerEP13IVP_Event_SimP12IVP_U_VectorI8IVP_CoreE
__ZN19IVP_Actuator_Spring7set_lenEd
__ZN19IVP_Actuator_Spring8set_dampEd
__ZN19IVP_Actuator_SpringC1EP15IVP_EnvironmentP19IVP_Template_Spring17IVP_ACTUATOR_TYPE
__ZN19IVP_Actuator_SpringC2EP15IVP_EnvironmentP19IVP_Template_Spring17IVP_ACTUATOR_TYPE
__ZN19IVP_Actuator_SpringD0Ev
__ZN19IVP_Actuator_SpringD1Ev
__ZN19IVP_Actuator_Torque10set_torqueEd
__ZN19IVP_Actuator_Torque19get_controller_nameEv
__ZN19IVP_Actuator_Torque24do_simulation_controllerEP13IVP_Event_SimP12IVP_U_VectorI8IVP_CoreE
__ZN19IVP_Actuator_TorqueC1EP15IVP_EnvironmentP19IVP_Template_Torque
__ZN19IVP_Actuator_TorqueC2EP15IVP_EnvironmentP19IVP_Template_Torque
__ZN19IVP_Actuator_TorqueD0Ev
__ZN19IVP_Actuator_TorqueD1Ev
__ZN19IVP_Anomaly_Manager17inter_penetrationEP11IVP_MindistP15IVP_Real_ObjectS3_d
__ZN19IVP_Anomaly_Manager21max_velocity_exceededEP18IVP_Anomaly_LimitsP8IVP_CoreP17IVP_U_Float_Point
__ZN19IVP_Anomaly_Manager26get_push_speed_penetrationEP15IVP_Real_ObjectS1_
__ZN19IVP_Anomaly_Manager27environment_will_be_deletedEP15IVP_Environment
__ZN19IVP_Anomaly_Manager29max_angular_velocity_exceededEP18IVP_Anomaly_LimitsP8IVP_CoreP17IVP_U_Float_Point
__ZN19IVP_Anomaly_Manager29max_collision_checks_exceededEi
__ZN19IVP_Anomaly_Manager30solve_inter_penetration_simpleEP15IVP_Real_ObjectS1_d
__ZN19IVP_Anomaly_Manager36max_contacts_exceeded_check_freezingEPP8IVP_Corei
__ZN19IVP_Anomaly_Manager38max_collisions_exceeded_check_freezingEP18IVP_Anomaly_LimitsP8IVP_Core
__ZN19IVP_Anomaly_ManagerC1E8IVP_BOOL
__ZN19IVP_Anomaly_ManagerC2E8IVP_BOOL
__ZN19IVP_Anomaly_ManagerD0Ev
__ZN19IVP_Anomaly_ManagerD1Ev
__ZN19IVP_Anomaly_ManagerD2Ev
__ZN19IVP_Buoyancy_Solver14compute_forcesEPK17IVP_U_Float_PointPK17IVP_U_Float_HesseP15IVP_Real_Object
__ZN19IVP_Buoyancy_Solver27compute_values_for_one_ballEPK15IVP_Real_ObjectPK17IVP_U_Float_HessePK17IVP_U_Float_Point
__ZN19IVP_Buoyancy_Solver30compute_values_for_one_polygonEP15IVP_Real_ObjectPK17IVP_U_Float_Hesse
__ZN19IVP_Buoyancy_Solver31compute_values_for_one_triangleEP15IVP_Real_ObjectPK20IVP_Compact_TrianglePK17IVP_U_Float_HessePK17IVP_U_Float_PointPK17IVP_Compact_Ledge
__ZN19IVP_Buoyancy_Solver34compute_disection_points_with_ballEPK17IVP_U_Float_HesseS2_PK17IVP_U_Float_PointRKfPS3_S8_
__ZN19IVP_Buoyancy_Solver36compute_buoyancy_values_for_one_ballERKiRKfS3_PK17IVP_U_Float_HessePK17IVP_U_Float_Point
__ZN19IVP_Buoyancy_Solver37compute_dampening_values_for_one_ballERKiRKfS3_PK17IVP_U_Float_PointS6_PK17IVP_U_Float_HesseS9_S6_S6_
__ZN19IVP_Buoyancy_Solver43compute_volumes_and_centers_for_one_pyramidEP15IVP_Real_ObjectPPK17IVP_U_Float_PointPKfRKiS9_S9_S4_
__ZN19IVP_Buoyancy_Solver56compute_rotation_and_translation_values_for_one_triangleEP15IVP_Real_ObjectPK20IVP_Compact_TrianglePPK17IVP_U_Float_PointPK17IVP_Compact_LedgePKfRKiSF_SF_
__ZN19IVP_Buoyancy_SolverC1EP8IVP_CoreP23IVP_Controller_BuoyancyPK21IVP_Template_BuoyancyPK17IVP_U_Float_Point
__ZN19IVP_Cluster_Manager10add_objectEP15IVP_Real_Object
__ZN19IVP_Cluster_Manager13remove_objectEP15IVP_Real_Object
__ZN19IVP_Cluster_Manager16get_root_clusterEv
__ZN19IVP_Cluster_Manager19add_listener_objectEP15IVP_Real_ObjectP19IVP_Listener_Object
__ZN19IVP_Cluster_Manager22remove_listener_objectEP15IVP_Real_ObjectP19IVP_Listener_Object
__ZN19IVP_Cluster_Manager24check_for_unused_objectsEP20IVP_Universe_Manager
__ZN19IVP_Cluster_Manager24fire_event_pre_collisionEP15IVP_Real_ObjectP19IVP_Event_Collision
__ZN19IVP_Cluster_Manager25fire_event_object_deletedEP16IVP_Event_Object
__ZN19IVP_Cluster_Manager25fire_event_post_collisionEP15IVP_Real_ObjectP19IVP_Event_Collision
__ZN19IVP_Cluster_Manager27fire_event_friction_createdEP15IVP_Real_ObjectP18IVP_Event_Friction
__ZN19IVP_Cluster_Manager27fire_event_friction_deletedEP15IVP_Real_ObjectP18IVP_Event_Friction
__ZN19IVP_Cluster_Manager35fire_event_collision_object_deletedEP15IVP_Real_Object
__ZN19IVP_Cluster_ManagerC1EP15IVP_Environment
__ZN19IVP_Cluster_ManagerC2EP15IVP_Environment
__ZN19IVP_Cluster_ManagerD1Ev
__ZN19IVP_Compact_Surface13byte_swap_allE8IVP_BOOLi
__ZN19IVP_Friction_Solver15calc_solver_PSIEP19IVP_Friction_SystemPi
__ZN19IVP_Friction_Solver17ease_two_mindistsEP17IVP_Contact_PointS1_P17IVP_U_Float_PointS3_d
__ZN19IVP_Friction_Solver18ease_friction_pairEP22IVP_Friction_Core_PairP12IVP_U_Memory
__ZN19IVP_Friction_Solver19async_apply_impulseEPK27IVP_Impact_Solver_Long_Termd
__ZN19IVP_Friction_Solver19do_resulting_pushesEP19IVP_Friction_System
__ZN19IVP_Friction_Solver21setup_coords_mindistsEP19IVP_Friction_System
__ZN19IVP_Friction_Solver22normize_constraint_equEv
__ZN19IVP_Friction_Solver30solve_linear_equation_and_pushEP19IVP_Friction_SystemPiiP12IVP_U_Memory
__ZN19IVP_Friction_Solver30test_gauss_solution_suggestionEPdPiiP12IVP_U_Memory
__ZN19IVP_Friction_SolverC1EP19IVP_Friction_SystemPK13IVP_Event_Sim
__ZN19IVP_Friction_SolverC2EP19IVP_Friction_SystemPK13IVP_Event_Sim
__ZN19IVP_Friction_System10reset_timeE8IVP_Time
__ZN19IVP_Friction_System11add_fr_pairEP22IVP_Friction_Core_Pair
__ZN19IVP_Friction_System11del_fr_pairEP22IVP_Friction_Core_Pair
__ZN19IVP_Friction_System17union_find_fr_sysEv
__ZN19IVP_Friction_System18add_core_to_systemEP8IVP_Core
__ZN19IVP_Friction_System18add_dist_to_systemEP17IVP_Contact_Point
__ZN19IVP_Friction_System18do_friction_systemEPK13IVP_Event_Sim
__ZN19IVP_Friction_System18find_pair_of_coresEP8IVP_CoreS1_
__ZN19IVP_Friction_System19get_controller_nameEv
__ZN19IVP_Friction_System20calc_friction_forcesEPK13IVP_Event_Sim
__ZN19IVP_Friction_System21split_friction_systemEP8IVP_Core
__ZN19IVP_Friction_System22get_pair_info_for_objsEP8IVP_CoreS1_
__ZN19IVP_Friction_System23friction_global_counterE
__ZN19IVP_Friction_System23fusion_friction_systemsEPS_
__ZN19IVP_Friction_System23get_controller_priorityEv
__ZN19IVP_Friction_System23remove_core_from_systemEP8IVP_Core
__ZN19IVP_Friction_System23remove_dist_from_systemEP17IVP_Contact_Point
__ZN19IVP_Friction_System24delete_friction_distanceEP17IVP_Contact_Point
__ZN19IVP_Friction_System24do_simulation_controllerEP13IVP_Event_SimP12IVP_U_VectorI8IVP_CoreE
__ZN19IVP_Friction_System26kinetic_energy_of_hole_frsEv
__ZN19IVP_Friction_System27dist_added_update_pair_infoEP17IVP_Contact_Point
__ZN19IVP_Friction_System28bubble_sort_dists_importanceEv
__ZN19IVP_Friction_System28fs_recalc_all_contact_pointsEv
__ZN19IVP_Friction_System28reorder_mindists_for_complexEv
__ZN19IVP_Friction_System29dist_removed_update_pair_infoEP17IVP_Contact_Point
__ZN19IVP_Friction_System31get_associated_controlled_coresEv
__ZN19IVP_Friction_System32get_minimum_simulation_frequencyEv
__ZN19IVP_Friction_System33core_is_going_to_be_deleted_eventEP8IVP_Core
__ZN19IVP_Friction_System37remove_energy_gained_by_real_frictionEv
__ZN19IVP_Friction_SystemC1EP15IVP_Environment
__ZN19IVP_Friction_SystemD0Ev
__ZN19IVP_Friction_SystemD1Ev
__ZN19IVP_Friction_SystemD2Ev
__ZN19IVP_Incr_L_U_Matrix13decrement_l_uEi
__ZN19IVP_Incr_L_U_Matrix13increment_l_uEv
__ZN19IVP_Incr_L_U_Matrix13solve_lin_equEv
__ZN19IVP_Incr_L_U_Matrix16pivot_search_l_uEi
__ZN19IVP_Incr_L_U_Matrix22add_neg_row_to_row_l_uEiid
__ZN19IVP_Incr_L_U_Matrix31l_u_decomposition_with_pivotingEv
__ZN19IVP_Material_Simple11get_dampingEv
__ZN19IVP_Material_Simple12get_adhesionEv
__ZN19IVP_Material_Simple14get_elasticityEv
__ZN19IVP_Material_Simple19get_friction_factorEv
__ZN19IVP_Material_Simple26get_second_friction_factorEv
__ZN19IVP_Material_Simple8get_nameEv
__ZN19IVP_Material_SimpleD0Ev
__ZN19IVP_Material_SimpleD1Ev
__ZN19IVP_Mindist_Manager18recheck_ov_elementEP15IVP_Real_Object
__ZN19IVP_Mindist_Manager19insert_hull_mindistEP11IVP_Mindistf
__ZN19IVP_Mindist_Manager19remove_hull_mindistEP11IVP_Mindist
__ZN19IVP_Mindist_Manager20insert_exact_mindistEP11IVP_Mindist
__ZN19IVP_Mindist_Manager20recalc_exact_mindistEP11IVP_Mindist
__ZN19IVP_Mindist_Manager20remove_exact_mindistEP11IVP_Mindist
__ZN19IVP_Mindist_Manager21create_exact_mindistsEP15IVP_Real_ObjectS1_dP13IVP_U_FVectorI13IVP_CollisionEPK17IVP_Compact_LedgeS8_S8_S8_P23IVP_Collision_Delegator
__ZN19IVP_Mindist_Manager22insert_invalid_mindistEP11IVP_Mindist
__ZN19IVP_Mindist_Manager22remove_invalid_mindistEP11IVP_Mindist
__ZN19IVP_Mindist_Manager24insert_lazy_hull_mindistEP11IVP_Mindistf
__ZN19IVP_Mindist_Manager25recalc_all_exact_mindistsEv
__ZN19IVP_Mindist_Manager30recalc_all_exact_wheel_mindistEv
__ZN19IVP_Mindist_Manager31insert_and_recalc_exact_mindistEP11IVP_Mindist
__ZN19IVP_Mindist_Manager32recalc_all_exact_mindists_eventsEv
__ZN19IVP_Mindist_Manager33insert_and_recalc_phantom_mindistEP11IVP_Mindist
__ZN19IVP_Mindist_Manager37enable_collision_detection_for_objectEP15IVP_Real_Object
__ZN19IVP_Mindist_ManagerC1EP15IVP_Environment
__ZN19IVP_Mindist_ManagerD1Ev
__ZN19IVP_OV_Tree_Manager11expand_treeEPK11IVP_OV_Node
__ZN19IVP_OV_Tree_Manager13connect_boxesEP11IVP_OV_NodeS1_
__ZN19IVP_OV_Tree_Manager16calc_optimal_boxEPK14IVP_OV_Elementdd
__ZN19IVP_OV_Tree_Manager17insert_ov_elementEP14IVP_OV_ElementddP12IVP_U_VectorIS0_E
__ZN19IVP_OV_Tree_Manager17remove_ov_elementEP14IVP_OV_Element
__ZN19IVP_OV_Tree_Manager22get_luf_coordinates_wsEPK11IVP_OV_NodeP17IVP_U_Float_PointPf
__ZN19IVP_OV_Tree_Manager26collect_collision_partnersEPK14IVP_OV_ElementPK11IVP_OV_NodeS5_
__ZN19IVP_OV_Tree_Manager33collect_subbox_collision_partnersEPK14IVP_OV_ElementPK11IVP_OV_Node
__ZN19IVP_OV_Tree_Manager9powerlistE
__ZN19IVP_OV_Tree_ManagerC1Ev
__ZN19IVP_OV_Tree_ManagerC2Ev
__ZN19IVP_OV_Tree_ManagerD1Ev
__ZN19IVP_Simulation_Unit14clean_sim_unitEv
__ZN19IVP_Simulation_Unit14split_sim_unitEP8IVP_Core
__ZN19IVP_Simulation_Unit17add_sim_unit_coreEP8IVP_Core
__ZN19IVP_Simulation_Unit20sim_unit_remove_coreEP8IVP_Core
__ZN19IVP_Simulation_Unit22add_controller_of_coreEP8IVP_CoreP14IVP_Controller
__ZN19IVP_Simulation_Unit22do_sim_unit_union_findEv
__ZN19IVP_Simulation_Unit23rem_sim_unit_controllerEP14IVP_Controller
__ZN19IVP_Simulation_Unit24sim_unit_calc_redundantsEv
__ZN19IVP_Simulation_Unit24sim_unit_union_find_testEv
__ZN19IVP_Simulation_Unit25fusion_simulation_unitiesEPS_
__ZN19IVP_Simulation_Unit25remove_controller_of_coreEP8IVP_CoreP14IVP_Controller
__ZN19IVP_Simulation_Unit25sim_unit_sort_controllersEv
__ZN19IVP_Simulation_Unit28sim_unit_calc_movement_stateEP15IVP_Environment
__ZN19IVP_Simulation_Unit28simulate_single_sim_unit_psiEP13IVP_Event_SimP12IVP_U_VectorI8IVP_CoreE
__ZN19IVP_Simulation_Unit30sim_unit_ensure_cores_movementEv
__ZN19IVP_Simulation_Unit30sim_unit_revive_for_simulationEP15IVP_Environment
__ZN19IVP_Simulation_UnitC1Ev
__ZN19IVP_Simulation_UnitD1Ev
__ZN19IVP_Simulation_UnitD2Ev
__ZN19IVP_SurMan_PS_Plane13get_area_sizeEv
__ZN19IVP_Template_Anchor22set_anchor_position_csEP15IVP_Real_ObjectPK17IVP_U_Float_Point
__ZN19IVP_Template_Anchor22set_anchor_position_osEP15IVP_Real_ObjectPK17IVP_U_Float_Point
__ZN19IVP_Template_Anchor22set_anchor_position_osEP15IVP_Real_Objectddd
__ZN19IVP_Template_Object8set_nameEPKc
__ZN19IVP_Template_SpringC1Ev
__ZN19IVP_Template_TorqueC1Ev
__ZN19hk_Fixed_Constraint15init_constraintEPKv
__ZN19hk_Fixed_Constraint15step_constraintER11hk_PSI_InfoPvff
__ZN19hk_Fixed_Constraint18get_constraint_dofEv
__ZN19hk_Fixed_Constraint18write_to_blueprintEP11hk_Fixed_BP
__ZN19hk_Fixed_Constraint19get_constraint_typeEv
__ZN19hk_Fixed_Constraint20get_vmq_storage_sizeEv
__ZN19hk_Fixed_Constraint25setup_and_step_constraintER11hk_PSI_InfoPvff
__ZN19hk_Fixed_ConstraintC1EP14hk_EnvironmentPK11hk_Fixed_BPP13hk_Rigid_BodyS6_
__ZN19hk_Fixed_ConstraintC1EP26hk_Local_Constraint_SystemPK11hk_Fixed_BPP13hk_Rigid_BodyS6_
__ZN19hk_Fixed_ConstraintD0Ev
__ZN19hk_Fixed_ConstraintD1Ev
__ZN19hk_Hinge_BP_Builder11set_axis_wsEP13hk_Rigid_BodyS1_RK10hk_Vector3
__ZN19hk_Hinge_BP_Builder15set_position_osEiRK10hk_Vector3
__ZN19hk_Hinge_BP_Builder16set_axis_perp_osEiRK10hk_Vector3
__ZN19hk_Hinge_BP_Builder17set_angular_motorEff
__ZN19hk_Hinge_BP_Builder18set_angular_limitsEff
__ZN19hk_Hinge_BP_Builder7set_tauEf
__ZN19hk_Hinge_Constraint15init_constraintEPKv
__ZN19hk_Hinge_Constraint15step_constraintER11hk_PSI_InfoPvff
__ZN19hk_Hinge_Constraint18get_constraint_dofEv
__ZN19hk_Hinge_Constraint18write_to_blueprintEP11hk_Hinge_BP
__ZN19hk_Hinge_Constraint19get_constraint_typeEv
__ZN19hk_Hinge_Constraint20get_vmq_storage_sizeEv
__ZN19hk_Hinge_Constraint21init_hinge_constraintEPK11hk_Hinge_BP
__ZN19hk_Hinge_Constraint25setup_and_step_constraintER11hk_PSI_InfoPvff
__ZN19hk_Hinge_Constraint9set_motorEff
__ZN19hk_Hinge_ConstraintC1EP14hk_EnvironmentPK11hk_Hinge_BPP13hk_Rigid_BodyS6_
__ZN19hk_Hinge_ConstraintC1EP26hk_Local_Constraint_SystemPK11hk_Hinge_BPP13hk_Rigid_BodyS6_
__ZN19hk_Hinge_ConstraintD0Ev
__ZN19hk_Hinge_ConstraintD1Ev
__ZN19physcollideheader_t9m_DataMapE
__ZN20CAirboatFrictionData15GetContactPointER6Vector
__ZN20CAirboatFrictionData15GetContactSpeedER6Vector
__ZN20CAirboatFrictionData16GetSurfaceNormalER6Vector
__ZN20CPhysicsCollisionSet13ShouldCollideEii
__ZN20CPhysicsCollisionSet16EnableCollisionsEii
__ZN20CPhysicsCollisionSet17DisableCollisionsEii
__ZN20CPhysicsFrictionData15GetContactPointER6Vector
__ZN20CPhysicsFrictionData15GetContactSpeedER6Vector
__ZN20CPhysicsFrictionData16GetSurfaceNormalER6Vector
__ZN20CPhysicsSurfaceProps13GetIVPManagerEv
__ZN20CPhysicsSurfaceProps14GetIVPMaterialEi
__ZN20CPhysicsSurfaceProps14GetSurfaceDataEi
__ZN20CPhysicsSurfaceProps16ParseSurfaceDataEPKcS1_
__ZN20CPhysicsSurfaceProps17AddFileToDatabaseEPKc
__ZN20CPhysicsSurfaceProps26SetWorldMaterialIndexTableEPii
__ZN20CPhysicsSurfacePropsC2Ev
__ZN20CPhysicsSurfacePropsD0Ev
__ZN20CPhysicsSurfacePropsD1Ev
__ZN20CPhysicsSurfacePropsD2Ev
__ZN20IVP_3D_Solver_PF_NPF9get_valueEP12IVP_U_MatrixS1_
__ZN20IVP_3D_Solver_S_VALS9get_valueEP12IVP_U_MatrixS1_
__ZN20IVP_Collision_FilterD0Ev
__ZN20IVP_Collision_FilterD1Ev
__ZN20IVP_Collision_FilterD2Ev
__ZN20IVP_Compact_TriangleC1Ev
__ZN20IVP_Constraint_Local17fix_rotation_axisE20IVP_COORDINATE_INDEX
__ZN20IVP_Constraint_Local18free_rotation_axisE20IVP_COORDINATE_INDEX
__ZN20IVP_Constraint_Local19limit_rotation_axisE20IVP_COORDINATE_INDEXff
__ZN20IVP_Constraint_Local20fix_translation_axisE20IVP_COORDINATE_INDEX
__ZN20IVP_Constraint_Local21free_translation_axisE20IVP_COORDINATE_INDEX
__ZN20IVP_Constraint_Local21sort_rotation_mappingEv
__ZN20IVP_Constraint_Local22limit_translation_axisE20IVP_COORDINATE_INDEXff
__ZN20IVP_Constraint_Local23change_fixing_point_RosEPK11IVP_U_Point
__ZN20IVP_Constraint_Local24change_rotation_axes_RosEPK13IVP_U_Matrix3
__ZN20IVP_Constraint_Local24do_simulation_controllerEP13IVP_Event_SimP12IVP_U_VectorI8IVP_CoreE
__ZN20IVP_Constraint_Local24sort_translation_mappingEv
__ZN20IVP_Constraint_Local27change_max_rotation_impulseE27IVP_CONSTRAINT_FORCE_EXCEEDf
__ZN20IVP_Constraint_Local27change_translation_axes_RosEPK13IVP_U_Matrix3
__ZN20IVP_Constraint_Local30change_max_translation_impulseE27IVP_CONSTRAINT_FORCE_EXCEEDf
__ZN20IVP_Constraint_Local30change_target_fixing_point_RosEPK11IVP_U_Point
__ZN20IVP_Constraint_Local31change_Aos_to_relaxe_constraintEv
__ZN20IVP_Constraint_Local31change_Ros_to_relaxe_constraintEv
__ZN20IVP_Constraint_Local31change_target_rotation_axes_RosEPK13IVP_U_Matrix3
__ZN20IVP_Constraint_Local33core_is_going_to_be_deleted_eventEP8IVP_Core
__ZN20IVP_Constraint_Local34change_target_translation_axes_RosEPK13IVP_U_Matrix3
__ZN20IVP_Constraint_Local4initERK23IVP_Template_Constraint
__ZN20IVP_Constraint_LocalC1ERK23IVP_Template_Constraint
__ZN20IVP_Constraint_LocalD0Ev
__ZN20IVP_Constraint_LocalD1Ev
__ZN20IVP_Friction_Manager22generate_contact_pointEP11IVP_MindistP8IVP_BOOL
__ZN20IVP_Material_Manager11get_dampingEP21IVP_Contact_Situation
__ZN20IVP_Material_Manager12get_adhesionEP21IVP_Contact_Situation
__ZN20IVP_Material_Manager14get_elasticityEP21IVP_Contact_Situation
__ZN20IVP_Material_Manager19get_friction_factorEP21IVP_Contact_Situation
__ZN20IVP_Material_Manager21get_material_by_indexEP15IVP_Real_ObjectPK11IVP_U_Pointi
__ZN20IVP_Material_Manager27environment_will_be_deletedEP15IVP_Environment
__ZN20IVP_Material_ManagerC1E8IVP_BOOL
__ZN20IVP_Material_ManagerC2E8IVP_BOOL
__ZN20IVP_Material_ManagerD0Ev
__ZN20IVP_Material_ManagerD1Ev
__ZN20IVP_Mindist_Settings23set_collision_toleranceEdd
__ZN20IVP_Mindist_SettingsC2Ev
__ZN20IVP_Mutual_Energizer21init_mutual_energizerEP8IVP_CoreS1_
__ZN20IVP_Mutual_Energizer22destroy_percent_energyEd
__ZN20IVP_Ray_Hit_ListenerD0Ev
__ZN20IVP_Ray_Hit_ListenerD1Ev
__ZN20IVP_Ray_Solver_Group28check_ray_group_against_nodeEP11IVP_OV_NodeP19IVP_OV_Tree_Manager
__ZN20IVP_Ray_Solver_Group30check_ray_group_against_objectEP15IVP_Real_Object
__ZN20IVP_Ray_Solver_Group42check_ray_group_against_all_objects_in_simEPK15IVP_Environment
__ZN20IVP_Ray_Solver_GroupC1EiPP14IVP_Ray_Solver
__ZN20IVP_Ray_Solver_GroupC2EiPP14IVP_Ray_Solver
__ZN20IVP_Real_Object_FastC2EP11IVP_ClusterPK19IVP_Template_Object
__ZN20IVP_Real_Object_FastD0Ev
__ZN20IVP_Real_Object_FastD1Ev
__ZN20IVP_Template_PhantomC1Ev
__ZN20IVP_Template_PolygonC1Eiii
__ZN20IVP_Template_PolygonC1Ev
__ZN20IVP_Template_PolygonC2Eiii
__ZN20IVP_Template_PolygonD1Ev
__ZN20IVP_Template_PolygonD2Ev
__ZN20IVP_Template_Surface12init_surfaceEi
__ZN20IVP_Template_Surface13close_surfaceEv
__ZN20IVP_Template_Surface17get_surface_indexEv
__ZN20IVP_Template_SurfaceC1Ev
__ZN20IVP_Template_SurfaceD1Ev
__ZN20IVP_U_BigVector_Base13increment_memEv
__ZN20hk_Dense_Matrix_Util10invert_5x5ER21hk_Fixed_Dense_MatrixILi5EEf
__ZN20hk_Dense_Matrix_Util10invert_6x6ER21hk_Fixed_Dense_MatrixILi6EEf
__ZN20hk_Dense_Matrix_Util20invert_3x3_symmetricER15hk_Dense_Matrixf
__ZN20hk_Dense_Matrix_Util4multERK15hk_Dense_MatrixRK15hk_Dense_VectorRS3_
__ZN20hk_Pulley_Constraint15init_constraintEPKv
__ZN20hk_Pulley_Constraint15step_constraintER11hk_PSI_InfoPvff
__ZN20hk_Pulley_Constraint18get_constraint_dofEv
__ZN20hk_Pulley_Constraint18write_to_blueprintEP12hk_Pulley_BP
__ZN20hk_Pulley_Constraint19get_constraint_typeEv
__ZN20hk_Pulley_Constraint20get_vmq_storage_sizeEv
__ZN20hk_Pulley_Constraint25setup_and_step_constraintER11hk_PSI_InfoPvff
__ZN20hk_Pulley_ConstraintC1EP14hk_EnvironmentPK12hk_Pulley_BPP13hk_Rigid_BodyS6_
__ZN20hk_Pulley_ConstraintC1EP26hk_Local_Constraint_SystemPK12hk_Pulley_BPP13hk_Rigid_BodyS6_
__ZN20hk_Pulley_ConstraintD0Ev
__ZN20hk_Pulley_ConstraintD1Ev
__ZN20vehicle_axleparams_t9m_DataMapE
__ZN20vehicle_bodyparams_t9m_DataMapE
__ZN21CPhysicsCollisionData15GetContactPointER6Vector
__ZN21CPhysicsCollisionData15GetContactSpeedER6Vector
__ZN21CPhysicsCollisionData16GetSurfaceNormalER6Vector
__ZN21CUtlCStringConversion14FindConversionEPKcPi
__ZN21CUtlCStringConversionC2EcPKciPN18CUtlCharConversion17ConversionArray_tE
__ZN21CVPhysicsDebugOverlay13AddBoxOverlayERK6VectorS2_S2_RK6QAngleiiiif
__ZN21CVPhysicsDebugOverlay14AddLineOverlayERK6VectorS2_iiibf
__ZN21CVPhysicsDebugOverlay14AddTextOverlayERK6VectorfPKcz
__ZN21CVPhysicsDebugOverlay14AddTextOverlayERK6VectorifPKcz
__ZN21CVPhysicsDebugOverlay17AddTextOverlayRGBERK6VectorifffffPKcz
__ZN21CVPhysicsDebugOverlay18AddSweptBoxOverlayERK6VectorS2_S2_S2_RK6QAngleiiiif
__ZN21CVPhysicsDebugOverlay18AddTriangleOverlayERK6VectorS2_S2_iiiibf
__ZN21CVPhysicsDebugOverlay20AddEntityTextOverlayEiifiiiiPKcz
__ZN21CVPhysicsDebugOverlay20AddScreenTextOverlayEfffiiiiPKc
__ZN21IVP_3D_Solver_KK_COLL9get_valueEP12IVP_U_MatrixS1_
__ZN21IVP_3D_Solver_PF_COLL9get_valueEP12IVP_U_MatrixS1_
__ZN21IVP_3D_Solver_PK_COLL9get_valueEP12IVP_U_MatrixS1_
__ZN21IVP_Active_Value_HashD0Ev
__ZN21IVP_Active_Value_HashD1Ev
__ZN21IVP_Attacher_To_CoresI23IVP_Controller_BuoyancyE13element_addedEP16IVP_U_Set_ActiveI8IVP_CoreEPS3_
__ZN21IVP_Attacher_To_CoresI23IVP_Controller_BuoyancyE15element_removedEP16IVP_U_Set_ActiveI8IVP_CoreEPS3_
__ZN21IVP_Attacher_To_CoresI23IVP_Controller_BuoyancyE27pset_is_going_to_be_deletedEP16IVP_U_Set_ActiveI8IVP_CoreE
__ZN21IVP_Attacher_To_CoresI23IVP_Controller_BuoyancyEC2EP16IVP_U_Set_ActiveI8IVP_CoreE
__ZN21IVP_Attacher_To_CoresI23IVP_Controller_BuoyancyED0Ev
__ZN21IVP_Attacher_To_CoresI23IVP_Controller_BuoyancyED1Ev
__ZN21IVP_Compact_Recursive17add_compact_ledgeEPK17IVP_Compact_Ledge
__ZN21IVP_Compact_Recursive17build_convex_hullEv
__ZN21IVP_Compact_Recursive25set_rekursive_convex_hullEv
__ZN21IVP_Compact_Recursive7compileEv
__ZN21IVP_Compact_RecursiveC1Ev
__ZN21IVP_Compact_RecursiveD1Ev
__ZN21IVP_Contact_Point_API14get_vert_forceEP17IVP_Contact_Point
__ZN21IVP_Contact_Point_API21get_eliminated_energyEP17IVP_Contact_Point
__ZN21IVP_Contact_Point_API21get_surface_normal_wsEP17IVP_Contact_PointP17IVP_U_Float_Point
__ZN21IVP_Contact_Point_API23reset_eliminated_energyEP17IVP_Contact_Point
__ZN21IVP_Hull_Manager_BaseC1Ev
__ZN21IVP_Hull_Manager_BaseD1Ev
__ZN21IVP_Mindist_Recursive12is_recursiveEv
__ZN21IVP_Mindist_Recursive19mindist_rescue_pushEv
__ZN21IVP_Mindist_Recursive24recheck_recursive_childsEd
__ZN21IVP_Mindist_Recursive25get_spawned_mindist_countEv
__ZN21IVP_Mindist_Recursive26exact_mindist_went_invalidEP19IVP_Mindist_Manager
__ZN21IVP_Mindist_Recursive26invalid_mindist_went_exactEv
__ZN21IVP_Mindist_Recursive28change_spawned_mindist_countEi
__ZN21IVP_Mindist_Recursive29rec_hull_limit_exceeded_eventEv
__ZN21IVP_Mindist_Recursive38collision_is_going_to_be_deleted_eventEP13IVP_Collision
__ZN21IVP_Mindist_Recursive9do_impactEv
__ZN21IVP_Mindist_RecursiveC1EP15IVP_EnvironmentP23IVP_Collision_Delegator
__ZN21IVP_Mindist_RecursiveD0Ev
__ZN21IVP_Mindist_RecursiveD1Ev
__ZN21IVP_Mindist_RecursiveD2Ev
__ZN21IVP_Sim_Units_Manager10reset_timeE8IVP_Time
__ZN21IVP_Sim_Units_Manager22simulate_sim_units_psiEP15IVP_EnvironmentP12IVP_U_VectorI8IVP_CoreE
__ZN21IVP_Sim_Units_Manager23add_sim_unit_to_managerEP19IVP_Simulation_Unit
__ZN21IVP_Sim_Units_ManagerC1EP15IVP_Environment
__ZN21IVP_Statistic_Manager15clear_statisticEv
__ZN21IVP_Statistic_ManagerC1Ev
__ZN21hk_Ragdoll_Constraint15init_constraintEPKv
__ZN21hk_Ragdoll_Constraint15step_constraintER11hk_PSI_InfoPvff
__ZN21hk_Ragdoll_Constraint15update_frictionEf
__ZN21hk_Ragdoll_Constraint17update_transformsERK12hk_TransformS2_
__ZN21hk_Ragdoll_Constraint18get_constraint_dofEv
__ZN21hk_Ragdoll_Constraint18write_to_blueprintEP24hk_Ragdoll_Constraint_BP
__ZN21hk_Ragdoll_Constraint19get_constraint_typeEv
__ZN21hk_Ragdoll_Constraint20get_vmq_storage_sizeEv
__ZN21hk_Ragdoll_Constraint23init_ragdoll_constraintEPK24hk_Ragdoll_Constraint_BPP26hk_Local_Constraint_System
__ZN21hk_Ragdoll_Constraint25setup_and_step_constraintER11hk_PSI_InfoPvff
__ZN21hk_Ragdoll_ConstraintC1EP14hk_EnvironmentPK24hk_Ragdoll_Constraint_BPP13hk_Rigid_BodyS6_
__ZN21hk_Ragdoll_ConstraintC1EP26hk_Local_Constraint_SystemPK24hk_Ragdoll_Constraint_BPP13hk_Rigid_BodyS6_
__ZN21hk_Ragdoll_ConstraintC2EP14hk_EnvironmentPK24hk_Ragdoll_Constraint_BPP13hk_Rigid_BodyS6_
__ZN21hk_Ragdoll_ConstraintC2EP26hk_Local_Constraint_SystemPK24hk_Ragdoll_Constraint_BPP13hk_Rigid_BodyS6_
__ZN21hk_Ragdoll_ConstraintD0Ev
__ZN21hk_Ragdoll_ConstraintD1Ev
__ZN21vehicle_wheelparams_t9m_DataMapE
__ZN22CCleanupUtlSymbolTableD1Ev
__ZN22CPolyhedron_AllocByNew7ReleaseEv
__ZN22CPolyhedron_AllocByNew8AllocateEtttt
__ZN22CPolyhedron_AllocByNewD0Ev
__ZN22CPolyhedron_AllocByNewD1Ev
__ZN22CPolyhedron_TempMemory7ReleaseEv
__ZN22CPolyhedron_TempMemoryD0Ev
__ZN22CPolyhedron_TempMemoryD1Ev
__ZN22IVP_Actuator_Two_Point29ensure_actuator_in_simulationEv
__ZN22IVP_Actuator_Two_PointC2EP15IVP_EnvironmentP22IVP_Template_Two_Point17IVP_ACTUATOR_TYPE
__ZN22IVP_Actuator_Two_PointD0Ev
__ZN22IVP_Actuator_Two_PointD1Ev
__ZN22IVP_Actuator_Two_PointD2Ev
__ZN22IVP_BetterDebugmanager15output_functionE15IVP_DEBUG_CLASSPKc
__ZN22IVP_BetterDebugmanager16is_debug_enabledE15IVP_DEBUG_CLASS
__ZN22IVP_BetterDebugmanager6dprintE15IVP_DEBUG_CLASSPKcz
__ZN22IVP_BetterDebugmanagerD0Ev
__ZN22IVP_BetterDebugmanagerD1Ev
__ZN22IVP_Controller_Manager22add_controller_to_coreEP26IVP_Controller_IndependentP8IVP_Core
__ZN22IVP_Controller_Manager25ensure_core_in_simulationEP8IVP_Core
__ZN22IVP_Controller_Manager27remove_controller_from_coreEP26IVP_Controller_IndependentP8IVP_Core
__ZN22IVP_Controller_Manager31ensure_controller_in_simulationEP24IVP_Controller_Dependent
__ZN22IVP_Controller_Manager34announce_controller_to_environmentEP24IVP_Controller_Dependent
__ZN22IVP_Controller_Manager34remove_controller_from_environmentEP24IVP_Controller_Dependent8IVP_BOOL
__ZN22IVP_Controller_Phantom19event_object_frozenEP16IVP_Event_Object
__ZN22IVP_Controller_Phantom19mindist_left_volumeEP11IVP_Mindist
__ZN22IVP_Controller_Phantom20add_listener_phantomEP20IVP_Listener_Phantom
__ZN22IVP_Controller_Phantom20event_object_createdEP16IVP_Event_Object
__ZN22IVP_Controller_Phantom20event_object_deletedEP16IVP_Event_Object
__ZN22IVP_Controller_Phantom20event_object_revivedEP16IVP_Event_Object
__ZN22IVP_Controller_Phantom22mindist_entered_volumeEP11IVP_Mindist
__ZN22IVP_Controller_Phantom23remove_listener_phantomEP20IVP_Listener_Phantom
__ZN22IVP_Controller_Phantom25wake_all_sleeping_objectsEv
__ZN22IVP_Controller_PhantomC1EP15IVP_Real_ObjectPK20IVP_Template_Phantom
__ZN22IVP_Controller_PhantomC2EP15IVP_Real_ObjectPK20IVP_Template_Phantom
__ZN22IVP_Controller_PhantomD0Ev
__ZN22IVP_Controller_PhantomD1Ev
__ZN22IVP_Controller_PhantomD2Ev
__ZN22IVP_Friction_Core_Pair20number_of_pair_distsEv
__ZN22IVP_Friction_Core_Pair21add_fr_dist_obj_pairsEP17IVP_Contact_Point
__ZN22IVP_Friction_Core_Pair21del_fr_dist_obj_pairsEP17IVP_Contact_Point
__ZN22IVP_Friction_Core_Pair21destroy_mutual_energyEd
__ZN22IVP_Friction_Core_Pair33check_all_fr_mindists_to_be_validEP19IVP_Friction_System
__ZN22IVP_Friction_Core_PairC1Ev
__ZN22IVP_Friction_Core_PairD1Ev
__ZN22IVP_PerformanceCounterD0Ev
__ZN22IVP_PerformanceCounterD1Ev
__ZN22IVP_Rot_Inertia_Solver37calc_mass_center_and_rotation_inertiaEPK19IVP_Compact_SurfaceP11IVP_U_PointS4_
__ZN22IVP_Template_Two_PointC2Ev
__ZN22compactsurfaceheader_t9m_DataMapE
__ZN22vehicle_engineparams_t9m_DataMapE
__ZN23CEmptyCollisionListener10StartTouchEP14IPhysicsObjectS1_P21IPhysicsCollisionData
__ZN23CEmptyCollisionListener12PreCollisionEP17vcollisionevent_t
__ZN23CEmptyCollisionListener13FluidEndTouchEP14IPhysicsObjectP23IPhysicsFluidController
__ZN23CEmptyCollisionListener13PostCollisionEP17vcollisionevent_t
__ZN23CEmptyCollisionListener15FluidStartTouchEP14IPhysicsObjectP23IPhysicsFluidController
__ZN23CEmptyCollisionListener18ObjectEnterTriggerEP14IPhysicsObjectS1_
__ZN23CEmptyCollisionListener18ObjectLeaveTriggerEP14IPhysicsObjectS1_
__ZN23CEmptyCollisionListener19PostSimulationFrameEv
__ZN23CEmptyCollisionListener8EndTouchEP14IPhysicsObjectS1_P21IPhysicsCollisionData
__ZN23CEmptyCollisionListener8FrictionEP14IPhysicsObjectfiiP21IPhysicsCollisionData
__ZN23CPhysCollideVirtualMesh12FrameReleaseEv
__ZN23CPhysCollideVirtualMesh13SetMassCenterERK6Vector
__ZN23CPhysCollideVirtualMesh22CreateMeshBoundingHullERK17virtualmeshlist_t
__ZN23CPhysCollideVirtualMesh24GetAllLedgesWithinRadiusEPK11IVP_U_PointdP15IVP_U_BigVectorI17IVP_Compact_LedgeEPKS4_
__ZN23CPhysCollideVirtualMesh30CreateBoundingSurfaceFromRangeERK17virtualmeshlist_tii
__ZN23CPhysCollideVirtualMesh6AddRefEv
__ZN23CPhysCollideVirtualMeshD0Ev
__ZN23CPhysCollideVirtualMeshD1Ev
__ZN23CPhysicsConstraintGroup14GetErrorParamsEP24constraint_groupparams_t
__ZN23CPhysicsConstraintGroup14IsInErrorStateEv
__ZN23CPhysicsConstraintGroup14SetErrorParamsERK24constraint_groupparams_t
__ZN23CPhysicsConstraintGroup15ClearErrorStateEv
__ZN23CPhysicsConstraintGroup16SolvePenetrationEP14IPhysicsObjectS1_
__ZN23CPhysicsConstraintGroup8ActivateEv
__ZN23CPhysicsConstraintGroupD0Ev
__ZN23CPhysicsConstraintGroupD1Ev
__ZN23CPhysicsFluidController11SetGameDataEPv
__ZN23CPhysicsFluidController22WakeAllSleepingObjectsEv
__ZN23CPhysicsFluidControllerD0Ev
__ZN23CPhysicsFluidControllerD1Ev
__ZN23CTraceSolverSweptObject16SweepLedgeTree_rEPK26IVP_Compact_Ledgetree_Node
__ZN23CTraceSolverSweptObject7DoSweepEv
__ZN23CTraceSolverSweptObject9InitOSRayEv
__ZN23CVPhysPtrSaveRestoreOps11PostRestoreEv
__ZN23CVPhysPtrSaveRestoreOps4SaveERK22SaveRestoreFieldInfo_tP5ISave
__ZN23CVPhysPtrSaveRestoreOps7RestoreERK22SaveRestoreFieldInfo_tP8IRestore
__ZN23IVP_Actuator_Four_PointC2EP15IVP_EnvironmentP23IVP_Template_Four_Point17IVP_ACTUATOR_TYPE
__ZN23IVP_Actuator_Four_PointD0Ev
__ZN23IVP_Actuator_Four_PointD1Ev
__ZN23IVP_Actuator_Four_PointD2Ev
__ZN23IVP_Actuator_Stabilizer18set_stabi_constantEd
__ZN23IVP_Actuator_Stabilizer19get_controller_nameEv
__ZN23IVP_Actuator_Stabilizer24do_simulation_controllerEP13IVP_Event_SimP12IVP_U_VectorI8IVP_CoreE
__ZN23IVP_Actuator_StabilizerC1EP15IVP_EnvironmentP23IVP_Template_Stabilizer
__ZN23IVP_Actuator_StabilizerD0Ev
__ZN23IVP_Actuator_StabilizerD1Ev
__ZN23IVP_Actuator_Suspension18set_max_body_forceEf
__ZN23IVP_Actuator_Suspension19get_controller_nameEv
__ZN23IVP_Actuator_Suspension24do_simulation_controllerEP13IVP_Event_SimP12IVP_U_VectorI8IVP_CoreE
__ZN23IVP_Actuator_Suspension27set_spring_damp_compressionEf
__ZN23IVP_Actuator_SuspensionC1EP15IVP_EnvironmentP23IVP_Template_Suspension
__ZN23IVP_Actuator_SuspensionD0Ev
__ZN23IVP_Actuator_SuspensionD1Ev
__ZN23IVP_Collision_Delegator25get_spawned_mindist_countEv
__ZN23IVP_Collision_Delegator28change_spawned_mindist_countEi
__ZN23IVP_Collision_DelegatorD0Ev
__ZN23IVP_Collision_DelegatorD1Ev
__ZN23IVP_Controller_Buoyancy15apply_dampeningEP15IVP_Real_ObjectfdP17IVP_U_Float_PointS3_S3_
__ZN23IVP_Controller_Buoyancy19get_controller_nameEv
__ZN23IVP_Controller_Buoyancy19use_buoyancy_solverEPK18IVP_Buoyancy_InputPK21IVP_Template_BuoyancyP19IVP_Buoyancy_OutputPK17IVP_U_Float_Pointi
__ZN23IVP_Controller_Buoyancy22apply_buoyancy_impulseEP15IVP_Real_ObjectP21IVP_Template_BuoyancydfP17IVP_U_Float_Point
__ZN23IVP_Controller_Buoyancy23get_controller_priorityEv
__ZN23IVP_Controller_Buoyancy24do_simulation_controllerEP13IVP_Event_SimP12IVP_U_VectorI8IVP_CoreE
__ZN23IVP_Controller_Buoyancy32get_minimum_simulation_frequencyEv
__ZN23IVP_Controller_Buoyancy33core_is_going_to_be_deleted_eventEP8IVP_Core
__ZN23IVP_Controller_BuoyancyC1EP21IVP_Attacher_To_CoresIS_EP8IVP_Core
__ZN23IVP_Controller_BuoyancyD0Ev
__ZN23IVP_Controller_BuoyancyD1Ev
__ZN23IVP_Environment_Manager18create_environmentEP27IVP_Application_EnvironmentPKcj
__ZN23IVP_Environment_Manager23get_environment_managerEv
__ZN23IVP_Environment_Manager26static_environment_managerE
__ZN23IVP_Environment_ManagerD1Ev
__ZN23IVP_Friction_Sys_Energy19get_controller_nameEv
__ZN23IVP_Friction_Sys_Energy23get_controller_priorityEv
__ZN23IVP_Friction_Sys_Energy24do_simulation_controllerEP13IVP_Event_SimP12IVP_U_VectorI8IVP_CoreE
__ZN23IVP_Friction_Sys_Energy33core_is_going_to_be_deleted_eventEP8IVP_Core
__ZN23IVP_Friction_Sys_EnergyD0Ev
__ZN23IVP_Friction_Sys_EnergyD1Ev
__ZN23IVP_Friction_Sys_Static19get_controller_nameEv
__ZN23IVP_Friction_Sys_Static23get_controller_priorityEv
__ZN23IVP_Friction_Sys_Static24do_simulation_controllerEP13IVP_Event_SimP12IVP_U_VectorI8IVP_CoreE
__ZN23IVP_Friction_Sys_Static32get_minimum_simulation_frequencyEv
__ZN23IVP_Friction_Sys_Static33core_is_going_to_be_deleted_eventEP8IVP_Core
__ZN23IVP_Friction_Sys_StaticD0Ev
__ZN23IVP_Friction_Sys_StaticD1Ev
__ZN23IVP_SurfaceManager_Ball23get_all_terminal_ledgesEP15IVP_U_BigVectorI17IVP_Compact_LedgeE
__ZN23IVP_SurfaceManager_Ball28get_all_ledges_within_radiusEPK11IVP_U_PointdPK17IVP_Compact_LedgeP15IVP_Real_ObjectS5_P15IVP_U_BigVectorIS3_E
__ZN23IVP_SurfaceManager_Ball29insert_all_ledges_hitting_rayEP14IVP_Ray_SolverP15IVP_Real_Object
__ZN23IVP_SurfaceManager_Ball8get_typeEv
__ZN23IVP_SurfaceManager_BallD0Ev
__ZN23IVP_SurfaceManager_BallD1Ev
__ZN23IVP_Template_Constraint17fix_rotation_axisE20IVP_COORDINATE_INDEX
__ZN23IVP_Template_Constraint18free_rotation_axisE20IVP_COORDINATE_INDEX
__ZN23IVP_Template_Constraint19set_attached_objectEP15IVP_Real_Object
__ZN23IVP_Template_Constraint20set_reference_objectEP15IVP_Real_Object
__ZN23IVP_Template_Constraint21free_translation_axisE20IVP_COORDINATE_INDEX
__ZN23IVP_Template_ConstraintC1Ev
__ZN23IVP_Template_StabilizerC1Ev
__ZN23IVP_Template_SuspensionC1Ev
__ZN23hk_Breakable_Constraint15init_constraintEPKv
__ZN23hk_Breakable_Constraint15step_constraintER11hk_PSI_InfoPvff
__ZN23hk_Breakable_Constraint18get_constraint_dofEv
__ZN23hk_Breakable_Constraint18write_to_blueprintEP26hk_Breakable_Constraint_BP
__ZN23hk_Breakable_Constraint19get_constraint_typeEv
__ZN23hk_Breakable_Constraint20get_vmq_storage_sizeEv
__ZN23hk_Breakable_Constraint25setup_and_step_constraintER11hk_PSI_InfoPvff
__ZN23hk_Breakable_ConstraintC1EP26hk_Local_Constraint_SystemPK26hk_Breakable_Constraint_BP
__ZN23hk_Breakable_ConstraintD0Ev
__ZN23hk_Breakable_ConstraintD1Ev
__ZN23hk_Prismatic_Constraint15init_constraintEPKv
__ZN23hk_Prismatic_Constraint15step_constraintER11hk_PSI_InfoPvff
__ZN23hk_Prismatic_Constraint18get_constraint_dofEv
__ZN23hk_Prismatic_Constraint18reset_linear_limitEv
__ZN23hk_Prismatic_Constraint18write_to_blueprintEP15hk_Prismatic_BP
__ZN23hk_Prismatic_Constraint19get_constraint_typeEv
__ZN23hk_Prismatic_Constraint20get_vmq_storage_sizeEv
__ZN23hk_Prismatic_Constraint25init_prismatic_constraintEPK15hk_Prismatic_BPP26hk_Local_Constraint_System
__ZN23hk_Prismatic_Constraint25setup_and_step_constraintER11hk_PSI_InfoPvff
__ZN23hk_Prismatic_Constraint9set_motorEff
__ZN23hk_Prismatic_ConstraintC1EP14hk_EnvironmentPK15hk_Prismatic_BPP13hk_Rigid_BodyS6_
__ZN23hk_Prismatic_ConstraintC1EP26hk_Local_Constraint_SystemPK15hk_Prismatic_BPP13hk_Rigid_BodyS6_
__ZN23hk_Prismatic_ConstraintD0Ev
__ZN23hk_Prismatic_ConstraintD1Ev
__ZN23hk_Rigid_Body_Binary_EF21get_effected_entitiesER8hk_ArrayIP13hk_Rigid_BodyE
__ZN23hk_Rigid_Body_Binary_EFC2EP14hk_EnvironmentP13hk_Rigid_BodyS3_23IVP_CONTROLLER_PRIORITY
__ZN24CLiquidSurfaceDescriptor19calc_liquid_surfaceEP15IVP_EnvironmentP8IVP_CoreP17IVP_U_Float_HesseP17IVP_U_Float_Point
__ZN24CLiquidSurfaceDescriptorC2EP14CPhysicsObjectRK8Vector4DRK6Vector
__ZN24CLiquidSurfaceDescriptorD0Ev
__ZN24CLiquidSurfaceDescriptorD1Ev
__ZN24CPhysicsMotionController10GetObjectsEPP14IPhysicsObject
__ZN24CPhysicsMotionController11SetPriorityEN24IPhysicsMotionController10priority_tE
__ZN24CPhysicsMotionController11WakeObjectsEv
__ZN24CPhysicsMotionController12AttachObjectEP14IPhysicsObjectb
__ZN24CPhysicsMotionController12ClearObjectsEv
__ZN24CPhysicsMotionController12CountObjectsEv
__ZN24CPhysicsMotionController12DetachObjectEP14IPhysicsObject
__ZN24CPhysicsMotionController15SetEventHandlerEP12IMotionEvent
__ZN24CPhysicsMotionController19get_controller_nameEv
__ZN24CPhysicsMotionController23get_controller_priorityEv
__ZN24CPhysicsMotionController24do_simulation_controllerEP13IVP_Event_SimP12IVP_U_VectorI8IVP_CoreE
__ZN24CPhysicsMotionController33core_is_going_to_be_deleted_eventEP8IVP_Core
__ZN24CPhysicsMotionControllerD0Ev
__ZN24CPhysicsMotionControllerD1Ev
__ZN24IVP_Cache_Object_Manager16get_cache_objectEP15IVP_Real_Object
__ZN24IVP_Cache_Object_Manager20invalid_cache_objectEP15IVP_Real_Object
__ZN24IVP_Cache_Object_ManagerC1Ei
__ZN24IVP_Cache_Object_ManagerD1Ev
__ZN24IVP_Calc_Next_PSI_Solver18set_transformationEPK10IVP_U_QuatPK11IVP_U_Point8IVP_BOOL
__ZN24IVP_Calc_Next_PSI_Solver20calc_next_PSI_matrixEP13IVP_Event_SimP12IVP_U_VectorI21IVP_Hull_Manager_BaseE
__ZN24IVP_Calc_Next_PSI_Solver20calc_rotation_matrixEfP10IVP_U_Quat
__ZN24IVP_Calc_Next_PSI_Solver22calc_psi_rotation_axisEPK10IVP_U_Quat
__ZN24IVP_Calc_Next_PSI_Solver24commit_all_hull_managersEP15IVP_EnvironmentP12IVP_U_VectorI21IVP_Hull_Manager_BaseE
__ZN24IVP_Calc_Next_PSI_Solver31commit_all_calc_next_PSI_matrixEP15IVP_EnvironmentP12IVP_U_VectorI8IVP_CoreEPS2_I21IVP_Hull_Manager_BaseE
__ZN24IVP_Compact_Ledge_Solver12calc_qlen_KKEPK16IVP_Compact_EdgeS2_P21IVP_Cache_Ledge_PointS4_
__ZN24IVP_Compact_Ledge_Solver14get_all_ledgesEPK19IVP_Compact_SurfaceP15IVP_U_BigVectorI17IVP_Compact_LedgeE
__ZN24IVP_Compact_Ledge_Solver14get_all_ledgesEPK26IVP_Compact_Ledgetree_NodeP15IVP_U_BigVectorI17IVP_Compact_LedgeE
__ZN24IVP_Compact_Ledge_Solver17calc_bounding_boxEPK17IVP_Compact_LedgeP11IVP_U_PointS4_
__ZN24IVP_Compact_Ledge_Solver17calc_hesse_objectEPK16IVP_Compact_EdgePK17IVP_Compact_LedgeP11IVP_U_Hesse
__ZN24IVP_Compact_Ledge_Solver20calc_pos_other_spaceEPK16IVP_Compact_EdgeP21IVP_Cache_Ledge_PointS4_P11IVP_U_Point
__ZN24IVP_Compact_Ledge_Solver20calc_qlen_PF_F_spaceEPK17IVP_Compact_LedgePK20IVP_Compact_TrianglePK11IVP_U_Point
__ZN24IVP_Compact_Ledge_Solver20calc_qlen_PK_K_spaceEPK11IVP_U_PointPK17IVP_Compact_LedgePK16IVP_Compact_Edge
__ZN24IVP_Compact_Ledge_Solver20give_world_coords_ATEPK16IVP_Compact_EdgeP21IVP_Cache_Ledge_PointP11IVP_U_Point
__ZN24IVP_Compact_Ledge_Solver21calc_unscaled_KK_valsERK12IVP_KK_InputP22IVP_Unscaled_KK_Result
__ZN24IVP_Compact_Ledge_Solver22minimize_on_other_sideEPK16IVP_Compact_EdgePK11IVP_U_Point
__ZN24IVP_Compact_Ledge_Solver25transform_pos_other_spaceEPK17IVP_U_Float_PointP21IVP_Cache_Ledge_PointS4_P11IVP_U_Point
__ZN24IVP_Compact_Ledge_Solver27calc_radius_to_given_centerEPK17IVP_Compact_LedgePK11IVP_U_PointPdS6_
__ZN24IVP_Compact_Ledge_Solver27calc_radius_to_given_centerEPK19IVP_Compact_SurfacePK11IVP_U_PointPdS6_
__ZN24IVP_Compact_Ledge_Solver27calc_unscaled_s_val_K_spaceEPK17IVP_Compact_LedgePK16IVP_Compact_EdgePK11IVP_U_PointP21IVP_Unscaled_S_Result
__ZN24IVP_Compact_Ledge_Solver29calc_unscaled_qr_vals_F_spaceEPK17IVP_Compact_LedgePK16IVP_Compact_EdgePK11IVP_U_PointP22IVP_Unscaled_QR_Result
__ZN24IVP_Compact_Ledge_Solver31quad_dist_edge_to_point_K_spaceEPK17IVP_Compact_LedgePK16IVP_Compact_EdgePK11IVP_U_Point
__ZN24IVP_Compact_Ledge_Solver34calc_hesse_vec_object_not_normizedEPK16IVP_Compact_EdgePK17IVP_Compact_LedgeP11IVP_U_Point
__ZN24IVP_Compact_Ledge_Solver34calc_hesse_vec_object_not_normizedEPK16IVP_Compact_EdgePK17IVP_Compact_LedgeP17IVP_U_Float_Point
__ZN24IVP_Mindist_Event_Solver13next_event_BBEPS_
__ZN24IVP_Mindist_Event_Solver17next_event_B_POLYEPS_
__ZN24IVP_Mindist_Event_Solver18calc_next_event_BBEP16IVP_Cache_ObjectS1_
__ZN24IVP_Mindist_Event_Solver18calc_next_event_BFEPK16IVP_Compact_EdgeP16IVP_Cache_ObjectP21IVP_Cache_Ledge_Point
__ZN24IVP_Mindist_Event_Solver18calc_next_event_BKEP8IVP_BallPK16IVP_Compact_EdgeP16IVP_Cache_ObjectP21IVP_Cache_Ledge_Point
__ZN24IVP_Mindist_Event_Solver18calc_next_event_BPEP8IVP_BallPK16IVP_Compact_EdgeP16IVP_Cache_ObjectP21IVP_Cache_Ledge_Point
__ZN24IVP_Mindist_Event_Solver18calc_next_event_KKEPK16IVP_Compact_EdgeS2_P21IVP_Cache_Ledge_PointS4_
__ZN24IVP_Mindist_Event_Solver18calc_next_event_PFEPK16IVP_Compact_EdgeS2_P21IVP_Cache_Ledge_PointS4_
__ZN24IVP_Mindist_Event_Solver18calc_next_event_PKEPK16IVP_Compact_EdgeS2_P21IVP_Cache_Ledge_PointS4_
__ZN24IVP_Mindist_Event_Solver18calc_next_event_PPEPK16IVP_Compact_EdgeS2_P21IVP_Cache_Ledge_PointS4_
__ZN24IVP_Mindist_Event_Solver18mim_function_tableE
__ZN24IVP_Mindist_Event_Solver18next_event_illegalEPS_
__ZN24IVP_Mindist_Event_Solver23init_mim_function_tableEv
__ZN24IVP_Mindist_Event_Solver28next_event_default_poly_polyEPS_
__ZN24IVP_Object_Polygon_Tetra14make_trianglesEv
__ZN24IVP_Object_Polygon_Tetra18insert_pierce_infoEv
__ZN24IVP_Object_Polygon_Tetra24generate_double_triangleEP14IVP_Poly_PointS1_S1_
__ZN24IVP_Object_Polygon_TetraC1EP20IVP_Template_Polygon
__ZN24IVP_Object_Polygon_TetraC2EP20IVP_Template_Polygon
__ZN24IVP_Object_Polygon_TetraD1Ev
__ZN24IVP_Object_Polygon_TetraD2Ev
__ZN24IVP_Solver_Core_Reaction11init_rot_wsEP8IVP_CoreP13IVP_U_Point_4S3_f
__ZN24IVP_Solver_Core_Reaction13init_trans_wsEPK11IVP_U_PointP8IVP_CoreP13IVP_U_Point_4S6_f
__ZN24IVP_Solver_Core_Reaction18exert_impulse_dim2EP8IVP_CoreS1_R17IVP_U_Float_Point
__ZN24IVP_Solver_Core_Reaction26exert_angular_impulse_dim2EP8IVP_CoreS1_R17IVP_U_Float_Point
__ZN24IVP_Solver_Core_Reaction32init_reaction_solver_rotation_wsEP8IVP_CoreS1_P17IVP_U_Float_PointS3_S3_
__ZN24IVP_Solver_Core_Reaction35init_reaction_solver_translation_wsEP8IVP_CoreS1_R11IVP_U_PointP17IVP_U_Float_PointS5_S5_
__ZN24IVP_Template_Real_ObjectC1Ev
__ZN24IVP_Template_Real_ObjectD1Ev
__ZN24hk_Constraint_Limit_Util15do_linear_limitER11hk_PSI_InfoP13hk_Rigid_BodyS3_R10hk_Vector3S5_S5_R19hk_Constraint_Limitff
__ZN24hk_Constraint_Limit_Util16do_angular_limitER11hk_PSI_InfoP13hk_Rigid_BodyR10hk_Vector3fS3_R19hk_Constraint_Limitff
__ZN24hk_Constraint_Limit_Util22do_angular_plane_limitER11hk_PSI_InfoP13hk_Rigid_BodyS3_R10hk_Vector3S5_fR19hk_Constraint_Limitff
__ZN24vehicle_steeringparams_t9m_DataMapE
__ZN25BreakableConstraintHelperC2EP13hk_Rigid_Bodyf
__ZN25CPhysicsListenerCollision16CorePairLessFuncERKNS_10corepair_tES2_
__ZN25CPhysicsListenerCollision16core_left_volumeEP22IVP_Controller_PhantomP8IVP_Core
__ZN25CPhysicsListenerCollision17UpdatePairListPSIEP19CPhysicsEnvironment
__ZN25CPhysicsListenerCollision19core_entered_volumeEP22IVP_Controller_PhantomP8IVP_Core
__ZN25CPhysicsListenerCollision19event_pre_collisionEP19IVP_Event_Collision
__ZN25CPhysicsListenerCollision19mindist_left_volumeEP22IVP_Controller_PhantomP16IVP_Mindist_Base
__ZN25CPhysicsListenerCollision20event_post_collisionEP19IVP_Event_Collision
__ZN25CPhysicsListenerCollision22event_friction_createdEP18IVP_Event_Friction
__ZN25CPhysicsListenerCollision22event_friction_deletedEP18IVP_Event_Friction
__ZN25CPhysicsListenerCollision22mindist_entered_volumeEP22IVP_Controller_PhantomP16IVP_Mindist_Base
__ZN25CPhysicsListenerCollision27event_friction_pair_createdEP22IVP_Friction_Core_Pair
__ZN25CPhysicsListenerCollision27event_friction_pair_deletedEP22IVP_Friction_Core_Pair
__ZN25CPhysicsListenerCollision30event_collision_object_deletedEP15IVP_Real_Object
__ZN25CPhysicsListenerCollision36phantom_is_going_to_be_deleted_eventEP22IVP_Controller_Phantom
__ZN25CPhysicsListenerCollisionD0Ev
__ZN25CPhysicsListenerCollisionD1Ev
__ZN25IVP_3D_Solver_KK_PARALLEL9get_valueEP12IVP_U_MatrixS1_
__ZN25IVP_Actuator_Force_Active20active_float_changedEP18IVP_U_Active_Float
__ZN25IVP_Actuator_Force_ActiveC1EP15IVP_EnvironmentP18IVP_Template_Force
__ZN25IVP_Actuator_Force_ActiveC2EP15IVP_EnvironmentP18IVP_Template_Force
__ZN25IVP_Actuator_Force_ActiveD0Ev
__ZN25IVP_Actuator_Force_ActiveD1Ev
__ZN25IVP_Constraint_Car_ObjectC2EP25IVP_Constraint_Solver_CarP15IVP_Real_ObjectS3_P17IVP_U_Float_Point
__ZN25IVP_Constraint_Solver_Car19get_controller_nameEv
__ZN25IVP_Constraint_Solver_Car22init_constraint_systemEP15IVP_EnvironmentP15IVP_Real_ObjectR12IVP_U_VectorIS2_ERS4_I17IVP_U_Float_PointE
__ZN25IVP_Constraint_Solver_Car23get_controller_priorityEv
__ZN25IVP_Constraint_Solver_Car24do_simulation_controllerEP13IVP_Event_SimP12IVP_U_VectorI8IVP_CoreE
__ZN25IVP_Constraint_Solver_Car31get_associated_controlled_coresEv
__ZN25IVP_Constraint_Solver_Car32get_minimum_simulation_frequencyEv
__ZN25IVP_Constraint_Solver_Car33core_is_going_to_be_deleted_eventEP8IVP_Core
__ZN25IVP_Constraint_Solver_Car33do_simulation_controller_rotationEP13IVP_Event_SimP8IVP_CorePK12IVP_U_Matrix
__ZN25IVP_Constraint_Solver_CarC1E20IVP_COORDINATE_INDEXS0_S0_8IVP_BOOL
__ZN25IVP_Constraint_Solver_CarD0Ev
__ZN25IVP_Constraint_Solver_CarD1Ev
__ZN25IVP_Constraint_Solver_CarD2Ev
__ZN25IVP_Object_Callback_TableD1Ev
__ZN25IVP_U_Active_Terminal_Int10update_intEv
__ZN25IVP_U_Active_Terminal_Int5printEv
__ZN25IVP_U_Active_Terminal_Int7set_intEi8IVP_BOOL
__ZN25IVP_U_Active_Terminal_IntD0Ev
__ZN25IVP_U_Active_Terminal_IntD1Ev
__ZN25hk_Ball_Socket_Constraint15init_constraintEPKv
__ZN25hk_Ball_Socket_Constraint15step_constraintER11hk_PSI_InfoPvff
__ZN25hk_Ball_Socket_Constraint18get_constraint_dofEv
__ZN25hk_Ball_Socket_Constraint18write_to_blueprintEP17hk_Ball_Socket_BP
__ZN25hk_Ball_Socket_Constraint19get_constraint_typeEv
__ZN25hk_Ball_Socket_Constraint20get_vmq_storage_sizeEv
__ZN25hk_Ball_Socket_Constraint25setup_and_step_constraintER11hk_PSI_InfoPvff
__ZN25hk_Ball_Socket_ConstraintC1EP14hk_EnvironmentPK17hk_Ball_Socket_BPP13hk_Rigid_BodyS6_
__ZN25hk_Ball_Socket_ConstraintC1EP26hk_Local_Constraint_SystemPK17hk_Ball_Socket_BPP13hk_Rigid_BodyS6_
__ZN25hk_Ball_Socket_ConstraintD0Ev
__ZN25hk_Ball_Socket_ConstraintD1Ev
__ZN25vehicle_operatingparams_t9m_DataMapE
__ZN26CPhysCollideCompactSurface13SetMassCenterERK6Vector
__ZN26CPhysCollideCompactSurface14InitCollideMapEv
__ZN26CPhysCollideCompactSurface20SetOrthographicAreasERK6Vector
__ZN26CPhysCollideCompactSurface24ComputeOrthographicAreasEf
__ZN26CPhysCollideCompactSurfaceD0Ev
__ZN26CPhysCollideCompactSurfaceD1Ev
__ZN26CPhysicsListenerConstraint23event_constraint_brokenEP14IVP_Constraint
__ZN26CPhysicsListenerConstraint23event_constraint_brokenEP23hk_Breakable_Constraint
__ZN26CVPhysicsVirtualMeshWriter16LedgeCanBePackedEPK17IVP_Compact_LedgeRK17virtualmeshlist_t
__ZN26CVPhysicsVirtualMeshWriter17DestroyPackedHullEP17virtualmeshhull_t
__ZN26CVPhysicsVirtualMeshWriter23UnpackLedgeListFromHullEPhP17virtualmeshhull_tP22IVP_Compact_Poly_Point
__ZN26CVPhysicsVirtualMeshWriter24InitTwoSidedTriangleLegeEP15triangleledge_tPK22IVP_Compact_Poly_Pointiiii
__ZN26CVPhysicsVirtualMeshWriter26CreatePackedHullFromLedgesERK17virtualmeshlist_tPPK17IVP_Compact_Ledgei
__ZN26CVPhysicsVirtualMeshWriter26UnpackCompactLedgeFromHullEP17IVP_Compact_LedgeiPK22IVP_Compact_Poly_PointPK17virtualmeshhull_tib
__ZN26IVP_Actuator_Spring_Active20active_float_changedEP18IVP_U_Active_Float
__ZN26IVP_Actuator_Spring_ActiveC1EP15IVP_EnvironmentP19IVP_Template_Spring
__ZN26IVP_Actuator_Spring_ActiveC2EP15IVP_EnvironmentP19IVP_Template_Spring
__ZN26IVP_Actuator_Spring_ActiveD0Ev
__ZN26IVP_Actuator_Spring_ActiveD1Ev
__ZN26IVP_Actuator_Spring_ActiveD2Ev
__ZN26IVP_Actuator_Torque_Active20active_float_changedEP18IVP_U_Active_Float
__ZN26IVP_Actuator_Torque_ActiveC1EP15IVP_EnvironmentP19IVP_Template_Torque
__ZN26IVP_Actuator_Torque_ActiveC2EP15IVP_EnvironmentP19IVP_Template_Torque
__ZN26IVP_Actuator_Torque_ActiveD0Ev
__ZN26IVP_Actuator_Torque_ActiveD1Ev
__ZN26IVP_Actuator_Torque_ActiveD2Ev
__ZN26IVP_Car_System_Real_Wheels11do_steeringEfb
__ZN26IVP_Car_System_Real_Wheels13get_skid_infoEP19IVP_Wheel_Skid_Info
__ZN26IVP_Car_System_Real_Wheels14get_body_speedE20IVP_COORDINATE_INDEX
__ZN26IVP_Car_System_Real_Wheels14set_powerslideEff
__ZN26IVP_Car_System_Real_Wheels14update_boosterEf
__ZN26IVP_Car_System_Real_Wheels15update_throttleEf
__ZN26IVP_Car_System_Real_Wheels16activate_boosterEfff
__ZN26IVP_Car_System_Real_Wheels16get_wheel_torqueE13IVP_POS_WHEEL
__ZN26IVP_Car_System_Real_Wheels17do_steering_wheelE13IVP_POS_WHEELf
__ZN26IVP_Car_System_Real_Wheels17get_booster_delayEv
__ZN26IVP_Car_System_Real_Wheels19change_wheel_torqueE13IVP_POS_WHEELf
__ZN26IVP_Car_System_Real_Wheels20change_spring_lengthE13IVP_POS_WHEELf
__ZN26IVP_Car_System_Real_Wheels21GetCarSystemDebugDataER24IVP_CarSystemDebugData_t
__ZN26IVP_Car_System_Real_Wheels21SetCarSystemDebugDataERK24IVP_CarSystemDebugData_t
__ZN26IVP_Car_System_Real_Wheels21change_body_downforceEf
__ZN26IVP_Car_System_Real_Wheels21change_max_body_forceE13IVP_POS_WHEELf
__ZN26IVP_Car_System_Real_Wheels22change_spring_constantE13IVP_POS_WHEELf
__ZN26IVP_Car_System_Real_Wheels22get_booster_time_to_goEv
__ZN26IVP_Car_System_Real_Wheels22update_wheel_positionsEv
__ZN26IVP_Car_System_Real_Wheels23change_fast_turn_factorEf
__ZN26IVP_Car_System_Real_Wheels23change_spring_dampeningE13IVP_POS_WHEELf
__ZN26IVP_Car_System_Real_Wheels23get_orig_axles_distanceEv
__ZN26IVP_Car_System_Real_Wheels24set_booster_accelerationEf
__ZN26IVP_Car_System_Real_Wheels25change_spring_pre_tensionE13IVP_POS_WHEELf
__ZN26IVP_Car_System_Real_Wheels25update_body_countertorqueEv
__ZN26IVP_Car_System_Real_Wheels26change_stabilizer_constantE12IVP_POS_AXISf
__ZN26IVP_Car_System_Real_Wheels26get_wheel_angular_velocityE13IVP_POS_WHEEL
__ZN26IVP_Car_System_Real_Wheels27environment_will_be_deletedEP15IVP_Environment
__ZN26IVP_Car_System_Real_Wheels29get_orig_front_wheel_distanceEv
__ZN26IVP_Car_System_Real_Wheels35change_spring_dampening_compressionE13IVP_POS_WHEELf
__ZN26IVP_Car_System_Real_Wheels9fix_wheelE13IVP_POS_WHEEL8IVP_BOOL
__ZN26IVP_Car_System_Real_WheelsC1EP15IVP_EnvironmentP23IVP_Template_Car_System
__ZN26IVP_Car_System_Real_WheelsC2EP15IVP_EnvironmentP23IVP_Template_Car_System
__ZN26IVP_Car_System_Real_WheelsD0Ev
__ZN26IVP_Car_System_Real_WheelsD1Ev
__ZN26IVP_Compact_Ledgetree_Node13byte_swap_allEP15IVP_U_BigVectorI22IVP_Compact_Poly_PointE
__ZN26IVP_Controller_Independent10empty_listE
__ZN26IVP_Controller_Independent31get_associated_controlled_coresEv
__ZN26IVP_Controller_Raycast_Car11do_steeringEfb
__ZN26IVP_Controller_Raycast_Car13get_skid_infoEP19IVP_Wheel_Skid_Info
__ZN26IVP_Controller_Raycast_Car14get_body_speedE20IVP_COORDINATE_INDEX
__ZN26IVP_Controller_Raycast_Car14set_powerslideEff
__ZN26IVP_Controller_Raycast_Car14update_boosterEf
__ZN26IVP_Controller_Raycast_Car15update_throttleEf
__ZN26IVP_Controller_Raycast_Car16activate_boosterEfff
__ZN26IVP_Controller_Raycast_Car16get_wheel_torqueE13IVP_POS_WHEEL
__ZN26IVP_Controller_Raycast_Car17do_steering_wheelE13IVP_POS_WHEELf
__ZN26IVP_Controller_Raycast_Car17get_booster_delayEv
__ZN26IVP_Controller_Raycast_Car18CalcSteeringForcesEP26IVP_Raycast_Car_Wheel_TempP8IVP_CoreP13IVP_Event_SimPf
__ZN26IVP_Controller_Raycast_Car18DoSimulationShocksEP26IVP_Raycast_Car_Wheel_TempP11IVP_Ray_HitP13IVP_Event_SimP8IVP_Core
__ZN26IVP_Controller_Raycast_Car18DoSimulationWheelsEP23IVP_Ray_Solver_TemplatePK12IVP_U_MatrixP26IVP_Raycast_Car_Wheel_TempP11IVP_Ray_HitPfP8IVP_Core
__ZN26IVP_Controller_Raycast_Car18SetupWheelRaycastsEP23IVP_Ray_Solver_TemplatePK12IVP_U_MatrixP26IVP_Raycast_Car_Wheel_Temp
__ZN26IVP_Controller_Raycast_Car19ApplySteeringForcesEP26IVP_Raycast_Car_Wheel_TempP8IVP_CoreP13IVP_Event_SimPf
__ZN26IVP_Controller_Raycast_Car19DoSimulationBoosterEP13IVP_Event_SimP8IVP_Core
__ZN26IVP_Controller_Raycast_Car19change_wheel_torqueE13IVP_POS_WHEELf
__ZN26IVP_Controller_Raycast_Car20InitRaycastCarWheelsEPK23IVP_Template_Car_System
__ZN26IVP_Controller_Raycast_Car20change_spring_lengthE13IVP_POS_WHEELf
__ZN26IVP_Controller_Raycast_Car21GetCarSystemDebugDataER24IVP_CarSystemDebugData_t
__ZN26IVP_Controller_Raycast_Car21SetCarSystemDebugDataERK24IVP_CarSystemDebugData_t
__ZN26IVP_Controller_Raycast_Car21change_body_downforceEf
__ZN26IVP_Controller_Raycast_Car21change_max_body_forceE13IVP_POS_WHEELf
__ZN26IVP_Controller_Raycast_Car22change_spring_constantE13IVP_POS_WHEELf
__ZN26IVP_Controller_Raycast_Car22get_booster_time_to_goEv
__ZN26IVP_Controller_Raycast_Car23DoSimulationStabilizersEP26IVP_Raycast_Car_Wheel_Temp
__ZN26IVP_Controller_Raycast_Car23change_fast_turn_factorEf
__ZN26IVP_Controller_Raycast_Car23change_spring_dampeningE13IVP_POS_WHEELf
__ZN26IVP_Controller_Raycast_Car23get_controller_priorityEv
__ZN26IVP_Controller_Raycast_Car23get_orig_axles_distanceEv
__ZN26IVP_Controller_Raycast_Car24do_simulation_controllerEP13IVP_Event_SimP12IVP_U_VectorI8IVP_CoreE
__ZN26IVP_Controller_Raycast_Car24set_booster_accelerationEf
__ZN26IVP_Controller_Raycast_Car25change_spring_pre_tensionE13IVP_POS_WHEELf
__ZN26IVP_Controller_Raycast_Car25update_body_countertorqueEv
__ZN26IVP_Controller_Raycast_Car26change_stabilizer_constantE12IVP_POS_AXISf
__ZN26IVP_Controller_Raycast_Car26get_wheel_angular_velocityE13IVP_POS_WHEEL
__ZN26IVP_Controller_Raycast_Car29get_orig_front_wheel_distanceEv
__ZN26IVP_Controller_Raycast_Car31get_associated_controlled_coresEv
__ZN26IVP_Controller_Raycast_Car33core_is_going_to_be_deleted_eventEP8IVP_Core
__ZN26IVP_Controller_Raycast_Car35change_spring_dampening_compressionE13IVP_POS_WHEELf
__ZN26IVP_Controller_Raycast_Car9fix_wheelE13IVP_POS_WHEEL8IVP_BOOL
__ZN26IVP_Controller_Raycast_CarC2EP15IVP_EnvironmentPK23IVP_Template_Car_System
__ZN26IVP_Controller_Raycast_CarD0Ev
__ZN26IVP_Controller_Raycast_CarD1Ev
__ZN26IVP_Controller_Raycast_CarD2Ev
__ZN26IVP_Event_Manager_Standard20simulate_time_eventsEP16IVP_Time_ManagerP15IVP_Environment8IVP_Time
__ZN26IVP_Event_Manager_StandardD0Ev
__ZN26IVP_Event_Manager_StandardD1Ev
__ZN26IVP_Friction_Info_For_Core34friction_info_insert_friction_distEP17IVP_Contact_Point
__ZN26IVP_Great_Matrix_Many_Zero19align_matrix_valuesEv
__ZN26IVP_Great_Matrix_Many_Zero23fill_from_bigger_matrixEPS_Pii
__ZN26IVP_Great_Matrix_Many_Zero23solve_lower_null_matrixEv
__ZN26IVP_Great_Matrix_Many_Zero28matrix_check_unequation_lineEi
__ZN26IVP_Great_Matrix_Many_Zero28solve_great_matrix_many_zeroEv
__ZN26IVP_Great_Matrix_Many_Zero32transform_to_lower_null_triangleEv
__ZN26IVP_Great_Matrix_Many_Zero4multEv
__ZN26IVP_Great_Matrix_Many_Zero6invertEPS_
__ZN26IVP_Great_Matrix_Many_Zero8lu_croutEPiPd
__ZN26IVP_Great_Matrix_Many_Zero8lu_solveEPi
__ZN26IVP_Great_Matrix_Many_Zero9set_valueEdii
__ZN26IVP_Great_Matrix_Many_ZeroC1Ev
__ZN26IVP_SurfaceManager_Polygon22add_reference_to_ledgeEPK17IVP_Compact_Ledge
__ZN26IVP_SurfaceManager_Polygon23get_all_terminal_ledgesEP15IVP_U_BigVectorI17IVP_Compact_LedgeE
__ZN26IVP_SurfaceManager_Polygon25remove_reference_to_ledgeEPK17IVP_Compact_Ledge
__ZN26IVP_SurfaceManager_Polygon28get_all_ledges_within_radiusEPK11IVP_U_PointdPK17IVP_Compact_LedgeP15IVP_Real_ObjectS5_P15IVP_U_BigVectorIS3_E
__ZN26IVP_SurfaceManager_Polygon29insert_all_ledges_hitting_rayEP14IVP_Ray_SolverP15IVP_Real_Object
__ZN26IVP_SurfaceManager_Polygon8get_typeEv
__ZN26IVP_SurfaceManager_PolygonD0Ev
__ZN26IVP_SurfaceManager_PolygonD1Ev
__ZN26IVP_U_Active_Value_Manager16delay_active_intEP24IVP_U_Active_Int_Delayed
__ZN26IVP_U_Active_Value_Manager17create_active_intEPKci
__ZN26IVP_U_Active_Value_Manager17insert_active_intEP16IVP_U_Active_Int
__ZN26IVP_U_Active_Value_Manager17remove_active_intEP16IVP_U_Active_Int
__ZN26IVP_U_Active_Value_Manager18delay_active_floatEP26IVP_U_Active_Float_Delayed
__ZN26IVP_U_Active_Value_Manager18install_active_intEPKci
__ZN26IVP_U_Active_Value_Manager19create_active_floatEPKcd
__ZN26IVP_U_Active_Value_Manager19insert_active_floatEP18IVP_U_Active_Float
__ZN26IVP_U_Active_Value_Manager19remove_active_floatEP18IVP_U_Active_Float
__ZN26IVP_U_Active_Value_Manager20install_active_floatEPKcd
__ZN26IVP_U_Active_Value_Manager25refresh_psi_active_valuesEP15IVP_Environment
__ZN26IVP_U_Active_Value_Manager26init_active_values_genericEv
__ZN26IVP_U_Active_Value_Manager27environment_will_be_deletedEP15IVP_Environment
__ZN26IVP_U_Active_Value_Manager28update_delayed_active_valuesEv
__ZN26IVP_U_Active_Value_ManagerC1E8IVP_BOOL
__ZN26IVP_U_Active_Value_ManagerC2E8IVP_BOOL
__ZN26IVP_U_Active_Value_ManagerD0Ev
__ZN26IVP_U_Active_Value_ManagerD1Ev
__ZN26IVP_U_Active_Value_ManagerD2Ev
__ZN26hk_Local_Constraint_System10deactivateEv
__ZN26hk_Local_Constraint_System14add_constraintEP13hk_Constrainti
__ZN26hk_Local_Constraint_System16sort_constraintsEv
__ZN26hk_Local_Constraint_System17solve_penetrationEP15IVP_Real_ObjectS1_
__ZN26hk_Local_Constraint_System18apply_effector_PSIER11hk_PSI_InfoP8hk_ArrayIP13hk_Rigid_BodyE
__ZN26hk_Local_Constraint_System18write_to_blueprintEP29hk_Local_Constraint_System_BP
__ZN26hk_Local_Constraint_System19report_square_errorEf
__ZN26hk_Local_Constraint_System21entity_deletion_eventEP13hk_Rigid_Body
__ZN26hk_Local_Constraint_System21get_effector_priorityEv
__ZN26hk_Local_Constraint_System25constraint_deletion_eventEP13hk_Constraint
__ZN26hk_Local_Constraint_System25get_constraints_in_systemER8hk_ArrayIP13hk_ConstraintE
__ZN26hk_Local_Constraint_System33core_is_going_to_be_deleted_eventEP8IVP_Core
__ZN26hk_Local_Constraint_System8activateEv
__ZN26hk_Local_Constraint_SystemC1EP14hk_EnvironmentP29hk_Local_Constraint_System_BP
__ZN26hk_Local_Constraint_SystemD0Ev
__ZN26hk_Local_Constraint_SystemD1Ev
__ZN26hk_Local_Constraint_SystemD2Ev
__ZN26hk_Stiff_Spring_Constraint15init_constraintEPKv
__ZN26hk_Stiff_Spring_Constraint15step_constraintER11hk_PSI_InfoPvff
__ZN26hk_Stiff_Spring_Constraint18get_constraint_dofEv
__ZN26hk_Stiff_Spring_Constraint18write_to_blueprintEP18hk_Stiff_Spring_BP
__ZN26hk_Stiff_Spring_Constraint19get_constraint_typeEv
__ZN26hk_Stiff_Spring_Constraint20get_vmq_storage_sizeEv
__ZN26hk_Stiff_Spring_Constraint25setup_and_step_constraintER11hk_PSI_InfoPvff
__ZN26hk_Stiff_Spring_ConstraintC1EP14hk_EnvironmentPK18hk_Stiff_Spring_BPP13hk_Rigid_BodyS6_
__ZN26hk_Stiff_Spring_ConstraintC1EP26hk_Local_Constraint_SystemPK18hk_Stiff_Spring_BPP13hk_Rigid_BodyS6_
__ZN26hk_Stiff_Spring_ConstraintD0Ev
__ZN26hk_Stiff_Spring_ConstraintD1Ev
__ZN26vehicle_suspensionparams_t9m_DataMapE
__ZN27IVP_Application_EnvironmentC1Ev
__ZN27IVP_BetterStatisticsmanagerC1Ev
__ZN27IVP_BetterStatisticsmanagerD1Ev
__ZN27IVP_BetterStatisticsmanagerD2Ev
__ZN27IVP_Compact_Ledge_Generator21prepare_compact_ledgeEP12IVP_U_VectorI12IVP_TriangleE
__ZN27IVP_Compact_Ledge_Generator22generate_compact_ledgeEPh
__ZN27IVP_Compact_Ledge_GeneratorC1Ev
__ZN27IVP_Compact_Ledge_GeneratorD1Ev
__ZN27IVP_Compact_Ledge_GeneratorD2Ev
__ZN27IVP_Impact_Solver_Long_Term19do_impact_long_termEPP8IVP_CorefP17IVP_Contact_Point
__ZN27IVP_Impact_Solver_Long_Term24do_impact_of_two_objectsEP11IVP_MindistP15IVP_Real_ObjectS3_
__ZN27IVP_Mindist_Minimize_Solver11minimize_BBEPS_
__ZN27IVP_Mindist_Minimize_Solver11minimize_FBEPS_
__ZN27IVP_Mindist_Minimize_Solver11minimize_KBEPS_
__ZN27IVP_Mindist_Minimize_Solver11minimize_PBEPS_
__ZN27IVP_Mindist_Minimize_Solver13p_minimize_BFEP14IVP_Cache_BallPK16IVP_Compact_EdgeP21IVP_Cache_Ledge_Point
__ZN27IVP_Mindist_Minimize_Solver13p_minimize_BKEP14IVP_Cache_BallPK16IVP_Compact_EdgeP21IVP_Cache_Ledge_Point
__ZN27IVP_Mindist_Minimize_Solver13p_minimize_BPEP14IVP_Cache_BallPK16IVP_Compact_EdgeP21IVP_Cache_Ledge_Point
__ZN27IVP_Mindist_Minimize_Solver13p_minimize_FFEPK16IVP_Compact_EdgeS2_P21IVP_Cache_Ledge_PointS4_
__ZN27IVP_Mindist_Minimize_Solver13p_minimize_KKEPK16IVP_Compact_EdgeS2_P21IVP_Cache_Ledge_PointS4_
__ZN27IVP_Mindist_Minimize_Solver13p_minimize_PFEPK16IVP_Compact_EdgeS2_P21IVP_Cache_Ledge_PointS4_
__ZN27IVP_Mindist_Minimize_Solver13p_minimize_PKEPK16IVP_Compact_EdgeS2_P21IVP_Cache_Ledge_PointS4_
__ZN27IVP_Mindist_Minimize_Solver13p_minimize_PPEPK16IVP_Compact_EdgeS2_P21IVP_Cache_Ledge_PointS4_
__ZN27IVP_Mindist_Minimize_Solver15check_loop_hashE26IVP_SYNAPSE_POLYGON_STATUSPK16IVP_Compact_EdgeS0_S3_
__ZN27IVP_Mindist_Minimize_Solver15minimize_B_POLYEPS_
__ZN27IVP_Mindist_Minimize_Solver16minimize_illegalEPS_
__ZN27IVP_Mindist_Minimize_Solver18mms_function_tableE
__ZN27IVP_Mindist_Minimize_Solver19p_minimize_Leave_BKEP14IVP_Cache_BallPK16IVP_Compact_EdgeP21IVP_Cache_Ledge_Point
__ZN27IVP_Mindist_Minimize_Solver19p_minimize_Leave_KKEPK16IVP_Compact_EdgeS2_RK12IVP_KK_InputPK22IVP_Unscaled_KK_ResultP21IVP_Cache_Ledge_PointSA_
__ZN27IVP_Mindist_Minimize_Solver19p_minimize_Leave_PFEPK16IVP_Compact_EdgePK11IVP_U_PointS2_P21IVP_Cache_Ledge_PointS7_
__ZN27IVP_Mindist_Minimize_Solver19p_minimize_Leave_PKEPK16IVP_Compact_EdgeS2_P21IVP_Cache_Ledge_PointS4_
__ZN27IVP_Mindist_Minimize_Solver23init_mms_function_tableEv
__ZN27IVP_Mindist_Minimize_Solver26minimize_default_poly_polyEPS_
__ZN27IVP_Mindist_Minimize_Solver26minimize_swapped_poly_polyEPS_
__ZN28CDatadescGeneratedNameHolderD1Ev
__ZN28IVP_Collision_Callback_TableD1Ev
__ZN28IVP_Linear_Constraint_Solver10full_setupEv
__ZN28IVP_Linear_Constraint_Solver12alloc_memoryEP12IVP_U_Memory
__ZN28IVP_Linear_Constraint_Solver13startup_setupEi
__ZN28IVP_Linear_Constraint_Solver14get_fdirectionEv
__ZN28IVP_Linear_Constraint_Solver16update_step_varsEd
__ZN28IVP_Linear_Constraint_Solver17init_and_solve_lcEPdS0_S0_iiP12IVP_U_Memory
__ZN28IVP_Linear_Constraint_Solver20increment_sub_solverEv
__ZN28IVP_Linear_Constraint_Solver21get_values_when_setupEv
__ZN28IVP_Linear_Constraint_Solver22full_setup_test_rangesEv
__ZN28IVP_Linear_Constraint_Solver22lcs_bubble_sort_x_valsEv
__ZN28IVP_Linear_Constraint_Solver22numerical_stability_okEv
__ZN28IVP_Linear_Constraint_Solver30do_a_little_random_permutationEv
__ZN28IVP_Linear_Constraint_Solver39move_not_necessary_actives_to_inactivesEv
__ZN28IVP_Linear_Constraint_Solver8solve_lcEv
__ZN28IVP_SurfaceBuilder_Pointsoup16single_tri_ledgeE
__ZN28IVP_SurfaceBuilder_Pointsoup18planes_to_templateEP12IVP_U_VectorI11IVP_U_PointEPS0_I19IVP_SurMan_PS_PlaneE
__ZN28IVP_SurfaceBuilder_Pointsoup33convert_triangle_to_compace_ledgeEP11IVP_U_PointS1_S1_
__ZN28IVP_SurfaceBuilder_Pointsoup34convert_pointsoup_to_compact_ledgeEP12IVP_U_VectorI11IVP_U_PointE
__ZN28IVP_SurfaceBuilder_Pointsoup43convert_pointsoup_to_compact_ledge_internalEP12IVP_U_VectorI11IVP_U_PointE
__ZN28IVP_SurfaceBuilder_Pointsoup43try_to_build_convex_ledge_from_qhull_resultEP12IVP_U_VectorI11IVP_U_PointEP8IVP_BOOLPcS6_
__ZN28IVP_U_Active_Terminal_Double10set_doubleEd8IVP_BOOL
__ZN28IVP_U_Active_Terminal_Double12update_floatEv
__ZN28IVP_U_Active_Terminal_Double5printEv
__ZN28IVP_U_Active_Terminal_DoubleD0Ev
__ZN28IVP_U_Active_Terminal_DoubleD1Ev
__ZN28vehicleparams_t_DataDescInit15g_DataMapHolderE
__ZN29IVP_PerformanceCounter_Simple11stop_pcountEv
__ZN29IVP_PerformanceCounter_Simple12start_pcountEv
__ZN29IVP_PerformanceCounter_Simple34environment_is_going_to_be_deletedEP15IVP_Environment
__ZN29IVP_PerformanceCounter_Simple36reset_and_print_performance_countersE8IVP_Time
__ZN29IVP_PerformanceCounter_Simple6pcountE23IVP_PERFORMANCE_ELEMENT
__ZN29IVP_PerformanceCounter_SimpleC1Ev
__ZN29IVP_PerformanceCounter_SimpleD0Ev
__ZN29IVP_PerformanceCounter_SimpleD1Ev
__ZN29IVP_SurfaceBuilder_Ledge_Soup12insert_ledgeEP17IVP_Compact_Ledge
__ZN29IVP_SurfaceBuilder_Ledge_Soup15build_ledgetreeEP10IVV_Sphere
__ZN29IVP_SurfaceBuilder_Ledge_Soup21calculate_boundingboxEP12IVP_U_VectorI10IVV_SphereEP17IVP_U_Float_PointS5_
__ZN29IVP_SurfaceBuilder_Ledge_Soup21insert_compact_ledgesEv
__ZN29IVP_SurfaceBuilder_Ledge_Soup22build_root_convex_hullEv
__ZN29IVP_SurfaceBuilder_Ledge_Soup24allocate_compact_surfaceEv
__ZN29IVP_SurfaceBuilder_Ledge_Soup27ledges_to_boxes_and_spheresEv
__ZN29IVP_SurfaceBuilder_Ledge_Soup29add_ledge_tree_to_convex_hullER21IVP_Compact_RecursiveP10IVV_Sphere
__ZN29IVP_SurfaceBuilder_Ledge_Soup33cluster_spheres_topdown_mediancutEd
__ZN29IVP_SurfaceBuilder_Ledge_Soup40recompile_point_indizes_of_compact_ledgeEP17IVP_Compact_LedgePc
__ZN29IVP_SurfaceBuilder_Ledge_Soup45cluster_spheres_topdown_mediancut_recursivelyEP12IVP_U_VectorI10IVV_SphereE
__ZN29IVP_SurfaceBuilder_Ledge_Soup7cleanupEv
__ZN29IVP_SurfaceBuilder_Ledge_Soup7compileEP31IVP_Template_Surbuild_LedgeSoup
__ZN29IVP_SurfaceBuilder_Ledge_SoupC1Ev
__ZN29IVP_SurfaceBuilder_Ledge_SoupD1Ev
__ZN29IVP_SurfaceBuilder_Ledge_SoupD2Ev
__ZN30IVP_Attacher_To_Cores_Buoyancy20get_buoyancy_surfaceEP15IVP_Real_Object
__ZN30IVP_Attacher_To_Cores_Buoyancy23get_parameters_per_coreEP8IVP_Core
__ZN30IVP_Attacher_To_Cores_BuoyancyC2ER21IVP_Template_BuoyancyP16IVP_U_Set_ActiveI8IVP_CoreEP29IVP_Liquid_Surface_Descriptor
__ZN30IVP_Attacher_To_Cores_BuoyancyD0Ev
__ZN30IVP_Attacher_To_Cores_BuoyancyD1Ev
__ZN30IVP_Object_Callback_Table_Hash10find_tableEP15IVP_Real_Object
__ZN30IVP_Object_Callback_Table_Hash12remove_tableEP15IVP_Real_Object
__ZN30IVP_Object_Callback_Table_Hash15object_to_indexEP15IVP_Real_Object
__ZN30IVP_Object_Callback_Table_HashD0Ev
__ZN30IVP_Object_Callback_Table_HashD1Ev
__ZN30IVP_SurfaceManager_VirtualMesh22add_reference_to_ledgeEPK17IVP_Compact_Ledge
__ZN30IVP_SurfaceManager_VirtualMesh23get_all_terminal_ledgesEP15IVP_U_BigVectorI17IVP_Compact_LedgeE
__ZN30IVP_SurfaceManager_VirtualMesh25remove_reference_to_ledgeEPK17IVP_Compact_Ledge
__ZN30IVP_SurfaceManager_VirtualMesh28get_all_ledges_within_radiusEPK11IVP_U_PointdPK17IVP_Compact_LedgeP15IVP_Real_ObjectS5_P15IVP_U_BigVectorIS3_E
__ZN30IVP_SurfaceManager_VirtualMesh29insert_all_ledges_hitting_rayEP14IVP_Ray_SolverP15IVP_Real_Object
__ZN30IVP_SurfaceManager_VirtualMesh8get_typeEv
__ZN30IVP_SurfaceManager_VirtualMeshD0Ev
__ZN30IVP_SurfaceManager_VirtualMeshD1Ev
__ZN30vphysics_save_cphysicsobject_t9m_DataMapE
__ZN30vphysics_save_cphysicsspring_t9m_DataMapE
__ZN31IVP_3D_Solver_VEC_PARALLEL_AREA9get_valueEP12IVP_U_MatrixS1_
__ZN31IVP_Standard_Gravity_Controller19get_controller_nameEv
__ZN31IVP_Standard_Gravity_Controller20set_standard_gravityEP11IVP_U_Point
__ZN31IVP_Standard_Gravity_Controller23get_controller_priorityEv
__ZN31IVP_Standard_Gravity_Controller24do_simulation_controllerEP13IVP_Event_SimP12IVP_U_VectorI8IVP_CoreE
__ZN31IVP_Standard_Gravity_Controller33core_is_going_to_be_deleted_eventEP8IVP_Core
__ZN31IVP_Standard_Gravity_ControllerD0Ev
__ZN31IVP_Standard_Gravity_ControllerD1Ev
__ZN31vphysics_save_constraintfixed_t9m_DataMapE
__ZN31vphysics_save_constrainthinge_t9m_DataMapE
__ZN32CVPhysPtrUtlVectorSaveRestoreOps4SaveERK22SaveRestoreFieldInfo_tP5ISave
__ZN32CVPhysPtrUtlVectorSaveRestoreOps7RestoreERK22SaveRestoreFieldInfo_tP8IRestore
__ZN32IVP_SurfaceBuilder_Halfspacesoup22insert_point_into_listEP11IVP_U_PointP12IVP_U_VectorIS0_Ed
__ZN32IVP_SurfaceBuilder_Halfspacesoup31convert_halfspacesoup_to_pointsEP17IVP_HalfspacesoupdP12IVP_U_VectorI11IVP_U_PointE
__ZN32IVP_SurfaceBuilder_Halfspacesoup38convert_halfspacesoup_to_compact_ledgeEP17IVP_Halfspacesoupd
__ZN32hk_Ragdoll_Constraint_BP_Builder38initialize_from_limited_ball_socket_bpEPK25hk_Limited_Ball_Socket_BPP13hk_Rigid_BodyS4_
__ZN32physcollideheader_t_DataDescInit15g_DataMapHolderE
__ZN32vphysics_save_constraintlength_t9m_DataMapE
__ZN32vphysics_save_constraintpulley_t9m_DataMapE
__ZN32vphysics_save_motioncontroller_t9m_DataMapE
__ZN33IVP_Collision_Callback_Table_Hash10find_tableEP15IVP_Real_Object
__ZN33IVP_Collision_Callback_Table_Hash12remove_tableEP15IVP_Real_Object
__ZN33IVP_Collision_Callback_Table_Hash15object_to_indexEP15IVP_Real_Object
__ZN33IVP_Collision_Callback_Table_HashD0Ev
__ZN33IVP_Collision_Callback_Table_HashD1Ev
__ZN33IVP_Constraint_Solver_Car_Builder21calc_pushing_behaviorEii
__ZN33IVP_Constraint_Solver_Car_Builder22calc_constraint_matrixEv
__ZN33IVP_SurfaceBuilder_Polygon_Convex25convert_template_to_ledgeEP20IVP_Template_Polygon
__ZN33IVP_SurfaceBuilder_Polygon_Convex28init_surface_manager_polygonEv
__ZN33IVP_SurfaceBuilder_Polygon_Convex41convert_templateledgepolygonsoup_to_ledgeEP31IVP_Template_Ledge_Polygon_Soup
__ZN33IVP_SurfaceBuilder_Polygon_ConvexC2EP20IVP_Template_Polygon
__ZN33IVP_SurfaceBuilder_Polygon_ConvexC2EP31IVP_Template_Ledge_Polygon_Soup
__ZN33IVP_SurfaceManager_Polygon_Solver16traverse_clusterEPK26IVP_Compact_Ledgetree_NodePK11IVP_U_PointdP15IVP_U_BigVectorI17IVP_Compact_LedgeE
__ZN33vehicle_axleparams_t_DataDescInit15g_DataMapHolderE
__ZN33vehicle_bodyparams_t_DataDescInit15g_DataMapHolderE
__ZN33vphysics_save_constraintragdoll_t9m_DataMapE
__ZN33vphysics_save_constraintsliding_t9m_DataMapE
__ZN33vphysics_save_cshadowcontroller_t9m_DataMapE
__ZN34CPhysics_Car_System_Raycast_Wheels11do_raycastsEP13IVP_Event_SimiP23IVP_Ray_Solver_TemplateP11IVP_Ray_HitPf
__ZN34CPhysics_Car_System_Raycast_Wheels19get_controller_nameEv
__ZN34CPhysics_Car_System_Raycast_Wheels22update_wheel_positionsEv
__ZN34CPhysics_Car_System_Raycast_Wheels8GetWheelEi
__ZN34CPhysics_Car_System_Raycast_WheelsC1EP15IVP_EnvironmentPK23IVP_Template_Car_System
__ZN34CPhysics_Car_System_Raycast_WheelsD0Ev
__ZN34CPhysics_Car_System_Raycast_WheelsD1Ev
__ZN34IVP_Compact_Ledge_Find_Mass_Center18integrate_triangleEPK17IVP_Compact_LedgePK20IVP_Compact_Triangle
__ZN34vehicle_wheelparams_t_DataDescInit15g_DataMapHolderE
__ZN34vphysics_save_cphysicsconstraint_t9m_DataMapE
__ZN34vphysics_save_cvehiclecontroller_t9m_DataMapE
__ZN35IVP_Collision_Filter_Exclusive_Pair27environment_will_be_deletedEP15IVP_Environment
__ZN35IVP_Collision_Filter_Exclusive_Pair32enable_collision_between_objectsEP15IVP_Real_ObjectS1_
__ZN35IVP_Collision_Filter_Exclusive_Pair33disable_collision_between_objectsEP15IVP_Real_ObjectS1_
__ZN35IVP_Collision_Filter_Exclusive_Pair37check_objects_for_collision_detectionEP15IVP_Real_ObjectS1_
__ZN35IVP_Collision_Filter_Exclusive_PairC2Ev
__ZN35IVP_Collision_Filter_Exclusive_PairD0Ev
__ZN35IVP_Collision_Filter_Exclusive_PairD1Ev
__ZN35IVP_Collision_Filter_Exclusive_PairD2Ev
__ZN35compactsurfaceheader_t_DataDescInit15g_DataMapHolderE
__ZN35vehicle_engineparams_t_DataDescInit15g_DataMapHolderE
__ZN35vphysics_save_constraintaxislimit_t9m_DataMapE
__ZN35vphysics_save_constraintbreakable_t9m_DataMapE
__ZN35vphysics_save_shadowcontrolparams_t9m_DataMapE
__ZN36IVP_3D_Solver_DISTANCE_OF_TWO_POINTS9get_valueEP12IVP_U_MatrixS1_
__ZN36IVP_Collision_Delegator_Root_Mindist30delegate_collisions_for_objectEP15IVP_Real_ObjectS1_
__ZN36IVP_Collision_Delegator_Root_Mindist38collision_is_going_to_be_deleted_eventEP13IVP_Collision
__ZN36IVP_Collision_Delegator_Root_Mindist40environment_is_going_to_be_deleted_eventEP15IVP_Environment
__ZN36IVP_Collision_Delegator_Root_Mindist42object_is_removed_from_collision_detectionEP15IVP_Real_Object
__ZN36IVP_Collision_Delegator_Root_MindistC1Ev
__ZN36IVP_Collision_Delegator_Root_MindistD0Ev
__ZN36IVP_Collision_Delegator_Root_MindistD1Ev
__ZN36IVP_Compact_Ledge_Mass_Center_Solver18integrate_triangleEPK17IVP_Compact_LedgePK20IVP_Compact_Triangleiii
__ZN36vphysics_save_constraintballsocket_t9m_DataMapE
__ZN37vehicle_steeringparams_t_DataDescInit15g_DataMapHolderE
__ZN38vehicle_operatingparams_t_DataDescInit15g_DataMapHolderE
__ZN39vehicle_suspensionparams_t_DataDescInit15g_DataMapHolderE
__ZN39vphysics_save_cphysicsconstraintgroup_t9m_DataMapE
__ZN43vphysics_save_cphysicsobject_t_DataDescInit15g_DataMapHolderE
__ZN43vphysics_save_cphysicsspring_t_DataDescInit15g_DataMapHolderE
__ZN44vphysics_save_constraintfixed_t_DataDescInit15g_DataMapHolderE
__ZN44vphysics_save_constrainthinge_t_DataDescInit15g_DataMapHolderE
__ZN45vphysics_save_constraintlength_t_DataDescInit15g_DataMapHolderE
__ZN45vphysics_save_constraintpulley_t_DataDescInit15g_DataMapHolderE
__ZN45vphysics_save_motioncontroller_t_DataDescInit15g_DataMapHolderE
__ZN46vphysics_save_constraintragdoll_t_DataDescInit15g_DataMapHolderE
__ZN46vphysics_save_constraintsliding_t_DataDescInit15g_DataMapHolderE
__ZN46vphysics_save_cshadowcontroller_t_DataDescInit15g_DataMapHolderE
__ZN47vphysics_save_cphysicsconstraint_t_DataDescInit15g_DataMapHolderE
__ZN47vphysics_save_cvehiclecontroller_t_DataDescInit15g_DataMapHolderE
__ZN48vphysics_save_constraintaxislimit_t_DataDescInit15g_DataMapHolderE
__ZN48vphysics_save_constraintbreakable_t_DataDescInit15g_DataMapHolderE
__ZN48vphysics_save_shadowcontrolparams_t_DataDescInit15g_DataMapHolderE
__ZN49vphysics_save_constraintballsocket_t_DataDescInit15g_DataMapHolderE
__ZN52vphysics_save_cphysicsconstraintgroup_t_DataDescInit15g_DataMapHolderE
__ZN6ConVar10ClampValueERf
__ZN6ConVar16InternalSetValueEPKc
__ZN6ConVar17ChangeStringValueEPKcf
__ZN6ConVar19InternalSetIntValueEi
__ZN6ConVar21InternalSetFloatValueEfb
__ZN6ConVar4InitEv
__ZN6ConVar6CreateEPKcS1_iS1_bfbfbfbfPFvP7IConVarS1_fE
__ZN6ConVar8AddFlagsEi
__ZN6ConVar8SetValueEPKc
__ZN6ConVar8SetValueEf
__ZN6ConVar8SetValueEi
__ZN6ConVarD0Ev
__ZN6ConVarD1Ev
__ZN7CDefOpsIPvE8LessFuncERKS0_S3_
__ZN7CTSPoolI10CUtlVectorIP23CPhysCollideVirtualMesh10CUtlMemoryIS2_iEEED1Ev
__ZN7CTSPoolI10CVisitHashED1Ev
__ZN7CUtlMapIPvS0_tPFbRKS0_S2_EED1Ev
__ZN7hk_Math14hk_random_seedE
__ZN7hk_Math7srand01Ej
__ZN8CFmtStrNILi256ELb0EE19InitQuietTruncationEv
__ZN8CFmtStrNILi256ELb0EE7sprintfEPKcz
__ZN8CSurface11get_dampingEv
__ZN8CSurface12get_adhesionEv
__ZN8CSurface14get_elasticityEv
__ZN8CSurface19get_friction_factorEv
__ZN8CSurface26get_second_friction_factorEv
__ZN8CSurface8get_nameEv
__ZN8CSurfaceD0Ev
__ZN8CSurfaceD1Ev
__ZN8IVP_BallC1EP11IVP_ClusterPK17IVP_Template_BallPK24IVP_Template_Real_ObjectPK10IVP_U_QuatPK11IVP_U_Point
__ZN8IVP_BallC2EP11IVP_ClusterPK17IVP_Template_BallPK24IVP_Template_Real_ObjectPK10IVP_U_QuatPK11IVP_U_Point
__ZN8IVP_BallD0Ev
__ZN8IVP_BallD1Ev
__ZN8IVP_Core10reset_timeE8IVP_Time
__ZN8IVP_Core10set_radiusEff
__ZN8IVP_Core11damp_objectEdPK17IVP_U_Float_Pointd
__ZN8IVP_Core12push_core_wsEPK11IVP_U_PointPK17IVP_U_Float_Point
__ZN8IVP_Core15async_push_coreEPK17IVP_U_Float_PointS2_S2_
__ZN8IVP_Core16get_rot_speed_csEPK17IVP_U_Float_Point
__ZN8IVP_Core16global_damp_coreEd
__ZN8IVP_Core16rot_push_core_csEPK17IVP_U_Float_Point
__ZN8IVP_Core17add_friction_infoEP26IVP_Friction_Info_For_Core
__ZN8IVP_Core17get_friction_infoEP19IVP_Friction_System
__ZN8IVP_Core18async_push_core_wsEPK11IVP_U_PointPK17IVP_U_Float_Point
__ZN8IVP_Core18get_energy_on_testEPK17IVP_U_Float_PointS2_
__ZN8IVP_Core19add_core_controllerEP14IVP_Controller
__ZN8IVP_Core19calc_movement_stateE8IVP_Time
__ZN8IVP_Core19rem_core_controllerEP14IVP_Controller
__ZN8IVP_Core20apply_velocity_limitEv
__ZN8IVP_Core20delete_friction_infoEP26IVP_Friction_Info_For_Core
__ZN8IVP_Core20get_surface_speed_wsEPK11IVP_U_PointP17IVP_U_Float_Point
__ZN8IVP_Core20grow_friction_systemEv
__ZN8IVP_Core20set_rotation_inertiaEPK17IVP_U_Float_Point
__ZN8IVP_Core20unlink_friction_infoEP26IVP_Friction_Info_For_Core
__ZN8IVP_Core21union_find_get_fatherEv
__ZN8IVP_Core22abort_all_async_pushesEv
__ZN8IVP_Core22freeze_simulation_coreEv
__ZN8IVP_Core22revive_simulation_coreEv
__ZN8IVP_Core22stop_physical_movementEv
__ZN8IVP_Core22synchronize_with_rot_zEv
__ZN8IVP_Core22undo_synchronize_rot_zEv
__ZN8IVP_Core23commit_all_async_pushesEv
__ZN8IVP_Core24fire_event_object_frozenEv
__ZN8IVP_Core24init_core_for_simulationEv
__ZN8IVP_Core25reset_freeze_check_valuesEv
__ZN8IVP_Core25rot_push_core_multiple_csEPK17IVP_U_Float_Pointd
__ZN8IVP_Core27transform_PSI_matrizes_coreEPK12IVP_U_Matrix
__ZN8IVP_Core28center_push_core_multiple_wsEPK17IVP_U_Float_Pointd
__ZN8IVP_Core29revive_adjacent_to_unmoveableEv
__ZN8IVP_Core30test_rot_push_core_multiple_csEPK17IVP_U_Float_PointdPS0_
__ZN8IVP_Core31async_rot_push_core_multiple_csEPK17IVP_U_Float_Pointd
__ZN8IVP_Core31async_rot_push_core_multiple_wsEPK17IVP_U_Float_Pointd
__ZN8IVP_Core31calc_next_PSI_matrix_zero_speedEP13IVP_Event_Sim
__ZN8IVP_Core31ensure_core_to_be_in_simulationEv
__ZN8IVP_Core31moveable_core_has_friction_infoEv
__ZN8IVP_Core32values_changed_recalc_redundantsEv
__ZN8IVP_Core35get_diff_surface_speed_of_two_coresEPKS_S1_PK17IVP_U_Float_PointS4_PS2_
__ZN8IVP_Core35update_exact_mindist_events_of_coreEv
__ZN8IVP_Core38unlink_obj_from_core_and_maybe_destroyEP15IVP_Real_Object
__ZN8IVP_Core43get_diff_surface_speed_of_two_cores_on_testEPKS_S1_PK17IVP_U_Float_PointS4_S4_S4_S4_S4_PS2_
__ZN8IVP_Core4initEP15IVP_Real_Objectb
__ZN8IVP_Core8set_massEf
__ZN8IVP_Core9calc_calcEv
__ZN8IVP_Core9push_coreEPK17IVP_U_Float_PointS2_S2_
__ZN8IVP_CoreC1EP15IVP_Real_ObjectPK10IVP_U_QuatPK11IVP_U_Point8IVP_BOOLS8_
__ZN8IVP_CoreC2EP15IVP_Real_ObjectPK10IVP_U_QuatPK11IVP_U_Point8IVP_BOOLS8_
__ZN8IVP_CoreD2Ev
__ZN8IVP_Hash3addEPKcPv
__ZN8IVP_HashC1EiiPv
__ZN8IVP_HashD1Ev
__ZN8P_Sur_2D24calc_line_representationEv
__ZN8P_Sur_2D28calc_triangle_representationEv
__ZN8P_Sur_2DD2Ev
__ZN9CByteswap23SwapFieldToTargetEndianEPvS0_P17typedescription_t
__ZN9CByteswap24SwapFieldsToTargetEndianEPvS0_P9datamap_t
__ZN9CTraceIVP17BuildLeafmapCacheEPK9leafmap_t
__ZN9CTraceIVP20BuildLeafmapCacheRLEEPK9leafmap_t
__ZN9CTraceIVP8SetLedgeEPK17IVP_Compact_Ledge
__ZN9CTraceIVPC2EPK12CPhysCollideRK6VectorRK6QAngle
__ZN9CTraceRayC2ERK5Ray_tRK6Vector
__ZN9IVP_U_SetI15IVP_Real_ObjectED0Ev
__ZN9IVP_U_SetI15IVP_Real_ObjectED1Ev
__ZN9IVP_U_SetI16IVP_Mindist_BaseED0Ev
__ZN9IVP_U_SetI16IVP_Mindist_BaseED1Ev
__ZN9IVP_U_SetI8IVP_CoreED0Ev
__ZN9IVP_U_SetI8IVP_CoreED1Ev
__ZN9IVP_VHash11remove_elemEPKvj
__ZN9IVP_VHash6rehashEi
__ZN9IVP_VHash8add_elemEPKvi
__ZN9IVP_VHashC2Ei
__ZN9IVP_VHashD0Ev
__ZN9IVP_VHashD1Ev
__ZN9IVP_VHashD2Ev
__ZN9hk_Memory10deallocateEPvi15hk_MEMORY_CLASS
__ZN9hk_Memory12get_instanceEv
__ZN9hk_Memory13allocate_realEi
__ZN9hk_Memory8allocateEi15hk_MEMORY_CLASS
__ZN9simplex_t11SolveGJKSetERK13simplexvert_tP6Vector
__ZN9simplex_t17ClipRayToTriangleERK6Vectorf
__ZN9simplex_t19SolveVoronoiRegion2ERK13simplexvert_tP6Vector
__ZN9simplex_t19SolveVoronoiRegion3ERK13simplexvert_tP6Vector
__ZN9simplex_t19SolveVoronoiRegion4ERK13simplexvert_tP6Vector
__ZN9simplex_t20ClipRayToTetrahedronERK6Vector
__ZN9simplex_t24ClipRayToTetrahedronBaseERK6Vector
__ZNK10CTraceAABB10SupportMapERK6VectorPS0_
__ZNK10CTraceAABB14GetVertByIndexEi
__ZNK10CTraceAABB6RadiusEv
__ZNK10CTraceCone10SupportMapERK6VectorPS0_
__ZNK10CTraceCone14GetVertByIndexEi
__ZNK10CTraceCone6RadiusEv
__ZNK10CUtlRBTreeIN25CPhysicsListenerCollision10corepair_tEtPFbRKS1_S3_E10CUtlMemoryI15UtlRBTreeNode_tIS1_tEtEE11NextInorderEt
__ZNK10IVP_U_Quat10set_matrixEP13IVP_U_Matrix3
__ZNK11IVP_Synapse9get_ledgeEv
__ZNK11IVP_U_Hesse13proj_on_planeEPK11IVP_U_PointPS0_
__ZNK11IVP_U_Plain19calc_intersect_withEPK11IVP_U_HesseP14IVP_U_Straight
__ZNK11IVP_U_Point11is_parallelEPKS_d
__ZNK11IVP_U_Point11real_lengthEv
__ZNK12CEmptyConVar7GetNameEv
__ZNK12CEmptyConVar9IsFlagSetEi
__ZNK12CPhysCollide13GetCollideMapEv
__ZNK12CPhysCollide15GetSphereRadiusEv
__ZNK12CPhysCollide17GetCompactSurfaceEv
__ZNK12IVP_U_Matrix6mmult4EPKS_PS_
__ZNK12IVP_U_Matrix6vmult4EPK11IVP_U_PointPS0_
__ZNK12IVP_U_Matrix6vmult4EPK17IVP_U_Float_PointP11IVP_U_Point
__ZNK12IVP_U_Matrix6vmult4EPK17IVP_U_Float_PointPS0_
__ZNK12IVP_U_Matrix7mimult4EPKS_PS_
__ZNK12IVP_U_Matrix7vimult4EPK11IVP_U_PointP17IVP_U_Float_Point
__ZNK12IVP_U_Matrix7vimult4EPK11IVP_U_PointPS0_
__ZNK12IVP_U_Matrix7vimult4EPK17IVP_U_Float_PointPS0_
__ZNK12IVP_U_Matrix8mi2mult4EPKS_PS_
__ZNK13IVP_CFEP_Hash7compareEPvS0_
__ZNK13IVP_U_Matrix36mmult3EPKS_PS_
__ZNK13IVP_U_Matrix36vmult3EPK11IVP_U_PointPS0_
__ZNK13IVP_U_Matrix36vmult3EPK17IVP_U_Float_PointPS0_
__ZNK13IVP_U_Matrix37mimult3EPKS_PS_
__ZNK13IVP_U_Matrix37vimult3EPK11IVP_U_PointPS0_
__ZNK13IVP_U_Matrix37vimult3EPK17IVP_U_Float_PointPS0_
__ZNK13IVP_U_Matrix38mi2mult3EPKS_PS_
__ZNK14CPhysicsObject10GetCollideEv
__ZNK14CPhysicsObject10GetDampingEPfS0_
__ZNK14CPhysicsObject10GetInertiaEv
__ZNK14CPhysicsObject10GetInvMassEv
__ZNK14CPhysicsObject10IsMoveableEv
__ZNK14CPhysicsObject11GetContentsEv
__ZNK14CPhysicsObject11GetGameDataEv
__ZNK14CPhysicsObject11GetPositionEP6VectorP6QAngle
__ZNK14CPhysicsObject11GetVelocityEP6VectorS1_
__ZNK14CPhysicsObject12GetGameFlagsEv
__ZNK14CPhysicsObject12GetGameIndexEv
__ZNK14CPhysicsObject12LocalToWorldEP6VectorRKS0_
__ZNK14CPhysicsObject12WorldToLocalEP6VectorRKS0_
__ZNK14CPhysicsObject13GetInvInertiaEv
__ZNK14CPhysicsObject13IsDragEnabledEv
__ZNK14CPhysicsObject15GetContactPointEP6VectorPP14IPhysicsObject
__ZNK14CPhysicsObject15GetSphereRadiusEv
__ZNK14CPhysicsObject15IsMotionEnabledEv
__ZNK14CPhysicsObject15OutputDebugInfoEv
__ZNK14CPhysicsObject16GetCallbackFlagsEv
__ZNK14CPhysicsObject16GetMaterialIndexEv
__ZNK14CPhysicsObject16IsGravityEnabledEv
__ZNK14CPhysicsObject17GetPositionMatrixEP11matrix3x4_t
__ZNK14CPhysicsObject17GetShadowPositionEP6VectorP6QAngle
__ZNK14CPhysicsObject18GetDragInDirectionERK17IVP_U_Float_Point
__ZNK14CPhysicsObject18GetVelocityAtPointERK6VectorPS0_
__ZNK14CPhysicsObject18IsCollisionEnabledEv
__ZNK14CPhysicsObject18IsControlledByGameEv
__ZNK14CPhysicsObject18LocalToWorldVectorEP6VectorRKS0_
__ZNK14CPhysicsObject18WorldToLocalVectorEP6VectorRKS0_
__ZNK14CPhysicsObject19CalculateLinearDragERK6Vector
__ZNK14CPhysicsObject19GetImplicitVelocityEP6VectorS1_
__ZNK14CPhysicsObject19GetShadowControllerEv
__ZNK14CPhysicsObject20CalculateAngularDragERK6Vector
__ZNK14CPhysicsObject20CalculateForceOffsetERK6VectorS2_PS0_S3_
__ZNK14CPhysicsObject22IsAttachedToConstraintEb
__ZNK14CPhysicsObject23CalculateVelocityOffsetERK6VectorS2_PS0_S3_
__ZNK14CPhysicsObject23GetMassCenterLocalSpaceEv
__ZNK14CPhysicsObject25GetAngularDragInDirectionERK17IVP_U_Float_Point
__ZNK14CPhysicsObject7GetMassEv
__ZNK14CPhysicsObject7GetNameEv
__ZNK14CPhysicsObject7IsFluidEv
__ZNK14CPhysicsObject8IsAsleepEv
__ZNK14CPhysicsObject8IsHingedEv
__ZNK14CPhysicsObject8IsStaticEv
__ZNK14CPhysicsObject9GetEnergyEv
__ZNK14CPhysicsObject9IsTriggerEv
__ZNK14ConCommandBase16GetDLLIdentifierEv
__ZNK14IVP_point_hash7compareEPvS0_
__ZNK15CUtlSymbolTable4FindEPKc
__ZNK15CUtlSymbolTable5CLessclERKNS_16CStringPoolIndexES3_
__ZNK15CUtlSymbolTable6StringE10CUtlSymbol
__ZNK15IVP_Real_Object14calc_at_matrixE8IVP_TimeP12IVP_U_Matrix
__ZNK15IVP_Real_Object18calc_at_quaternionE8IVP_TimeP10IVP_U_QuatP11IVP_U_Point
__ZNK15IVP_Real_Object23get_m_world_f_object_ATEP12IVP_U_Matrix
__ZNK15IVP_Real_Object26get_quat_world_f_object_ATEP10IVP_U_QuatP11IVP_U_Point
__ZNK16CThreadLocalBase3GetEv
__ZNK16IVP_Cache_Object32transform_vector_to_world_coordsEPK11IVP_U_PointPS0_
__ZNK16IVP_Cache_Object32transform_vector_to_world_coordsEPK17IVP_U_Float_PointPS0_
__ZNK16IVP_Cache_Object33transform_vector_to_object_coordsEPK11IVP_U_PointPS0_
__ZNK16IVP_Cache_Object33transform_vector_to_object_coordsEPK17IVP_U_Float_PointPS0_
__ZNK16IVP_Cache_Object34transform_position_to_world_coordsEPK17IVP_U_Float_PointP11IVP_U_Point
__ZNK16IVP_Cache_Object35transform_position_to_object_coordsEPK11IVP_U_PointPS0_
__ZNK16IVP_ov_tree_hash7compareEPvS0_
__ZNK17CUtlSymbolTableMT4FindEPKc
__ZNK17CUtlSymbolTableMT6StringE10CUtlSymbol
__ZNK17IVP_Contact_Point10is_same_asEPK11IVP_Mindist
__ZNK17IVP_I_Point_VHash7compareEPvS0_
__ZNK17IVP_U_Float_Hesse13proj_on_planeEPK17IVP_U_Float_PointPS0_
__ZNK17IVP_U_Float_Point11real_lengthEv
__ZNK17IVP_U_Float_Point16fast_real_lengthEv
__ZNK18CPhysicsConstraint10WriteFixedER24constraint_fixedparams_t
__ZNK18CPhysicsConstraint10WriteHingeER24constraint_hingeparams_t
__ZNK18CPhysicsConstraint11GetGameDataEv
__ZNK18CPhysicsConstraint11WriteLengthER25constraint_lengthparams_t
__ZNK18CPhysicsConstraint11WritePulleyER25constraint_pulleyparams_t
__ZNK18CPhysicsConstraint12WriteRagdollER26constraint_ragdollparams_t
__ZNK18CPhysicsConstraint12WriteSlidingER26constraint_slidingparams_t
__ZNK18CPhysicsConstraint15WriteBallsocketER29constraint_ballsocketparams_t
__ZNK18CPhysicsConstraint15WriteToTemplateER34vphysics_save_cphysicsconstraint_tR26vphysics_save_constraint_t
__ZNK18CPhysicsConstraint17GetAttachedObjectEv
__ZNK18CPhysicsConstraint18GetReferenceObjectEv
__ZNK18CPhysicsConstraint19GetConstraintParamsEP28constraint_breakableparams_t
__ZNK18CPhysicsConstraint22GetConstraintTransformEP11matrix3x4_tS1_
__ZNK18IVP_I_FPoint_VHash7compareEPvS0_
__ZNK19CPhysicsEnvironment10GetGravityEP6Vector
__ZNK19CPhysicsEnvironment13GetAirDensityEv
__ZNK19CPhysicsEnvironment13GetObjectListEPi
__ZNK19CPhysicsEnvironment14IsInSimulationEv
__ZNK19CPhysicsEnvironment16GetActiveObjectsEPP14IPhysicsObject
__ZNK19CPhysicsEnvironment16GetNextFrameTimeEv
__ZNK19CPhysicsEnvironment17GetSimulationTimeEv
__ZNK19CPhysicsEnvironment17ShouldQuickDeleteEv
__ZNK19CPhysicsEnvironment20GetActiveObjectCountEv
__ZNK19CPhysicsEnvironment20IsCollisionModelUsedEP12CPhysCollide
__ZNK19CPhysicsEnvironment21GetSimulationTimestepEv
__ZNK19CPhysicsEnvironment22GetObjectSerializeSizeEP14IPhysicsObject
__ZNK19CPhysicsEnvironment22GetPerformanceSettingsEP27physics_performanceparams_t
__ZNK20CPhysicsSurfaceProps11GetPropNameEi
__ZNK20CPhysicsSurfaceProps15GetSurfaceIndexEPKc
__ZNK20CPhysicsSurfaceProps16SurfacePropCountEv
__ZNK20CPhysicsSurfaceProps19GetIVPMaterialIndexEPK12IVP_Material
__ZNK20CPhysicsSurfaceProps20GetPhysicsParametersEiP22surfacephysicsparams_t
__ZNK20CPhysicsSurfaceProps20GetPhysicsPropertiesEiPfS0_S0_S0_
__ZNK20CPhysicsSurfaceProps21RemapIVPMaterialIndexEi
__ZNK20CPhysicsSurfaceProps23GetReservedMaterialNameEi
__ZNK20CPhysicsSurfaceProps9GetStringEt
__ZNK20IVP_Synapse_Friction10is_same_asEPK16IVP_Synapse_Real
__ZNK20IVP_Synapse_Friction18get_material_indexEv
__ZNK21IVP_Active_Value_Hash7compareEPvS0_
__ZNK23CPhysCollideVirtualMesh12GetAllLedgesER15IVP_U_BigVectorI17IVP_Compact_LedgeE
__ZNK23CPhysCollideVirtualMesh13GetMassCenterEv
__ZNK23CPhysCollideVirtualMesh15GetSphereRadiusEv
__ZNK23CPhysCollideVirtualMesh15OutputDebugInfoEv
__ZNK23CPhysCollideVirtualMesh16GetVCollideIndexEv
__ZNK23CPhysCollideVirtualMesh17SerializeToBufferEPcb
__ZNK23CPhysCollideVirtualMesh20CreateSurfaceManagerERs
__ZNK23CPhysCollideVirtualMesh20GetOrthographicAreasEv
__ZNK23CPhysCollideVirtualMesh20GetSerializationSizeEv
__ZNK23CPhysicsFluidController10GetDensityEv
__ZNK23CPhysicsFluidController11GetContentsEv
__ZNK23CPhysicsFluidController11GetGameDataEv
__ZNK23CPhysicsFluidController15GetSurfacePlaneEP6VectorPf
__ZNK23IVP_SurfaceManager_Ball15get_mass_centerEP17IVP_U_Float_Point
__ZNK23IVP_SurfaceManager_Ball17get_single_convexEv
__ZNK23IVP_SurfaceManager_Ball20get_rotation_inertiaEP17IVP_U_Float_Point
__ZNK23IVP_SurfaceManager_Ball41get_radius_and_radius_dev_to_given_centerEPK17IVP_U_Float_PointPfS3_
__ZNK26CPhysCollideCompactSurface12GetAllLedgesER15IVP_U_BigVectorI17IVP_Compact_LedgeE
__ZNK26CPhysCollideCompactSurface13GetCollideMapEv
__ZNK26CPhysCollideCompactSurface13GetMassCenterEv
__ZNK26CPhysCollideCompactSurface15OutputDebugInfoEv
__ZNK26CPhysCollideCompactSurface16GetVCollideIndexEv
__ZNK26CPhysCollideCompactSurface17ComputeHullInfo_rEPNS_10hullinfo_tEPK26IVP_Compact_Ledgetree_Node
__ZNK26CPhysCollideCompactSurface17GetCompactSurfaceEv
__ZNK26CPhysCollideCompactSurface17SerializeToBufferEPcb
__ZNK26CPhysCollideCompactSurface20CreateSurfaceManagerERs
__ZNK26CPhysCollideCompactSurface20GetOrthographicAreasEv
__ZNK26CPhysCollideCompactSurface20GetSerializationSizeEv
__ZNK26IVP_SurfaceManager_Polygon15get_mass_centerEP17IVP_U_Float_Point
__ZNK26IVP_SurfaceManager_Polygon17get_single_convexEv
__ZNK26IVP_SurfaceManager_Polygon20get_rotation_inertiaEP17IVP_U_Float_Point
__ZNK26IVP_SurfaceManager_Polygon41get_radius_and_radius_dev_to_given_centerEPK17IVP_U_Float_PointPfS3_
__ZNK30IVP_Object_Callback_Table_Hash7compareEPvS0_
__ZNK30IVP_SurfaceManager_VirtualMesh15get_mass_centerEP17IVP_U_Float_Point
__ZNK30IVP_SurfaceManager_VirtualMesh17get_single_convexEv
__ZNK30IVP_SurfaceManager_VirtualMesh20get_rotation_inertiaEP17IVP_U_Float_Point
__ZNK30IVP_SurfaceManager_VirtualMesh41get_radius_and_radius_dev_to_given_centerEPK17IVP_U_Float_PointPfS3_
__ZNK33IVP_Collision_Callback_Table_Hash7compareEPvS0_
__ZNK6ConVar11GetHelpTextEv
__ZNK6ConVar12IsRegisteredEv
__ZNK6ConVar7GetNameEv
__ZNK6ConVar9IsCommandEv
__ZNK6ConVar9IsFlagSetEi
__ZNK8IVP_Core14calc_at_matrixE8IVP_TimeP12IVP_U_Matrix
__ZNK8IVP_Core14calc_virt_massEPK17IVP_U_Float_PointS2_
__ZNK8IVP_Core14test_push_coreEPK17IVP_U_Float_PointS2_S2_PS0_S3_
__ZNK8IVP_Core17get_surface_speedEPK17IVP_U_Float_PointPS0_
__ZNK8IVP_Core22calc_correct_virt_massEPK17IVP_U_Float_PointS2_S2_
__ZNK8IVP_Core25calc_virt_mass_worst_caseEPK17IVP_U_Float_Point
__ZNK8IVP_Core25get_surface_speed_on_testEPK17IVP_U_Float_PointS2_S2_PS0_
__ZNK8IVP_Hash4findEPKc
__ZNK9CTraceIVP10SupportMapERK6VectorPS0_
__ZNK9CTraceIVP14GetVertByIndexEi
__ZNK9CTraceIVP6RadiusEv
__ZNK9IVP_U_SetI15IVP_Real_ObjectE7compareEPvS2_
__ZNK9IVP_U_SetI16IVP_Mindist_BaseE7compareEPvS2_
__ZNK9IVP_U_SetI8IVP_CoreE7compareEPvS2_
__ZNK9IVP_VHash9find_elemEPKvj
__ZNV16CThreadFastMutex4LockEjj
__ZSt9terminatev
__ZTI10CTraceAABB
__ZTI10CTraceCone
__ZTI10IAppSystem
__ZTI10IVP_Object
__ZTI10hk_Link_EF
__ZTI11CPolyhedron
__ZTI11IConvexInfo
__ZTI11IVP_Cluster
__ZTI11IVP_Mindist
__ZTI11IVP_Polygon
__ZTI11IVP_Synapse
__ZTI12CDataManagerI13CMeshInstance17virtualmeshlist_tPS0_16CThreadFastMutexE
__ZTI12CDeleteProxyI18IPhysicsConstraintE
__ZTI12CEmptyConVar
__ZTI12CPhysCollide
__ZTI12CTraceSolver
__ZTI12IPhysCollide
__ZTI12ITraceObject
__ZTI12IVP_Actuator
__ZTI12IVP_Material
__ZTI12IVP_Triangle
__ZTI13CSleepObjects
__ZTI13CVoidPairHash
__ZTI13IVP_3D_Solver
__ZTI13IVP_CFEP_Hash
__ZTI13IVP_Collision
__ZTI13aligned_tmp_t
__ZTI13hk_Constraint
__ZTI14CBaseAppSystemI8IPhysicsE
__ZTI14CDefConvexInfo
__ZTI14CPhysicsObject
__ZTI14CPhysicsSpring
__ZTI14CVPhysicsParse
__ZTI14ConCommandBase
__ZTI14IPhysicsObject
__ZTI14IPhysicsSpring
__ZTI14IVP_Car_System
__ZTI14IVP_Constraint
__ZTI14IVP_Controller
__ZTI14IVP_OO_Watcher
__ZTI14IVP_OV_Element
__ZTI14IVP_Ray_Solver
__ZTI14IVP_Synapse_OO
__ZTI14IVP_Time_Event
__ZTI14IVP_point_hash
__ZTI15CCollisionQuery
__ZTI15CDragController
__ZTI15CObjectPairHash
__ZTI15CTier0AppSystemI8IPhysicsE
__ZTI15CTier1AppSystemI8IPhysicsLi0EE
__ZTI15ICollisionQuery
__ZTI15ISaveRestoreOps
__ZTI15IVP_Real_Object
__ZTI16CCollisionSolver
__ZTI16CDataManagerBase
__ZTI16CDefaultAccessor
__ZTI16CPhysics_Airboat
__ZTI16IDeleteQueueItem
__ZTI16IVP_Mindist_Base
__ZTI16IVP_U_Active_Int
__ZTI16IVP_U_Set_ActiveI15IVP_Real_ObjectE
__ZTI16IVP_U_Set_ActiveI16IVP_Mindist_BaseE
__ZTI16IVP_U_Set_ActiveI8IVP_CoreE
__ZTI16IVP_ov_tree_hash
__ZTI17CAlignedNewDeleteILi16E13aligned_tmp_tE
__ZTI17CBuoyancyAttacher
__ZTI17CFrictionSnapshot
__ZTI17CMaterialIndexOps
__ZTI17CPhysicsCollision
__ZTI17CPhysicsInterface
__ZTI17CPlayerController
__ZTI17CShadowController
__ZTI17IPhysicsCollision
__ZTI17IVP_Event_Manager
__ZTI17IVP_I_Point_VHash
__ZTI17IVP_Listener_Hull
__ZTI17IVP_Range_Manager
__ZTI18CDefSaveRestoreOps
__ZTI18CPhysicsConstraint
__ZTI18CUtlCharConversion
__ZTI18CVehicleController
__ZTI18IPhysicsConstraint
__ZTI18IVP_Actuator_Force
__ZTI18IVP_Anomaly_Limits
__ZTI18IVP_I_FPoint_VHash
__ZTI18IVP_Ray_Solver_Min
__ZTI18IVP_SurfaceManager
__ZTI18IVP_Time_Event_PSI
__ZTI18IVP_U_Active_Float
__ZTI18IVP_U_Active_Value
__ZTI18IVPhysicsKeyParser
__ZTI19CIVPMaterialManager
__ZTI19CPhysicsEnvironment
__ZTI19CUtlNoEscConversion
__ZTI19IPhysicsEnvironment
__ZTI19IVP_3D_Solver_PK_KK
__ZTI19IVP_Actuator_Spring
__ZTI19IVP_Actuator_Torque
__ZTI19IVP_Anomaly_Manager
__ZTI19IVP_Friction_System
__ZTI19IVP_Listener_Object
__ZTI19IVP_Material_Simple
__ZTI19hk_Fixed_Constraint
__ZTI19hk_Hinge_Constraint
__ZTI20CAirboatFrictionData
__ZTI20CPhysicsCollisionSet
__ZTI20CPhysicsFrictionData
__ZTI20CPhysicsSurfaceProps
__ZTI20IPhysicsCollisionSet
__ZTI20IPhysicsSurfaceProps
__ZTI20IVP_3D_Solver_PF_NPF
__ZTI20IVP_3D_Solver_S_VALS
__ZTI20IVP_Collision_Filter
__ZTI20IVP_Constraint_Local
__ZTI20IVP_Listener_Phantom
__ZTI20IVP_Material_Manager
__ZTI20IVP_Ray_Hit_Listener
__ZTI20IVP_Real_Object_Fast
__ZTI20hk_Pulley_Constraint
__ZTI21CPhysicsCollisionData
__ZTI21CUtlCStringConversion
__ZTI21CVPhysicsDebugOverlay
__ZTI21IPhysicsCollisionData
__ZTI21IVP_3D_Solver_KK_COLL
__ZTI21IVP_3D_Solver_PF_COLL
__ZTI21IVP_3D_Solver_PK_COLL
__ZTI21IVP_Active_Value_Hash
__ZTI21IVP_Attacher_To_CoresI23IVP_Controller_BuoyancyE
__ZTI21IVP_Mindist_Recursive
__ZTI21IVPhysicsDebugOverlay
__ZTI21hk_Ragdoll_Constraint
__ZTI22CPolyhedron_AllocByNew
__ZTI22CPolyhedron_TempMemory
__ZTI22IPhysicsCollisionEvent
__ZTI22IPhysicsObjectPairHash
__ZTI22IVP_Actuator_Two_Point
__ZTI22IVP_BetterDebugmanager
__ZTI22IVP_Controller_Phantom
__ZTI22IVP_Listener_Collision
__ZTI22IVP_PerformanceCounter
__ZTI23CEmptyCollisionListener
__ZTI23CPhysCollideVirtualMesh
__ZTI23CPhysicsConstraintGroup
__ZTI23CPhysicsFluidController
__ZTI23CTraceSolverSweptObject
__ZTI23CVPhysPtrSaveRestoreOps
__ZTI23IConCommandBaseAccessor
__ZTI23IPhysicsConstraintGroup
__ZTI23IPhysicsFluidController
__ZTI23IVP_Actuator_Four_Point
__ZTI23IVP_Actuator_Stabilizer
__ZTI23IVP_Actuator_Suspension
__ZTI23IVP_Collision_Delegator
__ZTI23IVP_Controller_Buoyancy
__ZTI23IVP_Friction_Sys_Energy
__ZTI23IVP_Friction_Sys_Static
__ZTI23IVP_Listener_Constraint
__ZTI23IVP_Listener_Set_ActiveI8IVP_CoreE
__ZTI23IVP_SurfaceManager_Ball
__ZTI23hk_Breakable_Constraint
__ZTI23hk_Prismatic_Constraint
__ZTI23hk_Rigid_Body_Binary_EF
__ZTI24CLiquidSurfaceDescriptor
__ZTI24CPhysicsMotionController
__ZTI24IPhysicsFrictionSnapshot
__ZTI24IPhysicsMotionController
__ZTI24IPhysicsPlayerController
__ZTI24IPhysicsShadowController
__ZTI24IVP_Controller_Dependent
__ZTI24IVP_U_Active_Int_Delayed
__ZTI25CPhysicsListenerCollision
__ZTI25IPhysicsVehicleController
__ZTI25IVP_3D_Solver_KK_PARALLEL
__ZTI25IVP_Actuator_Force_Active
__ZTI25IVP_Constraint_Solver_Car
__ZTI25IVP_U_Active_Terminal_Int
__ZTI25hk_Ball_Socket_Constraint
__ZTI26CPhysCollideCompactSurface
__ZTI26CPhysicsListenerConstraint
__ZTI26IVP_Actuator_Spring_Active
__ZTI26IVP_Actuator_Torque_Active
__ZTI26IVP_Car_System_Real_Wheels
__ZTI26IVP_Controller_Independent
__ZTI26IVP_Controller_Raycast_Car
__ZTI26IVP_Event_Manager_Standard
__ZTI26IVP_SurfaceManager_Polygon
__ZTI26IVP_U_Active_Float_Delayed
__ZTI26IVP_U_Active_Value_Manager
__ZTI26hk_Local_Constraint_System
__ZTI26hk_Stiff_Spring_Constraint
__ZTI27IVP_Real_Object_Fast_Static
__ZTI27IVP_U_Active_Float_Listener
__ZTI28IPhysicsSurfacePropsInternal
__ZTI28IVP_Collision_Delegator_Root
__ZTI28IVP_U_Active_Terminal_Double
__ZTI29IVP_Liquid_Surface_Descriptor
__ZTI29IVP_PerformanceCounter_Simple
__ZTI30IVP_Attacher_To_Cores_Buoyancy
__ZTI30IVP_Object_Callback_Table_Hash
__ZTI30IVP_SurfaceManager_VirtualMesh
__ZTI31IVP_3D_Solver_VEC_PARALLEL_AREA
__ZTI31IVP_Standard_Gravity_Controller
__ZTI32CVPhysPtrUtlVectorSaveRestoreOps
__ZTI33IVP_Collision_Callback_Table_Hash
__ZTI34CPhysics_Car_System_Raycast_Wheels
__ZTI35IVP_Collision_Filter_Exclusive_Pair
__ZTI36IVP_3D_Solver_DISTANCE_OF_TWO_POINTS
__ZTI36IVP_Collision_Delegator_Root_Mindist
__ZTI6ConVar
__ZTI7IConVar
__ZTI8CFmtStrNILi256ELb0EE
__ZTI8CSurface
__ZTI8IPhysics
__ZTI8IVP_Ball
__ZTI9CTraceIVP
__ZTI9IVP_U_SetI15IVP_Real_ObjectE
__ZTI9IVP_U_SetI16IVP_Mindist_BaseE
__ZTI9IVP_U_SetI8IVP_CoreE
__ZTI9IVP_VHash
__ZTISt9bad_alloc
__ZTS10CTraceAABB
__ZTS10CTraceCone
__ZTS10IAppSystem
__ZTS10IVP_Object
__ZTS10hk_Link_EF
__ZTS11CPolyhedron
__ZTS11IConvexInfo
__ZTS11IVP_Cluster
__ZTS11IVP_Mindist
__ZTS11IVP_Polygon
__ZTS11IVP_Synapse
__ZTS12CDataManagerI13CMeshInstance17virtualmeshlist_tPS0_16CThreadFastMutexE
__ZTS12CDeleteProxyI18IPhysicsConstraintE
__ZTS12CEmptyConVar
__ZTS12CPhysCollide
__ZTS12CTraceSolver
__ZTS12IPhysCollide
__ZTS12ITraceObject
__ZTS12IVP_Actuator
__ZTS12IVP_Material
__ZTS12IVP_Triangle
__ZTS13CSleepObjects
__ZTS13CVoidPairHash
__ZTS13IVP_3D_Solver
__ZTS13IVP_CFEP_Hash
__ZTS13IVP_Collision
__ZTS13aligned_tmp_t
__ZTS13hk_Constraint
__ZTS14CBaseAppSystemI8IPhysicsE
__ZTS14CDefConvexInfo
__ZTS14CPhysicsObject
__ZTS14CPhysicsSpring
__ZTS14CVPhysicsParse
__ZTS14ConCommandBase
__ZTS14IPhysicsObject
__ZTS14IPhysicsSpring
__ZTS14IVP_Car_System
__ZTS14IVP_Constraint
__ZTS14IVP_Controller
__ZTS14IVP_OO_Watcher
__ZTS14IVP_OV_Element
__ZTS14IVP_Ray_Solver
__ZTS14IVP_Synapse_OO
__ZTS14IVP_Time_Event
__ZTS14IVP_point_hash
__ZTS15CCollisionQuery
__ZTS15CDragController
__ZTS15CObjectPairHash
__ZTS15CTier0AppSystemI8IPhysicsE
__ZTS15CTier1AppSystemI8IPhysicsLi0EE
__ZTS15ICollisionQuery
__ZTS15ISaveRestoreOps
__ZTS15IVP_Real_Object
__ZTS16CCollisionSolver
__ZTS16CDataManagerBase
__ZTS16CDefaultAccessor
__ZTS16CPhysics_Airboat
__ZTS16IDeleteQueueItem
__ZTS16IVP_Mindist_Base
__ZTS16IVP_U_Active_Int
__ZTS16IVP_U_Set_ActiveI15IVP_Real_ObjectE
__ZTS16IVP_U_Set_ActiveI16IVP_Mindist_BaseE
__ZTS16IVP_U_Set_ActiveI8IVP_CoreE
__ZTS16IVP_ov_tree_hash
__ZTS17CAlignedNewDeleteILi16E13aligned_tmp_tE
__ZTS17CBuoyancyAttacher
__ZTS17CFrictionSnapshot
__ZTS17CMaterialIndexOps
__ZTS17CPhysicsCollision
__ZTS17CPhysicsInterface
__ZTS17CPlayerController
__ZTS17CShadowController
__ZTS17IPhysicsCollision
__ZTS17IVP_Event_Manager
__ZTS17IVP_I_Point_VHash
__ZTS17IVP_Listener_Hull
__ZTS17IVP_Range_Manager
__ZTS18CDefSaveRestoreOps
__ZTS18CPhysicsConstraint
__ZTS18CUtlCharConversion
__ZTS18CVehicleController
__ZTS18IPhysicsConstraint
__ZTS18IVP_Actuator_Force
__ZTS18IVP_Anomaly_Limits
__ZTS18IVP_I_FPoint_VHash
__ZTS18IVP_Ray_Solver_Min
__ZTS18IVP_SurfaceManager
__ZTS18IVP_Time_Event_PSI
__ZTS18IVP_U_Active_Float
__ZTS18IVP_U_Active_Value
__ZTS18IVPhysicsKeyParser
__ZTS19CIVPMaterialManager
__ZTS19CPhysicsEnvironment
__ZTS19CUtlNoEscConversion
__ZTS19IPhysicsEnvironment
__ZTS19IVP_3D_Solver_PK_KK
__ZTS19IVP_Actuator_Spring
__ZTS19IVP_Actuator_Torque
__ZTS19IVP_Anomaly_Manager
__ZTS19IVP_Friction_System
__ZTS19IVP_Listener_Object
__ZTS19IVP_Material_Simple
__ZTS19hk_Fixed_Constraint
__ZTS19hk_Hinge_Constraint
__ZTS20CAirboatFrictionData
__ZTS20CPhysicsCollisionSet
__ZTS20CPhysicsFrictionData
__ZTS20CPhysicsSurfaceProps
__ZTS20IPhysicsCollisionSet
__ZTS20IPhysicsSurfaceProps
__ZTS20IVP_3D_Solver_PF_NPF
__ZTS20IVP_3D_Solver_S_VALS
__ZTS20IVP_Collision_Filter
__ZTS20IVP_Constraint_Local
__ZTS20IVP_Listener_Phantom
__ZTS20IVP_Material_Manager
__ZTS20IVP_Ray_Hit_Listener
__ZTS20IVP_Real_Object_Fast
__ZTS20hk_Pulley_Constraint
__ZTS21CPhysicsCollisionData
__ZTS21CUtlCStringConversion
__ZTS21CVPhysicsDebugOverlay
__ZTS21IPhysicsCollisionData
__ZTS21IVP_3D_Solver_KK_COLL
__ZTS21IVP_3D_Solver_PF_COLL
__ZTS21IVP_3D_Solver_PK_COLL
__ZTS21IVP_Active_Value_Hash
__ZTS21IVP_Attacher_To_CoresI23IVP_Controller_BuoyancyE
__ZTS21IVP_Mindist_Recursive
__ZTS21IVPhysicsDebugOverlay
__ZTS21hk_Ragdoll_Constraint
__ZTS22CPolyhedron_AllocByNew
__ZTS22CPolyhedron_TempMemory
__ZTS22IPhysicsCollisionEvent
__ZTS22IPhysicsObjectPairHash
__ZTS22IVP_Actuator_Two_Point
__ZTS22IVP_BetterDebugmanager
__ZTS22IVP_Controller_Phantom
__ZTS22IVP_Listener_Collision
__ZTS22IVP_PerformanceCounter
__ZTS23CEmptyCollisionListener
__ZTS23CPhysCollideVirtualMesh
__ZTS23CPhysicsConstraintGroup
__ZTS23CPhysicsFluidController
__ZTS23CTraceSolverSweptObject
__ZTS23CVPhysPtrSaveRestoreOps
__ZTS23IConCommandBaseAccessor
__ZTS23IPhysicsConstraintGroup
__ZTS23IPhysicsFluidController
__ZTS23IVP_Actuator_Four_Point
__ZTS23IVP_Actuator_Stabilizer
__ZTS23IVP_Actuator_Suspension
__ZTS23IVP_Collision_Delegator
__ZTS23IVP_Controller_Buoyancy
__ZTS23IVP_Friction_Sys_Energy
__ZTS23IVP_Friction_Sys_Static
__ZTS23IVP_Listener_Constraint
__ZTS23IVP_Listener_Set_ActiveI8IVP_CoreE
__ZTS23IVP_SurfaceManager_Ball
__ZTS23hk_Breakable_Constraint
__ZTS23hk_Prismatic_Constraint
__ZTS23hk_Rigid_Body_Binary_EF
__ZTS24CLiquidSurfaceDescriptor
__ZTS24CPhysicsMotionController
__ZTS24IPhysicsFrictionSnapshot
__ZTS24IPhysicsMotionController
__ZTS24IPhysicsPlayerController
__ZTS24IPhysicsShadowController
__ZTS24IVP_Controller_Dependent
__ZTS24IVP_U_Active_Int_Delayed
__ZTS25CPhysicsListenerCollision
__ZTS25IPhysicsVehicleController
__ZTS25IVP_3D_Solver_KK_PARALLEL
__ZTS25IVP_Actuator_Force_Active
__ZTS25IVP_Constraint_Solver_Car
__ZTS25IVP_U_Active_Terminal_Int
__ZTS25hk_Ball_Socket_Constraint
__ZTS26CPhysCollideCompactSurface
__ZTS26CPhysicsListenerConstraint
__ZTS26IVP_Actuator_Spring_Active
__ZTS26IVP_Actuator_Torque_Active
__ZTS26IVP_Car_System_Real_Wheels
__ZTS26IVP_Controller_Independent
__ZTS26IVP_Controller_Raycast_Car
__ZTS26IVP_Event_Manager_Standard
__ZTS26IVP_SurfaceManager_Polygon
__ZTS26IVP_U_Active_Float_Delayed
__ZTS26IVP_U_Active_Value_Manager
__ZTS26hk_Local_Constraint_System
__ZTS26hk_Stiff_Spring_Constraint
__ZTS27IVP_Real_Object_Fast_Static
__ZTS27IVP_U_Active_Float_Listener
__ZTS28IPhysicsSurfacePropsInternal
__ZTS28IVP_Collision_Delegator_Root
__ZTS28IVP_U_Active_Terminal_Double
__ZTS29IVP_Liquid_Surface_Descriptor
__ZTS29IVP_PerformanceCounter_Simple
__ZTS30IVP_Attacher_To_Cores_Buoyancy
__ZTS30IVP_Object_Callback_Table_Hash
__ZTS30IVP_SurfaceManager_VirtualMesh
__ZTS31IVP_3D_Solver_VEC_PARALLEL_AREA
__ZTS31IVP_Standard_Gravity_Controller
__ZTS32CVPhysPtrUtlVectorSaveRestoreOps
__ZTS33IVP_Collision_Callback_Table_Hash
__ZTS34CPhysics_Car_System_Raycast_Wheels
__ZTS35IVP_Collision_Filter_Exclusive_Pair
__ZTS36IVP_3D_Solver_DISTANCE_OF_TWO_POINTS
__ZTS36IVP_Collision_Delegator_Root_Mindist
__ZTS6ConVar
__ZTS7IConVar
__ZTS8CFmtStrNILi256ELb0EE
__ZTS8CSurface
__ZTS8IPhysics
__ZTS8IVP_Ball
__ZTS9CTraceIVP
__ZTS9IVP_U_SetI15IVP_Real_ObjectE
__ZTS9IVP_U_SetI16IVP_Mindist_BaseE
__ZTS9IVP_U_SetI8IVP_CoreE
__ZTS9IVP_VHash
__ZTV10CTraceAABB
__ZTV10CTraceCone
__ZTV10IVP_Object
__ZTV10hk_Link_EF
__ZTV11IVP_Cluster
__ZTV11IVP_Mindist
__ZTV11IVP_Polygon
__ZTV11IVP_Synapse
__ZTV12CDataManagerI13CMeshInstance17virtualmeshlist_tPS0_16CThreadFastMutexE
__ZTV12CDeleteProxyI18IPhysicsConstraintE
__ZTV12CEmptyConVar
__ZTV12CTraceSolver
__ZTV12IVP_Actuator
__ZTV12IVP_Material
__ZTV12IVP_Triangle
__ZTV13CSleepObjects
__ZTV13CVoidPairHash
__ZTV13IVP_CFEP_Hash
__ZTV13IVP_Collision
__ZTV13hk_Constraint
__ZTV14CDefConvexInfo
__ZTV14CPhysicsObject
__ZTV14CPhysicsSpring
__ZTV14CVPhysicsParse
__ZTV14IVP_Car_System
__ZTV14IVP_Constraint
__ZTV14IVP_Controller
__ZTV14IVP_OO_Watcher
__ZTV14IVP_OV_Element
__ZTV14IVP_Ray_Solver
__ZTV14IVP_Synapse_OO
__ZTV14IVP_point_hash
__ZTV15CCollisionQuery
__ZTV15CDragController
__ZTV15CObjectPairHash
__ZTV15IVP_Real_Object
__ZTV16CCollisionSolver
__ZTV16CDataManagerBase
__ZTV16CDefaultAccessor
__ZTV16CPhysics_Airboat
__ZTV16IVP_U_Active_Int
__ZTV16IVP_U_Set_ActiveI15IVP_Real_ObjectE
__ZTV16IVP_U_Set_ActiveI16IVP_Mindist_BaseE
__ZTV16IVP_U_Set_ActiveI8IVP_CoreE
__ZTV16IVP_ov_tree_hash
__ZTV17CBuoyancyAttacher
__ZTV17CFrictionSnapshot
__ZTV17CMaterialIndexOps
__ZTV17CPhysicsCollision
__ZTV17CPhysicsInterface
__ZTV17CPlayerController
__ZTV17CShadowController
__ZTV17IVP_I_Point_VHash
__ZTV17IVP_Range_Manager
__ZTV18CPhysicsConstraint
__ZTV18CUtlCharConversion
__ZTV18CVehicleController
__ZTV18IVP_Actuator_Force
__ZTV18IVP_Anomaly_Limits
__ZTV18IVP_I_FPoint_VHash
__ZTV18IVP_Ray_Solver_Min
__ZTV18IVP_SurfaceManager
__ZTV18IVP_Time_Event_PSI
__ZTV18IVP_U_Active_Float
__ZTV18IVP_U_Active_Value
__ZTV19CIVPMaterialManager
__ZTV19CPhysicsEnvironment
__ZTV19CUtlNoEscConversion
__ZTV19IVP_3D_Solver_PK_KK
__ZTV19IVP_Actuator_Spring
__ZTV19IVP_Actuator_Torque
__ZTV19IVP_Anomaly_Manager
__ZTV19IVP_Friction_System
__ZTV19IVP_Material_Simple
__ZTV19hk_Fixed_Constraint
__ZTV19hk_Hinge_Constraint
__ZTV20CAirboatFrictionData
__ZTV20CPhysicsCollisionSet
__ZTV20CPhysicsFrictionData
__ZTV20CPhysicsSurfaceProps
__ZTV20IVP_3D_Solver_PF_NPF
__ZTV20IVP_3D_Solver_S_VALS
__ZTV20IVP_Collision_Filter
__ZTV20IVP_Constraint_Local
__ZTV20IVP_Material_Manager
__ZTV20IVP_Ray_Hit_Listener
__ZTV20IVP_Real_Object_Fast
__ZTV20hk_Pulley_Constraint
__ZTV21CPhysicsCollisionData
__ZTV21CUtlCStringConversion
__ZTV21CVPhysicsDebugOverlay
__ZTV21IVP_3D_Solver_KK_COLL
__ZTV21IVP_3D_Solver_PF_COLL
__ZTV21IVP_3D_Solver_PK_COLL
__ZTV21IVP_Active_Value_Hash
__ZTV21IVP_Attacher_To_CoresI23IVP_Controller_BuoyancyE
__ZTV21IVP_Mindist_Recursive
__ZTV21hk_Ragdoll_Constraint
__ZTV22CPolyhedron_AllocByNew
__ZTV22CPolyhedron_TempMemory
__ZTV22IVP_Actuator_Two_Point
__ZTV22IVP_BetterDebugmanager
__ZTV22IVP_Controller_Phantom
__ZTV22IVP_PerformanceCounter
__ZTV23CEmptyCollisionListener
__ZTV23CPhysCollideVirtualMesh
__ZTV23CPhysicsConstraintGroup
__ZTV23CPhysicsFluidController
__ZTV23CTraceSolverSweptObject
__ZTV23CVPhysPtrSaveRestoreOps
__ZTV23IVP_Actuator_Four_Point
__ZTV23IVP_Actuator_Stabilizer
__ZTV23IVP_Actuator_Suspension
__ZTV23IVP_Collision_Delegator
__ZTV23IVP_Controller_Buoyancy
__ZTV23IVP_Friction_Sys_Energy
__ZTV23IVP_Friction_Sys_Static
__ZTV23IVP_SurfaceManager_Ball
__ZTV23hk_Breakable_Constraint
__ZTV23hk_Prismatic_Constraint
__ZTV23hk_Rigid_Body_Binary_EF
__ZTV24CLiquidSurfaceDescriptor
__ZTV24CPhysicsMotionController
__ZTV25CPhysicsListenerCollision
__ZTV25IVP_3D_Solver_KK_PARALLEL
__ZTV25IVP_Actuator_Force_Active
__ZTV25IVP_Constraint_Solver_Car
__ZTV25IVP_U_Active_Terminal_Int
__ZTV25hk_Ball_Socket_Constraint
__ZTV26CPhysCollideCompactSurface
__ZTV26CPhysicsListenerConstraint
__ZTV26IVP_Actuator_Spring_Active
__ZTV26IVP_Actuator_Torque_Active
__ZTV26IVP_Car_System_Real_Wheels
__ZTV26IVP_Controller_Raycast_Car
__ZTV26IVP_Event_Manager_Standard
__ZTV26IVP_SurfaceManager_Polygon
__ZTV26IVP_U_Active_Value_Manager
__ZTV26hk_Local_Constraint_System
__ZTV26hk_Stiff_Spring_Constraint
__ZTV28IVP_U_Active_Terminal_Double
__ZTV29IVP_PerformanceCounter_Simple
__ZTV30IVP_Attacher_To_Cores_Buoyancy
__ZTV30IVP_Object_Callback_Table_Hash
__ZTV30IVP_SurfaceManager_VirtualMesh
__ZTV31IVP_3D_Solver_VEC_PARALLEL_AREA
__ZTV31IVP_Standard_Gravity_Controller
__ZTV32CVPhysPtrUtlVectorSaveRestoreOps
__ZTV33IVP_Collision_Callback_Table_Hash
__ZTV34CPhysics_Car_System_Raycast_Wheels
__ZTV35IVP_Collision_Filter_Exclusive_Pair
__ZTV36IVP_3D_Solver_DISTANCE_OF_TWO_POINTS
__ZTV36IVP_Collision_Delegator_Root_Mindist
__ZTV6ConVar
__ZTV8CFmtStrNILi256ELb0EE
__ZTV8CSurface
__ZTV8IVP_Ball
__ZTV9CTraceIVP
__ZTV9IVP_U_SetI15IVP_Real_ObjectE
__ZTV9IVP_U_SetI16IVP_Mindist_BaseE
__ZTV9IVP_U_SetI8IVP_CoreE
__ZTV9IVP_VHash
__ZTVN10__cxxabiv117__class_type_infoE
__ZTVN10__cxxabiv120__si_class_type_infoE
__ZTVN10__cxxabiv121__vmi_class_type_infoE
__ZThn120_N25IVP_Actuator_Force_Active20active_float_changedEP18IVP_U_Active_Float
__ZThn132_N21IVP_Mindist_Recursive25get_spawned_mindist_countEv
__ZThn132_N21IVP_Mindist_Recursive28change_spawned_mindist_countEi
__ZThn132_N21IVP_Mindist_Recursive38collision_is_going_to_be_deleted_eventEP13IVP_Collision
__ZThn132_N21IVP_Mindist_RecursiveD0Ev
__ZThn132_N21IVP_Mindist_RecursiveD1Ev
__ZThn152_N26IVP_Actuator_Torque_Active20active_float_changedEP18IVP_U_Active_Float
__ZThn156_N26IVP_Actuator_Spring_Active20active_float_changedEP18IVP_U_Active_Float
__ZThn20_N14IVP_OO_Watcher38collision_is_going_to_be_deleted_eventEP13IVP_Collision
__ZThn20_N14IVP_OO_WatcherD0Ev
__ZThn20_N14IVP_OO_WatcherD1Ev
__ZThn24_N12CEmptyConVar8SetValueEPKc
__ZThn24_N12CEmptyConVar8SetValueEf
__ZThn24_N12CEmptyConVar8SetValueEi
__ZThn24_N6ConVar8SetValueEPKc
__ZThn24_N6ConVar8SetValueEf
__ZThn24_N6ConVar8SetValueEi
__ZThn24_NK12CEmptyConVar7GetNameEv
__ZThn24_NK12CEmptyConVar9IsFlagSetEi
__ZThn24_NK6ConVar7GetNameEv
__ZThn24_NK6ConVar9IsFlagSetEi
__ZThn32_N25IVP_U_Active_Terminal_Int10update_intEv
__ZThn36_N28IVP_U_Active_Terminal_Double12update_floatEv
__ZThn4_N14CPhysicsSpring19event_object_frozenEP16IVP_Event_Object
__ZThn4_N14CPhysicsSpring20event_object_createdEP16IVP_Event_Object
__ZThn4_N14CPhysicsSpring20event_object_deletedEP16IVP_Event_Object
__ZThn4_N14CPhysicsSpring20event_object_revivedEP16IVP_Event_Object
__ZThn4_N14CPhysicsSpringD0Ev
__ZThn4_N14CPhysicsSpringD1Ev
__ZThn4_N16CCollisionSolver17inter_penetrationEP11IVP_MindistP15IVP_Real_ObjectS3_d
__ZThn4_N16CCollisionSolver21max_velocity_exceededEP18IVP_Anomaly_LimitsP8IVP_CoreP17IVP_U_Float_Point
__ZThn4_N16CCollisionSolver27environment_will_be_deletedEP15IVP_Environment
__ZThn4_N16CCollisionSolver29max_collision_checks_exceededEi
__ZThn4_N16CCollisionSolver36max_contacts_exceeded_check_freezingEPP8IVP_Corei
__ZThn4_N16CCollisionSolver38max_collisions_exceeded_check_freezingEP18IVP_Anomaly_LimitsP8IVP_Core
__ZThn4_N16CCollisionSolverD0Ev
__ZThn4_N16CCollisionSolverD1Ev
__ZThn4_N16CPhysics_Airboat19get_controller_nameEv
__ZThn4_N16CPhysics_Airboat23get_controller_priorityEv
__ZThn4_N16CPhysics_Airboat24do_simulation_controllerEP13IVP_Event_SimP12IVP_U_VectorI8IVP_CoreE
__ZThn4_N16CPhysics_Airboat31get_associated_controlled_coresEv
__ZThn4_N16CPhysics_Airboat33core_is_going_to_be_deleted_eventEP8IVP_Core
__ZThn4_N16CPhysics_AirboatD0Ev
__ZThn4_N16CPhysics_AirboatD1Ev
__ZThn4_N17CPlayerController11IsInContactEv
__ZThn4_N17CPlayerController14GetLastImpulseEP6Vector
__ZThn4_N17CPlayerController15SetEventHandlerEP29IPhysicsPlayerControllerEvent
__ZThn4_N17CPlayerController16GetPushMassLimitEv
__ZThn4_N17CPlayerController16SetPushMassLimitEf
__ZThn4_N17CPlayerController17GetPushSpeedLimitEv
__ZThn4_N17CPlayerController17GetShadowPositionEP6VectorP6QAngle
__ZThn4_N17CPlayerController17GetShadowVelocityEP6Vector
__ZThn4_N17CPlayerController17SetPushSpeedLimitEf
__ZThn4_N17CPlayerController4JumpEv
__ZThn4_N17CPlayerController6StepUpEf
__ZThn4_N17CPlayerController6UpdateERK6VectorS2_fbP14IPhysicsObject
__ZThn4_N17CPlayerController8MaxSpeedERK6Vector
__ZThn4_N17CPlayerController9GetObjectEv
__ZThn4_N17CPlayerController9SetObjectEP14IPhysicsObject
__ZThn4_N17CPlayerController9WasFrozenEv
__ZThn4_N17CPlayerControllerD0Ev
__ZThn4_N17CPlayerControllerD1Ev
__ZThn4_N17CShadowController11GetMaxSpeedEPfS0_
__ZThn4_N17CShadowController14AllowsRotationEv
__ZThn4_N17CShadowController14GetLastImpulseEP6Vector
__ZThn4_N17CShadowController17AllowsTranslationEv
__ZThn4_N17CShadowController17GetTargetPositionEP6VectorP6QAngle
__ZThn4_N17CShadowController17UseShadowMaterialEb
__ZThn4_N17CShadowController19GetTeleportDistanceEv
__ZThn4_N17CShadowController19SetTeleportDistanceEf
__ZThn4_N17CShadowController21ObjectMaterialChangedEi
__ZThn4_N17CShadowController22IsPhysicallyControlledEv
__ZThn4_N17CShadowController23SetPhysicallyControlledEb
__ZThn4_N17CShadowController6StepUpEf
__ZThn4_N17CShadowController6UpdateERK6VectorRK6QAnglef
__ZThn4_N17CShadowController8MaxSpeedEff
__ZThn4_N17CShadowControllerD0Ev
__ZThn4_N17CShadowControllerD1Ev
__ZThn4_N18CPhysicsConstraint19event_object_frozenEP16IVP_Event_Object
__ZThn4_N18CPhysicsConstraint20event_object_createdEP16IVP_Event_Object
__ZThn4_N18CPhysicsConstraint20event_object_deletedEP16IVP_Event_Object
__ZThn4_N18CPhysicsConstraint20event_object_revivedEP16IVP_Event_Object
__ZThn4_N18CPhysicsConstraintD0Ev
__ZThn4_N18CPhysicsConstraintD1Ev
__ZThn4_N18CVehicleController19event_object_frozenEP16IVP_Event_Object
__ZThn4_N18CVehicleController20event_object_createdEP16IVP_Event_Object
__ZThn4_N18CVehicleController20event_object_deletedEP16IVP_Event_Object
__ZThn4_N18CVehicleController20event_object_revivedEP16IVP_Event_Object
__ZThn4_N18CVehicleControllerD0Ev
__ZThn4_N18CVehicleControllerD1Ev
__ZThn4_N24CPhysicsMotionController10GetObjectsEPP14IPhysicsObject
__ZThn4_N24CPhysicsMotionController11SetPriorityEN24IPhysicsMotionController10priority_tE
__ZThn4_N24CPhysicsMotionController11WakeObjectsEv
__ZThn4_N24CPhysicsMotionController12AttachObjectEP14IPhysicsObjectb
__ZThn4_N24CPhysicsMotionController12ClearObjectsEv
__ZThn4_N24CPhysicsMotionController12CountObjectsEv
__ZThn4_N24CPhysicsMotionController12DetachObjectEP14IPhysicsObject
__ZThn4_N24CPhysicsMotionController15SetEventHandlerEP12IMotionEvent
__ZThn4_N24CPhysicsMotionControllerD0Ev
__ZThn4_N24CPhysicsMotionControllerD1Ev
__ZThn4_N26IVP_Controller_Raycast_Car23get_controller_priorityEv
__ZThn4_N26IVP_Controller_Raycast_Car24do_simulation_controllerEP13IVP_Event_SimP12IVP_U_VectorI8IVP_CoreE
__ZThn4_N26IVP_Controller_Raycast_Car31get_associated_controlled_coresEv
__ZThn4_N26IVP_Controller_Raycast_Car33core_is_going_to_be_deleted_eventEP8IVP_Core
__ZThn4_N26IVP_Controller_Raycast_CarD0Ev
__ZThn4_N26IVP_Controller_Raycast_CarD1Ev
__ZThn4_N34CPhysics_Car_System_Raycast_Wheels19get_controller_nameEv
__ZThn4_N34CPhysics_Car_System_Raycast_WheelsD0Ev
__ZThn4_N34CPhysics_Car_System_Raycast_WheelsD1Ev
__ZThn8_N17CPlayerController19event_object_frozenEP16IVP_Event_Object
__ZThn8_N17CPlayerController20event_object_createdEP16IVP_Event_Object
__ZThn8_N17CPlayerController20event_object_deletedEP16IVP_Event_Object
__ZThn8_N17CPlayerController20event_object_revivedEP16IVP_Event_Object
__ZThn8_N17CPlayerControllerD0Ev
__ZThn8_N17CPlayerControllerD1Ev
__ZThn8_N25CPhysicsListenerCollision16core_left_volumeEP22IVP_Controller_PhantomP8IVP_Core
__ZThn8_N25CPhysicsListenerCollision19core_entered_volumeEP22IVP_Controller_PhantomP8IVP_Core
__ZThn8_N25CPhysicsListenerCollision19mindist_left_volumeEP22IVP_Controller_PhantomP16IVP_Mindist_Base
__ZThn8_N25CPhysicsListenerCollision22mindist_entered_volumeEP22IVP_Controller_PhantomP16IVP_Mindist_Base
__ZThn8_N25CPhysicsListenerCollision36phantom_is_going_to_be_deleted_eventEP22IVP_Controller_Phantom
__ZZ11DataMapInitI15vehicleparams_tEP9datamap_tPT_E10nameHolder
__ZZ11DataMapInitI15vehicleparams_tEP9datamap_tPT_E8dataDesc
__ZZ11DataMapInitI19physcollideheader_tEP9datamap_tPT_E10nameHolder
__ZZ11DataMapInitI19physcollideheader_tEP9datamap_tPT_E8dataDesc
__ZZ11DataMapInitI20vehicle_axleparams_tEP9datamap_tPT_E10nameHolder
__ZZ11DataMapInitI20vehicle_axleparams_tEP9datamap_tPT_E8dataDesc
__ZZ11DataMapInitI20vehicle_bodyparams_tEP9datamap_tPT_E10nameHolder
__ZZ11DataMapInitI20vehicle_bodyparams_tEP9datamap_tPT_E8dataDesc
__ZZ11DataMapInitI21vehicle_wheelparams_tEP9datamap_tPT_E10nameHolder
__ZZ11DataMapInitI21vehicle_wheelparams_tEP9datamap_tPT_E8dataDesc
__ZZ11DataMapInitI22compactsurfaceheader_tEP9datamap_tPT_E10nameHolder
__ZZ11DataMapInitI22compactsurfaceheader_tEP9datamap_tPT_E8dataDesc
__ZZ11DataMapInitI22vehicle_engineparams_tEP9datamap_tPT_E10nameHolder
__ZZ11DataMapInitI22vehicle_engineparams_tEP9datamap_tPT_E8dataDesc
__ZZ11DataMapInitI24vehicle_steeringparams_tEP9datamap_tPT_E10nameHolder
__ZZ11DataMapInitI24vehicle_steeringparams_tEP9datamap_tPT_E8dataDesc
__ZZ11DataMapInitI25vehicle_operatingparams_tEP9datamap_tPT_E10nameHolder
__ZZ11DataMapInitI25vehicle_operatingparams_tEP9datamap_tPT_E8dataDesc
__ZZ11DataMapInitI26vehicle_suspensionparams_tEP9datamap_tPT_E10nameHolder
__ZZ11DataMapInitI26vehicle_suspensionparams_tEP9datamap_tPT_E8dataDesc
__ZZ11DataMapInitI30vphysics_save_cphysicsobject_tEP9datamap_tPT_E10nameHolder
__ZZ11DataMapInitI30vphysics_save_cphysicsobject_tEP9datamap_tPT_E8dataDesc
__ZZ11DataMapInitI30vphysics_save_cphysicsspring_tEP9datamap_tPT_E10nameHolder
__ZZ11DataMapInitI30vphysics_save_cphysicsspring_tEP9datamap_tPT_E8dataDesc
__ZZ11DataMapInitI31vphysics_save_constraintfixed_tEP9datamap_tPT_E10nameHolder
__ZZ11DataMapInitI31vphysics_save_constraintfixed_tEP9datamap_tPT_E8dataDesc
__ZZ11DataMapInitI31vphysics_save_constrainthinge_tEP9datamap_tPT_E10nameHolder
__ZZ11DataMapInitI31vphysics_save_constrainthinge_tEP9datamap_tPT_E8dataDesc
__ZZ11DataMapInitI32vphysics_save_constraintlength_tEP9datamap_tPT_E10nameHolder
__ZZ11DataMapInitI32vphysics_save_constraintlength_tEP9datamap_tPT_E8dataDesc
__ZZ11DataMapInitI32vphysics_save_constraintpulley_tEP9datamap_tPT_E10nameHolder
__ZZ11DataMapInitI32vphysics_save_constraintpulley_tEP9datamap_tPT_E8dataDesc
__ZZ11DataMapInitI32vphysics_save_motioncontroller_tEP9datamap_tPT_E10nameHolder
__ZZ11DataMapInitI32vphysics_save_motioncontroller_tEP9datamap_tPT_E8dataDesc
__ZZ11DataMapInitI33vphysics_save_constraintragdoll_tEP9datamap_tPT_E10nameHolder
__ZZ11DataMapInitI33vphysics_save_constraintragdoll_tEP9datamap_tPT_E8dataDesc
__ZZ11DataMapInitI33vphysics_save_constraintsliding_tEP9datamap_tPT_E10nameHolder
__ZZ11DataMapInitI33vphysics_save_constraintsliding_tEP9datamap_tPT_E8dataDesc
__ZZ11DataMapInitI33vphysics_save_cshadowcontroller_tEP9datamap_tPT_E10nameHolder
__ZZ11DataMapInitI33vphysics_save_cshadowcontroller_tEP9datamap_tPT_E8dataDesc
__ZZ11DataMapInitI34vphysics_save_cphysicsconstraint_tEP9datamap_tPT_E10nameHolder
__ZZ11DataMapInitI34vphysics_save_cphysicsconstraint_tEP9datamap_tPT_E8dataDesc
__ZZ11DataMapInitI34vphysics_save_cvehiclecontroller_tEP9datamap_tPT_E10nameHolder
__ZZ11DataMapInitI34vphysics_save_cvehiclecontroller_tEP9datamap_tPT_E8dataDesc
__ZZ11DataMapInitI35vphysics_save_constraintaxislimit_tEP9datamap_tPT_E10nameHolder
__ZZ11DataMapInitI35vphysics_save_constraintaxislimit_tEP9datamap_tPT_E8dataDesc
__ZZ11DataMapInitI35vphysics_save_constraintbreakable_tEP9datamap_tPT_E10nameHolder
__ZZ11DataMapInitI35vphysics_save_constraintbreakable_tEP9datamap_tPT_E8dataDesc
__ZZ11DataMapInitI35vphysics_save_shadowcontrolparams_tEP9datamap_tPT_E10nameHolder
__ZZ11DataMapInitI35vphysics_save_shadowcontrolparams_tEP9datamap_tPT_E8dataDesc
__ZZ11DataMapInitI36vphysics_save_constraintballsocket_tEP9datamap_tPT_E10nameHolder
__ZZ11DataMapInitI36vphysics_save_constraintballsocket_tEP9datamap_tPT_E8dataDesc
__ZZ11DataMapInitI39vphysics_save_cphysicsconstraintgroup_tEP9datamap_tPT_E10nameHolder
__ZZ11DataMapInitI39vphysics_save_cphysicsconstraintgroup_tEP9datamap_tPT_E8dataDesc
__ZZ12qh_new_qhulliiPdjPcP7__sFILES2_E9firstcall
__ZZL18GetTmpObjectMatrixP15IVP_Real_ObjectE15coreShiftMatrix
__ZZL23InitializeCharacterSetsvE25s_CharacterSetInitialized
__ZZN11IVP_Mindist27update_exact_mindist_eventsE8IVP_BOOL22IVP_MINDIST_EVENT_HINTE5count
__ZZN13hk_Quaternion3setERK11hk_RotationE4next
__ZZN14IVP_U_Min_Hash3addEPvdE12sort_counter
__ZZN16CDataManagerBase17GetForFreeByIndexEtE14__executeCount
__ZZN19CPhysicsEnvironment4SaveERK16physsaveparams_tE9saveFuncs
__ZZN19CPhysicsEnvironment7RestoreERK19physrestoreparams_tE12restoreFuncs
__ZZN19CPhysicsEnvironment8SimulateEfE11autoMutex__
__ZZN20IVP_Material_Manager21get_material_by_indexEP15IVP_Real_ObjectPK11IVP_U_PointiE6simple
__ZZN8CFmtStrNILi256ELb0EE7sprintfEPKczE10scAsserted
__ZZN9hk_Memory12get_instanceEvE17s_memory_instance
__ZdaPv
__ZdlPv
__Znam
__Znwm
___bzero
___clang_call_terminate
___cxa_atexit
___cxa_begin_catch
___cxa_call_unexpected
___cxa_guard_abort
___cxa_guard_acquire
___cxa_guard_release
___cxa_pure_virtual
___gxx_personality_v0
___maskrune
___stack_chk_fail
___stack_chk_guard
___stderrp
___tolower
___toupper
_acos
_acosf
_asin
_asinf
_atan
_atan2
_atan2f
_atof
_atoi
_ceil
_cos
_cosf
_cvar
_exit
_exp
_expf
_finite
_floor
_fprintf
_fputs$UNIX2003
_free
_freopen$UNIX2003
_fwrite$UNIX2003
_g_EmptyCollisionListener
_g_MeshFrameLocksPool
_g_PhysicsCollision
_g_PhysicsUnits
_g_SIMD_ComponentMask
_g_SurfaceDatabase
_g_VPhysPtrSaveRestoreOps
_g_VPhysPtrUtlVectorSaveRestoreOps
_g_VProfCurrentProfile
_g_VisitHashPool
_g_fDeferDeleteMindist
_g_pCVar
_g_pCurrentMindist
_g_pMemAlloc
_g_pMeshFrameLocks
_g_pProcessUtils
_ivp_debugmanager
_ivp_mindist_settings
_lineartolightmap
_lineartovertex
_localtime
_longjmp
_malloc
_memcmp
_memcpy
_memmove
_memset
_memset_pattern16
_pfFastCos
_pfFastSinCos
_pfInvRSquared
_pfRSqrt
_pfRSqrtFast
_pfSqrt
_pfVectorNormalize
_pfVectorNormalizeFast
_physcollision
_physprops
_pow
_printf
_pthread_mutex_destroy
_pthread_mutex_init
_pthread_mutex_lock
_pthread_mutex_unlock
_pthread_mutexattr_init
_pthread_mutexattr_settype
_puts
_qh_qh
_qh_qhstat
_qh_rand_seed
_qh_version
_qhmem
_qsort
_s_NoEscConversion
_s_StringCharConversion
_s_bMathlibInitialized
_setjmp
_sin
_sinf
_sprintf
_sscanf
_strcasecmp
_strcmp
_strlen
_strncat
_strncmp
_strncpy
_strtod$UNIX2003
_strtol
_tan
_time
_vec3_angle
_vec3_origin
_vsnprintf
_vsprintf
dyld_stub_binder
