GCC_except_table0
GCC_except_table0
GCC_except_table0
GCC_except_table0
GCC_except_table0
GCC_except_table0
GCC_except_table0
GCC_except_table0
GCC_except_table1
GCC_except_table1
GCC_except_table1
GCC_except_table1
GCC_except_table1
GCC_except_table10
GCC_except_table10
GCC_except_table10
GCC_except_table10
GCC_except_table100
GCC_except_table102
GCC_except_table102
GCC_except_table103
GCC_except_table103
GCC_except_table104
GCC_except_table105
GCC_except_table105
GCC_except_table106
GCC_except_table108
GCC_except_table109
GCC_except_table11
GCC_except_table11
GCC_except_table110
GCC_except_table111
GCC_except_table111
GCC_except_table112
GCC_except_table118
GCC_except_table12
GCC_except_table12
GCC_except_table124
GCC_except_table126
GCC_except_table129
GCC_except_table13
GCC_except_table13
GCC_except_table13
GCC_except_table13
GCC_except_table14
GCC_except_table14
GCC_except_table14
GCC_except_table14
GCC_except_table141
GCC_except_table142
GCC_except_table147
GCC_except_table148
GCC_except_table149
GCC_except_table15
GCC_except_table15
GCC_except_table15
GCC_except_table15
GCC_except_table150
GCC_except_table151
GCC_except_table153
GCC_except_table16
GCC_except_table16
GCC_except_table161
GCC_except_table162
GCC_except_table164
GCC_except_table17
GCC_except_table17
GCC_except_table17
GCC_except_table17
GCC_except_table18
GCC_except_table18
GCC_except_table18
GCC_except_table18
GCC_except_table19
GCC_except_table19
GCC_except_table2
GCC_except_table2
GCC_except_table2
GCC_except_table2
GCC_except_table2
GCC_except_table2
GCC_except_table2
GCC_except_table20
GCC_except_table20
GCC_except_table20
GCC_except_table20
GCC_except_table20
GCC_except_table20
GCC_except_table21
GCC_except_table21
GCC_except_table22
GCC_except_table22
GCC_except_table23
GCC_except_table24
GCC_except_table24
GCC_except_table24
GCC_except_table24
GCC_except_table25
GCC_except_table25
GCC_except_table25
GCC_except_table26
GCC_except_table27
GCC_except_table27
GCC_except_table27
GCC_except_table28
GCC_except_table28
GCC_except_table28
GCC_except_table28
GCC_except_table28
GCC_except_table29
GCC_except_table29
GCC_except_table29
GCC_except_table3
GCC_except_table3
GCC_except_table3
GCC_except_table30
GCC_except_table30
GCC_except_table30
GCC_except_table31
GCC_except_table31
GCC_except_table32
GCC_except_table32
GCC_except_table32
GCC_except_table32
GCC_except_table33
GCC_except_table33
GCC_except_table33
GCC_except_table34
GCC_except_table35
GCC_except_table35
GCC_except_table35
GCC_except_table35
GCC_except_table35
GCC_except_table36
GCC_except_table36
GCC_except_table36
GCC_except_table37
GCC_except_table37
GCC_except_table37
GCC_except_table38
GCC_except_table4
GCC_except_table4
GCC_except_table4
GCC_except_table40
GCC_except_table41
GCC_except_table41
GCC_except_table42
GCC_except_table42
GCC_except_table43
GCC_except_table43
GCC_except_table44
GCC_except_table44
GCC_except_table44
GCC_except_table44
GCC_except_table45
GCC_except_table45
GCC_except_table46
GCC_except_table46
GCC_except_table47
GCC_except_table47
GCC_except_table48
GCC_except_table48
GCC_except_table49
GCC_except_table49
GCC_except_table5
GCC_except_table5
GCC_except_table5
GCC_except_table5
GCC_except_table5
GCC_except_table50
GCC_except_table50
GCC_except_table51
GCC_except_table51
GCC_except_table52
GCC_except_table52
GCC_except_table53
GCC_except_table54
GCC_except_table55
GCC_except_table56
GCC_except_table57
GCC_except_table57
GCC_except_table58
GCC_except_table58
GCC_except_table6
GCC_except_table6
GCC_except_table6
GCC_except_table6
GCC_except_table6
GCC_except_table6
GCC_except_table61
GCC_except_table64
GCC_except_table66
GCC_except_table7
GCC_except_table7
GCC_except_table72
GCC_except_table73
GCC_except_table74
GCC_except_table74
GCC_except_table76
GCC_except_table77
GCC_except_table8
GCC_except_table8
GCC_except_table8
GCC_except_table8
GCC_except_table8
GCC_except_table81
GCC_except_table88
GCC_except_table89
GCC_except_table89
GCC_except_table9
GCC_except_table90
GCC_except_table92
GCC_except_table97
GCC_except_table98
_CommandLine_Tier0
_CreateInterface
_Error
_HushAsserts
_Log
_Msg
_Plat_FloatTime
_RandomFloat
_RandomInt
_SQ_NULL
_ThreadGetCurrentId
_ThreadSleep
_Warning
__DefaultRuneLocale
__GLOBAL__sub_I_convar.stdout.rel_tf_osx_builder.55430.mXKsKU.ii
__GLOBAL__sub_I_sqvm.stdout.rel_tf_osx_builder.18451.OFpcyy.ii
__GLOBAL__sub_I_sse.stdout.rel_tf_osx_builder.9376.gxVesc.ii
__GLOBAL__sub_I_utlbuffer.stdout.rel_tf_osx_builder.8986.vt30zT.ii
__GLOBAL__sub_I_utlsymbol.stdout.rel_tf_osx_builder.55484.zcRfnN.ii
__GLOBAL__sub_I_vscript.stdout.rel_tf_osx_builder.72006.Gj4ca1.ii
__GLOBAL__sub_I_vsquirrel3.stdout.rel_tf_osx_builder.18481.08xReT.ii
__Unwind_Resume
__Z10DevWarningPKcz
__Z10QAngleLeftP4SQVM
__Z10QAngleRollP4SQVM
__Z10QuatInvertP4SQVM
__Z10QuatTypeOfP4SQVM
__Z10V_snprintfPciPKcz
__Z10VectorNormP4SQVM
__Z10debug_hookP4SQVM
__Z10endelementP4SQVM
__Z11GetTypeNameRK11SQObjectPtr
__Z11IdType2Name15tagSQObjectType
__Z11QAnglePitchP4SQVM
__Z11QAngleScaleP4SQVM
__Z11QuatIterateP4SQVM
__Z11QuatReleasePvi
__Z11V_vsnprintfPciPKcS_
__Z11Vector2DAddP4SQVM
__Z11Vector2DDotP4SQVM
__Z11Vector2DGetP4SQVM
__Z11Vector2DSetP4SQVM
__Z11Vector4DAddP4SQVM
__Z11Vector4DDotP4SQVM
__Z11Vector4DGetP4SQVM
__Z11Vector4DSetP4SQVM
__Z11VectorCrossP4SQVM
__Z11VectorScaleP4SQVM
__Z11_stream_eosP4SQVM
__Z11_stream_lenP4SQVM
__Z11buf_lexfeedPv
__Z12AngleVectorsRK6QAngleP6Vector
__Z12AngleVectorsRK6QAngleP6VectorS3_S3_
__Z12MatrixAnglesRK11matrix3x4_tPf
__Z12QAngleToQuatP4SQVM
__Z12QAngleTypeOfP4SQVM
__Z12QuatSubtractP4SQVM
__Z12QuatToQAngleP4SQVM
__Z12QuatToStringP4SQVM
__Z12RegisterQuatP4SQVM
__Z12Vector2DNormP4SQVM
__Z12Vector4DNormP4SQVM
__Z12VectorLengthP4SQVM
__Z12VectorTypeOfP4SQVM
__Z12_stream_seekP4SQVM
__Z12_stream_tellP4SQVM
__Z12beginelementP4SQVM
__Z13QAngleForwardP4SQVM
__Z13QAngleIterateP4SQVM
__Z13QAngleReleasePvi
__Z13QuatConstructP4SQVM
__Z13QuaternionAddRK10QuaternionS1_RS_
__Z13Vector2DScaleP4SQVM
__Z13Vector4DScaleP4SQVM
__Z13VectorIterateP4SQVM
__Z13VectorReleasePvi
__Z13_stream_flushP4SQVM
__Z13_stream_readnP4SQVM
__Z13error_handlerP4SQVM
__Z14QAngleSubtractP4SQVM
__Z14QAngleToStringP4SQVM
__Z14RegisterQAngleP4SQVM
__Z14RegisterVectorP4SQVM
__Z14TranslateIndexRK11SQObjectPtr
__Z14V_vsnprintfRetPciPKcS_Pb
__Z14Vector2DLengthP4SQVM
__Z14Vector2DTypeOfP4SQVM
__Z14Vector4DLengthP4SQVM
__Z14Vector4DTypeOfP4SQVM
__Z14VectorLength2DP4SQVM
__Z14VectorSubtractP4SQVM
__Z14VectorToStringP4SQVM
__Z14_stream_writenP4SQVM
__Z14declare_streamP4SQVMPKcPvS2_PK16tagSQRegFunctionS6_
__Z15AngleQuaternionRK6QAngleR10Quaternion
__Z15CompileTypemaskR8sqvectorIiEPKc
__Z15ConVar_RegisteriP23IConCommandBaseAccessor
__Z15QAngleConstructP4SQVM
__Z15QuaternionAlignRK10QuaternionS1_RS_
__Z15QuaternionScaleRK10QuaternionfRS_
__Z15Vector2DIterateP4SQVM
__Z15Vector2DReleasePvi
__Z15Vector4DIterateP4SQVM
__Z15Vector4DReleasePvi
__Z15VectorConstructP4SQVM
__Z15VectorLengthSqrP4SQVM
__Z15_stream__clonedP4SQVM
__Z16QuaternionAnglesRK10QuaternionR6QAngle
__Z16QuaternionInvertRK10QuaternionRS_
__Z16QuaternionMatrixRK10QuaternionR11matrix3x4_t
__Z16RegisterVector2DP4SQVM
__Z16RegisterVector4DP4SQVM
__Z16Vector2DSubtractP4SQVM
__Z16Vector2DToStringP4SQVM
__Z16Vector4DSubtractP4SQVM
__Z16Vector4DToStringP4SQVM
__Z16_stream_readblobP4SQVM
__Z16init_streamclassP4SQVM
__Z16sq_base_registerP4SQVM
__Z17ConVar_Unregisterv
__Z17Vector2DConstructP4SQVM
__Z17Vector2DLengthSqrP4SQVM
__Z17Vector4DConstructP4SQVM
__Z17Vector4DLengthSqrP4SQVM
__Z17VectorLength2DSqrP4SQVM
__Z17_stream_writeblobP4SQVM
__Z18sq_aux_invalidtypeP4SQVM15tagSQObjectType
__Z19QuatSetPitchYawRollP4SQVM
__Z19QuaternionConjugateRK10QuaternionRS_
__Z19QuaternionNormalizeR10Quaternion
__Z20QuatToKeyValueStringP4SQVM
__Z20QuaternionDotProductRK10QuaternionS1_
__Z21ConnectTier1LibrariesPPFPvPKcPiEi
__Z21CreateDefaultDelegateP13SQSharedStatePK16tagSQRegFunction
__Z21V_UnqualifiedFileNamePKc
__Z21_sqstd_compiler_errorP4SQVMPKcS2_ii
__Z22QAngleToKeyValueStringP4SQVM
__Z22ScriptCreateSquirrelVMv
__Z22VectorToKeyValueStringP4SQVM
__Z23ScriptDestroySquirrelVMP9IScriptVM
__Z24DisconnectTier1Librariesv
__Z24Vector2DToKeyValueStringP4SQVM
__Z24Vector4DToKeyValueStringP4SQVM
__Z6DevMsgPKcz
__Z6V_atofPKc
__Z7CompileP4SQVMPFiPvES1_PKcR11SQObjectPtrbb
__Z7QuatAddP4SQVM
__Z7QuatDotP4SQVM
__Z7QuatGetP4SQVM
__Z7QuatSetP4SQVM
__Z8QAngleUpP4SQVM
__Z8QuatNormP4SQVM
__Z9QAngleAddP4SQVM
__Z9QAngleGetP4SQVM
__Z9QAngleSetP4SQVM
__Z9QAngleYawP4SQVM
__Z9QuatScaleP4SQVM
__Z9V_stricmpPKcS0_
__Z9VectorAddP4SQVM
__Z9VectorDotP4SQVM
__Z9VectorGetP4SQVM
__Z9VectorSetP4SQVM
__Z9attributeP4SQVM
__ZGVZN11SQDbgServer12SuperVerboseEvE10s_bVerbose
__ZGVZN14CScriptManager8CreateVME16ScriptLanguage_tE7binding
__ZGVZN14CScriptManager8CreateVME16ScriptLanguage_tE7binding_0
__ZL10_blob__getP4SQVM
__ZL10_blob__setP4SQVM
__ZL10array_findP4SQVM
__ZL10array_sortP4SQVM
__ZL10base_arrayP4SQVM
__ZL10base_dummyP4SQVM
__ZL10base_errorP4SQVM
__ZL10base_funcs
__ZL10base_printP4SQVM
__ZL10math_atan2P4SQVM
__ZL10math_floorP4SQVM
__ZL10math_log10P4SQVM
__ZL10math_srandP4SQVM
__ZL10table_keysP4SQVM
__ZL11__map_arrayP7SQArrayS0_P4SQVM
__ZL11_blob_swap2P4SQVM
__ZL11_blob_swap4P4SQVM
__ZL11array_applyP4SQVM
__ZL11array_sliceP4SQVM
__ZL11base_assertP4SQVM
__ZL11base_calleeP4SQVM
__ZL11rex_typetag
__ZL11s_nCVarFlag
__ZL11string_findP4SQVM
__ZL11thread_callP4SQVM
__ZL11vec2_origin
__ZL11vec2_origin
__ZL11vec2_origin
__ZL11vec2_origin
__ZL11vec2_origin
__ZL11vec2_origin
__ZL11vec2_origin
__ZL11weakref_refP4SQVM
__ZL12_blob__nextiP4SQVM
__ZL12_blob_resizeP4SQVM
__ZL12array_appendP4SQVM
__ZL12array_extendP4SQVM
__ZL12array_filterP4SQVM
__ZL12array_insertP4SQVM
__ZL12array_reduceP4SQVM
__ZL12array_removeP4SQVM
__ZL12array_resizeP4SQVM
__ZL12base_suspendP4SQVM
__ZL12closure_callP4SQVM
__ZL12rexobj_funcs
__ZL12s_bConnected
__ZL12string_sliceP4SQVM
__ZL12table_filterP4SQVM
__ZL12table_valuesP4SQVM
__ZL12vec2_invalid
__ZL12vec2_invalid
__ZL12vec2_invalid
__ZL12vec2_invalid
__ZL12vec2_invalid
__ZL12vec2_invalid
__ZL12vec2_invalid
__ZL13_blob__clonedP4SQVM
__ZL13_blob__typeofP4SQVM
__ZL13_blob_methods
__ZL13_g_blob_swap2P4SQVM
__ZL13_g_blob_swap4P4SQVM
__ZL13_regexp_matchP4SQVM
__ZL13_sort_compareP4SQVMP7SQArrayR11SQObjectPtrS4_iRi
__ZL13_string_splitP4SQVM
__ZL13_string_stripP4SQVM
__ZL13array_reverseP4SQVM
__ZL13bloblib_funcs
__ZL13class_getbaseP4SQVM
__ZL13closure_acallP4SQVM
__ZL13closure_pcallP4SQVM
__ZL13g_Script_init
__ZL13mathlib_funcs
__ZL13s_EmptyConVar
__ZL13s_bRegistered
__ZL13thread_wakeupP4SQVM
__ZL14ScriptMsgColor
__ZL14_closure_acallP4SQVMj
__ZL14_regexp_searchP4SQVM
__ZL14_string_escapeP4SQVM
__ZL14_string_formatP4SQVM
__ZL14_string_lstripP4SQVM
__ZL14_string_printfP4SQVM
__ZL14_string_rstripP4SQVM
__ZL14base_newthreadP4SQVM
__ZL14class_instanceP4SQVM
__ZL14closure_pacallP4SQVM
__ZL14sqstd_rex_listP5SQRex
__ZL14string_tolowerP4SQVM
__ZL14string_toupperP4SQVM
__ZL15_g_blob_castf2iP4SQVM
__ZL15_g_blob_casti2fP4SQVM
__ZL15_regexp__typeofP4SQVM
__ZL15_regexp_captureP4SQVM
__ZL15_stream_methods
__ZL15class_newmemberP4SQVM
__ZL15closure_bindenvP4SQVM
__ZL15closure_getrootP4SQVM
__ZL15closure_setrootP4SQVM
__ZL15s_ScriptManager
__ZL15sqstd_rex_errorP5SQRexPKc
__ZL15stringlib_funcs
__ZL15table_rawdeleteP4SQVM
__ZL16_hsort_sift_downP4SQVMP7SQArrayiii
__ZL16_string_endswithP4SQVM
__ZL16closure_getinfosP4SQVM
__ZL16container_rawgetP4SQVM
__ZL16container_rawsetP4SQVM
__ZL16get_slice_paramsP4SQVMRiS1_R11SQObjectPtr
__ZL16s_nDLLIdentifier
__ZL16thread_getstatusP4SQVM
__ZL17INVALID_HSQOBJECT
__ZL17_blob_constructorP4SQVM
__ZL17_blob_releasehookPvi
__ZL17_g_blob_swapfloatP4SQVM
__ZL17base_getroottableP4SQVM
__ZL17base_setdebughookP4SQVM
__ZL17base_setroottableP4SQVM
__ZL17instance_getclassP4SQVM
__ZL17s_DefaultAccessor
__ZL17sqstd_rex_elementP5SQRex
__ZL17table_getdelegateP4SQVM
__ZL17table_setdelegateP4SQVM
__ZL18_string_startswithP4SQVM
__ZL18base_compilestringP4SQVM
__ZL18base_getconsttableP4SQVM
__ZL18base_getstackinfosP4SQVM
__ZL18base_setconsttableP4SQVM
__ZL18class_rawnewmemberP4SQVM
__ZL18sq_aux_gettypedargP4SQVMi15tagSQObjectTypePP11SQObjectPtr
__ZL18sqstd_rex_charnodeP5SQRexj
__ZL18thread_wakeupthrowP4SQVM
__ZL19__getcallstackinfosP4SQVMi
__ZL19_regexp_constructorP4SQVM
__ZL19_regexp_subexpcountP4SQVM
__ZL19_rexobj_releasehookPvi
__ZL19base_collectgarbageP4SQVM
__ZL19class_getattributesP4SQVM
__ZL19class_setattributesP4SQVM
__ZL19container_rawexistsP4SQVM
__ZL19generator_getstatusP4SQVM
__ZL19sqstd_rex_matchnodeP5SQRexP12tagSQRexNodePKcS2_
__ZL20base_enabledebuginfoP4SQVM
__ZL20base_seterrorhandlerP4SQVM
__ZL20default_delegate_lenP4SQVM
__ZL20g_CleanupSymbolTable
__ZL20obj_delegate_weakrefP4SQVM
__ZL20thread_getstackinfosP4SQVM
__ZL21_sqstd_aux_printerrorP4SQVM
__ZL21sqstd_rex_matchcclassic
__ZL22number_delegate_tocharP4SQVM
__ZL23base_resurectureachableP4SQVM
__ZL24default_delegate_tofloatP4SQVM
__ZL25default_delegate_tostringP4SQVM
__ZL26default_delegate_tointegerP4SQVM
__ZL2f3
__ZL35s_pConversionArrays_NoEscConversion
__ZL3f05
__ZL40s_pConversionArrays_StringCharConversion
__ZL42__g_CreateCScriptManagerIScriptManager_reg
__ZL46__CreateCScriptManagerIScriptManager_interfacev
__ZL7str2numPKcR11SQObjectPtri
__ZL8math_absP4SQVM
__ZL8math_cosP4SQVM
__ZL8math_expP4SQVM
__ZL8math_logP4SQVM
__ZL8math_powP4SQVM
__ZL8math_sinP4SQVM
__ZL8math_tanP4SQVM
__ZL9array_mapP4SQVM
__ZL9array_popP4SQVM
__ZL9array_topP4SQVM
__ZL9base_typeP4SQVM
__ZL9math_acosP4SQVM
__ZL9math_asinP4SQVM
__ZL9math_atanP4SQVM
__ZL9math_ceilP4SQVM
__ZL9math_fabsP4SQVM
__ZL9math_randP4SQVM
__ZL9math_sqrtP4SQVM
__ZL9obj_clearP4SQVM
__ZL9table_mapP4SQVM
__ZN10CUtlMemoryI15UtlRBTreeNode_tIN15CUtlSymbolTable16CStringPoolIndexEtEtE4GrowEi
__ZN10CUtlRBTreeIN15CUtlSymbolTable16CStringPoolIndexEtNS0_5CLessE10CUtlMemoryI15UtlRBTreeNode_tIS1_tEtEE10RotateLeftEt
__ZN10CUtlRBTreeIN15CUtlSymbolTable16CStringPoolIndexEtNS0_5CLessE10CUtlMemoryI15UtlRBTreeNode_tIS1_tEtEE11RotateRightEt
__ZN10CUtlRBTreeIN15CUtlSymbolTable16CStringPoolIndexEtNS0_5CLessE10CUtlMemoryI15UtlRBTreeNode_tIS1_tEtEE15InsertRebalanceEt
__ZN10CUtlRBTreeIN15CUtlSymbolTable16CStringPoolIndexEtNS0_5CLessE10CUtlMemoryI15UtlRBTreeNode_tIS1_tEtEE5PurgeEv
__ZN10CUtlRBTreeIN15CUtlSymbolTable16CStringPoolIndexEtNS0_5CLessE10CUtlMemoryI15UtlRBTreeNode_tIS1_tEtEE6InsertERKS1_
__ZN10CUtlRBTreeIN15CUtlSymbolTable16CStringPoolIndexEtNS0_5CLessE10CUtlMemoryI15UtlRBTreeNode_tIS1_tEtEE7NewNodeEv
__ZN10CUtlRBTreeIN15CUtlSymbolTable16CStringPoolIndexEtNS0_5CLessE10CUtlMemoryI15UtlRBTreeNode_tIS1_tEtEED2Ev
__ZN10CUtlRBTreeIN7CUtlMapIPvS1_tPFbRKS1_S3_EE6Node_tEtNS6_8CKeyLessE10CUtlMemoryI15UtlRBTreeNode_tIS7_tEtEE5PurgeEv
__ZN10CUtlRBTreeIN7CUtlMapIPvS1_tPFbRKS1_S3_EE6Node_tEtNS6_8CKeyLessE10CUtlMemoryI15UtlRBTreeNode_tIS7_tEtEED2Ev
__ZN10CUtlSymbol10InitializeEv
__ZN10CUtlSymbol14s_pSymbolTableE
__ZN10CUtlSymbolC1EPKc
__ZN10CUtlVectorIPN15CUtlSymbolTable12StringPool_tE10CUtlMemoryIS2_iEED2Ev
__ZN10CUtlVectorIi10CUtlMemoryIiiEE20InsertMultipleBeforeEii
__ZN10CUtlVectorIi10CUtlMemoryIiiEE9AddToTailERKi
__ZN10CUtlVectorIi10CUtlMemoryIiiEED2Ev
__ZN10CVProfNode10EnterScopeEv
__ZN10CVProfNode10GetSubNodeEPKciS1_i
__ZN10CVProfNode9ExitScopeEv
__ZN10SQCompiler10DeleteExprEv
__ZN10SQCompiler10ExpressionEv
__ZN10SQCompiler10ThrowErrorEPvPKc
__ZN10SQCompiler11FunctionExpEb
__ZN10SQCompiler11IfStatementEv
__ZN10SQCompiler12ExpectScalarEv
__ZN10SQCompiler12ForStatementEv
__ZN10SQCompiler12LogicalOrExpEv
__ZN10SQCompiler12PrefixIncDecEi
__ZN10SQCompiler12PrefixedExprEv
__ZN10SQCompiler13BitwiseAndExpEv
__ZN10SQCompiler13BitwiseXorExpEv
__ZN10SQCompiler13EnumStatementEv
__ZN10SQCompiler13LogicalAndExpEv
__ZN10SQCompiler14ClassStatementEv
__ZN10SQCompiler14CreateFunctionER11tagSQObjectib
__ZN10SQCompiler14WhileStatementEv
__ZN10SQCompiler15SwitchStatementEv
__ZN10SQCompiler16DoWhileStatementEv
__ZN10SQCompiler16EmitLoadConstIntEii
__ZN10SQCompiler16ForEachStatementEv
__ZN10SQCompiler16FunctionCallArgsEb
__ZN10SQCompiler17EmitCompoundArithEiii
__ZN10SQCompiler17FunctionStatementEv
__ZN10SQCompiler17ParseTableOrClassEii
__ZN10SQCompiler17TryCatchStatementEv
__ZN10SQCompiler18LocalDeclStatementEv
__ZN10SQCompiler26MoveIfCurrentTargetIsLocalEv
__ZN10SQCompiler5EqExpEv
__ZN10SQCompiler5ErrorEPKcz
__ZN10SQCompiler6ExpectEi
__ZN10SQCompiler6FactorEv
__ZN10SQCompiler7BIN_EXPIMS_FvvEEEv8SQOpcodeT_i
__ZN10SQCompiler7CompExpEv
__ZN10SQCompiler7CompileER11SQObjectPtr
__ZN10SQCompiler7IfBlockEv
__ZN10SQCompiler7MultExpEv
__ZN10SQCompiler7PlusExpEv
__ZN10SQCompiler7UnaryOPE8SQOpcode
__ZN10SQCompiler8ClassExpEv
__ZN10SQCompiler8ShiftExpEv
__ZN10SQCompiler9CommaExprEv
__ZN10SQCompiler9StatementEb
__ZN10SQCompilerC2EP4SQVMPFiPvES2_PKcbb
__ZN10SQInstance10InstanceOfEP7SQClass
__ZN10SQInstance13GetMetaMethodEP4SQVM12SQMetaMethodR11SQObjectPtr
__ZN10SQInstance3GetERK11SQObjectPtrRS0_
__ZN10SQInstance3SetERK11SQObjectPtrS2_
__ZN10SQInstance4MarkEPP13SQCollectable
__ZN10SQInstance7GetTypeEv
__ZN10SQInstance7IterateEP16CSQStateIterator
__ZN10SQInstance7ReleaseEv
__ZN10SQInstance8FinalizeEv
__ZN10SQInstanceC1EP13SQSharedStatePS_i
__ZN10SQInstanceC2EP13SQSharedStateP7SQClassi
__ZN10SQInstanceC2EP13SQSharedStatePS_i
__ZN10SQInstanceD0Ev
__ZN10SQInstanceD1Ev
__ZN10SQInstanceD2Ev
__ZN10SQUserData4MarkEPP13SQCollectable
__ZN10SQUserData7GetTypeEv
__ZN10SQUserData7IterateEP16CSQStateIterator
__ZN10SQUserData7ReleaseEv
__ZN10SQUserData8FinalizeEv
__ZN10SQUserDataD0Ev
__ZN10SQUserDataD1Ev
__ZN10SQUserDataD2Ev
__ZN11CSquirrelVM10ClearValueEP9HSCRIPT__PKc
__ZN11CSquirrelVM10CopyHandleEP9HSCRIPT__
__ZN11CSquirrelVM10DumpObjectEP4SQVM
__ZN11CSquirrelVM10QueryBreakEP4SQVM
__ZN11CSquirrelVM10WriteStateEP10CUtlBuffer
__ZN11CSquirrelVM11CreateClassEP17ScriptClassDesc_t
__ZN11CSquirrelVM11CreateScopeEPKcP9HSCRIPT__
__ZN11CSquirrelVM11CreateTableER12CVariantBaseI24CVariantDefaultAllocatorE
__ZN11CSquirrelVM11GetIdentityEP9HSCRIPT__
__ZN11CSquirrelVM11GetKeyValueEP9HSCRIPT__iP12CVariantBaseI24CVariantDefaultAllocatorES5_
__ZN11CSquirrelVM11GetLanguageEv
__ZN11CSquirrelVM11PushVariantERK12CVariantBaseI24CVariantDefaultAllocatorEb
__ZN11CSquirrelVM11ReleaseHookEPvi
__ZN11CSquirrelVM11ValueExistsEP9HSCRIPT__PKc
__ZN11CSquirrelVM12GetDeveloperEP4SQVM
__ZN11CSquirrelVM12GetKeyValue2EP9HSCRIPT__iP12CVariantBaseI24CVariantDefaultAllocatorES5_
__ZN11CSquirrelVM12GetRootTableEv
__ZN11CSquirrelVM12LookupObjectEPKcP9HSCRIPT__bb
__ZN11CSquirrelVM12ReleaseScopeEP9HSCRIPT__
__ZN11CSquirrelVM12ReleaseValueER12CVariantBaseI24CVariantDefaultAllocatorE
__ZN11CSquirrelVM13AddSearchPathEPKc
__ZN11CSquirrelVM13CompileScriptEPKcS1_
__ZN11CSquirrelVM13GetInternalVMEv
__ZN11CSquirrelVM13MakeNamespaceEP4SQVM
__ZN11CSquirrelVM13RegisterClassEP17ScriptClassDesc_t
__ZN11CSquirrelVM13ReleaseScriptEP9HSCRIPT__
__ZN11CSquirrelVM13TranslateCallEP4SQVM
__ZN11CSquirrelVM14ArrayAddToTailEP9HSCRIPT__RK12CVariantBaseI24CVariantDefaultAllocatorE
__ZN11CSquirrelVM14CollectGarbageEPKcb
__ZN11CSquirrelVM14GetScalarValueEP9HSCRIPT__P12CVariantBaseI24CVariantDefaultAllocatorE
__ZN11CSquirrelVM14LookupFunctionEPKcP9HSCRIPT__b
__ZN11CSquirrelVM14RaiseExceptionEPKc
__ZN11CSquirrelVM14ReferenceScopeEP9HSCRIPT__
__ZN11CSquirrelVM14RemoveInstanceEP9HSCRIPT__
__ZN11CSquirrelVM15CallConstructorEP4SQVM
__ZN11CSquirrelVM15ConnectDebuggerEv
__ZN11CSquirrelVM15ExecuteFunctionEP9HSCRIPT__P12CVariantBaseI24CVariantDefaultAllocatorEiS5_S1_b
__ZN11CSquirrelVM15GetLanguageNameEv
__ZN11CSquirrelVM15InstanceIsValidEP4SQVM
__ZN11CSquirrelVM15ReleaseFunctionEP9HSCRIPT__
__ZN11CSquirrelVM16ConvertToVariantEP4SQVM11tagSQObjectP12CVariantBaseI24CVariantDefaultAllocatorE
__ZN11CSquirrelVM16GetInstanceValueEP9HSCRIPT__P17ScriptClassDesc_t
__ZN11CSquirrelVM16InstanceToStringEP4SQVM
__ZN11CSquirrelVM16RegisterFunctionEP23ScriptFunctionBinding_t
__ZN11CSquirrelVM16RegisterInstanceEP17ScriptClassDesc_tPv
__ZN11CSquirrelVM16SetErrorCallbackEPFb18ScriptErrorLevel_tPKcE
__ZN11CSquirrelVM17GenerateUniqueKeyEPKcPci
__ZN11CSquirrelVM17SetOutputCallbackEPFvPKcE
__ZN11CSquirrelVM18DisconnectDebuggerEv
__ZN11CSquirrelVM18GetNumTableEntriesEP9HSCRIPT__
__ZN11CSquirrelVM18SetInstanceUniqeIdEP9HSCRIPT__PKc
__ZN11CSquirrelVM20CreateNativeInstanceEP17ScriptClassDesc_tPvPFiS2_iE
__ZN11CSquirrelVM20GetFunctionSignatureEP4SQVM
__ZN11CSquirrelVM20RegisterFunctionGutsEP23ScriptFunctionBinding_tP17ScriptClassDesc_t
__ZN11CSquirrelVM21RemoveOrphanInstancesEv
__ZN11CSquirrelVM26MakeSquirrelMetamethod_GetERP9HSCRIPT__PKcPN9IScriptVM27ISquirrelMetamethodDelegateEb
__ZN11CSquirrelVM27ExternalInstanceReleaseHookEPvi
__ZN11CSquirrelVM29DestroySquirrelMetamethod_GetEP31CSquirrelMetamethodDelegateImpl
__ZN11CSquirrelVM3RunEP9HSCRIPT__S1_b
__ZN11CSquirrelVM3RunEP9HSCRIPT__b
__ZN11CSquirrelVM3RunEPKcb
__ZN11CSquirrelVM4InitEv
__ZN11CSquirrelVM5FrameEf
__ZN11CSquirrelVM8GetValueEP9HSCRIPT__PKcP12CVariantBaseI24CVariantDefaultAllocatorE
__ZN11CSquirrelVM8SetValueEP9HSCRIPT__PKcRK12CVariantBaseI24CVariantDefaultAllocatorE
__ZN11CSquirrelVM8SetValueEP9HSCRIPT__PKcS3_
__ZN11CSquirrelVM8ShutdownEv
__ZN11CSquirrelVM9DumpStateEv
__ZN11CSquirrelVM9ErrorFuncEP4SQVMPKcz
__ZN11CSquirrelVM9IsWeakrefEP4SQVM
__ZN11CSquirrelVM9PrintFuncEP4SQVMPKcz
__ZN11CSquirrelVM9ReadStateEP10CUtlBuffer
__ZN11CSquirrelVMC2EP4SQVM
__ZN11SQDbgServer10EndElementEPKc
__ZN11SQDbgServer10escape_xmlEPKc
__ZN11SQDbgServer11IsConnectedEv
__ZN11SQDbgServer11RemoveWatchEi
__ZN11SQDbgServer12BeginElementEPKc
__ZN11SQDbgServer13AddBreakpointER10BreakPoint
__ZN11SQDbgServer14BreakExecutionEv
__ZN11SQDbgServer14FindBreakpointEiPKc
__ZN11SQDbgServer14SerializeStateEv
__ZN11SQDbgServer16RemoveBreakpointER10BreakPoint
__ZN11SQDbgServer16SetErrorHandlersEv
__ZN11SQDbgServer4HookEiiPKcS1_
__ZN11SQDbgServer4InitEv
__ZN11SQDbgServer5BreakEiPKcS1_S1_
__ZN11SQDbgServer8ParseMsgEPKc
__ZN11SQDbgServer9AttributeEPKcS1_
__ZN11SQDbgServer9SendChunkEPKc
__ZN11SQDbgServerC1EP4SQVM
__ZN11SQDbgServerC2EP4SQVM
__ZN11SQDbgServerD1Ev
__ZN11SQDbgServerD2Ev
__ZN11SQDelegable11SetDelegateEP7SQTable
__ZN11SQDelegable13GetMetaMethodEP4SQVM12SQMetaMethodR11SQObjectPtr
__ZN11SQFuncState10BuildProtoEv
__ZN11SQFuncState10IsConstantERK11tagSQObjectRS0_
__ZN11SQFuncState10PushTargetEi
__ZN11SQFuncState11CountOutersEi
__ZN11SQFuncState11CreateTableEv
__ZN11SQFuncState11GetConstantERK11tagSQObject
__ZN11SQFuncState12AddLineInfosEibb
__ZN11SQFuncState12AddParameterERK11tagSQObject
__ZN11SQFuncState12CreateStringEPKci
__ZN11SQFuncState12GetStackSizeEv
__ZN11SQFuncState12SetStackSizeEi
__ZN11SQFuncState13DiscardTargetEv
__ZN11SQFuncState13PopChildStateEv
__ZN11SQFuncState14AddInstructionER13SQInstruction
__ZN11SQFuncState14PushChildStateEP13SQSharedState
__ZN11SQFuncState16GetLocalVariableERK11tagSQObject
__ZN11SQFuncState16GetOuterVariableERK11tagSQObject
__ZN11SQFuncState17PushLocalVariableERK11tagSQObject
__ZN11SQFuncState18GetNumericConstantEi
__ZN11SQFuncState19SetInstructionParamEiii
__ZN11SQFuncState20SetInstructionParamsEiiiii
__ZN11SQFuncState7IsLocalEj
__ZN11SQFuncState9PopTargetEv
__ZN11SQFuncState9TopTargetEv
__ZN11SQFuncStateC1EP13SQSharedStatePS_PFvPvPKcES3_
__ZN11SQFuncStateC2EP13SQSharedStatePS_PFvPvPKcES3_
__ZN11SQFuncStateD1Ev
__ZN11SQFuncStateD2Ev
__ZN11SQGenerator4MarkEPP13SQCollectable
__ZN11SQGenerator5YieldEP4SQVMi
__ZN11SQGenerator6ResumeEP4SQVMR11SQObjectPtr
__ZN11SQGenerator7GetTypeEv
__ZN11SQGenerator7IterateEP16CSQStateIterator
__ZN11SQGenerator7ReleaseEv
__ZN11SQGenerator8FinalizeEv
__ZN11SQGeneratorC2EP13SQSharedStateP9SQClosure
__ZN11SQGeneratorD0Ev
__ZN11SQGeneratorD1Ev
__ZN11SQGeneratorD2Ev
__ZN11SQObjectPtrD1Ev
__ZN12CEmptyConVar8SetValueEPKc
__ZN12CEmptyConVar8SetValueEf
__ZN12CEmptyConVar8SetValueEi
__ZN12CEmptyConVarD0Ev
__ZN12CEmptyConVarD1Ev
__ZN12CThreadEvent3SetEv
__ZN12CThreadEventC1Eb
__ZN12CUtlHashFastIP7SQClass23CUtlHashFastGenericHashE10FastInsertEjRKS1_
__ZN12CUtlHashFastIP7SQClass23CUtlHashFastGenericHashEC2Ev
__ZN12CUtlHashFastIP7SQClass23CUtlHashFastGenericHashED2Ev
__ZN12InterfaceReg16s_pInterfaceRegsE
__ZN12InterfaceRegC1EPFPvvEPKc
__ZN12SQRefCounted10GetWeakRefE15tagSQObjectType
__ZN12SQRefCounted7IterateEP16CSQStateIterator
__ZN12SQRefCountedD0Ev
__ZN12SQRefCountedD1Ev
__ZN12SQRefCountedD2Ev
__ZN13CThreadRWLock11UnlockWriteEv
__ZN13CThreadRWLock11WaitForReadEv
__ZN13CThreadRWLock12LockForWriteEv
__ZN13SQCollectable10AddToChainEPPS_S0_
__ZN13SQCollectable15RemoveFromChainEPPS_S0_
__ZN13SQCollectable6UnMarkEv
__ZN13SQSharedState10MarkObjectER11SQObjectPtrPP13SQCollectable
__ZN13SQSharedState13GetScratchPadEi
__ZN13SQSharedState13IterateObjectEP16CSQStateIteratorR11SQObjectPtrPKc
__ZN13SQSharedState14CollectGarbageEP4SQVM
__ZN13SQSharedState20ResurrectUnreachableEP4SQVM
__ZN13SQSharedState22GetMetaMethodIdxByNameERK11SQObjectPtr
__ZN13SQSharedState29_array_default_delegate_funczE
__ZN13SQSharedState29_class_default_delegate_funczE
__ZN13SQSharedState29_table_default_delegate_funczE
__ZN13SQSharedState30_handle_default_delegate_funczE
__ZN13SQSharedState30_number_default_delegate_funczE
__ZN13SQSharedState30_string_default_delegate_funczE
__ZN13SQSharedState30_thread_default_delegate_funczE
__ZN13SQSharedState31_closure_default_delegate_funczE
__ZN13SQSharedState31_weakref_default_delegate_funczE
__ZN13SQSharedState32_instance_default_delegate_funczE
__ZN13SQSharedState33_generator_default_delegate_funczE
__ZN13SQSharedState38_utlstringtoken_default_delegate_funczE
__ZN13SQSharedState4InitEv
__ZN13SQSharedState7IterateEP4SQVMP16CSQStateIterator
__ZN13SQSharedState7RunMarkEP4SQVMPP13SQCollectable
__ZN13SQSharedStateC1Ev
__ZN13SQSharedStateC2Ev
__ZN13SQSharedStateD1Ev
__ZN13SQSharedStateD2Ev
__ZN13SQStringTable3AddEPKci
__ZN13SQStringTable6RemoveEP8SQString
__ZN14CBaseAppSystemI14IScriptManagerE14QueryInterfaceEPKc
__ZN14CScriptManager8CreateVME16ScriptLanguage_t
__ZN14CScriptManager9DestroyVMEP9IScriptVM
__ZN14CUtlLinkedListIN12CUtlHashFastIP7SQClass23CUtlHashFastGenericHashE15HashFastData_t_IS2_EEiLb1Ei15CUtlFixedMemoryI19UtlLinkedListElem_tIS6_iEEE13AllocInternalEb
__ZN14CUtlLinkedListIN12CUtlHashFastIP7SQClass23CUtlHashFastGenericHashE15HashFastData_t_IS2_EEiLb1Ei15CUtlFixedMemoryI19UtlLinkedListElem_tIS6_iEEE6UnlinkEi
__ZN14CUtlLinkedListIN12CUtlHashFastIP7SQClass23CUtlHashFastGenericHashE15HashFastData_t_IS2_EEiLb1Ei15CUtlFixedMemoryI19UtlLinkedListElem_tIS6_iEEE9RemoveAllEv
__ZN14ConCommandBase10CreateBaseEPKcS1_i
__ZN14ConCommandBase11s_pAccessorE
__ZN14ConCommandBase18s_pConCommandBasesE
__ZN15CScopedIterator12EndContainedEv
__ZN15CScopedIterator14BeginContainedEv
__ZN15CScopedIterator3KeyERK11SQObjectPtr
__ZN15CScopedIterator5ValueERK11SQObjectPtr
__ZN15CScopedIterator9PsuedoKeyEPKc
__ZN15CTier1AppSystemI14IScriptManagerLi0EE10DisconnectEv
__ZN15CTier1AppSystemI14IScriptManagerLi0EE4InitEv
__ZN15CTier1AppSystemI14IScriptManagerLi0EE7ConnectEPFPvPKcPiE
__ZN15CTier1AppSystemI14IScriptManagerLi0EE8ShutdownEv
__ZN15CUtlSymbolTable9AddStringEPKc
__ZN15CUtlSymbolTableD2Ev
__ZN15SQFunctionProto4MarkEPP13SQCollectable
__ZN15SQFunctionProto6CreateEP13SQSharedStateiiiiiiii
__ZN15SQFunctionProto7GetLineEP13SQInstruction
__ZN15SQFunctionProto7GetTypeEv
__ZN15SQFunctionProto7ReleaseEv
__ZN15SQFunctionProto8FinalizeEv
__ZN15SQFunctionProto8GetLocalEP4SQVMjjj
__ZN15SQFunctionProtoC1EP13SQSharedState
__ZN15SQFunctionProtoC2EP13SQSharedState
__ZN15SQFunctionProtoD0Ev
__ZN15SQFunctionProtoD1Ev
__ZN15SQFunctionProtoD2Ev
__ZN15SQNativeClosure4MarkEPP13SQCollectable
__ZN15SQNativeClosure5CloneEv
__ZN15SQNativeClosure7GetTypeEv
__ZN15SQNativeClosure7IterateEP16CSQStateIterator
__ZN15SQNativeClosure7ReleaseEv
__ZN15SQNativeClosure8FinalizeEv
__ZN15SQNativeClosureC2EP13SQSharedStatePFiP4SQVME
__ZN15SQNativeClosureD0Ev
__ZN15SQNativeClosureD1Ev
__ZN15SQNativeClosureD2Ev
__ZN16CDefaultAccessor22RegisterConCommandBaseEP14ConCommandBase
__ZN17CThreadSyncObjectD2Ev
__ZN18CUtlCharConversion14FindConversionEPKcPi
__ZN19CUtlNoEscConversion14FindConversionEPKcPi
__ZN21CUtlCStringConversion14FindConversionEPKcPi
__ZN21CUtlCStringConversionC2EcPKciPN18CUtlCharConversion17ConversionArray_tE
__ZN22CCleanupUtlSymbolTableD1Ev
__ZN23ScriptFunctionBinding_tD1Ev
__ZN24CNonMemberScriptBinding2IPFfffEfffE4CallE34ScriptFunctionBindingStorageType_tPvP12CVariantBaseI24CVariantDefaultAllocatorEiS8_
__ZN24CNonMemberScriptBinding2IPFiiiEiiiE4CallE34ScriptFunctionBindingStorageType_tPvP12CVariantBaseI24CVariantDefaultAllocatorEiS8_
__ZN31CSquirrelMetamethodDelegateImpl20SqGetMetamethodThunkEP4SQVM
__ZN31CSquirrelMetamethodDelegateImplD2Ev
__ZN4SQVM10CLOSURE_OPER11SQObjectPtrP15SQFunctionProtoi
__ZN4SQVM10CallNativeEP15SQNativeClosureiiR11SQObjectPtriRbS4_
__ZN4SQVM10DeleteSlotERK11SQObjectPtrS2_RS0_
__ZN4SQVM10EnterFrameEiib
__ZN4SQVM10FOREACH_OPER11SQObjectPtrS1_S1_S1_iiRi
__ZN4SQVM10LeaveFrameEv
__ZN4SQVM10PLOCAL_INCEiR11SQObjectPtrS1_S1_
__ZN4SQVM11FallBackGetERK11SQObjectPtrS2_RS0_
__ZN4SQVM11FallBackSetERK11SQObjectPtrS2_S2_
__ZN4SQVM11PrintObjValERK11SQObjectPtr
__ZN4SQVM11Raise_ErrorEPKcz
__ZN4SQVM11Raise_ErrorERK11SQObjectPtr
__ZN4SQVM13CallDebugHookEii
__ZN4SQVM14Raise_IdxErrorERK11SQObjectPtr
__ZN4SQVM15ArithMetaMethodEiRK11SQObjectPtrS2_RS0_
__ZN4SQVM16CallErrorHandlerER11SQObjectPtr
__ZN4SQVM18Raise_CompareErrorERK11tagSQObjectS2_
__ZN4SQVM19CreateClassInstanceEP7SQClassR11SQObjectPtrS3_
__ZN4SQVM20Raise_ParamTypeErrorEiii
__ZN4SQVM3GetERK11SQObjectPtrS2_RS0_ji
__ZN4SQVM3PopEi
__ZN4SQVM3PopEv
__ZN4SQVM3SetERK11SQObjectPtrS2_S2_i
__ZN4SQVM3TopEv
__ZN4SQVM4CallER11SQObjectPtriiS1_j
__ZN4SQVM4InitEPS_i
__ZN4SQVM4MarkEPP13SQCollectable
__ZN4SQVM4PushERK11SQObjectPtr
__ZN4SQVM5BW_OPEjR11SQObjectPtrRKS0_S3_
__ZN4SQVM5CloneERK11SQObjectPtrRS0_
__ZN4SQVM5GetAtEi
__ZN4SQVM5GetUpEi
__ZN4SQVM6CMP_OPE5CmpOPRK11SQObjectPtrS3_RS1_
__ZN4SQVM6NEG_OPER11SQObjectPtrRKS0_
__ZN4SQVM6ObjCmpERK11SQObjectPtrS2_Ri
__ZN4SQVM6RemoveEi
__ZN4SQVM6ReturnEiiR11SQObjectPtr
__ZN4SQVM6TypeOfERK11SQObjectPtrRS0_
__ZN4SQVM7ExecuteER11SQObjectPtriiS1_jNS_13ExecutionTypeE
__ZN4SQVM7GetTypeEv
__ZN4SQVM7IsEqualERK11SQObjectPtrS2_Rb
__ZN4SQVM7IsFalseER11SQObjectPtr
__ZN4SQVM7IterateEP16CSQStateIterator
__ZN4SQVM7NewSlotERK11SQObjectPtrS2_S2_b
__ZN4SQVM7ReleaseEv
__ZN4SQVM7SuspendEv
__ZN4SQVM8ARITH_OPEjR11SQObjectPtrRKS0_S3_
__ZN4SQVM8CLASS_OPER11SQObjectPtrii
__ZN4SQVM8DerefIncEiR11SQObjectPtrS1_S1_S1_bi
__ZN4SQVM8FinalizeEv
__ZN4SQVM8NewSlotAERK11SQObjectPtrS2_S2_S2_bb
__ZN4SQVM8PushNullEv
__ZN4SQVM8TailCallEP9SQClosureii
__ZN4SQVM8ToStringERK11SQObjectPtrRS0_
__ZN4SQVM9FindOuterER11SQObjectPtrPS0_
__ZN4SQVM9StartCallEP9SQClosureiiib
__ZN4SQVM9StringCatERK11SQObjectPtrS2_RS0_
__ZN4SQVMC1EP13SQSharedState
__ZN4SQVMC2EP13SQSharedState
__ZN4SQVMD0Ev
__ZN4SQVMD1Ev
__ZN4SQVMD2Ev
__ZN6ConVar10ClampValueERf
__ZN6ConVar16InternalSetValueEPKc
__ZN6ConVar17ChangeStringValueEPKcf
__ZN6ConVar19InternalSetIntValueEi
__ZN6ConVar21InternalSetFloatValueEfb
__ZN6ConVar4InitEv
__ZN6ConVar6CreateEPKcS1_iS1_bfbfbfbfPFvP7IConVarS1_fE
__ZN6ConVar8AddFlagsEi
__ZN6ConVar8SetValueEPKc
__ZN6ConVar8SetValueEf
__ZN6ConVar8SetValueEi
__ZN6ConVarC1EPKcS1_i
__ZN6ConVarD0Ev
__ZN6ConVarD1Ev
__ZN6SQBlob17s_total_blob_sizeE
__ZN6SQBlob3EOSEv
__ZN6SQBlob3LenEv
__ZN6SQBlob4ReadEPvi
__ZN6SQBlob4SeekEii
__ZN6SQBlob4TellEv
__ZN6SQBlob5FlushEv
__ZN6SQBlob5WriteEPvi
__ZN6SQBlob6ResizeEi
__ZN6SQBlob7IsValidEv
__ZN6SQBlobD0Ev
__ZN6SQBlobD1Ev
__ZN7CDefOpsIPvE8LessFuncERKS0_S3_
__ZN7SQArray3PopEv
__ZN7SQArray4MarkEPP13SQCollectable
__ZN7SQArray4NextERK11SQObjectPtrRS0_S3_
__ZN7SQArray6AppendERK11tagSQObject
__ZN7SQArray6CreateEP13SQSharedStatei
__ZN7SQArray6ExtendEPKS_
__ZN7SQArray6InsertEiRK11tagSQObject
__ZN7SQArray7GetTypeEv
__ZN7SQArray7IterateEP16CSQStateIterator
__ZN7SQArray7ReleaseEv
__ZN7SQArray8FinalizeEv
__ZN7SQArrayC2EP13SQSharedStatei
__ZN7SQArrayD0Ev
__ZN7SQArrayD1Ev
__ZN7SQArrayD2Ev
__ZN7SQClass13GetAttributesERK11SQObjectPtrRS0_
__ZN7SQClass13SetAttributesERK11SQObjectPtrS2_
__ZN7SQClass14CreateInstanceEv
__ZN7SQClass3GetERK11SQObjectPtrRS0_
__ZN7SQClass3SetERK11SQObjectPtrS2_
__ZN7SQClass4MarkEPP13SQCollectable
__ZN7SQClass4NextERK11SQObjectPtrRS0_S3_
__ZN7SQClass7GetTypeEv
__ZN7SQClass7IterateEP16CSQStateIterator
__ZN7SQClass7NewSlotEP13SQSharedStateRK11SQObjectPtrS4_b
__ZN7SQClass7ReleaseEv
__ZN7SQClass8FinalizeEv
__ZN7SQClassC1EP13SQSharedStatePS_
__ZN7SQClassC2EP13SQSharedStatePS_
__ZN7SQClassD0Ev
__ZN7SQClassD1Ev
__ZN7SQClassD2Ev
__ZN7SQLexer10ReadNumberEv
__ZN7SQLexer10ReadStringEib
__ZN7SQLexer15LexBlockCommentEv
__ZN7SQLexer22ProcessStringHexEscapeEPci
__ZN7SQLexer3LexEv
__ZN7SQLexer4InitEP13SQSharedStatePFiPvES2_PFvS2_PKcES2_
__ZN7SQLexer6ReadIDEv
__ZN7SQLexer7AddUTF8Ej
__ZN7SQLexer7Tok2StrEi
__ZN7SQLexer9GetIDTypeEPKci
__ZN7SQLexerC1Ev
__ZN7SQLexerD1Ev
__ZN7SQLexerD2Ev
__ZN7SQOuter4MarkEPP13SQCollectable
__ZN7SQOuter7GetTypeEv
__ZN7SQOuter7ReleaseEv
__ZN7SQOuter8FinalizeEv
__ZN7SQOuterC2EP13SQSharedStateP11SQObjectPtr
__ZN7SQOuterD0Ev
__ZN7SQOuterD1Ev
__ZN7SQOuterD2Ev
__ZN7SQTable19GetIncludingWeakrefERK11SQObjectPtrRS0_
__ZN7SQTable3GetERK11SQObjectPtrRS0_
__ZN7SQTable3SetERK11SQObjectPtrS2_
__ZN7SQTable4MarkEPP13SQCollectable
__ZN7SQTable4NextEbRK11SQObjectPtrRS0_S3_
__ZN7SQTable5ClearEv
__ZN7SQTable5CloneEv
__ZN7SQTable6AppendEPS_
__ZN7SQTable6RehashEb
__ZN7SQTable6RemoveERK11SQObjectPtr
__ZN7SQTable7GetTypeEv
__ZN7SQTable7IterateEP16CSQStateIterator
__ZN7SQTable7NewSlotERK11SQObjectPtrS2_
__ZN7SQTable7ReleaseEv
__ZN7SQTable8FinalizeEv
__ZN7SQTableC1EP13SQSharedStatei
__ZN7SQTableC2EP13SQSharedStatei
__ZN7SQTableD0Ev
__ZN7SQTableD1Ev
__ZN7SQTableD2Ev
__ZN8CFmtStrNILi256ELb0EE19InitQuietTruncationEv
__ZN8CFmtStrNILi256ELb0EEC1EPKcz
__ZN8RefTable3GetER11tagSQObjectRjPPNS_7RefNodeEb
__ZN8RefTable6AddRefER11tagSQObject
__ZN8RefTable6ResizeEj
__ZN8RefTable7ReleaseER11tagSQObject
__ZN8SQString4NextERK11SQObjectPtrRS0_S3_
__ZN8SQString6CreateEP13SQSharedStatePKci
__ZN8SQString7ReleaseEv
__ZN8SQStringD0Ev
__ZN8SQStringD1Ev
__ZN8sqvectorI10SQOuterVarED1Ev
__ZN8sqvectorI11SQObjectPtrE4copyERKS1_
__ZN8sqvectorI11SQObjectPtrE6insertEjRKS0_
__ZN8sqvectorI11SQObjectPtrE6resizeEjRKS0_
__ZN8sqvectorI11SQObjectPtrED2Ev
__ZN8sqvectorI13SQClassMemberE4copyERKS1_
__ZN8sqvectorI13SQClassMemberE6resizeEjRKS0_
__ZN8sqvectorI13SQClassMemberED1Ev
__ZN8sqvectorI14SQLocalVarInfoED2Ev
__ZN8sqvectorIN4SQVM8CallInfoEE6resizeEjRKS1_
__ZN8sqvectorIN4SQVM8CallInfoEED2Ev
__ZN9ConVarRefC1EPKcb
__ZN9SQClosure16GetVprofNodeNameEv
__ZN9SQClosure4MarkEPP13SQCollectable
__ZN9SQClosure5CloneEv
__ZN9SQClosure6CreateEP13SQSharedStateP15SQFunctionProtoP9SQWeakRef
__ZN9SQClosure7GetTypeEv
__ZN9SQClosure7IterateEP16CSQStateIterator
__ZN9SQClosure7ReleaseEv
__ZN9SQClosure8FinalizeEv
__ZN9SQClosureD0Ev
__ZN9SQClosureD1Ev
__ZN9SQClosureD2Ev
__ZN9SQWeakRef7ReleaseEv
__ZN9SQWeakRefD0Ev
__ZN9SQWeakRefD1Ev
__ZNK10CUtlSymbol6StringEv
__ZNK12CEmptyConVar7GetNameEv
__ZNK12CEmptyConVar9IsFlagSetEi
__ZNK12CVariantBaseI24CVariantDefaultAllocatorE8AssignToIS0_EEbPS_IT_E
__ZNK14ConCommandBase16GetDLLIdentifierEv
__ZNK15CUtlSymbolTable5CLessclERKNS_16CStringPoolIndexES3_
__ZNK17CUtlSymbolTableMT6StringE10CUtlSymbol
__ZNK6ConVar11GetHelpTextEv
__ZNK6ConVar12IsRegisteredEv
__ZNK6ConVar7GetNameEv
__ZNK6ConVar9IsCommandEv
__ZNK6ConVar9IsFlagSetEi
__ZNKSt3__120__vector_base_commonILb1EE20__throw_length_errorEv
__ZNSt3__112basic_stringIcNS_11char_traitsIcEENS_9allocatorIcEEE6appendEPKc
__ZNSt3__112basic_stringIcNS_11char_traitsIcEENS_9allocatorIcEEE6appendEPKcm
__ZNSt3__112basic_stringIcNS_11char_traitsIcEENS_9allocatorIcEEE6appendEmc
__ZNSt3__112basic_stringIcNS_11char_traitsIcEENS_9allocatorIcEEE6assignEPKc
__ZNSt3__112basic_stringIcNS_11char_traitsIcEENS_9allocatorIcEEE9push_backEc
__ZNSt3__112basic_stringIcNS_11char_traitsIcEENS_9allocatorIcEEED1Ev
__ZNSt3__112basic_stringIcNS_11char_traitsIcEENS_9allocatorIcEEEaSERKS5_
__ZNSt3__113__tree_removeIPNS_16__tree_node_baseIPvEEEEvT_S5_
__ZNSt3__127__tree_balance_after_insertIPNS_16__tree_node_baseIPvEEEEvT_S5_
__ZNSt3__16__treeI10BreakPointNS_4lessIS1_EENS_9allocatorIS1_EEE12__find_equalIS1_EERPNS_16__tree_node_baseIPvEESC_RKT_
__ZNSt3__16__treeI10BreakPointNS_4lessIS1_EENS_9allocatorIS1_EEE13__lower_boundIS1_EENS_15__tree_iteratorIS1_PNS_11__tree_nodeIS1_PvEEiEERKT_SC_SC_
__ZNSt3__16__treeI10BreakPointNS_4lessIS1_EENS_9allocatorIS1_EEE15__insert_uniqueERKS1_
__ZNSt3__16__treeI10BreakPointNS_4lessIS1_EENS_9allocatorIS1_EEE16__construct_nodeIJRKS1_EEENS_10unique_ptrINS_11__tree_nodeIS1_PvEENS_22__tree_node_destructorINS4_ISD_EEEEEEDpOT_
__ZNSt3__16__treeI10BreakPointNS_4lessIS1_EENS_9allocatorIS1_EEE4findIS1_EENS_15__tree_iteratorIS1_PNS_11__tree_nodeIS1_PvEEiEERKT_
__ZNSt3__16__treeI10BreakPointNS_4lessIS1_EENS_9allocatorIS1_EEE7destroyEPNS_11__tree_nodeIS1_PvEE
__ZNSt3__16__treeI5WatchNS_4lessIS1_EENS_9allocatorIS1_EEE15__insert_uniqueERKS1_
__ZNSt3__16__treeI5WatchNS_4lessIS1_EENS_9allocatorIS1_EEE16__construct_nodeIJRKS1_EEENS_10unique_ptrINS_11__tree_nodeIS1_PvEENS_22__tree_node_destructorINS4_ISD_EEEEEEDpOT_
__ZNSt3__16__treeI5WatchNS_4lessIS1_EENS_9allocatorIS1_EEE7destroyEPNS_11__tree_nodeIS1_PvEE
__ZNSt3__16vectorIcNS_9allocatorIcEEE8__appendEm
__ZSt9terminatev
__ZTI10IAppSystem
__ZTI10SQInstance
__ZTI10SQUserData
__ZTI11CSquirrelVM
__ZTI11SQDelegable
__ZTI11SQGenerator
__ZTI12CEmptyConVar
__ZTI12SQRefCounted
__ZTI13SQCollectable
__ZTI14CBaseAppSystemI14IScriptManagerE
__ZTI14CScriptManager
__ZTI14ConCommandBase
__ZTI14IScriptManager
__ZTI15CScopedIterator
__ZTI15CTier0AppSystemI14IScriptManagerE
__ZTI15CTier1AppSystemI14IScriptManagerLi0EE
__ZTI15SQFunctionProto
__ZTI15SQNativeClosure
__ZTI16CDefaultAccessor
__ZTI16CSQStateIterator
__ZTI18CUtlCharConversion
__ZTI19CUtlNoEscConversion
__ZTI21CUtlCStringConversion
__ZTI23IConCommandBaseAccessor
__ZTI4SQVM
__ZTI6ConVar
__ZTI6SQBlob
__ZTI7IConVar
__ZTI7SQArray
__ZTI7SQClass
__ZTI7SQOuter
__ZTI7SQTable
__ZTI8CFmtStrNILi256ELb0EE
__ZTI8SQStream
__ZTI8SQString
__ZTI9IScriptVM
__ZTI9SQClosure
__ZTI9SQWeakRef
__ZTISt9bad_alloc
__ZTS10IAppSystem
__ZTS10SQInstance
__ZTS10SQUserData
__ZTS11CSquirrelVM
__ZTS11SQDelegable
__ZTS11SQGenerator
__ZTS12CEmptyConVar
__ZTS12SQRefCounted
__ZTS13SQCollectable
__ZTS14CBaseAppSystemI14IScriptManagerE
__ZTS14CScriptManager
__ZTS14ConCommandBase
__ZTS14IScriptManager
__ZTS15CScopedIterator
__ZTS15CTier0AppSystemI14IScriptManagerE
__ZTS15CTier1AppSystemI14IScriptManagerLi0EE
__ZTS15SQFunctionProto
__ZTS15SQNativeClosure
__ZTS16CDefaultAccessor
__ZTS16CSQStateIterator
__ZTS18CUtlCharConversion
__ZTS19CUtlNoEscConversion
__ZTS21CUtlCStringConversion
__ZTS23IConCommandBaseAccessor
__ZTS4SQVM
__ZTS6ConVar
__ZTS6SQBlob
__ZTS7IConVar
__ZTS7SQArray
__ZTS7SQClass
__ZTS7SQOuter
__ZTS7SQTable
__ZTS8CFmtStrNILi256ELb0EE
__ZTS8SQStream
__ZTS8SQString
__ZTS9IScriptVM
__ZTS9SQClosure
__ZTS9SQWeakRef
__ZTV10SQInstance
__ZTV10SQUserData
__ZTV11CSquirrelVM
__ZTV11SQGenerator
__ZTV12CEmptyConVar
__ZTV12SQRefCounted
__ZTV14CScriptManager
__ZTV15CScopedIterator
__ZTV15SQFunctionProto
__ZTV15SQNativeClosure
__ZTV16CDefaultAccessor
__ZTV18CUtlCharConversion
__ZTV19CUtlNoEscConversion
__ZTV21CUtlCStringConversion
__ZTV4SQVM
__ZTV6ConVar
__ZTV6SQBlob
__ZTV7SQArray
__ZTV7SQClass
__ZTV7SQOuter
__ZTV7SQTable
__ZTV8CFmtStrNILi256ELb0EE
__ZTV8SQString
__ZTV9SQClosure
__ZTV9SQWeakRef
__ZTVN10__cxxabiv117__class_type_infoE
__ZTVN10__cxxabiv120__si_class_type_infoE
__ZTVN10__cxxabiv121__vmi_class_type_infoE
__ZThn24_N12CEmptyConVar8SetValueEPKc
__ZThn24_N12CEmptyConVar8SetValueEf
__ZThn24_N12CEmptyConVar8SetValueEi
__ZThn24_N6ConVar8SetValueEPKc
__ZThn24_N6ConVar8SetValueEf
__ZThn24_N6ConVar8SetValueEi
__ZThn24_NK12CEmptyConVar7GetNameEv
__ZThn24_NK12CEmptyConVar9IsFlagSetEi
__ZThn24_NK6ConVar7GetNameEv
__ZThn24_NK6ConVar9IsFlagSetEi
__ZZ11IntToStringiE4temp
__ZZ11QuatIterateP4SQVME7results
__ZZ13QAngleIterateP4SQVME7results
__ZZ13VectorIterateP4SQVME7results
__ZZ15Vector2DIterateP4SQVME7results
__ZZ15Vector4DIterateP4SQVME7results
__ZZ23GetMetamethodIdentifier12SQMetaMethodE12pIdentifiers
__ZZL9PrintTabsiE5pTabs
__ZZN10CUtlSymbol10InitializeEvE18symbolsInitialized
__ZZN11SQDbgServer12SuperVerboseEvE10s_bVerbose
__ZZN11SQDbgServer15ParseBreakpointEPKcR10BreakPointE5stemp
__ZZN14CScriptManager8CreateVME16ScriptLanguage_tE7binding
__ZZN14CScriptManager8CreateVME16ScriptLanguage_tE7binding_0
__ZZN8CFmtStrNILi256ELb0EEC1EPKczE10scAsserted
__ZZN9ConVarRef4InitEPKcbE6bFirst
__ZdaPv
__ZdlPv
__Znam
__Znwm
___bzero
___clang_call_terminate
___cxa_atexit
___cxa_begin_catch
___cxa_call_unexpected
___cxa_guard_abort
___cxa_guard_acquire
___cxa_guard_release
___cxa_pure_virtual
___gxx_personality_v0
___maskrune
___stack_chk_fail
___stack_chk_guard
___tolower
___toupper
_acosf
_asin
_asinf
_atan2
_atan2f
_atanf
_atof
_atoi
_bind$UNIX2003
_ceilf
_close$UNIX2003
_cosf
_cvar
_expf
_floorf
_fmod
_free
_g_ClockSpeedMillisecondsMultiplier
_g_QAngleFuncs
_g_QuatFuncs
_g_VProfCurrentProfile
_g_Vector2DFuncs
_g_Vector4DFuncs
_g_VectorFuncs
_g_bSqDbgTerminateScript
_g_escapes
_g_pCVar
_g_pMemAlloc
_g_pProcessUtils
_log10f
_logf
_longjmp
_malloc
_memcmp
_memcpy
_memmove
_pow
_pthread_mutex_destroy
_pthread_mutex_init
_pthread_mutex_lock
_pthread_mutex_unlock
_pthread_mutexattr_init
_pthread_mutexattr_settype
_rand
_recv$UNIX2003
_s_NoEscConversion
_s_StringCharConversion
_select$DARWIN_EXTSN
_send$UNIX2003
_setjmp
_sin
_sinf
_snprintf
_socket
_sq_addref
_sq_arrayappend
_sq_arraypop
_sq_arrayreverse
_sq_bindenv
_sq_call
_sq_clear
_sq_close
_sq_collectgarbage
_sq_compile
_sq_compilebuffer
_sq_createinstance
_sq_deleteslot
_sq_enabledebuginfo
_sq_get
_sq_getattributes
_sq_getbase
_sq_getbool
_sq_getclass
_sq_getclosureroot
_sq_getdelegate
_sq_getehandle
_sq_geterrorfunc
_sq_getfloat
_sq_getinstanceup
_sq_getinteger
_sq_getlocal
_sq_getprintfunc
_sq_getscratchpad
_sq_getsize
_sq_getstackobj
_sq_getstring
_sq_getstringandsize
_sq_gettop
_sq_gettype
_sq_getuserdata
_sq_getuserpointer
_sq_getutlstringtoken
_sq_getvmstate
_sq_getweakrefval
_sq_move
_sq_newarray
_sq_newclass
_sq_newclosure
_sq_newmember
_sq_newslot
_sq_newtable
_sq_newthread
_sq_newuserdata
_sq_next
_sq_objtobool
_sq_open
_sq_pop
_sq_poptop
_sq_push
_sq_pushbool
_sq_pushehandle
_sq_pushfloat
_sq_pushinteger
_sq_pushnull
_sq_pushobject
_sq_pushregistrytable
_sq_pushroottable
_sq_pushstring
_sq_pushuserpointer
_sq_rawdeleteslot
_sq_rawget
_sq_rawnewmember
_sq_rawset
_sq_rdbg_init
_sq_rdbg_shutdown
_sq_rdbg_update
_sq_rdbg_waitforconnections
_sq_release
_sq_remove
_sq_reservestack
_sq_reseterror
_sq_resetobject
_sq_resurrectunreachable
_sq_set
_sq_setattributes
_sq_setclosureroot
_sq_setcompilererrorhandler
_sq_setconsttable
_sq_setdebughook
_sq_setdelegate
_sq_seterrorhandler
_sq_setinstanceup
_sq_setnativeclosurename
_sq_setparamscheck
_sq_setprintfunc
_sq_setreleasehook
_sq_setroottable
_sq_settop
_sq_settypetag
_sq_stackinfos
_sq_suspendvm
_sq_tailcall
_sq_throwerror
_sq_throwobject
_sq_tobool
_sq_tostring
_sq_wakeupvm
_sq_weakref
_sqstd_createblob
_sqstd_format
_sqstd_getblob
_sqstd_getblobsize
_sqstd_printcallstack
_sqstd_register_bloblib
_sqstd_register_mathlib
_sqstd_register_stringlib
_sqstd_rex_compile
_sqstd_rex_free
_sqstd_rex_getsubexp
_sqstd_rex_getsubexpcount
_sqstd_rex_match
_sqstd_rex_search
_sqstd_seterrorhandlers
_srand
_strcasecmp
_strcmp
_strcpy
_strlen
_strstr
_strtod$UNIX2003
_strtol
_strtoul
_tanf
_vscript_perf_warning_spew_ms
_vsnprintf
dyld_stub_binder
